(lp0
Naccopy_reg
_reconstructor
p1
(ctutorial.items
BeckettItem
p2
c__builtin__
object
p3
Ntp4
Rp5
(dp6
S'_values'
p7
(dp8
S'originalItemDescription'
p9
V1997-98 E-X2001 Essential Credentials Future #34 Christian Laettner/47
p10
sS'serialNumber'
p11
I47
sS'setName'
p12
VE-X2001 Essential Credentials Future
p13
sS'beckettLink'
p14
(lp15
Vhttp://www.beckett.com/basketball/1997-98/e-x2001-essential-credentials-future/34-christian-laettner47-3144620
p16
asS'team'
p17
S'Atlanta Hawks'
p18
sS'imageLink'
p19
(lp20
Vhttp://img.beckett.com/images/no-image.jpg
p21
asS'cardNumber'
p22
V#34
p23
sS'year'
p24
V1997-98
p25
sS'sport'
p26
S'Basketball'
p27
sS'playerNames'
p28
(lp29
VChristian Laettner
p30
assbag1
(g2
g3
Ntp31
Rp32
(dp33
g7
(dp34
g9
V1997-98 E-X2001 Essential Credentials Future #47 Steve Smith/34
p35
sg11
I34
sg12
VE-X2001 Essential Credentials Future
p36
sg14
(lp37
Vhttp://www.beckett.com/basketball/1997-98/e-x2001-essential-credentials-future/47-steve-smith34-3144633
p38
asg17
g18
sg19
(lp39
Vhttp://img.beckett.com/images/no-image.jpg
p40
asg22
V#47
p41
sg24
V1997-98
p42
sg26
g27
sg28
(lp43
VSteve Smith
p44
assbag1
(g2
g3
Ntp45
Rp46
(dp47
g7
(dp48
g9
V1997-98 E-X2001 Essential Credentials Future #49 Dikembe Mutombo/32
p49
sg11
I32
sg12
VE-X2001 Essential Credentials Future
p50
sg14
(lp51
Vhttp://www.beckett.com/basketball/1997-98/e-x2001-essential-credentials-future/49-dikembe-mutombo32-3144635
p52
asg17
g18
sg19
(lp53
Vhttp://img.beckett.com/images/no-image.jpg
p54
asg22
V#49
p55
sg24
V1997-98
p56
sg26
g27
sg28
(lp57
VDikembe Mutombo
p58
assbag1
(g2
g3
Ntp59
Rp60
(dp61
g7
(dp62
g9
V1997-98 E-X2001 Essential Credentials Now #34 Christian Laettner/34
p63
sg11
I34
sg12
VE-X2001 Essential Credentials Now
p64
sg14
(lp65
Vhttp://www.beckett.com/basketball/1997-98/e-x2001-essential-credentials-now/34-christian-laettner34-3144707
p66
asg17
g18
sg19
(lp67
Vhttp://img.beckett.com/images/no-image.jpg
p68
asg22
V#34
p69
sg24
V1997-98
p70
sg26
g27
sg28
(lp71
VChristian Laettner
p72
assbag1
(g2
g3
Ntp73
Rp74
(dp75
g7
(dp76
g9
V1997-98 E-X2001 Essential Credentials Now #47 Steve Smith/47
p77
sg11
I47
sg12
VE-X2001 Essential Credentials Now
p78
sg14
(lp79
Vhttp://www.beckett.com/basketball/1997-98/e-x2001-essential-credentials-now/47-steve-smith47-3144720
p80
asg17
g18
sg19
(lp81
Vhttp://img.beckett.com/images/no-image.jpg
p82
asg22
V#47
p83
sg24
V1997-98
p84
sg26
g27
sg28
(lp85
VSteve Smith
p86
assbag1
(g2
g3
Ntp87
Rp88
(dp89
g7
(dp90
g9
V1997-98 E-X2001 Essential Credentials Now #49 Dikembe Mutombo/49
p91
sg11
I49
sg12
VE-X2001 Essential Credentials Now
p92
sg14
(lp93
Vhttp://www.beckett.com/basketball/1997-98/e-x2001-essential-credentials-now/49-dikembe-mutombo49-3144722
p94
asg17
g18
sg19
(lp95
Vhttp://img.beckett.com/images/no-image.jpg
p96
asg22
V#49
p97
sg24
V1997-98
p98
sg26
g27
sg28
(lp99
VDikembe Mutombo
p100
assbag1
(g2
g3
Ntp101
Rp102
(dp103
g7
(dp104
g9
V1997-98 Finest Embossed Refractors #123 Dikembe Mutombo S
p105
sg11
I263
sg12
VFinest Embossed Refractors
p106
sg14
(lp107
Vhttp://www.beckett.com/basketball/1997-98/finest-embossed-refractors/123-dikembe-mutombo-s-3145331
p108
asg17
g18
sg19
(lp109
Vhttp://img.beckett.com/images/no-image.jpg
p110
asg22
V#123
p111
sg24
V1997-98
p112
sS'subsetName'
p113
VS
p114
sg26
g27
sg28
(lp115
VDikembe Mutombo
p116
assbag1
(g2
g3
Ntp117
Rp118
(dp119
g7
(dp120
g9
V1997-98 Finest Embossed Refractors #160 Christian Laettner G
p121
sg11
I74
sg12
VFinest Embossed Refractors
p122
sg14
(lp123
Vhttp://www.beckett.com/basketball/1997-98/finest-embossed-refractors/160-christian-laettner-g-3145368
p124
asg17
g18
sg19
(lp125
Vhttp://img.beckett.com/images/no-image.jpg
p126
asg22
V#160
p127
sg24
V1997-98
p128
sg113
VG
p129
sg26
g27
sg28
(lp130
VChristian Laettner
p131
assbag1
(g2
g3
Ntp132
Rp133
(dp134
g7
(dp135
g9
V1997-98 Finest Embossed Refractors #279 Steve Smith S
p136
sg11
I263
sg12
VFinest Embossed Refractors
p137
sg14
(lp138
Vhttp://www.beckett.com/basketball/1997-98/finest-embossed-refractors/279-steve-smith-s-3145387
p139
asg17
g18
sg19
(lp140
Vhttp://img.beckett.com/images/no-image.jpg
p141
asg22
V#279
p142
sg24
V1997-98
p143
sg113
g114
sg26
g27
sg28
(lp144
Vteve mith
p145
assbag1
(g2
g3
Ntp146
Rp147
(dp148
g7
(dp149
g9
V1997-98 Finest Embossed Refractors #283 Christian Laettner S
p150
sg11
I263
sg12
VFinest Embossed Refractors
p151
sg14
(lp152
Vhttp://www.beckett.com/basketball/1997-98/finest-embossed-refractors/283-christian-laettner-s-3145391
p153
asg17
g18
sg19
(lp154
Vhttp://img.beckett.com/images/items_stock/185226/3145306/3145391/front.jpg
p155
asg22
V#283
p156
sg24
V1997-98
p157
sg113
g114
sg26
g27
sg28
(lp158
VChristian Laettner
p159
assbag1
(g2
g3
Ntp160
Rp161
(dp162
g7
(dp163
g9
V1997-98 Finest Embossed Refractors #307 Dikembe Mutombo G
p164
sg11
I74
sg12
VFinest Embossed Refractors
p165
sg14
(lp166
Vhttp://www.beckett.com/basketball/1997-98/finest-embossed-refractors/307-dikembe-mutombo-g-3145415
p167
asg17
g18
sg19
(lp168
Vhttp://img.beckett.com/images/no-image.jpg
p169
asg22
V#307
p170
sg24
V1997-98
p171
sg113
g129
sg26
g27
sg28
(lp172
VDikembe Mutombo
p173
assbag1
(g2
g3
Ntp174
Rp175
(dp176
g7
(dp177
g9
V1997-98 Finest Refractors #123 Dikembe Mutombo S
p178
sg11
I1090
sg12
VFinest Refractors
p179
sg14
(lp180
Vhttp://www.beckett.com/basketball/1997-98/finest-refractors/123-dikembe-mutombo-s-3145589
p181
asg17
g18
sg19
(lp182
Vhttp://img.beckett.com/images/items_stock/185226/3145435/3145589/front.jpg
p183
asg22
V#123
p184
sg24
V1997-98
p185
sg113
g114
sg26
g27
sg28
(lp186
VDikembe Mutombo
p187
assbag1
(g2
g3
Ntp188
Rp189
(dp190
g7
(dp191
g9
V1997-98 Finest Refractors #160 Christian Laettner G
p192
sg11
I289
sg12
VFinest Refractors
p193
sg14
(lp194
Vhttp://www.beckett.com/basketball/1997-98/finest-refractors/160-christian-laettner-g-3145626
p195
asg17
g18
sg19
(lp196
Vhttp://img.beckett.com/images/items_stock/185226/3145435/3145626/front.jpg
p197
asg22
V#160
p198
sg24
V1997-98
p199
sg113
g129
sg26
g27
sg28
(lp200
VChristian Laettner
p201
assbag1
(g2
g3
Ntp202
Rp203
(dp204
g7
(dp205
g9
V1997-98 Finest Refractors #279 Steve Smith S
p206
sg11
I1090
sg12
VFinest Refractors
p207
sg14
(lp208
Vhttp://www.beckett.com/basketball/1997-98/finest-refractors/279-steve-smith-s-3145745
p209
asg17
g18
sg19
(lp210
Vhttp://img.beckett.com/images/items_stock/185226/3145435/3145745/front.jpg
p211
asg22
V#279
p212
sg24
V1997-98
p213
sg113
g114
sg26
g27
sg28
(lp214
Vteve mith
p215
assbag1
(g2
g3
Ntp216
Rp217
(dp218
g7
(dp219
g9
V1997-98 Finest Refractors #283 Christian Laettner S
p220
sg11
I1090
sg12
VFinest Refractors
p221
sg14
(lp222
Vhttp://www.beckett.com/basketball/1997-98/finest-refractors/283-christian-laettner-s-3145749
p223
asg17
g18
sg19
(lp224
Vhttp://img.beckett.com/images/items_stock/185226/3145435/3145749/front.jpg
p225
asg22
V#283
p226
sg24
V1997-98
p227
sg113
g114
sg26
g27
sg28
(lp228
VChristian Laettner
p229
assbag1
(g2
g3
Ntp230
Rp231
(dp232
g7
(dp233
g9
V1997-98 Finest Refractors #307 Dikembe Mutombo G
p234
sg11
I289
sg12
VFinest Refractors
p235
sg14
(lp236
Vhttp://www.beckett.com/basketball/1997-98/finest-refractors/307-dikembe-mutombo-g-3145773
p237
asg17
g18
sg19
(lp238
Vhttp://img.beckett.com/images/items_stock/185226/3145435/3145773/front.jpg
p239
asg22
V#307
p240
sg24
V1997-98
p241
sg113
g129
sg26
g27
sg28
(lp242
VDikembe Mutombo
p243
assbag1
(g2
g3
Ntp244
Rp245
(dp246
g7
(dp247
g9
V1997-98 Flair Showcase Row 0 #42 Dikembe Mutombo
p248
sg11
I1000
sg12
VFlair Showcase Row 0
p249
sg14
(lp250
Vhttp://www.beckett.com/basketball/1997-98/flair-showcase-row-0/42-dikembe-mutombo-3146140
p251
asg17
g18
sg19
(lp252
Vhttp://img.beckett.com/images/items_stock/185226/3146075/3146140/front.jpg
p253
asg22
V#42
p254
sg24
V1997-98
p255
sg26
g27
sg28
(lp256
VDikembe Mutombo
p257
assbag1
(g2
g3
Ntp258
Rp259
(dp260
g7
(dp261
g9
V1997-98 Flair Showcase Row 0 #51 Mookie Blaylock
p262
sg11
I1000
sg12
VFlair Showcase Row 0
p263
sg14
(lp264
Vhttp://www.beckett.com/basketball/1997-98/flair-showcase-row-0/51-mookie-blaylock-3146149
p265
asg17
g18
sg19
(lp266
Vhttp://img.beckett.com/images/items_stock/185226/3146075/3146149/front.jpg
p267
asg22
V#51
p268
sg24
V1997-98
p269
sg26
g27
sg28
(lp270
VMookie Blaylock
p271
assbag1
(g2
g3
Ntp272
Rp273
(dp274
g7
(dp275
g9
V1997-98 Flair Showcase Row 0 #58 Steve Smith
p276
sg11
I1000
sg12
VFlair Showcase Row 0
p277
sg14
(lp278
Vhttp://www.beckett.com/basketball/1997-98/flair-showcase-row-0/58-steve-smith-3146156
p279
asg17
g18
sg19
(lp280
Vhttp://img.beckett.com/images/no-image.jpg
p281
asg22
V#58
p282
sg24
V1997-98
p283
sg26
g27
sg28
(lp284
VSteve Smith
p285
assbag1
(g2
g3
Ntp286
Rp287
(dp288
g7
(dp289
g9
V1997-98 Flair Showcase Legacy Collection Row 3 #42 Dikembe Mutombo
p290
sg11
I100
sg12
VFlair Showcase Legacy Collection Row 3
p291
sg14
(lp292
Vhttp://www.beckett.com/basketball/1997-98/flair-showcase-legacy-collection-row-3/42-dikembe-mutombo-3148600
p293
asg17
g18
sg19
(lp294
Vhttp://img.beckett.com/images/no-image.jpg
p295
asg22
V#42
p296
sg24
V1997-98
p297
sg26
g27
sg28
(lp298
VDikembe Mutombo
p299
assbag1
(g2
g3
Ntp300
Rp301
(dp302
g7
(dp303
g9
V1997-98 Flair Showcase Legacy Collection Row 3 #51 Mookie Blaylock
p304
sg11
I100
sg12
VFlair Showcase Legacy Collection Row 3
p305
sg14
(lp306
Vhttp://www.beckett.com/basketball/1997-98/flair-showcase-legacy-collection-row-3/51-mookie-blaylock-3148609
p307
asg17
g18
sg19
(lp308
Vhttp://img.beckett.com/images/no-image.jpg
p309
asg22
V#51
p310
sg24
V1997-98
p311
sg26
g27
sg28
(lp312
VMookie Blaylock
p313
assbag1
(g2
g3
Ntp314
Rp315
(dp316
g7
(dp317
g9
V1997-98 Flair Showcase Legacy Collection Row 3 #58 Steve Smith
p318
sg11
I100
sg12
VFlair Showcase Legacy Collection Row 3
p319
sg14
(lp320
Vhttp://www.beckett.com/basketball/1997-98/flair-showcase-legacy-collection-row-3/58-steve-smith-3148616
p321
asg17
g18
sg19
(lp322
Vhttp://img.beckett.com/images/no-image.jpg
p323
asg22
V#58
p324
sg24
V1997-98
p325
sg26
g27
sg28
(lp326
VSteve Smith
p327
assbag1
(g2
g3
Ntp328
Rp329
(dp330
g7
(dp331
g9
V1997-98 Metal Universe Precious Metal Gems #6 Steve Smith
p332
sg11
I90
sg12
VMetal Universe Precious Metal Gems
p333
sg14
(lp334
Vhttp://www.beckett.com/basketball/1997-98/metal-universe-precious-metal-gems/6-steve-smith-3142597
p335
asg17
g18
sg19
(lp336
Vhttp://img.beckett.com/images/no-image.jpg
p337
asg22
V#6
p338
sg24
V1997-98
p339
sg26
g27
sg28
(lp340
VSteve Smith
p341
assbag1
(g2
g3
Ntp342
Rp343
(dp344
g7
(dp345
g9
V1997-98 Metal Universe Precious Metal Gems #106 Dikembe Mutombo
p346
sg11
I90
sg12
VMetal Universe Precious Metal Gems
p347
sg14
(lp348
Vhttp://www.beckett.com/basketball/1997-98/metal-universe-precious-metal-gems/106-dikembe-mutombo-3142698
p349
asg17
g18
sg19
(lp350
Vhttp://img.beckett.com/images/no-image.jpg
p351
asg22
V#106
p352
sg24
V1997-98
p353
sg26
g27
sg28
(lp354
VDikembe Mutombo
p355
assbag1
(g2
g3
Ntp356
Rp357
(dp358
g7
(dp359
g9
V1997-98 Metal Universe Precious Metal Gems #110 Christian Laettner
p360
sg11
I90
sg12
VMetal Universe Precious Metal Gems
p361
sg14
(lp362
Vhttp://www.beckett.com/basketball/1997-98/metal-universe-precious-metal-gems/110-christian-laettner-3142702
p363
asg17
g18
sg19
(lp364
Vhttp://img.beckett.com/images/no-image.jpg
p365
asg22
V#110
p366
sg24
V1997-98
p367
sg26
g27
sg28
(lp368
VChristian Laettner
p369
assbag1
(g2
g3
Ntp370
Rp371
(dp372
g7
(dp373
g9
V1997-98 Metal Universe Precious Metal Gems #120 Mookie Blaylock
p374
sg11
I90
sg12
VMetal Universe Precious Metal Gems
p375
sg14
(lp376
Vhttp://www.beckett.com/basketball/1997-98/metal-universe-precious-metal-gems/120-mookie-blaylock-3142712
p377
asg17
g18
sg19
(lp378
Vhttp://img.beckett.com/images/no-image.jpg
p379
asg22
V#120
p380
sg24
V1997-98
p381
sg26
g27
sg28
(lp382
VMookie Blaylock
p383
assbag1
(g2
g3
Ntp384
Rp385
(dp386
g7
(dp387
g9
V1997-98 Metal Universe Championship Precious Metal Gems #12 Steve Smith
p388
sg11
I50
sg12
VMetal Universe Championship Precious Metal Gems
p389
sg14
(lp390
Vhttp://www.beckett.com/basketball/1997-98/metal-universe-championship-precious-metal-gems/12-steve-smith-3140687
p391
asg17
g18
sg19
(lp392
Vhttp://img.beckett.com/images/no-image.jpg
p393
asg22
V#12
p394
sg24
V1997-98
p395
sg26
g27
sg28
(lp396
VSteve Smith
p397
assbag1
(g2
g3
Ntp398
Rp399
(dp400
g7
(dp401
g9
V1997-98 Metal Universe Championship Precious Metal Gems #60 Chris Crawford
p402
sg11
I50
sg12
VMetal Universe Championship Precious Metal Gems
p403
sg14
(lp404
Vhttp://www.beckett.com/basketball/1997-98/metal-universe-championship-precious-metal-gems/60-chris-crawford-3140735
p405
asg17
g18
sg19
(lp406
Vhttp://img.beckett.com/images/no-image.jpg
p407
asg22
V#60
p408
sg24
V1997-98
p409
sg26
g27
sg28
(lp410
VChris Crawford
p411
assbag1
(g2
g3
Ntp412
Rp413
(dp414
g7
(dp415
g9
V1997-98 Metal Universe Championship Precious Metal Gems #89 Mookie Blaylock
p416
sg11
I50
sg12
VMetal Universe Championship Precious Metal Gems
p417
sg14
(lp418
Vhttp://www.beckett.com/basketball/1997-98/metal-universe-championship-precious-metal-gems/89-mookie-blaylock-3140764
p419
asg17
g18
sg19
(lp420
Vhttp://img.beckett.com/images/no-image.jpg
p421
asg22
V#89
p422
sg24
V1997-98
p423
sg26
g27
sg28
(lp424
VMookie Blaylock
p425
assbag1
(g2
g3
Ntp426
Rp427
(dp428
g7
(dp429
g9
V1997-98 SkyBox Premium Star Rubies #27 Tyrone Corbin
p430
sg11
I50
sg12
VSkyBox Premium Star Rubies
p431
sg14
(lp432
Vhttp://www.beckett.com/basketball/1997-98/skybox-premium-star-rubies/27-tyrone-corbin-3141198
p433
asg17
g18
sg19
(lp434
Vhttp://img.beckett.com/images/no-image.jpg
p435
asg22
V#27
p436
sg24
V1997-98
p437
sg26
g27
sg28
(lp438
VTyrone Corbin
p439
assbag1
(g2
g3
Ntp440
Rp441
(dp442
g7
(dp443
g9
V1997-98 SkyBox Premium Star Rubies #69 Mookie Blaylock
p444
sg11
I50
sg12
VSkyBox Premium Star Rubies
p445
sg14
(lp446
Vhttp://www.beckett.com/basketball/1997-98/skybox-premium-star-rubies/69-mookie-blaylock-3141240
p447
asg17
g18
sg19
(lp448
Vhttp://img.beckett.com/images/no-image.jpg
p449
asg22
V#69
p450
sg24
V1997-98
p451
sg26
g27
sg28
(lp452
VMookie Blaylock
p453
assbag1
(g2
g3
Ntp454
Rp455
(dp456
g7
(dp457
g9
V1997-98 SkyBox Premium Star Rubies #74 Dikembe Mutombo
p458
sg11
I50
sg12
VSkyBox Premium Star Rubies
p459
sg14
(lp460
Vhttp://www.beckett.com/basketball/1997-98/skybox-premium-star-rubies/74-dikembe-mutombo-3141245
p461
asg17
g18
sg19
(lp462
Vhttp://img.beckett.com/images/no-image.jpg
p463
asg22
V#74
p464
sg24
V1997-98
p465
sg26
g27
sg28
(lp466
VDikembe Mutombo
p467
assbag1
(g2
g3
Ntp468
Rp469
(dp470
g7
(dp471
g9
V1997-98 SkyBox Premium Star Rubies #84 Steve Smith
p472
sg11
I50
sg12
VSkyBox Premium Star Rubies
p473
sg14
(lp474
Vhttp://www.beckett.com/basketball/1997-98/skybox-premium-star-rubies/84-steve-smith-3141255
p475
asg17
g18
sg19
(lp476
Vhttp://img.beckett.com/images/no-image.jpg
p477
asg22
V#84
p478
sg24
V1997-98
p479
sg26
g27
sg28
(lp480
VSteve Smith
p481
assbag1
(g2
g3
Ntp482
Rp483
(dp484
g7
(dp485
g9
V1997-98 SkyBox Premium Star Rubies #105 Christian Laettner
p486
sg11
I50
sg12
VSkyBox Premium Star Rubies
p487
sg14
(lp488
Vhttp://www.beckett.com/basketball/1997-98/skybox-premium-star-rubies/105-christian-laettner-3141276
p489
asg17
g18
sg19
(lp490
Vhttp://img.beckett.com/images/no-image.jpg
p491
asg22
V#105
p492
sg24
V1997-98
p493
sg26
g27
sg28
(lp494
VChristian Laettner
p495
assbag1
(g2
g3
Ntp496
Rp497
(dp498
g7
(dp499
g9
V1997-98 SkyBox Premium Star Rubies #132 Eldridge Recasner
p500
sg11
I50
sg12
VSkyBox Premium Star Rubies
p501
sg14
(lp502
Vhttp://www.beckett.com/basketball/1997-98/skybox-premium-star-rubies/132-eldridge-recasner-3141301
p503
asg17
g18
sg19
(lp504
Vhttp://img.beckett.com/images/no-image.jpg
p505
asg22
V#132
p506
sg24
V1997-98
p507
sg26
g27
sg28
(lp508
VEldridge Recasner
p509
assbag1
(g2
g3
Ntp510
Rp511
(dp512
g7
(dp513
g9
V1997-98 SkyBox Premium Star Rubies #136 Alan Henderson
p514
sg11
I50
sg12
VSkyBox Premium Star Rubies
p515
sg14
(lp516
Vhttp://www.beckett.com/basketball/1997-98/skybox-premium-star-rubies/136-alan-henderson-3141305
p517
asg17
g18
sg19
(lp518
Vhttp://img.beckett.com/images/no-image.jpg
p519
asg22
V#136
p520
sg24
V1997-98
p521
sg26
g27
sg28
(lp522
VAlan Henderson
p523
assbag1
(g2
g3
Ntp524
Rp525
(dp526
g7
(dp527
g9
V1997-98 SkyBox Premium Star Rubies #154 Chris Crawford
p528
sg11
I50
sg12
VSkyBox Premium Star Rubies
p529
sg14
(lp530
Vhttp://www.beckett.com/basketball/1997-98/skybox-premium-star-rubies/154-chris-crawford-3141323
p531
asg17
g18
sg19
(lp532
Vhttp://img.beckett.com/images/no-image.jpg
p533
asg22
V#154
p534
sg24
V1997-98
p535
sg26
g27
sg28
(lp536
VChris Crawford
p537
assbag1
(g2
g3
Ntp538
Rp539
(dp540
g7
(dp541
g9
V1997-98 SkyBox Premium Star Rubies #198 Ed Gray
p542
sg11
I50
sg12
VSkyBox Premium Star Rubies
p543
sg14
(lp544
Vhttp://www.beckett.com/basketball/1997-98/skybox-premium-star-rubies/198-ed-gray-3141367
p545
asg17
g18
sg19
(lp546
Vhttp://img.beckett.com/images/no-image.jpg
p547
asg22
V#198
p548
sg24
V1997-98
p549
sg26
g27
sg28
(lp550
VEd Gray
p551
assbag1
(g2
g3
Ntp552
Rp553
(dp554
g7
(dp555
g9
V1997-98 SkyBox Premium Autographics Century Marks #79 Dikembe Mutombo
p556
sg11
I100
sg12
VSkyBox Premium Autographics Century Marks
p557
sg14
(lp558
Vhttp://www.beckett.com/basketball/1997-98/skybox-premium-autographics-century-marks/79-dikembe-mutombo-3141661
p559
asg17
g18
sg19
(lp560
Vhttp://img.beckett.com/images/no-image.jpg
p561
asg22
V#79
p562
sS'autograph'
p563
I1
sg24
V1997-98
p564
sg26
g27
sg28
(lp565
VDikembe Mutombo
p566
assbag1
(g2
g3
Ntp567
Rp568
(dp569
g7
(dp570
g9
V1997-98 SPx Grand Finale #1 Mookie Blaylock
p571
sg11
I50
sg12
VSPx Grand Finale
p572
sg14
(lp573
Vhttp://www.beckett.com/basketball/1997-98/spx-grand-finale/1-mookie-blaylock-3137685
p574
asg17
g18
sg19
(lp575
Vhttp://img.beckett.com/images/no-image.jpg
p576
asg22
V#1
p577
sg24
V1997-98
p578
sg26
g27
sg28
(lp579
VMookie Blaylock
p580
assbag1
(g2
g3
Ntp581
Rp582
(dp583
g7
(dp584
g9
V1997-98 SPx Grand Finale #2 Dikembe Mutombo
p585
sg11
I50
sg12
VSPx Grand Finale
p586
sg14
(lp587
Vhttp://www.beckett.com/basketball/1997-98/spx-grand-finale/2-dikembe-mutombo-3137686
p588
asg17
g18
sg19
(lp589
Vhttp://img.beckett.com/images/no-image.jpg
p590
asg22
V#2
p591
sg24
V1997-98
p592
sg26
g27
sg28
(lp593
VDikembe Mutombo
p594
assbag1
(g2
g3
Ntp595
Rp596
(dp597
g7
(dp598
g9
V1997-98 Stadium Club One Of A Kind #26 Tyrone Corbin
p599
sg11
I150
sg12
VStadium Club One Of A Kind
p600
sg14
(lp601
Vhttp://www.beckett.com/basketball/1997-98/stadium-club-one-of-a-kind/26-tyrone-corbin-3138325
p602
asg17
g18
sg19
(lp603
Vhttp://img.beckett.com/images/items_stock/185226/3138288/3138325/front.jpg
p604
asg22
V#26
p605
sg24
V1997-98
p606
sg26
g27
sg28
(lp607
VTyrone Corbin
p608
assbag1
(g2
g3
Ntp609
Rp610
(dp611
g7
(dp612
g9
V1997-98 Stadium Club One Of A Kind #31 Christian Laettner
p613
sg11
I150
sg12
VStadium Club One Of A Kind
p614
sg14
(lp615
Vhttp://www.beckett.com/basketball/1997-98/stadium-club-one-of-a-kind/31-christian-laettner-3138330
p616
asg17
g18
sg19
(lp617
Vhttp://img.beckett.com/images/no-image.jpg
p618
asg22
V#31
p619
sg24
V1997-98
p620
sg26
g27
sg28
(lp621
VChristian Laettner
p622
assbag1
(g2
g3
Ntp623
Rp624
(dp625
g7
(dp626
g9
V1997-98 Stadium Club One Of A Kind #90 Steve Smith
p627
sg11
I150
sg12
VStadium Club One Of A Kind
p628
sg14
(lp629
Vhttp://www.beckett.com/basketball/1997-98/stadium-club-one-of-a-kind/90-steve-smith-3138389
p630
asg17
g18
sg19
(lp631
Vhttp://img.beckett.com/images/items_stock/185226/3138288/3138389/front.jpg
p632
asg22
V#90
p633
sg24
V1997-98
p634
sg26
g27
sg28
(lp635
VSteve Smith
p636
assbag1
(g2
g3
Ntp637
Rp638
(dp639
g7
(dp640
g9
V1997-98 Stadium Club One Of A Kind #97 Mookie Blaylock
p641
sg11
I150
sg12
VStadium Club One Of A Kind
p642
sg14
(lp643
Vhttp://www.beckett.com/basketball/1997-98/stadium-club-one-of-a-kind/97-mookie-blaylock-3138396
p644
asg17
g18
sg19
(lp645
Vhttp://img.beckett.com/images/no-image.jpg
p646
asg22
V#97
p647
sg24
V1997-98
p648
sg26
g27
sg28
(lp649
VMookie Blaylock
p650
assbag1
(g2
g3
Ntp651
Rp652
(dp653
g7
(dp654
g9
V1997-98 Stadium Club One Of A Kind #124 Dikembe Mutombo
p655
sg11
I150
sg12
VStadium Club One Of A Kind
p656
sg14
(lp657
Vhttp://www.beckett.com/basketball/1997-98/stadium-club-one-of-a-kind/124-dikembe-mutombo-3138423
p658
asg17
g18
sg19
(lp659
Vhttp://img.beckett.com/images/items_stock/185226/3138288/3138423/front.jpg
p660
asg22
V#124
p661
sg24
V1997-98
p662
sg26
g27
sg28
(lp663
VDikembe Mutombo
p664
assbag1
(g2
g3
Ntp665
Rp666
(dp667
g7
(dp668
g9
V1997-98 Stadium Club One Of A Kind #151 Alan Henderson
p669
sg11
I150
sg12
VStadium Club One Of A Kind
p670
sg14
(lp671
Vhttp://www.beckett.com/basketball/1997-98/stadium-club-one-of-a-kind/151-alan-henderson-3138450
p672
asg17
g18
sg19
(lp673
Vhttp://img.beckett.com/images/items_stock/185226/3138288/3138450/front.jpg
p674
asg22
V#151
p675
sg24
V1997-98
p676
sg26
g27
sg28
(lp677
VAlan Henderson
p678
assbag1
(g2
g3
Ntp679
Rp680
(dp681
g7
(dp682
g9
V1997-98 Stadium Club One Of A Kind #181 Eldridge Recasner
p683
sg11
I150
sg12
VStadium Club One Of A Kind
p684
sg14
(lp685
Vhttp://www.beckett.com/basketball/1997-98/stadium-club-one-of-a-kind/181-eldridge-recasner-3138480
p686
asg17
g18
sg19
(lp687
Vhttp://img.beckett.com/images/items_stock/185226/3138288/3138480/front.jpg
p688
asg22
V#181
p689
sg24
V1997-98
p690
sg26
g27
sg28
(lp691
VEldridge Recasner
p692
assbag1
(g2
g3
Ntp693
Rp694
(dp695
g7
(dp696
g9
V1997-98 Stadium Club One Of A Kind #235 Ed Gray
p697
sg11
I150
sg12
VStadium Club One Of A Kind
p698
sg14
(lp699
Vhttp://www.beckett.com/basketball/1997-98/stadium-club-one-of-a-kind/235-ed-gray-3138534
p700
asg17
g18
sg19
(lp701
Vhttp://img.beckett.com/images/items_stock/185226/3138288/3138534/front.jpg
p702
asg22
V#235
p703
sg24
V1997-98
p704
sg26
g27
sg28
(lp705
VEd Gray
p706
assbag1
(g2
g3
Ntp707
Rp708
(dp709
g7
(dp710
g9
V1997-98 Stadium Club Printing Plates #26 Tyrone Corbin Black
p711
sg11
I1
sg12
VStadium Club Printing Plates
p712
sg14
(lp713
Vhttp://www.beckett.com/basketball/1997-98/stadium-club-printing-plates/26-tyrone-corbin-black-3138645
p714
asg17
g18
sg19
(lp715
Vhttp://img.beckett.com/images/no-image.jpg
p716
asg22
V#26
p717
sg24
V1997-98
p718
sg26
g27
sg28
(lp719
VTyrone Corbin Black
p720
assbag1
(g2
g3
Ntp721
Rp722
(dp723
g7
(dp724
g9
V1997-98 Stadium Club Printing Plates #26A Tyrone Corbin Cyan
p725
sg11
I1
sg12
VStadium Club Printing Plates
p726
sg14
(lp727
Vhttp://www.beckett.com/basketball/1997-98/stadium-club-printing-plates/26a-tyrone-corbin-cyan-3138646
p728
asg17
g18
sg19
(lp729
Vhttp://img.beckett.com/images/no-image.jpg
p730
asg22
V#26A
p731
sg24
V1997-98
p732
sg26
g27
sg28
(lp733
VTyrone Corbin Cyan
p734
assbag1
(g2
g3
Ntp735
Rp736
(dp737
g7
(dp738
g9
V1997-98 Stadium Club Printing Plates #26B Tyrone Corbin Magenta
p739
sg11
I1
sg12
VStadium Club Printing Plates
p740
sg14
(lp741
Vhttp://www.beckett.com/basketball/1997-98/stadium-club-printing-plates/26b-tyrone-corbin-magenta-3138647
p742
asg17
g18
sg19
(lp743
Vhttp://img.beckett.com/images/no-image.jpg
p744
asg22
V#26B
p745
sg24
V1997-98
p746
sg26
g27
sg28
(lp747
VTyrone Corbin Magenta
p748
assbag1
(g2
g3
Ntp749
Rp750
(dp751
g7
(dp752
g9
V1997-98 Stadium Club Printing Plates #26C Tyrone Corbin Yellow
p753
sg11
I1
sg12
VStadium Club Printing Plates
p754
sg14
(lp755
Vhttp://www.beckett.com/basketball/1997-98/stadium-club-printing-plates/26c-tyrone-corbin-yellow-3138648
p756
asg17
g18
sg19
(lp757
Vhttp://img.beckett.com/images/no-image.jpg
p758
asg22
V#26C
p759
sg24
V1997-98
p760
sg26
g27
sg28
(lp761
VTyrone Corbin Yellow
p762
assbag1
(g2
g3
Ntp763
Rp764
(dp765
g7
(dp766
g9
V1997-98 Stadium Club Printing Plates #31 Christian Laettner Black
p767
sg11
I1
sg12
VStadium Club Printing Plates
p768
sg14
(lp769
Vhttp://www.beckett.com/basketball/1997-98/stadium-club-printing-plates/31-christian-laettner-black-3138665
p770
asg17
g18
sg19
(lp771
Vhttp://img.beckett.com/images/no-image.jpg
p772
asg22
V#31
p773
sg24
V1997-98
p774
sg26
g27
sg28
(lp775
VChristian Laettner Black
p776
assbag1
(g2
g3
Ntp777
Rp778
(dp779
g7
(dp780
g9
V1997-98 Stadium Club Printing Plates #31A Christian Laettner Cyan
p781
sg11
I1
sg12
VStadium Club Printing Plates
p782
sg14
(lp783
Vhttp://www.beckett.com/basketball/1997-98/stadium-club-printing-plates/31a-christian-laettner-cyan-3138666
p784
asg17
g18
sg19
(lp785
Vhttp://img.beckett.com/images/no-image.jpg
p786
asg22
V#31A
p787
sg24
V1997-98
p788
sg26
g27
sg28
(lp789
VChristian Laettner Cyan
p790
assbag1
(g2
g3
Ntp791
Rp792
(dp793
g7
(dp794
g9
V1997-98 Stadium Club Printing Plates #31B Christian Laettner Magenta
p795
sg11
I1
sg12
VStadium Club Printing Plates
p796
sg14
(lp797
Vhttp://www.beckett.com/basketball/1997-98/stadium-club-printing-plates/31b-christian-laettner-magenta-3138667
p798
asg17
g18
sg19
(lp799
Vhttp://img.beckett.com/images/no-image.jpg
p800
asg22
V#31B
p801
sg24
V1997-98
p802
sg26
g27
sg28
(lp803
VChristian Laettner Magenta
p804
assbag1
(g2
g3
Ntp805
Rp806
(dp807
g7
(dp808
g9
V1997-98 Stadium Club Printing Plates #31C Christian Laettner Yellow
p809
sg11
I1
sg12
VStadium Club Printing Plates
p810
sg14
(lp811
Vhttp://www.beckett.com/basketball/1997-98/stadium-club-printing-plates/31c-christian-laettner-yellow-3138668
p812
asg17
g18
sg19
(lp813
Vhttp://img.beckett.com/images/no-image.jpg
p814
asg22
V#31C
p815
sg24
V1997-98
p816
sg26
g27
sg28
(lp817
VChristian Laettner Yellow
p818
assbag1
(g2
g3
Ntp819
Rp820
(dp821
g7
(dp822
g9
V1997-98 Stadium Club Printing Plates #90 Steve Smith Black
p823
sg11
I1
sg12
VStadium Club Printing Plates
p824
sg14
(lp825
Vhttp://www.beckett.com/basketball/1997-98/stadium-club-printing-plates/90-steve-smith-black-3138901
p826
asg17
g18
sg19
(lp827
Vhttp://img.beckett.com/images/no-image.jpg
p828
asg22
V#90
p829
sg24
V1997-98
p830
sg26
g27
sg28
(lp831
VSteve Smith Black
p832
assbag1
(g2
g3
Ntp833
Rp834
(dp835
g7
(dp836
g9
V1997-98 Stadium Club Printing Plates #90A Steve Smith Cyan
p837
sg11
I1
sg12
VStadium Club Printing Plates
p838
sg14
(lp839
Vhttp://www.beckett.com/basketball/1997-98/stadium-club-printing-plates/90a-steve-smith-cyan-3138902
p840
asg17
g18
sg19
(lp841
Vhttp://img.beckett.com/images/no-image.jpg
p842
asg22
V#90A
p843
sg24
V1997-98
p844
sg26
g27
sg28
(lp845
VSteve Smith Cyan
p846
assbag1
(g2
g3
Ntp847
Rp848
(dp849
g7
(dp850
g9
V1997-98 Stadium Club Printing Plates #90B Steve Smith Magenta
p851
sg11
I1
sg12
VStadium Club Printing Plates
p852
sg14
(lp853
Vhttp://www.beckett.com/basketball/1997-98/stadium-club-printing-plates/90b-steve-smith-magenta-3138903
p854
asg17
g18
sg19
(lp855
Vhttp://img.beckett.com/images/no-image.jpg
p856
asg22
V#90B
p857
sg24
V1997-98
p858
sg26
g27
sg28
(lp859
VSteve Smith Magenta
p860
assbag1
(g2
g3
Ntp861
Rp862
(dp863
g7
(dp864
g9
V1997-98 Stadium Club Printing Plates #90C Steve Smith Yellow
p865
sg11
I1
sg12
VStadium Club Printing Plates
p866
sg14
(lp867
Vhttp://www.beckett.com/basketball/1997-98/stadium-club-printing-plates/90c-steve-smith-yellow-3138904
p868
asg17
g18
sg19
(lp869
Vhttp://img.beckett.com/images/no-image.jpg
p870
asg22
V#90C
p871
sg24
V1997-98
p872
sg26
g27
sg28
(lp873
VSteve Smith Yellow
p874
assbag1
(g2
g3
Ntp875
Rp876
(dp877
g7
(dp878
g9
V1997-98 Stadium Club Printing Plates #97 Mookie Blaylock Black
p879
sg11
I1
sg12
VStadium Club Printing Plates
p880
sg14
(lp881
Vhttp://www.beckett.com/basketball/1997-98/stadium-club-printing-plates/97-mookie-blaylock-black-3138929
p882
asg17
g18
sg19
(lp883
Vhttp://img.beckett.com/images/no-image.jpg
p884
asg22
V#97
p885
sg24
V1997-98
p886
sg26
g27
sg28
(lp887
VMookie Blaylock Black
p888
assbag1
(g2
g3
Ntp889
Rp890
(dp891
g7
(dp892
g9
V1997-98 Stadium Club Printing Plates #97A Mookie Blaylock Cyan
p893
sg11
I1
sg12
VStadium Club Printing Plates
p894
sg14
(lp895
Vhttp://www.beckett.com/basketball/1997-98/stadium-club-printing-plates/97a-mookie-blaylock-cyan-3138930
p896
asg17
g18
sg19
(lp897
Vhttp://img.beckett.com/images/no-image.jpg
p898
asg22
V#97A
p899
sg24
V1997-98
p900
sg26
g27
sg28
(lp901
VMookie Blaylock Cyan
p902
assbag1
(g2
g3
Ntp903
Rp904
(dp905
g7
(dp906
g9
V1997-98 Stadium Club Printing Plates #97B Mookie Blaylock Magenta
p907
sg11
I1
sg12
VStadium Club Printing Plates
p908
sg14
(lp909
Vhttp://www.beckett.com/basketball/1997-98/stadium-club-printing-plates/97b-mookie-blaylock-magenta-3138931
p910
asg17
g18
sg19
(lp911
Vhttp://img.beckett.com/images/no-image.jpg
p912
asg22
V#97B
p913
sg24
V1997-98
p914
sg26
g27
sg28
(lp915
VMookie Blaylock Magenta
p916
assbag1
(g2
g3
Ntp917
Rp918
(dp919
g7
(dp920
g9
V1997-98 Stadium Club Printing Plates #97C Mookie Blaylock Yellow
p921
sg11
I1
sg12
VStadium Club Printing Plates
p922
sg14
(lp923
Vhttp://www.beckett.com/basketball/1997-98/stadium-club-printing-plates/97c-mookie-blaylock-yellow-3138932
p924
asg17
g18
sg19
(lp925
Vhttp://img.beckett.com/images/no-image.jpg
p926
asg22
V#97C
p927
sg24
V1997-98
p928
sg26
g27
sg28
(lp929
VMookie Blaylock Yellow
p930
assbag1
(g2
g3
Ntp931
Rp932
(dp933
g7
(dp934
g9
V1997-98 Stadium Club Printing Plates #124 Dikembe Mutombo Black
p935
sg11
I1
sg12
VStadium Club Printing Plates
p936
sg14
(lp937
Vhttp://www.beckett.com/basketball/1997-98/stadium-club-printing-plates/124-dikembe-mutombo-black-3139037
p938
asg17
g18
sg19
(lp939
Vhttp://img.beckett.com/images/no-image.jpg
p940
asg22
V#124
p941
sg24
V1997-98
p942
sg26
g27
sg28
(lp943
VDikembe Mutombo Black
p944
assbag1
(g2
g3
Ntp945
Rp946
(dp947
g7
(dp948
g9
V1997-98 Stadium Club Printing Plates #124A Dikembe Mutombo Cyan
p949
sg11
I1
sg12
VStadium Club Printing Plates
p950
sg14
(lp951
Vhttp://www.beckett.com/basketball/1997-98/stadium-club-printing-plates/124a-dikembe-mutombo-cyan-3139038
p952
asg17
g18
sg19
(lp953
Vhttp://img.beckett.com/images/no-image.jpg
p954
asg22
V#124A
p955
sg24
V1997-98
p956
sg26
g27
sg28
(lp957
VDikembe Mutombo Cyan
p958
assbag1
(g2
g3
Ntp959
Rp960
(dp961
g7
(dp962
g9
V1997-98 Stadium Club Printing Plates #124B Dikembe Mutombo Magenta
p963
sg11
I1
sg12
VStadium Club Printing Plates
p964
sg14
(lp965
Vhttp://www.beckett.com/basketball/1997-98/stadium-club-printing-plates/124b-dikembe-mutombo-magenta-3139039
p966
asg17
g18
sg19
(lp967
Vhttp://img.beckett.com/images/no-image.jpg
p968
asg22
V#124B
p969
sg24
V1997-98
p970
sg26
g27
sg28
(lp971
VDikembe Mutombo Magenta
p972
assbag1
(g2
g3
Ntp973
Rp974
(dp975
g7
(dp976
g9
V1997-98 Stadium Club Printing Plates #124C Dikembe Mutombo Yellow
p977
sg11
I1
sg12
VStadium Club Printing Plates
p978
sg14
(lp979
Vhttp://www.beckett.com/basketball/1997-98/stadium-club-printing-plates/124c-dikembe-mutombo-yellow-3139040
p980
asg17
g18
sg19
(lp981
Vhttp://img.beckett.com/images/no-image.jpg
p982
asg22
V#124C
p983
sg24
V1997-98
p984
sg26
g27
sg28
(lp985
VDikembe Mutombo Yellow
p986
assbag1
(g2
g3
Ntp987
Rp988
(dp989
g7
(dp990
g9
V1997-98 Stadium Club Printing Plates #151 Alan Henderson Black
p991
sg11
I1
sg12
VStadium Club Printing Plates
p992
sg14
(lp993
Vhttp://www.beckett.com/basketball/1997-98/stadium-club-printing-plates/151-alan-henderson-black-3139145
p994
asg17
g18
sg19
(lp995
Vhttp://img.beckett.com/images/no-image.jpg
p996
asg22
V#151
p997
sg24
V1997-98
p998
sg26
g27
sg28
(lp999
VAlan Henderson Black
p1000
assbag1
(g2
g3
Ntp1001
Rp1002
(dp1003
g7
(dp1004
g9
V1997-98 Stadium Club Printing Plates #151A Alan Henderson Cyan
p1005
sg11
I1
sg12
VStadium Club Printing Plates
p1006
sg14
(lp1007
Vhttp://www.beckett.com/basketball/1997-98/stadium-club-printing-plates/151a-alan-henderson-cyan-3139146
p1008
asg17
g18
sg19
(lp1009
Vhttp://img.beckett.com/images/no-image.jpg
p1010
asg22
V#151A
p1011
sg24
V1997-98
p1012
sg26
g27
sg28
(lp1013
VAlan Henderson Cyan
p1014
assbag1
(g2
g3
Ntp1015
Rp1016
(dp1017
g7
(dp1018
g9
V1997-98 Stadium Club Printing Plates #151B Alan Henderson Magenta
p1019
sg11
I1
sg12
VStadium Club Printing Plates
p1020
sg14
(lp1021
Vhttp://www.beckett.com/basketball/1997-98/stadium-club-printing-plates/151b-alan-henderson-magenta-3139147
p1022
asg17
g18
sg19
(lp1023
Vhttp://img.beckett.com/images/no-image.jpg
p1024
asg22
V#151B
p1025
sg24
V1997-98
p1026
sg26
g27
sg28
(lp1027
VAlan Henderson Magenta
p1028
assbag1
(g2
g3
Ntp1029
Rp1030
(dp1031
g7
(dp1032
g9
V1997-98 Stadium Club Printing Plates #151C Alan Henderson Yellow
p1033
sg11
I1
sg12
VStadium Club Printing Plates
p1034
sg14
(lp1035
Vhttp://www.beckett.com/basketball/1997-98/stadium-club-printing-plates/151c-alan-henderson-yellow-3139148
p1036
asg17
g18
sg19
(lp1037
Vhttp://img.beckett.com/images/no-image.jpg
p1038
asg22
V#151C
p1039
sg24
V1997-98
p1040
sg26
g27
sg28
(lp1041
VAlan Henderson Yellow
p1042
assbag1
(g2
g3
Ntp1043
Rp1044
(dp1045
g7
(dp1046
g9
V1997-98 Stadium Club Printing Plates #181 Eldridge Recasner Black
p1047
sg11
I1
sg12
VStadium Club Printing Plates
p1048
sg14
(lp1049
Vhttp://www.beckett.com/basketball/1997-98/stadium-club-printing-plates/181-eldridge-recasner-black-3139265
p1050
asg17
g18
sg19
(lp1051
Vhttp://img.beckett.com/images/no-image.jpg
p1052
asg22
V#181
p1053
sg24
V1997-98
p1054
sg26
g27
sg28
(lp1055
VEldridge Recasner Black
p1056
assbag1
(g2
g3
Ntp1057
Rp1058
(dp1059
g7
(dp1060
g9
V1997-98 Stadium Club Printing Plates #181A Eldridge Recasner Cyan
p1061
sg11
I1
sg12
VStadium Club Printing Plates
p1062
sg14
(lp1063
Vhttp://www.beckett.com/basketball/1997-98/stadium-club-printing-plates/181a-eldridge-recasner-cyan-3139266
p1064
asg17
g18
sg19
(lp1065
Vhttp://img.beckett.com/images/no-image.jpg
p1066
asg22
V#181A
p1067
sg24
V1997-98
p1068
sg26
g27
sg28
(lp1069
VEldridge Recasner Cyan
p1070
assbag1
(g2
g3
Ntp1071
Rp1072
(dp1073
g7
(dp1074
g9
V1997-98 Stadium Club Printing Plates #181B Eldridge Recasner Magenta
p1075
sg11
I1
sg12
VStadium Club Printing Plates
p1076
sg14
(lp1077
Vhttp://www.beckett.com/basketball/1997-98/stadium-club-printing-plates/181b-eldridge-recasner-magenta-3139267
p1078
asg17
g18
sg19
(lp1079
Vhttp://img.beckett.com/images/no-image.jpg
p1080
asg22
V#181B
p1081
sg24
V1997-98
p1082
sg26
g27
sg28
(lp1083
VEldridge Recasner Magenta
p1084
assbag1
(g2
g3
Ntp1085
Rp1086
(dp1087
g7
(dp1088
g9
V1997-98 Stadium Club Printing Plates #181C Eldridge Recasner Yellow
p1089
sg11
I1
sg12
VStadium Club Printing Plates
p1090
sg14
(lp1091
Vhttp://www.beckett.com/basketball/1997-98/stadium-club-printing-plates/181c-eldridge-recasner-yellow-3139268
p1092
asg17
g18
sg19
(lp1093
Vhttp://img.beckett.com/images/no-image.jpg
p1094
asg22
V#181C
p1095
sg24
V1997-98
p1096
sg26
g27
sg28
(lp1097
VEldridge Recasner Yellow
p1098
assbag1
(g2
g3
Ntp1099
Rp1100
(dp1101
g7
(dp1102
g9
V1997-98 Stadium Club Printing Plates #235 Ed Gray Black
p1103
sg11
I1
sg12
VStadium Club Printing Plates
p1104
sg14
(lp1105
Vhttp://www.beckett.com/basketball/1997-98/stadium-club-printing-plates/235-ed-gray-black-3139481
p1106
asg17
g18
sg19
(lp1107
Vhttp://img.beckett.com/images/no-image.jpg
p1108
asg22
V#235
p1109
sg24
V1997-98
p1110
sg26
g27
sg28
(lp1111
VEd Gray Black
p1112
assbag1
(g2
g3
Ntp1113
Rp1114
(dp1115
g7
(dp1116
g9
V1997-98 Stadium Club Printing Plates #235A Ed Gray Cyan
p1117
sg11
I1
sg12
VStadium Club Printing Plates
p1118
sg14
(lp1119
Vhttp://www.beckett.com/basketball/1997-98/stadium-club-printing-plates/235a-ed-gray-cyan-3139482
p1120
asg17
g18
sg19
(lp1121
Vhttp://img.beckett.com/images/no-image.jpg
p1122
asg22
V#235A
p1123
sg24
V1997-98
p1124
sg26
g27
sg28
(lp1125
VEd Gray Cyan
p1126
assbag1
(g2
g3
Ntp1127
Rp1128
(dp1129
g7
(dp1130
g9
V1997-98 Stadium Club Printing Plates #235B Ed Gray Magenta
p1131
sg11
I1
sg12
VStadium Club Printing Plates
p1132
sg14
(lp1133
Vhttp://www.beckett.com/basketball/1997-98/stadium-club-printing-plates/235b-ed-gray-magenta-3139483
p1134
asg17
g18
sg19
(lp1135
Vhttp://img.beckett.com/images/no-image.jpg
p1136
asg22
V#235B
p1137
sg24
V1997-98
p1138
sg26
g27
sg28
(lp1139
VEd Gray Magenta
p1140
assbag1
(g2
g3
Ntp1141
Rp1142
(dp1143
g7
(dp1144
g9
V1997-98 Stadium Club Printing Plates #235C Ed Gray Yellow
p1145
sg11
I1
sg12
VStadium Club Printing Plates
p1146
sg14
(lp1147
Vhttp://www.beckett.com/basketball/1997-98/stadium-club-printing-plates/235c-ed-gray-yellow-3139484
p1148
asg17
g18
sg19
(lp1149
Vhttp://img.beckett.com/images/no-image.jpg
p1150
asg22
V#235C
p1151
sg24
V1997-98
p1152
sg26
g27
sg28
(lp1153
VEd Gray Yellow
p1154
assbag1
(g2
g3
Ntp1155
Rp1156
(dp1157
g7
(dp1158
g9
V1997-98 Ultra Masterpieces #7 Mookie Blaylock
p1159
sg11
I1
sg12
VUltra Masterpieces
p1160
sg14
(lp1161
Vhttp://www.beckett.com/basketball/1997-98/ultra-masterpieces/7-mookie-blaylock-3135737
p1162
asg17
g18
sg19
(lp1163
Vhttp://img.beckett.com/images/no-image.jpg
p1164
asg22
V#7
p1165
sg24
V1997-98
p1166
sg26
g27
sg28
(lp1167
VMookie Blaylock
p1168
assbag1
(g2
g3
Ntp1169
Rp1170
(dp1171
g7
(dp1172
g9
V1997-98 Ultra Masterpieces #43 Dikembe Mutombo
p1173
sg11
I1
sg12
VUltra Masterpieces
p1174
sg14
(lp1175
Vhttp://www.beckett.com/basketball/1997-98/ultra-masterpieces/43-dikembe-mutombo-3135773
p1176
asg17
g18
sg19
(lp1177
Vhttp://img.beckett.com/images/no-image.jpg
p1178
asg22
V#43
p1179
sg24
V1997-98
p1180
sg26
g27
sg28
(lp1181
VDikembe Mutombo
p1182
assbag1
(g2
g3
Ntp1183
Rp1184
(dp1185
g7
(dp1186
g9
V1997-98 Ultra Masterpieces #48 Steve Smith
p1187
sg11
I1
sg12
VUltra Masterpieces
p1188
sg14
(lp1189
Vhttp://www.beckett.com/basketball/1997-98/ultra-masterpieces/48-steve-smith-3135778
p1190
asg17
g18
sg19
(lp1191
Vhttp://img.beckett.com/images/no-image.jpg
p1192
asg22
V#48
p1193
sg24
V1997-98
p1194
sg26
g27
sg28
(lp1195
VSteve Smith
p1196
assbag1
(g2
g3
Ntp1197
Rp1198
(dp1199
g7
(dp1200
g9
V1997-98 Ultra Masterpieces #66 Christian Laettner
p1201
sg11
I1
sg12
VUltra Masterpieces
p1202
sg14
(lp1203
Vhttp://www.beckett.com/basketball/1997-98/ultra-masterpieces/66-christian-laettner-3135796
p1204
asg17
g18
sg19
(lp1205
Vhttp://img.beckett.com/images/no-image.jpg
p1206
asg22
V#66
p1207
sg24
V1997-98
p1208
sg26
g27
sg28
(lp1209
VChristian Laettner
p1210
assbag1
(g2
g3
Ntp1211
Rp1212
(dp1213
g7
(dp1214
g9
V1997-98 Ultra Masterpieces #135 Ed Gray
p1215
sg11
I1
sg12
VUltra Masterpieces
p1216
sg14
(lp1217
Vhttp://www.beckett.com/basketball/1997-98/ultra-masterpieces/135-ed-gray-3135865
p1218
asg17
g18
sg19
(lp1219
Vhttp://img.beckett.com/images/no-image.jpg
p1220
asg22
V#135
p1221
sg24
V1997-98
p1222
sg26
g27
sg28
(lp1223
VEd Gray
p1224
assbag1
(g2
g3
Ntp1225
Rp1226
(dp1227
g7
(dp1228
g9
V1997-98 Ultra Masterpieces #170 Alan Henderson
p1229
sg11
I1
sg12
VUltra Masterpieces
p1230
sg14
(lp1231
Vhttp://www.beckett.com/basketball/1997-98/ultra-masterpieces/170-alan-henderson-3135898
p1232
asg17
g18
sg19
(lp1233
Vhttp://img.beckett.com/images/no-image.jpg
p1234
asg22
V#170
p1235
sg24
V1997-98
p1236
sg26
g27
sg28
(lp1237
VAlan Henderson
p1238
assbag1
(g2
g3
Ntp1239
Rp1240
(dp1241
g7
(dp1242
g9
V1997-98 Ultra Masterpieces #178 Eldridge Recasner
p1243
sg11
I1
sg12
VUltra Masterpieces
p1244
sg14
(lp1245
Vhttp://www.beckett.com/basketball/1997-98/ultra-masterpieces/178-eldridge-recasner-3135906
p1246
asg17
g18
sg19
(lp1247
Vhttp://img.beckett.com/images/no-image.jpg
p1248
asg22
V#178
p1249
sg24
V1997-98
p1250
sg26
g27
sg28
(lp1251
VEldridge Recasner
p1252
assbag1
(g2
g3
Ntp1253
Rp1254
(dp1255
g7
(dp1256
g9
V1997-98 Ultra Masterpieces #213 Chris Crawford
p1257
sg11
I1
sg12
VUltra Masterpieces
p1258
sg14
(lp1259
Vhttp://www.beckett.com/basketball/1997-98/ultra-masterpieces/213-chris-crawford-3135941
p1260
asg17
g18
sg19
(lp1261
Vhttp://img.beckett.com/images/no-image.jpg
p1262
asg22
V#213
p1263
sg24
V1997-98
p1264
sg26
g27
sg28
(lp1265
VChris Crawford
p1266
assbag1
(g2
g3
Ntp1267
Rp1268
(dp1269
g7
(dp1270
g9
V1997-98 Ultra Platinum Medallion #7 Mookie Blaylock
p1271
sg11
I100
sg12
VUltra Platinum Medallion
p1272
sg14
(lp1273
Vhttp://www.beckett.com/basketball/1997-98/ultra-platinum-medallion/7-mookie-blaylock-3136021
p1274
asg17
g18
sg19
(lp1275
Vhttp://img.beckett.com/images/no-image.jpg
p1276
asg22
V#7
p1277
sg24
V1997-98
p1278
sg26
g27
sg28
(lp1279
VMookie Blaylock
p1280
assbag1
(g2
g3
Ntp1281
Rp1282
(dp1283
g7
(dp1284
g9
V1997-98 Ultra Platinum Medallion #43 Dikembe Mutombo
p1285
sg11
I100
sg12
VUltra Platinum Medallion
p1286
sg14
(lp1287
Vhttp://www.beckett.com/basketball/1997-98/ultra-platinum-medallion/43-dikembe-mutombo-3136057
p1288
asg17
g18
sg19
(lp1289
Vhttp://img.beckett.com/images/no-image.jpg
p1290
asg22
V#43
p1291
sg24
V1997-98
p1292
sg26
g27
sg28
(lp1293
VDikembe Mutombo
p1294
assbag1
(g2
g3
Ntp1295
Rp1296
(dp1297
g7
(dp1298
g9
V1997-98 Ultra Platinum Medallion #48 Steve Smith
p1299
sg11
I100
sg12
VUltra Platinum Medallion
p1300
sg14
(lp1301
Vhttp://www.beckett.com/basketball/1997-98/ultra-platinum-medallion/48-steve-smith-3136062
p1302
asg17
g18
sg19
(lp1303
Vhttp://img.beckett.com/images/no-image.jpg
p1304
asg22
V#48
p1305
sg24
V1997-98
p1306
sg26
g27
sg28
(lp1307
VSteve Smith
p1308
assbag1
(g2
g3
Ntp1309
Rp1310
(dp1311
g7
(dp1312
g9
V1997-98 Ultra Platinum Medallion #66 Christian Laettner
p1313
sg11
I100
sg12
VUltra Platinum Medallion
p1314
sg14
(lp1315
Vhttp://www.beckett.com/basketball/1997-98/ultra-platinum-medallion/66-christian-laettner-3136080
p1316
asg17
g18
sg19
(lp1317
Vhttp://img.beckett.com/images/no-image.jpg
p1318
asg22
V#66
p1319
sg24
V1997-98
p1320
sg26
g27
sg28
(lp1321
VChristian Laettner
p1322
assbag1
(g2
g3
Ntp1323
Rp1324
(dp1325
g7
(dp1326
g9
V1997-98 Ultra Platinum Medallion #135 Ed Gray
p1327
sg11
I100
sg12
VUltra Platinum Medallion
p1328
sg14
(lp1329
Vhttp://www.beckett.com/basketball/1997-98/ultra-platinum-medallion/135-ed-gray-3136149
p1330
asg17
g18
sg19
(lp1331
Vhttp://img.beckett.com/images/no-image.jpg
p1332
asg22
V#135
p1333
sg24
V1997-98
p1334
sg26
g27
sg28
(lp1335
VEd Gray
p1336
assbag1
(g2
g3
Ntp1337
Rp1338
(dp1339
g7
(dp1340
g9
V1997-98 Ultra Platinum Medallion #170 Alan Henderson
p1341
sg11
I100
sg12
VUltra Platinum Medallion
p1342
sg14
(lp1343
Vhttp://www.beckett.com/basketball/1997-98/ultra-platinum-medallion/170-alan-henderson-3136182
p1344
asg17
g18
sg19
(lp1345
Vhttp://img.beckett.com/images/no-image.jpg
p1346
asg22
V#170
p1347
sg24
V1997-98
p1348
sg26
g27
sg28
(lp1349
VAlan Henderson
p1350
assbag1
(g2
g3
Ntp1351
Rp1352
(dp1353
g7
(dp1354
g9
V1997-98 Ultra Platinum Medallion #178 Eldridge Recasner
p1355
sg11
I100
sg12
VUltra Platinum Medallion
p1356
sg14
(lp1357
Vhttp://www.beckett.com/basketball/1997-98/ultra-platinum-medallion/178-eldridge-recasner-3136190
p1358
asg17
g18
sg19
(lp1359
Vhttp://img.beckett.com/images/no-image.jpg
p1360
asg22
V#178
p1361
sg24
V1997-98
p1362
sg26
g27
sg28
(lp1363
VEldridge Recasner
p1364
assbag1
(g2
g3
Ntp1365
Rp1366
(dp1367
g7
(dp1368
g9
V1997-98 Ultra Platinum Medallion #213 Chris Crawford
p1369
sg11
I100
sg12
VUltra Platinum Medallion
p1370
sg14
(lp1371
Vhttp://www.beckett.com/basketball/1997-98/ultra-platinum-medallion/213-chris-crawford-3136225
p1372
asg17
g18
sg19
(lp1373
Vhttp://img.beckett.com/images/no-image.jpg
p1374
asg22
V#213
p1375
sg24
V1997-98
p1376
sg26
g27
sg28
(lp1377
VChris Crawford
p1378
assbag1
(g2
g3
Ntp1379
Rp1380
(dp1381
g7
(dp1382
g9
V1997-98 Z-Force Rave #18 Mookie Blaylock
p1383
sg11
I399
sg12
VZ-Force Rave
p1384
sg14
(lp1385
Vhttp://www.beckett.com/basketball/1997-98/z-force-rave/18-mookie-blaylock-3133042
p1386
asg17
g18
sg19
(lp1387
Vhttp://img.beckett.com/images/no-image.jpg
p1388
asg22
V#18
p1389
sg24
V1997-98
p1390
sg26
g27
sg28
(lp1391
VMookie Blaylock
p1392
assbag1
(g2
g3
Ntp1393
Rp1394
(dp1395
g7
(dp1396
g9
V1997-98 Z-Force Rave #39 Christian Laettner
p1397
sg11
I399
sg12
VZ-Force Rave
p1398
sg14
(lp1399
Vhttp://www.beckett.com/basketball/1997-98/z-force-rave/39-christian-laettner-3133063
p1400
asg17
g18
sg19
(lp1401
Vhttp://img.beckett.com/images/no-image.jpg
p1402
asg22
V#39
p1403
sg24
V1997-98
p1404
sg26
g27
sg28
(lp1405
VChristian Laettner
p1406
assbag1
(g2
g3
Ntp1407
Rp1408
(dp1409
g7
(dp1410
g9
V1997-98 Z-Force Rave #55 Dikembe Mutombo
p1411
sg11
I399
sg12
VZ-Force Rave
p1412
sg14
(lp1413
Vhttp://www.beckett.com/basketball/1997-98/z-force-rave/55-dikembe-mutombo-3133079
p1414
asg17
g18
sg19
(lp1415
Vhttp://img.beckett.com/images/no-image.jpg
p1416
asg22
V#55
p1417
sg24
V1997-98
p1418
sg26
g27
sg28
(lp1419
VDikembe Mutombo
p1420
assbag1
(g2
g3
Ntp1421
Rp1422
(dp1423
g7
(dp1424
g9
V1997-98 Z-Force Rave #83 Steve Smith
p1425
sg11
I399
sg12
VZ-Force Rave
p1426
sg14
(lp1427
Vhttp://www.beckett.com/basketball/1997-98/z-force-rave/83-steve-smith-3133107
p1428
asg17
g18
sg19
(lp1429
Vhttp://img.beckett.com/images/items_stock/185226/3133012/3133107/front.jpg
p1430
asg22
V#83
p1431
sg24
V1997-98
p1432
sg26
g27
sg28
(lp1433
VSteve Smith
p1434
assbag1
(g2
g3
Ntp1435
Rp1436
(dp1437
g7
(dp1438
g9
V1997-98 Z-Force Rave #133 Ed Gray
p1439
sg11
I399
sg12
VZ-Force Rave
p1440
sg14
(lp1441
Vhttp://www.beckett.com/basketball/1997-98/z-force-rave/133-ed-gray-3133155
p1442
asg17
g18
sg19
(lp1443
Vhttp://img.beckett.com/images/no-image.jpg
p1444
asg22
V#133
p1445
sg24
V1997-98
p1446
sg26
g27
sg28
(lp1447
VEd Gray
p1448
assbag1
(g2
g3
Ntp1449
Rp1450
(dp1451
g7
(dp1452
g9
V1997-98 Z-Force Rave #176 Alan Henderson
p1453
sg11
I399
sg12
VZ-Force Rave
p1454
sg14
(lp1455
Vhttp://www.beckett.com/basketball/1997-98/z-force-rave/176-alan-henderson-3133199
p1456
asg17
g18
sg19
(lp1457
Vhttp://img.beckett.com/images/items_stock/185226/3133012/3133199/front.jpg
p1458
asg22
V#176
p1459
sg24
V1997-98
p1460
sg26
g27
sg28
(lp1461
VAlan Henderson
p1462
assbag1
(g2
g3
Ntp1463
Rp1464
(dp1465
g7
(dp1466
g9
V1997-98 Z-Force Super Rave #133 Ed Gray
p1467
sg11
I50
sg12
VZ-Force Super Rave
p1468
sg14
(lp1469
Vhttp://www.beckett.com/basketball/1997-98/z-force-super-rave/133-ed-gray-3133267
p1470
asg17
g18
sg19
(lp1471
Vhttp://img.beckett.com/images/no-image.jpg
p1472
asg22
V#133
p1473
sg24
V1997-98
p1474
sg26
g27
sg28
(lp1475
VEd Gray
p1476
assbag1
(g2
g3
Ntp1477
Rp1478
(dp1479
g7
(dp1480
g9
V1997-98 Z-Force Super Rave #176 Alan Henderson
p1481
sg11
I50
sg12
VZ-Force Super Rave
p1482
sg14
(lp1483
Vhttp://www.beckett.com/basketball/1997-98/z-force-super-rave/176-alan-henderson-3133311
p1484
asg17
g18
sg19
(lp1485
Vhttp://img.beckett.com/images/no-image.jpg
p1486
asg22
V#176
p1487
sg24
V1997-98
p1488
sg26
g27
sg28
(lp1489
VAlan Henderson
p1490
assbag1
(g2
g3
Ntp1491
Rp1492
(dp1493
g7
(dp1494
g9
V1997-98 Upper Deck High Dimensions #D11 Dikembe Mutombo
p1495
sg11
I2000
sg12
VUpper Deck High Dimensions
p1496
sg14
(lp1497
Vhttp://www.beckett.com/basketball/1997-98/upper-deck-high-dimensions/d11-dikembe-mutombo-3132433
p1498
asg17
g18
sg19
(lp1499
Vhttp://img.beckett.com/images/no-image.jpg
p1500
asg22
V#D11
p1501
sg24
V1997-98
p1502
sg26
g27
sg28
(lp1503
VDikembe Mutombo
p1504
assbag1
(g2
g3
Ntp1505
Rp1506
(dp1507
g7
(dp1508
g9
V1997-98 Metal Universe Precious Metal Gems Emerald #6 Steve Smith
p1509
sg11
I10
sg12
VMetal Universe Precious Metal Gems Emerald
p1510
sg14
(lp1511
Vhttp://www.beckett.com/basketball/1997-98/metal-universe-precious-metal-gems-emerald/6-steve-smith-7055454
p1512
asg17
g18
sg19
(lp1513
Vhttp://img.beckett.com/images/no-image.jpg
p1514
asg22
V#6
p1515
sg24
V1997-98
p1516
sg26
g27
sg28
(lp1517
VSteve Smith
p1518
assbag1
(g2
g3
Ntp1519
Rp1520
(dp1521
g7
(dp1522
g9
V1997-98 Metal Universe Precious Metal Gems Emerald #106 Dikembe Mutombo
p1523
sg11
I10
sg12
VMetal Universe Precious Metal Gems Emerald
p1524
sg14
(lp1525
Vhttp://www.beckett.com/basketball/1997-98/metal-universe-precious-metal-gems-emerald/106-dikembe-mutombo-7055555
p1526
asg17
g18
sg19
(lp1527
Vhttp://img.beckett.com/images/no-image.jpg
p1528
asg22
V#106
p1529
sg24
V1997-98
p1530
sg26
g27
sg28
(lp1531
VDikembe Mutombo
p1532
assbag1
(g2
g3
Ntp1533
Rp1534
(dp1535
g7
(dp1536
g9
V1997-98 Metal Universe Precious Metal Gems Emerald #110 Christian Laettner
p1537
sg11
I10
sg12
VMetal Universe Precious Metal Gems Emerald
p1538
sg14
(lp1539
Vhttp://www.beckett.com/basketball/1997-98/metal-universe-precious-metal-gems-emerald/110-christian-laettner-7055559
p1540
asg17
g18
sg19
(lp1541
Vhttp://img.beckett.com/images/no-image.jpg
p1542
asg22
V#110
p1543
sg24
V1997-98
p1544
sg26
g27
sg28
(lp1545
VChristian Laettner
p1546
assbag1
(g2
g3
Ntp1547
Rp1548
(dp1549
g7
(dp1550
g9
V1997-98 Metal Universe Precious Metal Gems Emerald #120 Mookie Blaylock
p1551
sg11
I10
sg12
VMetal Universe Precious Metal Gems Emerald
p1552
sg14
(lp1553
Vhttp://www.beckett.com/basketball/1997-98/metal-universe-precious-metal-gems-emerald/120-mookie-blaylock-7055569
p1554
asg17
g18
sg19
(lp1555
Vhttp://img.beckett.com/images/no-image.jpg
p1556
asg22
V#120
p1557
sg24
V1997-98
p1558
sg26
g27
sg28
(lp1559
VMookie Blaylock
p1560
assbag1
(g2
g3
Ntp1561
Rp1562
(dp1563
g7
(dp1564
g9
V1997-98 SP Authentic Profiles 3 #P6 Dikembe Mutombo
p1565
sg11
I100
sg12
VSP Authentic Profiles 3
p1566
sg14
(lp1567
Vhttp://www.beckett.com/basketball/1997-98/sp-authentic-profiles-3/p6-dikembe-mutombo-3140287
p1568
asg17
g18
sg19
(lp1569
Vhttp://img.beckett.com/images/no-image.jpg
p1570
asg22
V#P6
p1571
sg24
V1997-98
p1572
sg26
g27
sg28
(lp1573
VDikembe Mutombo
p1574
assbag1
(g2
g3
Ntp1575
Rp1576
(dp1577
g7
(dp1578
g9
V1997-98 Upper Deck Diamond Dimensions #D11 Dikembe Mutombo
p1579
sg11
I100
sg12
VUpper Deck Diamond Dimensions
p1580
sg14
(lp1581
Vhttp://www.beckett.com/basketball/1997-98/upper-deck-diamond-dimensions/d11-dikembe-mutombo-3132471
p1582
asg17
g18
sg19
(lp1583
Vhttp://img.beckett.com/images/no-image.jpg
p1584
asg22
V#D11
p1585
sg24
V1997-98
p1586
sg26
g27
sg28
(lp1587
VDikembe Mutombo
p1588
assba.