(lp0
Naccopy_reg
_reconstructor
p1
(ctutorial.items
BeckettItem
p2
c__builtin__
object
p3
Ntp4
Rp5
(dp6
S'_values'
p7
(dp8
S'originalItemDescription'
p9
V1997-98 E-X2001 Essential Credentials Future #34 Christian Laettner/47
p10
sS'serialNumber'
p11
I47
sS'setName'
p12
VE-X2001 Essential Credentials Future
p13
sS'beckettLink'
p14
(lp15
Vhttp://www.beckett.com/basketball/1997-98/e-x2001-essential-credentials-future/34-christian-laettner47-3144620
p16
asS'team'
p17
S'Atlanta Hawks'
p18
sS'imageLink'
p19
(lp20
Vhttp://img.beckett.com/images/no-image.jpg
p21
asS'cardNumber'
p22
V#34
p23
sS'year'
p24
V1997-98
p25
sS'sport'
p26
S'Basketball'
p27
sS'playerNames'
p28
(lp29
VChristian Laettner
p30
assbag1
(g2
g3
Ntp31
Rp32
(dp33
g7
(dp34
g9
V1997-98 E-X2001 Essential Credentials Future #47 Steve Smith/34
p35
sg11
I34
sg12
VE-X2001 Essential Credentials Future
p36
sg14
(lp37
Vhttp://www.beckett.com/basketball/1997-98/e-x2001-essential-credentials-future/47-steve-smith34-3144633
p38
asg17
g18
sg19
(lp39
Vhttp://img.beckett.com/images/no-image.jpg
p40
asg22
V#47
p41
sg24
V1997-98
p42
sg26
g27
sg28
(lp43
VSteve Smith
p44
assbag1
(g2
g3
Ntp45
Rp46
(dp47
g7
(dp48
g9
V1997-98 E-X2001 Essential Credentials Future #49 Dikembe Mutombo/32
p49
sg11
I32
sg12
VE-X2001 Essential Credentials Future
p50
sg14
(lp51
Vhttp://www.beckett.com/basketball/1997-98/e-x2001-essential-credentials-future/49-dikembe-mutombo32-3144635
p52
asg17
g18
sg19
(lp53
Vhttp://img.beckett.com/images/no-image.jpg
p54
asg22
V#49
p55
sg24
V1997-98
p56
sg26
g27
sg28
(lp57
VDikembe Mutombo
p58
assbag1
(g2
g3
Ntp59
Rp60
(dp61
g7
(dp62
g9
V1997-98 E-X2001 Essential Credentials Now #34 Christian Laettner/34
p63
sg11
I34
sg12
VE-X2001 Essential Credentials Now
p64
sg14
(lp65
Vhttp://www.beckett.com/basketball/1997-98/e-x2001-essential-credentials-now/34-christian-laettner34-3144707
p66
asg17
g18
sg19
(lp67
Vhttp://img.beckett.com/images/no-image.jpg
p68
asg22
V#34
p69
sg24
V1997-98
p70
sg26
g27
sg28
(lp71
VChristian Laettner
p72
assbag1
(g2
g3
Ntp73
Rp74
(dp75
g7
(dp76
g9
V1997-98 E-X2001 Essential Credentials Now #47 Steve Smith/47
p77
sg11
I47
sg12
VE-X2001 Essential Credentials Now
p78
sg14
(lp79
Vhttp://www.beckett.com/basketball/1997-98/e-x2001-essential-credentials-now/47-steve-smith47-3144720
p80
asg17
g18
sg19
(lp81
Vhttp://img.beckett.com/images/no-image.jpg
p82
asg22
V#47
p83
sg24
V1997-98
p84
sg26
g27
sg28
(lp85
VSteve Smith
p86
assbag1
(g2
g3
Ntp87
Rp88
(dp89
g7
(dp90
g9
V1997-98 E-X2001 Essential Credentials Now #49 Dikembe Mutombo/49
p91
sg11
I49
sg12
VE-X2001 Essential Credentials Now
p92
sg14
(lp93
Vhttp://www.beckett.com/basketball/1997-98/e-x2001-essential-credentials-now/49-dikembe-mutombo49-3144722
p94
asg17
g18
sg19
(lp95
Vhttp://img.beckett.com/images/no-image.jpg
p96
asg22
V#49
p97
sg24
V1997-98
p98
sg26
g27
sg28
(lp99
VDikembe Mutombo
p100
assbag1
(g2
g3
Ntp101
Rp102
(dp103
g7
(dp104
g9
V1997-98 Finest Embossed Refractors #123 Dikembe Mutombo S
p105
sg11
I263
sg12
VFinest Embossed Refractors
p106
sg14
(lp107
Vhttp://www.beckett.com/basketball/1997-98/finest-embossed-refractors/123-dikembe-mutombo-s-3145331
p108
asg17
g18
sg19
(lp109
Vhttp://img.beckett.com/images/no-image.jpg
p110
asg22
V#123
p111
sg24
V1997-98
p112
sg26
g27
sg28
(lp113
VDikembe Mutombo
p114
assbag1
(g2
g3
Ntp115
Rp116
(dp117
g7
(dp118
g9
V1997-98 Finest Embossed Refractors #160 Christian Laettner G
p119
sg11
I74
sg12
VFinest Embossed Refractors
p120
sg14
(lp121
Vhttp://www.beckett.com/basketball/1997-98/finest-embossed-refractors/160-christian-laettner-g-3145368
p122
asg17
g18
sg19
(lp123
Vhttp://img.beckett.com/images/no-image.jpg
p124
asg22
V#160
p125
sg24
V1997-98
p126
sg26
g27
sg28
(lp127
VChristian Laettner
p128
assbag1
(g2
g3
Ntp129
Rp130
(dp131
g7
(dp132
g9
V1997-98 Finest Embossed Refractors #279 Steve Smith S
p133
sg11
I263
sg12
VFinest Embossed Refractors
p134
sg14
(lp135
Vhttp://www.beckett.com/basketball/1997-98/finest-embossed-refractors/279-steve-smith-s-3145387
p136
asg17
g18
sg19
(lp137
Vhttp://img.beckett.com/images/no-image.jpg
p138
asg22
V#279
p139
sg24
V1997-98
p140
sg26
g27
sg28
(lp141
VSteve Smith
p142
assbag1
(g2
g3
Ntp143
Rp144
(dp145
g7
(dp146
g9
V1997-98 Finest Embossed Refractors #283 Christian Laettner S
p147
sg11
I263
sg12
VFinest Embossed Refractors
p148
sg14
(lp149
Vhttp://www.beckett.com/basketball/1997-98/finest-embossed-refractors/283-christian-laettner-s-3145391
p150
asg17
g18
sg19
(lp151
Vhttp://img.beckett.com/images/items_stock/185226/3145306/3145391/front.jpg
p152
asg22
V#283
p153
sg24
V1997-98
p154
sg26
g27
sg28
(lp155
VChristian Laettner
p156
assbag1
(g2
g3
Ntp157
Rp158
(dp159
g7
(dp160
g9
V1997-98 Finest Embossed Refractors #307 Dikembe Mutombo G
p161
sg11
I74
sg12
VFinest Embossed Refractors
p162
sg14
(lp163
Vhttp://www.beckett.com/basketball/1997-98/finest-embossed-refractors/307-dikembe-mutombo-g-3145415
p164
asg17
g18
sg19
(lp165
Vhttp://img.beckett.com/images/no-image.jpg
p166
asg22
V#307
p167
sg24
V1997-98
p168
sg26
g27
sg28
(lp169
VDikembe Mutombo
p170
assbag1
(g2
g3
Ntp171
Rp172
(dp173
g7
(dp174
g9
V1997-98 Finest Refractors #123 Dikembe Mutombo S
p175
sg11
I1090
sg12
VFinest Refractors
p176
sg14
(lp177
Vhttp://www.beckett.com/basketball/1997-98/finest-refractors/123-dikembe-mutombo-s-3145589
p178
asg17
g18
sg19
(lp179
Vhttp://img.beckett.com/images/items_stock/185226/3145435/3145589/front.jpg
p180
asg22
V#123
p181
sg24
V1997-98
p182
sg26
g27
sg28
(lp183
VDikembe Mutombo
p184
assbag1
(g2
g3
Ntp185
Rp186
(dp187
g7
(dp188
g9
V1997-98 Finest Refractors #160 Christian Laettner G
p189
sg11
I289
sg12
VFinest Refractors
p190
sg14
(lp191
Vhttp://www.beckett.com/basketball/1997-98/finest-refractors/160-christian-laettner-g-3145626
p192
asg17
g18
sg19
(lp193
Vhttp://img.beckett.com/images/items_stock/185226/3145435/3145626/front.jpg
p194
asg22
V#160
p195
sg24
V1997-98
p196
sg26
g27
sg28
(lp197
VChristian Laettner
p198
assbag1
(g2
g3
Ntp199
Rp200
(dp201
g7
(dp202
g9
V1997-98 Finest Refractors #279 Steve Smith S
p203
sg11
I1090
sg12
VFinest Refractors
p204
sg14
(lp205
Vhttp://www.beckett.com/basketball/1997-98/finest-refractors/279-steve-smith-s-3145745
p206
asg17
g18
sg19
(lp207
Vhttp://img.beckett.com/images/items_stock/185226/3145435/3145745/front.jpg
p208
asg22
V#279
p209
sg24
V1997-98
p210
sg26
g27
sg28
(lp211
VSteve Smith
p212
assbag1
(g2
g3
Ntp213
Rp214
(dp215
g7
(dp216
g9
V1997-98 Finest Refractors #283 Christian Laettner S
p217
sg11
I1090
sg12
VFinest Refractors
p218
sg14
(lp219
Vhttp://www.beckett.com/basketball/1997-98/finest-refractors/283-christian-laettner-s-3145749
p220
asg17
g18
sg19
(lp221
Vhttp://img.beckett.com/images/items_stock/185226/3145435/3145749/front.jpg
p222
asg22
V#283
p223
sg24
V1997-98
p224
sg26
g27
sg28
(lp225
VChristian Laettner
p226
assbag1
(g2
g3
Ntp227
Rp228
(dp229
g7
(dp230
g9
V1997-98 Finest Refractors #307 Dikembe Mutombo G
p231
sg11
I289
sg12
VFinest Refractors
p232
sg14
(lp233
Vhttp://www.beckett.com/basketball/1997-98/finest-refractors/307-dikembe-mutombo-g-3145773
p234
asg17
g18
sg19
(lp235
Vhttp://img.beckett.com/images/items_stock/185226/3145435/3145773/front.jpg
p236
asg22
V#307
p237
sg24
V1997-98
p238
sg26
g27
sg28
(lp239
VDikembe Mutombo
p240
assbag1
(g2
g3
Ntp241
Rp242
(dp243
g7
(dp244
g9
V1997-98 Flair Showcase Row 0 #42 Dikembe Mutombo
p245
sg11
I1000
sg12
VFlair Showcase Row 0
p246
sg14
(lp247
Vhttp://www.beckett.com/basketball/1997-98/flair-showcase-row-0/42-dikembe-mutombo-3146140
p248
asg17
g18
sg19
(lp249
Vhttp://img.beckett.com/images/items_stock/185226/3146075/3146140/front.jpg
p250
asg22
V#42
p251
sg24
V1997-98
p252
sg26
g27
sg28
(lp253
VDikembe Mutombo
p254
assbag1
(g2
g3
Ntp255
Rp256
(dp257
g7
(dp258
g9
V1997-98 Flair Showcase Row 0 #51 Mookie Blaylock
p259
sg11
I1000
sg12
VFlair Showcase Row 0
p260
sg14
(lp261
Vhttp://www.beckett.com/basketball/1997-98/flair-showcase-row-0/51-mookie-blaylock-3146149
p262
asg17
g18
sg19
(lp263
Vhttp://img.beckett.com/images/items_stock/185226/3146075/3146149/front.jpg
p264
asg22
V#51
p265
sg24
V1997-98
p266
sg26
g27
sg28
(lp267
VMookie Blaylock
p268
assbag1
(g2
g3
Ntp269
Rp270
(dp271
g7
(dp272
g9
V1997-98 Flair Showcase Row 0 #58 Steve Smith
p273
sg11
I1000
sg12
VFlair Showcase Row 0
p274
sg14
(lp275
Vhttp://www.beckett.com/basketball/1997-98/flair-showcase-row-0/58-steve-smith-3146156
p276
asg17
g18
sg19
(lp277
Vhttp://img.beckett.com/images/no-image.jpg
p278
asg22
V#58
p279
sg24
V1997-98
p280
sg26
g27
sg28
(lp281
VSteve Smith
p282
assbag1
(g2
g3
Ntp283
Rp284
(dp285
g7
(dp286
g9
V1997-98 Flair Showcase Legacy Collection Row 3 #42 Dikembe Mutombo
p287
sg11
I100
sg12
VFlair Showcase Legacy Collection Row 3
p288
sg14
(lp289
Vhttp://www.beckett.com/basketball/1997-98/flair-showcase-legacy-collection-row-3/42-dikembe-mutombo-3148600
p290
asg17
g18
sg19
(lp291
Vhttp://img.beckett.com/images/no-image.jpg
p292
asg22
V#42
p293
sg24
V1997-98
p294
sg26
g27
sg28
(lp295
VDikembe Mutombo
p296
assbag1
(g2
g3
Ntp297
Rp298
(dp299
g7
(dp300
g9
V1997-98 Flair Showcase Legacy Collection Row 3 #51 Mookie Blaylock
p301
sg11
I100
sg12
VFlair Showcase Legacy Collection Row 3
p302
sg14
(lp303
Vhttp://www.beckett.com/basketball/1997-98/flair-showcase-legacy-collection-row-3/51-mookie-blaylock-3148609
p304
asg17
g18
sg19
(lp305
Vhttp://img.beckett.com/images/no-image.jpg
p306
asg22
V#51
p307
sg24
V1997-98
p308
sg26
g27
sg28
(lp309
VMookie Blaylock
p310
assbag1
(g2
g3
Ntp311
Rp312
(dp313
g7
(dp314
g9
V1997-98 Flair Showcase Legacy Collection Row 3 #58 Steve Smith
p315
sg11
I100
sg12
VFlair Showcase Legacy Collection Row 3
p316
sg14
(lp317
Vhttp://www.beckett.com/basketball/1997-98/flair-showcase-legacy-collection-row-3/58-steve-smith-3148616
p318
asg17
g18
sg19
(lp319
Vhttp://img.beckett.com/images/no-image.jpg
p320
asg22
V#58
p321
sg24
V1997-98
p322
sg26
g27
sg28
(lp323
VSteve Smith
p324
assbag1
(g2
g3
Ntp325
Rp326
(dp327
g7
(dp328
g9
V1997-98 Metal Universe Precious Metal Gems #6 Steve Smith
p329
sg11
I90
sg12
VMetal Universe Precious Metal Gems
p330
sg14
(lp331
Vhttp://www.beckett.com/basketball/1997-98/metal-universe-precious-metal-gems/6-steve-smith-3142597
p332
asg17
g18
sg19
(lp333
Vhttp://img.beckett.com/images/no-image.jpg
p334
asg22
V#6
p335
sg24
V1997-98
p336
sg26
g27
sg28
(lp337
VSteve Smith
p338
assbag1
(g2
g3
Ntp339
Rp340
(dp341
g7
(dp342
g9
V1997-98 Metal Universe Precious Metal Gems #106 Dikembe Mutombo
p343
sg11
I90
sg12
VMetal Universe Precious Metal Gems
p344
sg14
(lp345
Vhttp://www.beckett.com/basketball/1997-98/metal-universe-precious-metal-gems/106-dikembe-mutombo-3142698
p346
asg17
g18
sg19
(lp347
Vhttp://img.beckett.com/images/no-image.jpg
p348
asg22
V#106
p349
sg24
V1997-98
p350
sg26
g27
sg28
(lp351
VDikembe Mutombo
p352
assbag1
(g2
g3
Ntp353
Rp354
(dp355
g7
(dp356
g9
V1997-98 Metal Universe Precious Metal Gems #110 Christian Laettner
p357
sg11
I90
sg12
VMetal Universe Precious Metal Gems
p358
sg14
(lp359
Vhttp://www.beckett.com/basketball/1997-98/metal-universe-precious-metal-gems/110-christian-laettner-3142702
p360
asg17
g18
sg19
(lp361
Vhttp://img.beckett.com/images/no-image.jpg
p362
asg22
V#110
p363
sg24
V1997-98
p364
sg26
g27
sg28
(lp365
VChristian Laettner
p366
assbag1
(g2
g3
Ntp367
Rp368
(dp369
g7
(dp370
g9
V1997-98 Metal Universe Precious Metal Gems #120 Mookie Blaylock
p371
sg11
I90
sg12
VMetal Universe Precious Metal Gems
p372
sg14
(lp373
Vhttp://www.beckett.com/basketball/1997-98/metal-universe-precious-metal-gems/120-mookie-blaylock-3142712
p374
asg17
g18
sg19
(lp375
Vhttp://img.beckett.com/images/no-image.jpg
p376
asg22
V#120
p377
sg24
V1997-98
p378
sg26
g27
sg28
(lp379
VMookie Blaylock
p380
assbag1
(g2
g3
Ntp381
Rp382
(dp383
g7
(dp384
g9
V1997-98 Metal Universe Championship Precious Metal Gems #12 Steve Smith
p385
sg11
I50
sg12
VMetal Universe Championship Precious Metal Gems
p386
sg14
(lp387
Vhttp://www.beckett.com/basketball/1997-98/metal-universe-championship-precious-metal-gems/12-steve-smith-3140687
p388
asg17
g18
sg19
(lp389
Vhttp://img.beckett.com/images/no-image.jpg
p390
asg22
V#12
p391
sg24
V1997-98
p392
sg26
g27
sg28
(lp393
VSteve Smith
p394
assbag1
(g2
g3
Ntp395
Rp396
(dp397
g7
(dp398
g9
V1997-98 Metal Universe Championship Precious Metal Gems #60 Chris Crawford
p399
sg11
I50
sg12
VMetal Universe Championship Precious Metal Gems
p400
sg14
(lp401
Vhttp://www.beckett.com/basketball/1997-98/metal-universe-championship-precious-metal-gems/60-chris-crawford-3140735
p402
asg17
g18
sg19
(lp403
Vhttp://img.beckett.com/images/no-image.jpg
p404
asg22
V#60
p405
sg24
V1997-98
p406
sg26
g27
sg28
(lp407
VChris Crawford
p408
assbag1
(g2
g3
Ntp409
Rp410
(dp411
g7
(dp412
g9
V1997-98 Metal Universe Championship Precious Metal Gems #89 Mookie Blaylock
p413
sg11
I50
sg12
VMetal Universe Championship Precious Metal Gems
p414
sg14
(lp415
Vhttp://www.beckett.com/basketball/1997-98/metal-universe-championship-precious-metal-gems/89-mookie-blaylock-3140764
p416
asg17
g18
sg19
(lp417
Vhttp://img.beckett.com/images/no-image.jpg
p418
asg22
V#89
p419
sg24
V1997-98
p420
sg26
g27
sg28
(lp421
VMookie Blaylock
p422
assbag1
(g2
g3
Ntp423
Rp424
(dp425
g7
(dp426
g9
V1997-98 SkyBox Premium Star Rubies #27 Tyrone Corbin
p427
sg11
I50
sg12
VSkyBox Premium Star Rubies
p428
sg14
(lp429
Vhttp://www.beckett.com/basketball/1997-98/skybox-premium-star-rubies/27-tyrone-corbin-3141198
p430
asg17
g18
sg19
(lp431
Vhttp://img.beckett.com/images/no-image.jpg
p432
asg22
V#27
p433
sg24
V1997-98
p434
sg26
g27
sg28
(lp435
VTyrone Corbin
p436
assbag1
(g2
g3
Ntp437
Rp438
(dp439
g7
(dp440
g9
V1997-98 SkyBox Premium Star Rubies #69 Mookie Blaylock
p441
sg11
I50
sg12
VSkyBox Premium Star Rubies
p442
sg14
(lp443
Vhttp://www.beckett.com/basketball/1997-98/skybox-premium-star-rubies/69-mookie-blaylock-3141240
p444
asg17
g18
sg19
(lp445
Vhttp://img.beckett.com/images/no-image.jpg
p446
asg22
V#69
p447
sg24
V1997-98
p448
sg26
g27
sg28
(lp449
VMookie Blaylock
p450
assbag1
(g2
g3
Ntp451
Rp452
(dp453
g7
(dp454
g9
V1997-98 SkyBox Premium Star Rubies #74 Dikembe Mutombo
p455
sg11
I50
sg12
VSkyBox Premium Star Rubies
p456
sg14
(lp457
Vhttp://www.beckett.com/basketball/1997-98/skybox-premium-star-rubies/74-dikembe-mutombo-3141245
p458
asg17
g18
sg19
(lp459
Vhttp://img.beckett.com/images/no-image.jpg
p460
asg22
V#74
p461
sg24
V1997-98
p462
sg26
g27
sg28
(lp463
VDikembe Mutombo
p464
assbag1
(g2
g3
Ntp465
Rp466
(dp467
g7
(dp468
g9
V1997-98 SkyBox Premium Star Rubies #84 Steve Smith
p469
sg11
I50
sg12
VSkyBox Premium Star Rubies
p470
sg14
(lp471
Vhttp://www.beckett.com/basketball/1997-98/skybox-premium-star-rubies/84-steve-smith-3141255
p472
asg17
g18
sg19
(lp473
Vhttp://img.beckett.com/images/no-image.jpg
p474
asg22
V#84
p475
sg24
V1997-98
p476
sg26
g27
sg28
(lp477
VSteve Smith
p478
assbag1
(g2
g3
Ntp479
Rp480
(dp481
g7
(dp482
g9
V1997-98 SkyBox Premium Star Rubies #105 Christian Laettner
p483
sg11
I50
sg12
VSkyBox Premium Star Rubies
p484
sg14
(lp485
Vhttp://www.beckett.com/basketball/1997-98/skybox-premium-star-rubies/105-christian-laettner-3141276
p486
asg17
g18
sg19
(lp487
Vhttp://img.beckett.com/images/no-image.jpg
p488
asg22
V#105
p489
sg24
V1997-98
p490
sg26
g27
sg28
(lp491
VChristian Laettner
p492
assbag1
(g2
g3
Ntp493
Rp494
(dp495
g7
(dp496
g9
V1997-98 SkyBox Premium Star Rubies #132 Eldridge Recasner
p497
sg11
I50
sg12
VSkyBox Premium Star Rubies
p498
sg14
(lp499
Vhttp://www.beckett.com/basketball/1997-98/skybox-premium-star-rubies/132-eldridge-recasner-3141301
p500
asg17
g18
sg19
(lp501
Vhttp://img.beckett.com/images/no-image.jpg
p502
asg22
V#132
p503
sg24
V1997-98
p504
sg26
g27
sg28
(lp505
VEldridge Recasner
p506
assbag1
(g2
g3
Ntp507
Rp508
(dp509
g7
(dp510
g9
V1997-98 SkyBox Premium Star Rubies #136 Alan Henderson
p511
sg11
I50
sg12
VSkyBox Premium Star Rubies
p512
sg14
(lp513
Vhttp://www.beckett.com/basketball/1997-98/skybox-premium-star-rubies/136-alan-henderson-3141305
p514
asg17
g18
sg19
(lp515
Vhttp://img.beckett.com/images/no-image.jpg
p516
asg22
V#136
p517
sg24
V1997-98
p518
sg26
g27
sg28
(lp519
VAlan Henderson
p520
assbag1
(g2
g3
Ntp521
Rp522
(dp523
g7
(dp524
g9
V1997-98 SkyBox Premium Star Rubies #154 Chris Crawford
p525
sg11
I50
sg12
VSkyBox Premium Star Rubies
p526
sg14
(lp527
Vhttp://www.beckett.com/basketball/1997-98/skybox-premium-star-rubies/154-chris-crawford-3141323
p528
asg17
g18
sg19
(lp529
Vhttp://img.beckett.com/images/no-image.jpg
p530
asg22
V#154
p531
sg24
V1997-98
p532
sg26
g27
sg28
(lp533
VChris Crawford
p534
assbag1
(g2
g3
Ntp535
Rp536
(dp537
g7
(dp538
g9
V1997-98 SkyBox Premium Star Rubies #198 Ed Gray
p539
sg11
I50
sg12
VSkyBox Premium Star Rubies
p540
sg14
(lp541
Vhttp://www.beckett.com/basketball/1997-98/skybox-premium-star-rubies/198-ed-gray-3141367
p542
asg17
g18
sg19
(lp543
Vhttp://img.beckett.com/images/no-image.jpg
p544
asg22
V#198
p545
sg24
V1997-98
p546
sg26
g27
sg28
(lp547
VEd Gray
p548
assbag1
(g2
g3
Ntp549
Rp550
(dp551
g7
(dp552
g9
V1997-98 SkyBox Premium Autographics Century Marks #79 Dikembe Mutombo
p553
sg11
I100
sg12
VSkyBox Premium Autographics Century Marks
p554
sg14
(lp555
Vhttp://www.beckett.com/basketball/1997-98/skybox-premium-autographics-century-marks/79-dikembe-mutombo-3141661
p556
asg17
g18
sg19
(lp557
Vhttp://img.beckett.com/images/no-image.jpg
p558
asg22
V#79
p559
sS'autograph'
p560
I1
sg24
V1997-98
p561
sg26
g27
sg28
(lp562
VDikembe Mutombo
p563
assbag1
(g2
g3
Ntp564
Rp565
(dp566
g7
(dp567
g9
V1997-98 SPx Grand Finale #1 Mookie Blaylock
p568
sg11
I50
sg12
VSPx Grand Finale
p569
sg14
(lp570
Vhttp://www.beckett.com/basketball/1997-98/spx-grand-finale/1-mookie-blaylock-3137685
p571
asg17
g18
sg19
(lp572
Vhttp://img.beckett.com/images/no-image.jpg
p573
asg22
V#1
p574
sg24
V1997-98
p575
sg26
g27
sg28
(lp576
VMookie Blaylock
p577
assbag1
(g2
g3
Ntp578
Rp579
(dp580
g7
(dp581
g9
V1997-98 SPx Grand Finale #2 Dikembe Mutombo
p582
sg11
I50
sg12
VSPx Grand Finale
p583
sg14
(lp584
Vhttp://www.beckett.com/basketball/1997-98/spx-grand-finale/2-dikembe-mutombo-3137686
p585
asg17
g18
sg19
(lp586
Vhttp://img.beckett.com/images/no-image.jpg
p587
asg22
V#2
p588
sg24
V1997-98
p589
sg26
g27
sg28
(lp590
VDikembe Mutombo
p591
assbag1
(g2
g3
Ntp592
Rp593
(dp594
g7
(dp595
g9
V1997-98 Stadium Club One Of A Kind #26 Tyrone Corbin
p596
sg11
I150
sg12
VStadium Club One Of A Kind
p597
sg14
(lp598
Vhttp://www.beckett.com/basketball/1997-98/stadium-club-one-of-a-kind/26-tyrone-corbin-3138325
p599
asg17
g18
sg19
(lp600
Vhttp://img.beckett.com/images/items_stock/185226/3138288/3138325/front.jpg
p601
asg22
V#26
p602
sg24
V1997-98
p603
sg26
g27
sg28
(lp604
VTyrone Corbin
p605
assbag1
(g2
g3
Ntp606
Rp607
(dp608
g7
(dp609
g9
V1997-98 Stadium Club One Of A Kind #31 Christian Laettner
p610
sg11
I150
sg12
VStadium Club One Of A Kind
p611
sg14
(lp612
Vhttp://www.beckett.com/basketball/1997-98/stadium-club-one-of-a-kind/31-christian-laettner-3138330
p613
asg17
g18
sg19
(lp614
Vhttp://img.beckett.com/images/no-image.jpg
p615
asg22
V#31
p616
sg24
V1997-98
p617
sg26
g27
sg28
(lp618
VChristian Laettner
p619
assbag1
(g2
g3
Ntp620
Rp621
(dp622
g7
(dp623
g9
V1997-98 Stadium Club One Of A Kind #90 Steve Smith
p624
sg11
I150
sg12
VStadium Club One Of A Kind
p625
sg14
(lp626
Vhttp://www.beckett.com/basketball/1997-98/stadium-club-one-of-a-kind/90-steve-smith-3138389
p627
asg17
g18
sg19
(lp628
Vhttp://img.beckett.com/images/items_stock/185226/3138288/3138389/front.jpg
p629
asg22
V#90
p630
sg24
V1997-98
p631
sg26
g27
sg28
(lp632
VSteve Smith
p633
assbag1
(g2
g3
Ntp634
Rp635
(dp636
g7
(dp637
g9
V1997-98 Stadium Club One Of A Kind #97 Mookie Blaylock
p638
sg11
I150
sg12
VStadium Club One Of A Kind
p639
sg14
(lp640
Vhttp://www.beckett.com/basketball/1997-98/stadium-club-one-of-a-kind/97-mookie-blaylock-3138396
p641
asg17
g18
sg19
(lp642
Vhttp://img.beckett.com/images/no-image.jpg
p643
asg22
V#97
p644
sg24
V1997-98
p645
sg26
g27
sg28
(lp646
VMookie Blaylock
p647
assbag1
(g2
g3
Ntp648
Rp649
(dp650
g7
(dp651
g9
V1997-98 Stadium Club One Of A Kind #124 Dikembe Mutombo
p652
sg11
I150
sg12
VStadium Club One Of A Kind
p653
sg14
(lp654
Vhttp://www.beckett.com/basketball/1997-98/stadium-club-one-of-a-kind/124-dikembe-mutombo-3138423
p655
asg17
g18
sg19
(lp656
Vhttp://img.beckett.com/images/items_stock/185226/3138288/3138423/front.jpg
p657
asg22
V#124
p658
sg24
V1997-98
p659
sg26
g27
sg28
(lp660
VDikembe Mutombo
p661
assbag1
(g2
g3
Ntp662
Rp663
(dp664
g7
(dp665
g9
V1997-98 Stadium Club One Of A Kind #151 Alan Henderson
p666
sg11
I150
sg12
VStadium Club One Of A Kind
p667
sg14
(lp668
Vhttp://www.beckett.com/basketball/1997-98/stadium-club-one-of-a-kind/151-alan-henderson-3138450
p669
asg17
g18
sg19
(lp670
Vhttp://img.beckett.com/images/items_stock/185226/3138288/3138450/front.jpg
p671
asg22
V#151
p672
sg24
V1997-98
p673
sg26
g27
sg28
(lp674
VAlan Henderson
p675
assbag1
(g2
g3
Ntp676
Rp677
(dp678
g7
(dp679
g9
V1997-98 Stadium Club One Of A Kind #181 Eldridge Recasner
p680
sg11
I150
sg12
VStadium Club One Of A Kind
p681
sg14
(lp682
Vhttp://www.beckett.com/basketball/1997-98/stadium-club-one-of-a-kind/181-eldridge-recasner-3138480
p683
asg17
g18
sg19
(lp684
Vhttp://img.beckett.com/images/items_stock/185226/3138288/3138480/front.jpg
p685
asg22
V#181
p686
sg24
V1997-98
p687
sg26
g27
sg28
(lp688
VEldridge Recasner
p689
assbag1
(g2
g3
Ntp690
Rp691
(dp692
g7
(dp693
g9
V1997-98 Stadium Club One Of A Kind #235 Ed Gray
p694
sg11
I150
sg12
VStadium Club One Of A Kind
p695
sg14
(lp696
Vhttp://www.beckett.com/basketball/1997-98/stadium-club-one-of-a-kind/235-ed-gray-3138534
p697
asg17
g18
sg19
(lp698
Vhttp://img.beckett.com/images/items_stock/185226/3138288/3138534/front.jpg
p699
asg22
V#235
p700
sg24
V1997-98
p701
sg26
g27
sg28
(lp702
VEd Gray
p703
assbag1
(g2
g3
Ntp704
Rp705
(dp706
g7
(dp707
g9
V1997-98 Stadium Club Printing Plates #26 Tyrone Corbin Black
p708
sg11
I1
sg12
VStadium Club Printing Plates
p709
sg14
(lp710
Vhttp://www.beckett.com/basketball/1997-98/stadium-club-printing-plates/26-tyrone-corbin-black-3138645
p711
asg17
g18
sg19
(lp712
Vhttp://img.beckett.com/images/no-image.jpg
p713
asg22
V#26
p714
sg24
V1997-98
p715
sg26
g27
sg28
(lp716
VTyrone Corbin
p717
assbag1
(g2
g3
Ntp718
Rp719
(dp720
g7
(dp721
g9
V1997-98 Stadium Club Printing Plates #26A Tyrone Corbin Cyan
p722
sg11
I1
sg12
VStadium Club Printing Plates
p723
sg14
(lp724
Vhttp://www.beckett.com/basketball/1997-98/stadium-club-printing-plates/26a-tyrone-corbin-cyan-3138646
p725
asg17
g18
sg19
(lp726
Vhttp://img.beckett.com/images/no-image.jpg
p727
asg22
V#26A
p728
sg24
V1997-98
p729
sg26
g27
sg28
(lp730
g717
assbag1
(g2
g3
Ntp731
Rp732
(dp733
g7
(dp734
g9
V1997-98 Stadium Club Printing Plates #26B Tyrone Corbin Magenta
p735
sg11
I1
sg12
VStadium Club Printing Plates
p736
sg14
(lp737
Vhttp://www.beckett.com/basketball/1997-98/stadium-club-printing-plates/26b-tyrone-corbin-magenta-3138647
p738
asg17
g18
sg19
(lp739
Vhttp://img.beckett.com/images/no-image.jpg
p740
asg22
V#26B
p741
sg24
V1997-98
p742
sg26
g27
sg28
(lp743
g717
assbag1
(g2
g3
Ntp744
Rp745
(dp746
g7
(dp747
g9
V1997-98 Stadium Club Printing Plates #26C Tyrone Corbin Yellow
p748
sg11
I1
sg12
VStadium Club Printing Plates
p749
sg14
(lp750
Vhttp://www.beckett.com/basketball/1997-98/stadium-club-printing-plates/26c-tyrone-corbin-yellow-3138648
p751
asg17
g18
sg19
(lp752
Vhttp://img.beckett.com/images/no-image.jpg
p753
asg22
V#26C
p754
sg24
V1997-98
p755
sg26
g27
sg28
(lp756
g717
assbag1
(g2
g3
Ntp757
Rp758
(dp759
g7
(dp760
g9
V1997-98 Stadium Club Printing Plates #31 Christian Laettner Black
p761
sg11
I1
sg12
VStadium Club Printing Plates
p762
sg14
(lp763
Vhttp://www.beckett.com/basketball/1997-98/stadium-club-printing-plates/31-christian-laettner-black-3138665
p764
asg17
g18
sg19
(lp765
Vhttp://img.beckett.com/images/no-image.jpg
p766
asg22
V#31
p767
sg24
V1997-98
p768
sg26
g27
sg28
(lp769
VChristian Laettner
p770
assbag1
(g2
g3
Ntp771
Rp772
(dp773
g7
(dp774
g9
V1997-98 Stadium Club Printing Plates #31A Christian Laettner Cyan
p775
sg11
I1
sg12
VStadium Club Printing Plates
p776
sg14
(lp777
Vhttp://www.beckett.com/basketball/1997-98/stadium-club-printing-plates/31a-christian-laettner-cyan-3138666
p778
asg17
g18
sg19
(lp779
Vhttp://img.beckett.com/images/no-image.jpg
p780
asg22
V#31A
p781
sg24
V1997-98
p782
sg26
g27
sg28
(lp783
g770
assbag1
(g2
g3
Ntp784
Rp785
(dp786
g7
(dp787
g9
V1997-98 Stadium Club Printing Plates #31B Christian Laettner Magenta
p788
sg11
I1
sg12
VStadium Club Printing Plates
p789
sg14
(lp790
Vhttp://www.beckett.com/basketball/1997-98/stadium-club-printing-plates/31b-christian-laettner-magenta-3138667
p791
asg17
g18
sg19
(lp792
Vhttp://img.beckett.com/images/no-image.jpg
p793
asg22
V#31B
p794
sg24
V1997-98
p795
sg26
g27
sg28
(lp796
g770
assbag1
(g2
g3
Ntp797
Rp798
(dp799
g7
(dp800
g9
V1997-98 Stadium Club Printing Plates #31C Christian Laettner Yellow
p801
sg11
I1
sg12
VStadium Club Printing Plates
p802
sg14
(lp803
Vhttp://www.beckett.com/basketball/1997-98/stadium-club-printing-plates/31c-christian-laettner-yellow-3138668
p804
asg17
g18
sg19
(lp805
Vhttp://img.beckett.com/images/no-image.jpg
p806
asg22
V#31C
p807
sg24
V1997-98
p808
sg26
g27
sg28
(lp809
g770
assbag1
(g2
g3
Ntp810
Rp811
(dp812
g7
(dp813
g9
V1997-98 Stadium Club Printing Plates #90 Steve Smith Black
p814
sg11
I1
sg12
VStadium Club Printing Plates
p815
sg14
(lp816
Vhttp://www.beckett.com/basketball/1997-98/stadium-club-printing-plates/90-steve-smith-black-3138901
p817
asg17
g18
sg19
(lp818
Vhttp://img.beckett.com/images/no-image.jpg
p819
asg22
V#90
p820
sg24
V1997-98
p821
sg26
g27
sg28
(lp822
VSteve Smith
p823
assbag1
(g2
g3
Ntp824
Rp825
(dp826
g7
(dp827
g9
V1997-98 Stadium Club Printing Plates #90A Steve Smith Cyan
p828
sg11
I1
sg12
VStadium Club Printing Plates
p829
sg14
(lp830
Vhttp://www.beckett.com/basketball/1997-98/stadium-club-printing-plates/90a-steve-smith-cyan-3138902
p831
asg17
g18
sg19
(lp832
Vhttp://img.beckett.com/images/no-image.jpg
p833
asg22
V#90A
p834
sg24
V1997-98
p835
sg26
g27
sg28
(lp836
g823
assbag1
(g2
g3
Ntp837
Rp838
(dp839
g7
(dp840
g9
V1997-98 Stadium Club Printing Plates #90B Steve Smith Magenta
p841
sg11
I1
sg12
VStadium Club Printing Plates
p842
sg14
(lp843
Vhttp://www.beckett.com/basketball/1997-98/stadium-club-printing-plates/90b-steve-smith-magenta-3138903
p844
asg17
g18
sg19
(lp845
Vhttp://img.beckett.com/images/no-image.jpg
p846
asg22
V#90B
p847
sg24
V1997-98
p848
sg26
g27
sg28
(lp849
g823
assbag1
(g2
g3
Ntp850
Rp851
(dp852
g7
(dp853
g9
V1997-98 Stadium Club Printing Plates #90C Steve Smith Yellow
p854
sg11
I1
sg12
VStadium Club Printing Plates
p855
sg14
(lp856
Vhttp://www.beckett.com/basketball/1997-98/stadium-club-printing-plates/90c-steve-smith-yellow-3138904
p857
asg17
g18
sg19
(lp858
Vhttp://img.beckett.com/images/no-image.jpg
p859
asg22
V#90C
p860
sg24
V1997-98
p861
sg26
g27
sg28
(lp862
g823
assbag1
(g2
g3
Ntp863
Rp864
(dp865
g7
(dp866
g9
V1997-98 Stadium Club Printing Plates #97 Mookie Blaylock Black
p867
sg11
I1
sg12
VStadium Club Printing Plates
p868
sg14
(lp869
Vhttp://www.beckett.com/basketball/1997-98/stadium-club-printing-plates/97-mookie-blaylock-black-3138929
p870
asg17
g18
sg19
(lp871
Vhttp://img.beckett.com/images/no-image.jpg
p872
asg22
V#97
p873
sg24
V1997-98
p874
sg26
g27
sg28
(lp875
VMookie Blaylock
p876
assbag1
(g2
g3
Ntp877
Rp878
(dp879
g7
(dp880
g9
V1997-98 Stadium Club Printing Plates #97A Mookie Blaylock Cyan
p881
sg11
I1
sg12
VStadium Club Printing Plates
p882
sg14
(lp883
Vhttp://www.beckett.com/basketball/1997-98/stadium-club-printing-plates/97a-mookie-blaylock-cyan-3138930
p884
asg17
g18
sg19
(lp885
Vhttp://img.beckett.com/images/no-image.jpg
p886
asg22
V#97A
p887
sg24
V1997-98
p888
sg26
g27
sg28
(lp889
g876
assbag1
(g2
g3
Ntp890
Rp891
(dp892
g7
(dp893
g9
V1997-98 Stadium Club Printing Plates #97B Mookie Blaylock Magenta
p894
sg11
I1
sg12
VStadium Club Printing Plates
p895
sg14
(lp896
Vhttp://www.beckett.com/basketball/1997-98/stadium-club-printing-plates/97b-mookie-blaylock-magenta-3138931
p897
asg17
g18
sg19
(lp898
Vhttp://img.beckett.com/images/no-image.jpg
p899
asg22
V#97B
p900
sg24
V1997-98
p901
sg26
g27
sg28
(lp902
g876
assbag1
(g2
g3
Ntp903
Rp904
(dp905
g7
(dp906
g9
V1997-98 Stadium Club Printing Plates #97C Mookie Blaylock Yellow
p907
sg11
I1
sg12
VStadium Club Printing Plates
p908
sg14
(lp909
Vhttp://www.beckett.com/basketball/1997-98/stadium-club-printing-plates/97c-mookie-blaylock-yellow-3138932
p910
asg17
g18
sg19
(lp911
Vhttp://img.beckett.com/images/no-image.jpg
p912
asg22
V#97C
p913
sg24
V1997-98
p914
sg26
g27
sg28
(lp915
g876
assbag1
(g2
g3
Ntp916
Rp917
(dp918
g7
(dp919
g9
V1997-98 Stadium Club Printing Plates #124 Dikembe Mutombo Black
p920
sg11
I1
sg12
VStadium Club Printing Plates
p921
sg14
(lp922
Vhttp://www.beckett.com/basketball/1997-98/stadium-club-printing-plates/124-dikembe-mutombo-black-3139037
p923
asg17
g18
sg19
(lp924
Vhttp://img.beckett.com/images/no-image.jpg
p925
asg22
V#124
p926
sg24
V1997-98
p927
sg26
g27
sg28
(lp928
VDikembe Mutombo
p929
assbag1
(g2
g3
Ntp930
Rp931
(dp932
g7
(dp933
g9
V1997-98 Stadium Club Printing Plates #124A Dikembe Mutombo Cyan
p934
sg11
I1
sg12
VStadium Club Printing Plates
p935
sg14
(lp936
Vhttp://www.beckett.com/basketball/1997-98/stadium-club-printing-plates/124a-dikembe-mutombo-cyan-3139038
p937
asg17
g18
sg19
(lp938
Vhttp://img.beckett.com/images/no-image.jpg
p939
asg22
V#124A
p940
sg24
V1997-98
p941
sg26
g27
sg28
(lp942
g929
assbag1
(g2
g3
Ntp943
Rp944
(dp945
g7
(dp946
g9
V1997-98 Stadium Club Printing Plates #124B Dikembe Mutombo Magenta
p947
sg11
I1
sg12
VStadium Club Printing Plates
p948
sg14
(lp949
Vhttp://www.beckett.com/basketball/1997-98/stadium-club-printing-plates/124b-dikembe-mutombo-magenta-3139039
p950
asg17
g18
sg19
(lp951
Vhttp://img.beckett.com/images/no-image.jpg
p952
asg22
V#124B
p953
sg24
V1997-98
p954
sg26
g27
sg28
(lp955
g929
assbag1
(g2
g3
Ntp956
Rp957
(dp958
g7
(dp959
g9
V1997-98 Stadium Club Printing Plates #124C Dikembe Mutombo Yellow
p960
sg11
I1
sg12
VStadium Club Printing Plates
p961
sg14
(lp962
Vhttp://www.beckett.com/basketball/1997-98/stadium-club-printing-plates/124c-dikembe-mutombo-yellow-3139040
p963
asg17
g18
sg19
(lp964
Vhttp://img.beckett.com/images/no-image.jpg
p965
asg22
V#124C
p966
sg24
V1997-98
p967
sg26
g27
sg28
(lp968
g929
assbag1
(g2
g3
Ntp969
Rp970
(dp971
g7
(dp972
g9
V1997-98 Stadium Club Printing Plates #151 Alan Henderson Black
p973
sg11
I1
sg12
VStadium Club Printing Plates
p974
sg14
(lp975
Vhttp://www.beckett.com/basketball/1997-98/stadium-club-printing-plates/151-alan-henderson-black-3139145
p976
asg17
g18
sg19
(lp977
Vhttp://img.beckett.com/images/no-image.jpg
p978
asg22
V#151
p979
sg24
V1997-98
p980
sg26
g27
sg28
(lp981
VAlan Henderson
p982
assbag1
(g2
g3
Ntp983
Rp984
(dp985
g7
(dp986
g9
V1997-98 Stadium Club Printing Plates #151A Alan Henderson Cyan
p987
sg11
I1
sg12
VStadium Club Printing Plates
p988
sg14
(lp989
Vhttp://www.beckett.com/basketball/1997-98/stadium-club-printing-plates/151a-alan-henderson-cyan-3139146
p990
asg17
g18
sg19
(lp991
Vhttp://img.beckett.com/images/no-image.jpg
p992
asg22
V#151A
p993
sg24
V1997-98
p994
sg26
g27
sg28
(lp995
g982
assbag1
(g2
g3
Ntp996
Rp997
(dp998
g7
(dp999
g9
V1997-98 Stadium Club Printing Plates #151B Alan Henderson Magenta
p1000
sg11
I1
sg12
VStadium Club Printing Plates
p1001
sg14
(lp1002
Vhttp://www.beckett.com/basketball/1997-98/stadium-club-printing-plates/151b-alan-henderson-magenta-3139147
p1003
asg17
g18
sg19
(lp1004
Vhttp://img.beckett.com/images/no-image.jpg
p1005
asg22
V#151B
p1006
sg24
V1997-98
p1007
sg26
g27
sg28
(lp1008
g982
assbag1
(g2
g3
Ntp1009
Rp1010
(dp1011
g7
(dp1012
g9
V1997-98 Stadium Club Printing Plates #151C Alan Henderson Yellow
p1013
sg11
I1
sg12
VStadium Club Printing Plates
p1014
sg14
(lp1015
Vhttp://www.beckett.com/basketball/1997-98/stadium-club-printing-plates/151c-alan-henderson-yellow-3139148
p1016
asg17
g18
sg19
(lp1017
Vhttp://img.beckett.com/images/no-image.jpg
p1018
asg22
V#151C
p1019
sg24
V1997-98
p1020
sg26
g27
sg28
(lp1021
g982
assbag1
(g2
g3
Ntp1022
Rp1023
(dp1024
g7
(dp1025
g9
V1997-98 Stadium Club Printing Plates #181 Eldridge Recasner Black
p1026
sg11
I1
sg12
VStadium Club Printing Plates
p1027
sg14
(lp1028
Vhttp://www.beckett.com/basketball/1997-98/stadium-club-printing-plates/181-eldridge-recasner-black-3139265
p1029
asg17
g18
sg19
(lp1030
Vhttp://img.beckett.com/images/no-image.jpg
p1031
asg22
V#181
p1032
sg24
V1997-98
p1033
sg26
g27
sg28
(lp1034
VEldridge Recasner
p1035
assbag1
(g2
g3
Ntp1036
Rp1037
(dp1038
g7
(dp1039
g9
V1997-98 Stadium Club Printing Plates #181A Eldridge Recasner Cyan
p1040
sg11
I1
sg12
VStadium Club Printing Plates
p1041
sg14
(lp1042
Vhttp://www.beckett.com/basketball/1997-98/stadium-club-printing-plates/181a-eldridge-recasner-cyan-3139266
p1043
asg17
g18
sg19
(lp1044
Vhttp://img.beckett.com/images/no-image.jpg
p1045
asg22
V#181A
p1046
sg24
V1997-98
p1047
sg26
g27
sg28
(lp1048
g1035
assbag1
(g2
g3
Ntp1049
Rp1050
(dp1051
g7
(dp1052
g9
V1997-98 Stadium Club Printing Plates #181B Eldridge Recasner Magenta
p1053
sg11
I1
sg12
VStadium Club Printing Plates
p1054
sg14
(lp1055
Vhttp://www.beckett.com/basketball/1997-98/stadium-club-printing-plates/181b-eldridge-recasner-magenta-3139267
p1056
asg17
g18
sg19
(lp1057
Vhttp://img.beckett.com/images/no-image.jpg
p1058
asg22
V#181B
p1059
sg24
V1997-98
p1060
sg26
g27
sg28
(lp1061
g1035
assbag1
(g2
g3
Ntp1062
Rp1063
(dp1064
g7
(dp1065
g9
V1997-98 Stadium Club Printing Plates #181C Eldridge Recasner Yellow
p1066
sg11
I1
sg12
VStadium Club Printing Plates
p1067
sg14
(lp1068
Vhttp://www.beckett.com/basketball/1997-98/stadium-club-printing-plates/181c-eldridge-recasner-yellow-3139268
p1069
asg17
g18
sg19
(lp1070
Vhttp://img.beckett.com/images/no-image.jpg
p1071
asg22
V#181C
p1072
sg24
V1997-98
p1073
sg26
g27
sg28
(lp1074
g1035
assbag1
(g2
g3
Ntp1075
Rp1076
(dp1077
g7
(dp1078
g9
V1997-98 Stadium Club Printing Plates #235 Ed Gray Black
p1079
sg11
I1
sg12
VStadium Club Printing Plates
p1080
sg14
(lp1081
Vhttp://www.beckett.com/basketball/1997-98/stadium-club-printing-plates/235-ed-gray-black-3139481
p1082
asg17
g18
sg19
(lp1083
Vhttp://img.beckett.com/images/no-image.jpg
p1084
asg22
V#235
p1085
sg24
V1997-98
p1086
sg26
g27
sg28
(lp1087
VEd Gray
p1088
assbag1
(g2
g3
Ntp1089
Rp1090
(dp1091
g7
(dp1092
g9
V1997-98 Stadium Club Printing Plates #235A Ed Gray Cyan
p1093
sg11
I1
sg12
VStadium Club Printing Plates
p1094
sg14
(lp1095
Vhttp://www.beckett.com/basketball/1997-98/stadium-club-printing-plates/235a-ed-gray-cyan-3139482
p1096
asg17
g18
sg19
(lp1097
Vhttp://img.beckett.com/images/no-image.jpg
p1098
asg22
V#235A
p1099
sg24
V1997-98
p1100
sg26
g27
sg28
(lp1101
g1088
assbag1
(g2
g3
Ntp1102
Rp1103
(dp1104
g7
(dp1105
g9
V1997-98 Stadium Club Printing Plates #235B Ed Gray Magenta
p1106
sg11
I1
sg12
VStadium Club Printing Plates
p1107
sg14
(lp1108
Vhttp://www.beckett.com/basketball/1997-98/stadium-club-printing-plates/235b-ed-gray-magenta-3139483
p1109
asg17
g18
sg19
(lp1110
Vhttp://img.beckett.com/images/no-image.jpg
p1111
asg22
V#235B
p1112
sg24
V1997-98
p1113
sg26
g27
sg28
(lp1114
g1088
assbag1
(g2
g3
Ntp1115
Rp1116
(dp1117
g7
(dp1118
g9
V1997-98 Stadium Club Printing Plates #235C Ed Gray Yellow
p1119
sg11
I1
sg12
VStadium Club Printing Plates
p1120
sg14
(lp1121
Vhttp://www.beckett.com/basketball/1997-98/stadium-club-printing-plates/235c-ed-gray-yellow-3139484
p1122
asg17
g18
sg19
(lp1123
Vhttp://img.beckett.com/images/no-image.jpg
p1124
asg22
V#235C
p1125
sg24
V1997-98
p1126
sg26
g27
sg28
(lp1127
g1088
assbag1
(g2
g3
Ntp1128
Rp1129
(dp1130
g7
(dp1131
g9
V1997-98 Ultra Masterpieces #7 Mookie Blaylock
p1132
sg11
I1
sg12
VUltra Masterpieces
p1133
sg14
(lp1134
Vhttp://www.beckett.com/basketball/1997-98/ultra-masterpieces/7-mookie-blaylock-3135737
p1135
asg17
g18
sg19
(lp1136
Vhttp://img.beckett.com/images/no-image.jpg
p1137
asg22
V#7
p1138
sg24
V1997-98
p1139
sg26
g27
sg28
(lp1140
VMookie Blaylock
p1141
assbag1
(g2
g3
Ntp1142
Rp1143
(dp1144
g7
(dp1145
g9
V1997-98 Ultra Masterpieces #43 Dikembe Mutombo
p1146
sg11
I1
sg12
VUltra Masterpieces
p1147
sg14
(lp1148
Vhttp://www.beckett.com/basketball/1997-98/ultra-masterpieces/43-dikembe-mutombo-3135773
p1149
asg17
g18
sg19
(lp1150
Vhttp://img.beckett.com/images/no-image.jpg
p1151
asg22
V#43
p1152
sg24
V1997-98
p1153
sg26
g27
sg28
(lp1154
VDikembe Mutombo
p1155
assbag1
(g2
g3
Ntp1156
Rp1157
(dp1158
g7
(dp1159
g9
V1997-98 Ultra Masterpieces #48 Steve Smith
p1160
sg11
I1
sg12
VUltra Masterpieces
p1161
sg14
(lp1162
Vhttp://www.beckett.com/basketball/1997-98/ultra-masterpieces/48-steve-smith-3135778
p1163
asg17
g18
sg19
(lp1164
Vhttp://img.beckett.com/images/no-image.jpg
p1165
asg22
V#48
p1166
sg24
V1997-98
p1167
sg26
g27
sg28
(lp1168
VSteve Smith
p1169
assbag1
(g2
g3
Ntp1170
Rp1171
(dp1172
g7
(dp1173
g9
V1997-98 Ultra Masterpieces #66 Christian Laettner
p1174
sg11
I1
sg12
VUltra Masterpieces
p1175
sg14
(lp1176
Vhttp://www.beckett.com/basketball/1997-98/ultra-masterpieces/66-christian-laettner-3135796
p1177
asg17
g18
sg19
(lp1178
Vhttp://img.beckett.com/images/no-image.jpg
p1179
asg22
V#66
p1180
sg24
V1997-98
p1181
sg26
g27
sg28
(lp1182
VChristian Laettner
p1183
assbag1
(g2
g3
Ntp1184
Rp1185
(dp1186
g7
(dp1187
g9
V1997-98 Ultra Masterpieces #135 Ed Gray
p1188
sg11
I1
sg12
VUltra Masterpieces
p1189
sg14
(lp1190
Vhttp://www.beckett.com/basketball/1997-98/ultra-masterpieces/135-ed-gray-3135865
p1191
asg17
g18
sg19
(lp1192
Vhttp://img.beckett.com/images/no-image.jpg
p1193
asg22
V#135
p1194
sg24
V1997-98
p1195
sg26
g27
sg28
(lp1196
VEd Gray
p1197
assbag1
(g2
g3
Ntp1198
Rp1199
(dp1200
g7
(dp1201
g9
V1997-98 Ultra Masterpieces #170 Alan Henderson
p1202
sg11
I1
sg12
VUltra Masterpieces
p1203
sg14
(lp1204
Vhttp://www.beckett.com/basketball/1997-98/ultra-masterpieces/170-alan-henderson-3135898
p1205
asg17
g18
sg19
(lp1206
Vhttp://img.beckett.com/images/no-image.jpg
p1207
asg22
V#170
p1208
sg24
V1997-98
p1209
sg26
g27
sg28
(lp1210
VAlan Henderson
p1211
assbag1
(g2
g3
Ntp1212
Rp1213
(dp1214
g7
(dp1215
g9
V1997-98 Ultra Masterpieces #178 Eldridge Recasner
p1216
sg11
I1
sg12
VUltra Masterpieces
p1217
sg14
(lp1218
Vhttp://www.beckett.com/basketball/1997-98/ultra-masterpieces/178-eldridge-recasner-3135906
p1219
asg17
g18
sg19
(lp1220
Vhttp://img.beckett.com/images/no-image.jpg
p1221
asg22
V#178
p1222
sg24
V1997-98
p1223
sg26
g27
sg28
(lp1224
VEldridge Recasner
p1225
assbag1
(g2
g3
Ntp1226
Rp1227
(dp1228
g7
(dp1229
g9
V1997-98 Ultra Masterpieces #213 Chris Crawford
p1230
sg11
I1
sg12
VUltra Masterpieces
p1231
sg14
(lp1232
Vhttp://www.beckett.com/basketball/1997-98/ultra-masterpieces/213-chris-crawford-3135941
p1233
asg17
g18
sg19
(lp1234
Vhttp://img.beckett.com/images/no-image.jpg
p1235
asg22
V#213
p1236
sg24
V1997-98
p1237
sg26
g27
sg28
(lp1238
VChris Crawford
p1239
assbag1
(g2
g3
Ntp1240
Rp1241
(dp1242
g7
(dp1243
g9
V1997-98 Ultra Platinum Medallion #7 Mookie Blaylock
p1244
sg11
I100
sg12
VUltra Platinum Medallion
p1245
sg14
(lp1246
Vhttp://www.beckett.com/basketball/1997-98/ultra-platinum-medallion/7-mookie-blaylock-3136021
p1247
asg17
g18
sg19
(lp1248
Vhttp://img.beckett.com/images/no-image.jpg
p1249
asg22
V#7
p1250
sg24
V1997-98
p1251
sg26
g27
sg28
(lp1252
VMookie Blaylock
p1253
assbag1
(g2
g3
Ntp1254
Rp1255
(dp1256
g7
(dp1257
g9
V1997-98 Ultra Platinum Medallion #43 Dikembe Mutombo
p1258
sg11
I100
sg12
VUltra Platinum Medallion
p1259
sg14
(lp1260
Vhttp://www.beckett.com/basketball/1997-98/ultra-platinum-medallion/43-dikembe-mutombo-3136057
p1261
asg17
g18
sg19
(lp1262
Vhttp://img.beckett.com/images/no-image.jpg
p1263
asg22
V#43
p1264
sg24
V1997-98
p1265
sg26
g27
sg28
(lp1266
VDikembe Mutombo
p1267
assbag1
(g2
g3
Ntp1268
Rp1269
(dp1270
g7
(dp1271
g9
V1997-98 Ultra Platinum Medallion #48 Steve Smith
p1272
sg11
I100
sg12
VUltra Platinum Medallion
p1273
sg14
(lp1274
Vhttp://www.beckett.com/basketball/1997-98/ultra-platinum-medallion/48-steve-smith-3136062
p1275
asg17
g18
sg19
(lp1276
Vhttp://img.beckett.com/images/no-image.jpg
p1277
asg22
V#48
p1278
sg24
V1997-98
p1279
sg26
g27
sg28
(lp1280
VSteve Smith
p1281
assbag1
(g2
g3
Ntp1282
Rp1283
(dp1284
g7
(dp1285
g9
V1997-98 Ultra Platinum Medallion #66 Christian Laettner
p1286
sg11
I100
sg12
VUltra Platinum Medallion
p1287
sg14
(lp1288
Vhttp://www.beckett.com/basketball/1997-98/ultra-platinum-medallion/66-christian-laettner-3136080
p1289
asg17
g18
sg19
(lp1290
Vhttp://img.beckett.com/images/no-image.jpg
p1291
asg22
V#66
p1292
sg24
V1997-98
p1293
sg26
g27
sg28
(lp1294
VChristian Laettner
p1295
assbag1
(g2
g3
Ntp1296
Rp1297
(dp1298
g7
(dp1299
g9
V1997-98 Ultra Platinum Medallion #135 Ed Gray
p1300
sg11
I100
sg12
VUltra Platinum Medallion
p1301
sg14
(lp1302
Vhttp://www.beckett.com/basketball/1997-98/ultra-platinum-medallion/135-ed-gray-3136149
p1303
asg17
g18
sg19
(lp1304
Vhttp://img.beckett.com/images/no-image.jpg
p1305
asg22
V#135
p1306
sg24
V1997-98
p1307
sg26
g27
sg28
(lp1308
VEd Gray
p1309
assbag1
(g2
g3
Ntp1310
Rp1311
(dp1312
g7
(dp1313
g9
V1997-98 Ultra Platinum Medallion #170 Alan Henderson
p1314
sg11
I100
sg12
VUltra Platinum Medallion
p1315
sg14
(lp1316
Vhttp://www.beckett.com/basketball/1997-98/ultra-platinum-medallion/170-alan-henderson-3136182
p1317
asg17
g18
sg19
(lp1318
Vhttp://img.beckett.com/images/no-image.jpg
p1319
asg22
V#170
p1320
sg24
V1997-98
p1321
sg26
g27
sg28
(lp1322
VAlan Henderson
p1323
assbag1
(g2
g3
Ntp1324
Rp1325
(dp1326
g7
(dp1327
g9
V1997-98 Ultra Platinum Medallion #178 Eldridge Recasner
p1328
sg11
I100
sg12
VUltra Platinum Medallion
p1329
sg14
(lp1330
Vhttp://www.beckett.com/basketball/1997-98/ultra-platinum-medallion/178-eldridge-recasner-3136190
p1331
asg17
g18
sg19
(lp1332
Vhttp://img.beckett.com/images/no-image.jpg
p1333
asg22
V#178
p1334
sg24
V1997-98
p1335
sg26
g27
sg28
(lp1336
VEldridge Recasner
p1337
assbag1
(g2
g3
Ntp1338
Rp1339
(dp1340
g7
(dp1341
g9
V1997-98 Ultra Platinum Medallion #213 Chris Crawford
p1342
sg11
I100
sg12
VUltra Platinum Medallion
p1343
sg14
(lp1344
Vhttp://www.beckett.com/basketball/1997-98/ultra-platinum-medallion/213-chris-crawford-3136225
p1345
asg17
g18
sg19
(lp1346
Vhttp://img.beckett.com/images/no-image.jpg
p1347
asg22
V#213
p1348
sg24
V1997-98
p1349
sg26
g27
sg28
(lp1350
VChris Crawford
p1351
assbag1
(g2
g3
Ntp1352
Rp1353
(dp1354
g7
(dp1355
g9
V1997-98 Z-Force Rave #18 Mookie Blaylock
p1356
sg11
I399
sg12
VZ-Force Rave
p1357
sg14
(lp1358
Vhttp://www.beckett.com/basketball/1997-98/z-force-rave/18-mookie-blaylock-3133042
p1359
asg17
g18
sg19
(lp1360
Vhttp://img.beckett.com/images/no-image.jpg
p1361
asg22
V#18
p1362
sg24
V1997-98
p1363
sg26
g27
sg28
(lp1364
VMookie Blaylock
p1365
assbag1
(g2
g3
Ntp1366
Rp1367
(dp1368
g7
(dp1369
g9
V1997-98 Z-Force Rave #39 Christian Laettner
p1370
sg11
I399
sg12
VZ-Force Rave
p1371
sg14
(lp1372
Vhttp://www.beckett.com/basketball/1997-98/z-force-rave/39-christian-laettner-3133063
p1373
asg17
g18
sg19
(lp1374
Vhttp://img.beckett.com/images/no-image.jpg
p1375
asg22
V#39
p1376
sg24
V1997-98
p1377
sg26
g27
sg28
(lp1378
VChristian Laettner
p1379
assbag1
(g2
g3
Ntp1380
Rp1381
(dp1382
g7
(dp1383
g9
V1997-98 Z-Force Rave #55 Dikembe Mutombo
p1384
sg11
I399
sg12
VZ-Force Rave
p1385
sg14
(lp1386
Vhttp://www.beckett.com/basketball/1997-98/z-force-rave/55-dikembe-mutombo-3133079
p1387
asg17
g18
sg19
(lp1388
Vhttp://img.beckett.com/images/no-image.jpg
p1389
asg22
V#55
p1390
sg24
V1997-98
p1391
sg26
g27
sg28
(lp1392
VDikembe Mutombo
p1393
assbag1
(g2
g3
Ntp1394
Rp1395
(dp1396
g7
(dp1397
g9
V1997-98 Z-Force Rave #83 Steve Smith
p1398
sg11
I399
sg12
VZ-Force Rave
p1399
sg14
(lp1400
Vhttp://www.beckett.com/basketball/1997-98/z-force-rave/83-steve-smith-3133107
p1401
asg17
g18
sg19
(lp1402
Vhttp://img.beckett.com/images/items_stock/185226/3133012/3133107/front.jpg
p1403
asg22
V#83
p1404
sg24
V1997-98
p1405
sg26
g27
sg28
(lp1406
VSteve Smith
p1407
assbag1
(g2
g3
Ntp1408
Rp1409
(dp1410
g7
(dp1411
g9
V1997-98 Z-Force Rave #133 Ed Gray
p1412
sg11
I399
sg12
VZ-Force Rave
p1413
sg14
(lp1414
Vhttp://www.beckett.com/basketball/1997-98/z-force-rave/133-ed-gray-3133155
p1415
asg17
g18
sg19
(lp1416
Vhttp://img.beckett.com/images/no-image.jpg
p1417
asg22
V#133
p1418
sg24
V1997-98
p1419
sg26
g27
sg28
(lp1420
VEd Gray
p1421
assbag1
(g2
g3
Ntp1422
Rp1423
(dp1424
g7
(dp1425
g9
V1997-98 Z-Force Rave #176 Alan Henderson
p1426
sg11
I399
sg12
VZ-Force Rave
p1427
sg14
(lp1428
Vhttp://www.beckett.com/basketball/1997-98/z-force-rave/176-alan-henderson-3133199
p1429
asg17
g18
sg19
(lp1430
Vhttp://img.beckett.com/images/items_stock/185226/3133012/3133199/front.jpg
p1431
asg22
V#176
p1432
sg24
V1997-98
p1433
sg26
g27
sg28
(lp1434
VAlan Henderson
p1435
assbag1
(g2
g3
Ntp1436
Rp1437
(dp1438
g7
(dp1439
g9
V1997-98 Z-Force Super Rave #133 Ed Gray
p1440
sg11
I50
sg12
VZ-Force Super Rave
p1441
sg14
(lp1442
Vhttp://www.beckett.com/basketball/1997-98/z-force-super-rave/133-ed-gray-3133267
p1443
asg17
g18
sg19
(lp1444
Vhttp://img.beckett.com/images/no-image.jpg
p1445
asg22
V#133
p1446
sg24
V1997-98
p1447
sg26
g27
sg28
(lp1448
VEd Gray
p1449
assbag1
(g2
g3
Ntp1450
Rp1451
(dp1452
g7
(dp1453
g9
V1997-98 Z-Force Super Rave #176 Alan Henderson
p1454
sg11
I50
sg12
VZ-Force Super Rave
p1455
sg14
(lp1456
Vhttp://www.beckett.com/basketball/1997-98/z-force-super-rave/176-alan-henderson-3133311
p1457
asg17
g18
sg19
(lp1458
Vhttp://img.beckett.com/images/no-image.jpg
p1459
asg22
V#176
p1460
sg24
V1997-98
p1461
sg26
g27
sg28
(lp1462
VAlan Henderson
p1463
assbag1
(g2
g3
Ntp1464
Rp1465
(dp1466
g7
(dp1467
g9
V1997-98 Upper Deck High Dimensions #D11 Dikembe Mutombo
p1468
sg11
I2000
sg12
VUpper Deck High Dimensions
p1469
sg14
(lp1470
Vhttp://www.beckett.com/basketball/1997-98/upper-deck-high-dimensions/d11-dikembe-mutombo-3132433
p1471
asg17
g18
sg19
(lp1472
Vhttp://img.beckett.com/images/no-image.jpg
p1473
asg22
V#D11
p1474
sg24
V1997-98
p1475
sg26
g27
sg28
(lp1476
VDikembe Mutombo
p1477
assbag1
(g2
g3
Ntp1478
Rp1479
(dp1480
g7
(dp1481
g9
V1997-98 Metal Universe Precious Metal Gems Emerald #6 Steve Smith
p1482
sg11
I10
sg12
VMetal Universe Precious Metal Gems Emerald
p1483
sg14
(lp1484
Vhttp://www.beckett.com/basketball/1997-98/metal-universe-precious-metal-gems-emerald/6-steve-smith-7055454
p1485
asg17
g18
sg19
(lp1486
Vhttp://img.beckett.com/images/no-image.jpg
p1487
asg22
V#6
p1488
sg24
V1997-98
p1489
sg26
g27
sg28
(lp1490
VSteve Smith
p1491
assbag1
(g2
g3
Ntp1492
Rp1493
(dp1494
g7
(dp1495
g9
V1997-98 Metal Universe Precious Metal Gems Emerald #106 Dikembe Mutombo
p1496
sg11
I10
sg12
VMetal Universe Precious Metal Gems Emerald
p1497
sg14
(lp1498
Vhttp://www.beckett.com/basketball/1997-98/metal-universe-precious-metal-gems-emerald/106-dikembe-mutombo-7055555
p1499
asg17
g18
sg19
(lp1500
Vhttp://img.beckett.com/images/no-image.jpg
p1501
asg22
V#106
p1502
sg24
V1997-98
p1503
sg26
g27
sg28
(lp1504
VDikembe Mutombo
p1505
assbag1
(g2
g3
Ntp1506
Rp1507
(dp1508
g7
(dp1509
g9
V1997-98 Metal Universe Precious Metal Gems Emerald #110 Christian Laettner
p1510
sg11
I10
sg12
VMetal Universe Precious Metal Gems Emerald
p1511
sg14
(lp1512
Vhttp://www.beckett.com/basketball/1997-98/metal-universe-precious-metal-gems-emerald/110-christian-laettner-7055559
p1513
asg17
g18
sg19
(lp1514
Vhttp://img.beckett.com/images/no-image.jpg
p1515
asg22
V#110
p1516
sg24
V1997-98
p1517
sg26
g27
sg28
(lp1518
VChristian Laettner
p1519
assbag1
(g2
g3
Ntp1520
Rp1521
(dp1522
g7
(dp1523
g9
V1997-98 Metal Universe Precious Metal Gems Emerald #120 Mookie Blaylock
p1524
sg11
I10
sg12
VMetal Universe Precious Metal Gems Emerald
p1525
sg14
(lp1526
Vhttp://www.beckett.com/basketball/1997-98/metal-universe-precious-metal-gems-emerald/120-mookie-blaylock-7055569
p1527
asg17
g18
sg19
(lp1528
Vhttp://img.beckett.com/images/no-image.jpg
p1529
asg22
V#120
p1530
sg24
V1997-98
p1531
sg26
g27
sg28
(lp1532
VMookie Blaylock
p1533
assbag1
(g2
g3
Ntp1534
Rp1535
(dp1536
g7
(dp1537
g9
V1997-98 SP Authentic Profiles 3 #P6 Dikembe Mutombo
p1538
sg11
I100
sg12
VSP Authentic Profiles 3
p1539
sg14
(lp1540
Vhttp://www.beckett.com/basketball/1997-98/sp-authentic-profiles-3/p6-dikembe-mutombo-3140287
p1541
asg17
g18
sg19
(lp1542
Vhttp://img.beckett.com/images/no-image.jpg
p1543
asg22
V#P6
p1544
sg24
V1997-98
p1545
sg26
g27
sg28
(lp1546
VDikembe Mutombo
p1547
assbag1
(g2
g3
Ntp1548
Rp1549
(dp1550
g7
(dp1551
g9
V1997-98 Upper Deck Diamond Dimensions #D11 Dikembe Mutombo
p1552
sg11
I100
sg12
VUpper Deck Diamond Dimensions
p1553
sg14
(lp1554
Vhttp://www.beckett.com/basketball/1997-98/upper-deck-diamond-dimensions/d11-dikembe-mutombo-3132471
p1555
asg17
g18
sg19
(lp1556
Vhttp://img.beckett.com/images/no-image.jpg
p1557
asg22
V#D11
p1558
sg24
V1997-98
p1559
sg26
g27
sg28
(lp1560
VDikembe Mutombo
p1561
assba.