(lp0
Naccopy_reg
_reconstructor
p1
(ctutorial.items
BeckettItem
p2
c__builtin__
object
p3
Ntp4
Rp5
(dp6
S'_values'
p7
(dp8
S'originalItemDescription'
p9
V1997-98 E-X2001 Essential Credentials Future #12 Antoine Walker/69
p10
sS'serialNumber'
p11
I69
sS'setName'
p12
VE-X2001 Essential Credentials Future
p13
sS'beckettLink'
p14
(lp15
Vhttp://www.beckett.com/basketball/1997-98/e-x2001-essential-credentials-future/12-antoine-walker69-3144598
p16
asS'team'
p17
S'Boston Celtics'
p18
sS'imageLink'
p19
(lp20
Vhttp://img.beckett.com/images/no-image.jpg
p21
asS'cardNumber'
p22
V#12
p23
sS'year'
p24
V1997-98
p25
sS'sport'
p26
S'Basketball'
p27
sS'playerNames'
p28
(lp29
VAntoine Walker
p30
assbag1
(g2
g3
Ntp31
Rp32
(dp33
g7
(dp34
g9
V1997-98 E-X2001 Essential Credentials Future #80 Ron Mercer/1
p35
sg11
I1
sg12
VE-X2001 Essential Credentials Future
p36
sg14
(lp37
Vhttp://www.beckett.com/basketball/1997-98/e-x2001-essential-credentials-future/80-ron-mercer1-3144666
p38
asg17
g18
sg19
(lp39
Vhttp://img.beckett.com/images/no-image.jpg
p40
asg22
V#80
p41
sg24
V1997-98
p42
sg26
g27
sg28
(lp43
VRon Mercer
p44
assbag1
(g2
g3
Ntp45
Rp46
(dp47
g7
(dp48
g9
V1997-98 E-X2001 Essential Credentials Now #12 Antoine Walker/12
p49
sg11
I12
sg12
VE-X2001 Essential Credentials Now
p50
sg14
(lp51
Vhttp://www.beckett.com/basketball/1997-98/e-x2001-essential-credentials-now/12-antoine-walker12-3144685
p52
asg17
g18
sg19
(lp53
Vhttp://img.beckett.com/images/no-image.jpg
p54
asg22
V#12
p55
sg24
V1997-98
p56
sg26
g27
sg28
(lp57
VAntoine Walker
p58
assbag1
(g2
g3
Ntp59
Rp60
(dp61
g7
(dp62
g9
V1997-98 E-X2001 Essential Credentials Now #80 Ron Mercer/80
p63
sg11
I80
sg12
VE-X2001 Essential Credentials Now
p64
sg14
(lp65
Vhttp://www.beckett.com/basketball/1997-98/e-x2001-essential-credentials-now/80-ron-mercer80-3144753
p66
asg17
g18
sg19
(lp67
Vhttp://img.beckett.com/images/no-image.jpg
p68
asg22
V#80
p69
sg24
V1997-98
p70
sg26
g27
sg28
(lp71
VRon Mercer
p72
assbag1
(g2
g3
Ntp73
Rp74
(dp75
g7
(dp76
g9
V1997-98 Finest Embossed Refractors #126 Antoine Walker S
p77
sg11
I263
sg12
VFinest Embossed Refractors
p78
sg14
(lp79
Vhttp://www.beckett.com/basketball/1997-98/finest-embossed-refractors/126-antoine-walker-s-3145334
p80
asg17
g18
sg19
(lp81
Vhttp://img.beckett.com/images/items_stock/185226/3145306/3145334/front.jpg
p82
asg22
V#126
p83
sg24
V1997-98
p84
sg26
g27
sg28
(lp85
VAntoine Walker
p86
assbag1
(g2
g3
Ntp87
Rp88
(dp89
g7
(dp90
g9
V1997-98 Finest Embossed Refractors #293 Ron Mercer S
p91
sg11
I263
sg12
VFinest Embossed Refractors
p92
sg14
(lp93
Vhttp://www.beckett.com/basketball/1997-98/finest-embossed-refractors/293-ron-mercer-s-3145401
p94
asg17
g18
sg19
(lp95
Vhttp://img.beckett.com/images/no-image.jpg
p96
asg22
V#293
p97
sg24
V1997-98
p98
sg26
g27
sg28
(lp99
VRon Mercer
p100
assbag1
(g2
g3
Ntp101
Rp102
(dp103
g7
(dp104
g9
V1997-98 Finest Embossed Refractors #312 Antoine Walker G
p105
sg11
I74
sg12
VFinest Embossed Refractors
p106
sg14
(lp107
Vhttp://www.beckett.com/basketball/1997-98/finest-embossed-refractors/312-antoine-walker-g-3145420
p108
asg17
g18
sg19
(lp109
Vhttp://img.beckett.com/images/no-image.jpg
p110
asg22
V#312
p111
sg24
V1997-98
p112
sg26
g27
sg28
(lp113
VAntoine Walker
p114
assbag1
(g2
g3
Ntp115
Rp116
(dp117
g7
(dp118
g9
V1997-98 Finest Refractors #126 Antoine Walker S
p119
sg11
I1090
sg12
VFinest Refractors
p120
sg14
(lp121
Vhttp://www.beckett.com/basketball/1997-98/finest-refractors/126-antoine-walker-s-3145592
p122
asg17
g18
sg19
(lp123
Vhttp://img.beckett.com/images/items_stock/185226/3145435/3145592/front.jpg
p124
asg22
V#126
p125
sg24
V1997-98
p126
sg26
g27
sg28
(lp127
VAntoine Walker
p128
assbag1
(g2
g3
Ntp129
Rp130
(dp131
g7
(dp132
g9
V1997-98 Finest Refractors #293 Ron Mercer S
p133
sg11
I1090
sg12
VFinest Refractors
p134
sg14
(lp135
Vhttp://www.beckett.com/basketball/1997-98/finest-refractors/293-ron-mercer-s-3145759
p136
asg17
g18
sg19
(lp137
Vhttp://img.beckett.com/images/items_stock/185226/3145435/3145759/front.jpg
p138
asg22
V#293
p139
sg24
V1997-98
p140
sg26
g27
sg28
(lp141
VRon Mercer
p142
assbag1
(g2
g3
Ntp143
Rp144
(dp145
g7
(dp146
g9
V1997-98 Finest Refractors #312 Antoine Walker G
p147
sg11
I289
sg12
VFinest Refractors
p148
sg14
(lp149
Vhttp://www.beckett.com/basketball/1997-98/finest-refractors/312-antoine-walker-g-3145778
p150
asg17
g18
sg19
(lp151
Vhttp://img.beckett.com/images/no-image.jpg
p152
asg22
V#312
p153
sg24
V1997-98
p154
sg26
g27
sg28
(lp155
VAntoine Walker
p156
assbag1
(g2
g3
Ntp157
Rp158
(dp159
g7
(dp160
g9
V1997-98 Flair Showcase Row 0 #8 Antoine Walker
p161
sg11
I250
sg12
VFlair Showcase Row 0
p162
sg14
(lp163
Vhttp://www.beckett.com/basketball/1997-98/flair-showcase-row-0/8-antoine-walker-3146106
p164
asg17
g18
sg19
(lp165
Vhttp://img.beckett.com/images/no-image.jpg
p166
asg22
V#8
p167
sg24
V1997-98
p168
sg26
g27
sg28
(lp169
VAntoine Walker
p170
assbag1
(g2
g3
Ntp171
Rp172
(dp173
g7
(dp174
g9
V1997-98 Flair Showcase Row 0 #14 Ron Mercer
p175
sg11
I250
sg12
VFlair Showcase Row 0
p176
sg14
(lp177
Vhttp://www.beckett.com/basketball/1997-98/flair-showcase-row-0/14-ron-mercer-3146112
p178
asg17
g18
sg19
(lp179
Vhttp://img.beckett.com/images/no-image.jpg
p180
asg22
V#14
p181
sg24
V1997-98
p182
sg26
g27
sg28
(lp183
VRon Mercer
p184
assbag1
(g2
g3
Ntp185
Rp186
(dp187
g7
(dp188
g9
V1997-98 Flair Showcase Legacy Collection Row 3 #8 Antoine Walker
p189
sg11
I100
sg12
VFlair Showcase Legacy Collection Row 3
p190
sg14
(lp191
Vhttp://www.beckett.com/basketball/1997-98/flair-showcase-legacy-collection-row-3/8-antoine-walker-3148566
p192
asg17
g18
sg19
(lp193
Vhttp://img.beckett.com/images/items_stock/185226/3148549/3148566/front.jpg
p194
asg22
V#8
p195
sg24
V1997-98
p196
sg26
g27
sg28
(lp197
VAntoine Walker
p198
assbag1
(g2
g3
Ntp199
Rp200
(dp201
g7
(dp202
g9
V1997-98 Flair Showcase Legacy Collection Row 3 #14 Ron Mercer
p203
sg11
I100
sg12
VFlair Showcase Legacy Collection Row 3
p204
sg14
(lp205
Vhttp://www.beckett.com/basketball/1997-98/flair-showcase-legacy-collection-row-3/14-ron-mercer-3148572
p206
asg17
g18
sg19
(lp207
Vhttp://img.beckett.com/images/no-image.jpg
p208
asg22
V#14
p209
sg24
V1997-98
p210
sg26
g27
sg28
(lp211
VRon Mercer
p212
assbag1
(g2
g3
Ntp213
Rp214
(dp215
g7
(dp216
g9
V1997-98 Metal Universe Precious Metal Gems #62 Ron Mercer
p217
sg11
I90
sg12
VMetal Universe Precious Metal Gems
p218
sg14
(lp219
Vhttp://www.beckett.com/basketball/1997-98/metal-universe-precious-metal-gems/62-ron-mercer-3142654
p220
asg17
g18
sg19
(lp221
Vhttp://img.beckett.com/images/no-image.jpg
p222
asg22
V#62
p223
sg24
V1997-98
p224
sg26
g27
sg28
(lp225
VRon Mercer
p226
assbag1
(g2
g3
Ntp227
Rp228
(dp229
g7
(dp230
g9
V1997-98 Metal Universe Precious Metal Gems #72 Antoine Walker
p231
sg11
I90
sg12
VMetal Universe Precious Metal Gems
p232
sg14
(lp233
Vhttp://www.beckett.com/basketball/1997-98/metal-universe-precious-metal-gems/72-antoine-walker-3142664
p234
asg17
g18
sg19
(lp235
Vhttp://img.beckett.com/images/no-image.jpg
p236
asg22
V#72
p237
sg24
V1997-98
p238
sg26
g27
sg28
(lp239
VAntoine Walker
p240
assbag1
(g2
g3
Ntp241
Rp242
(dp243
g7
(dp244
g9
V1997-98 Metal Universe Championship Precious Metal Gems #27 Antoine Walker
p245
sg11
I50
sg12
VMetal Universe Championship Precious Metal Gems
p246
sg14
(lp247
Vhttp://www.beckett.com/basketball/1997-98/metal-universe-championship-precious-metal-gems/27-antoine-walker-3140702
p248
asg17
g18
sg19
(lp249
Vhttp://img.beckett.com/images/no-image.jpg
p250
asg22
V#27
p251
sg24
V1997-98
p252
sg26
g27
sg28
(lp253
VAntoine Walker
p254
assbag1
(g2
g3
Ntp255
Rp256
(dp257
g7
(dp258
g9
V1997-98 Metal Universe Championship Precious Metal Gems #81 Ron Mercer
p259
sg11
I50
sg12
VMetal Universe Championship Precious Metal Gems
p260
sg14
(lp261
Vhttp://www.beckett.com/basketball/1997-98/metal-universe-championship-precious-metal-gems/81-ron-mercer-3140756
p262
asg17
g18
sg19
(lp263
Vhttp://img.beckett.com/images/no-image.jpg
p264
asg22
V#81
p265
sg24
V1997-98
p266
sg26
g27
sg28
(lp267
VRon Mercer
p268
assbag1
(g2
g3
Ntp269
Rp270
(dp271
g7
(dp272
g9
V1997-98 SkyBox Premium Star Rubies #35 Ron Mercer
p273
sg11
I50
sg12
VSkyBox Premium Star Rubies
p274
sg14
(lp275
Vhttp://www.beckett.com/basketball/1997-98/skybox-premium-star-rubies/35-ron-mercer-3141206
p276
asg17
g18
sg19
(lp277
Vhttp://img.beckett.com/images/no-image.jpg
p278
asg22
V#35
p279
sg24
V1997-98
p280
sg26
g27
sg28
(lp281
VRon Mercer
p282
assbag1
(g2
g3
Ntp283
Rp284
(dp285
g7
(dp286
g9
V1997-98 SkyBox Premium Star Rubies #63 Antoine Walker
p287
sg11
I50
sg12
VSkyBox Premium Star Rubies
p288
sg14
(lp289
Vhttp://www.beckett.com/basketball/1997-98/skybox-premium-star-rubies/63-antoine-walker-3141234
p290
asg17
g18
sg19
(lp291
Vhttp://img.beckett.com/images/no-image.jpg
p292
asg22
V#63
p293
sg24
V1997-98
p294
sg26
g27
sg28
(lp295
VAntoine Walker
p296
assbag1
(g2
g3
Ntp297
Rp298
(dp299
g7
(dp300
g9
V1997-98 SkyBox Premium Star Rubies #248 Antoine Walker TS
p301
sg11
I50
sg12
VSkyBox Premium Star Rubies
p302
sg14
(lp303
Vhttp://www.beckett.com/basketball/1997-98/skybox-premium-star-rubies/248-antoine-walker-ts-3141417
p304
asg17
g18
sg19
(lp305
Vhttp://img.beckett.com/images/no-image.jpg
p306
asg22
V#248
p307
sg24
V1997-98
p308
sS'subsetName'
p309
VTS
p310
sg26
g27
sg28
(lp311
VAntoine Walker
p312
assbag1
(g2
g3
Ntp313
Rp314
(dp315
g7
(dp316
g9
V1997-98 SkyBox Premium Autographics Century Marks #9 Dana Barros
p317
sg11
I100
sg12
VSkyBox Premium Autographics Century Marks
p318
sg14
(lp319
Vhttp://www.beckett.com/basketball/1997-98/skybox-premium-autographics-century-marks/9-dana-barros-3141591
p320
asg17
g18
sg19
(lp321
Vhttp://img.beckett.com/images/no-image.jpg
p322
asg22
V#9
p323
sS'autograph'
p324
I1
sg24
V1997-98
p325
sg26
g27
sg28
(lp326
VDana Barros
p327
assbag1
(g2
g3
Ntp328
Rp329
(dp330
g7
(dp331
g9
V1997-98 SkyBox Premium Autographics Century Marks #30 Andrew DeClercq
p332
sg11
I100
sg12
VSkyBox Premium Autographics Century Marks
p333
sg14
(lp334
Vhttp://www.beckett.com/basketball/1997-98/skybox-premium-autographics-century-marks/30-andrew-declercq-3141612
p335
asg17
g18
sg19
(lp336
Vhttp://img.beckett.com/images/no-image.jpg
p337
asg22
V#30
p338
sg324
I1
sg24
V1997-98
p339
sg26
g27
sg28
(lp340
VAndrew DeClercq
p341
assbag1
(g2
g3
Ntp342
Rp343
(dp344
g7
(dp345
g9
V1997-98 SkyBox Premium Autographics Century Marks #72 Ron Mercer
p346
sg11
I100
sg12
VSkyBox Premium Autographics Century Marks
p347
sg14
(lp348
Vhttp://www.beckett.com/basketball/1997-98/skybox-premium-autographics-century-marks/72-ron-mercer-3141654
p349
asg17
g18
sg19
(lp350
Vhttp://img.beckett.com/images/no-image.jpg
p351
asg22
V#72
p352
sg324
I1
sg24
V1997-98
p353
sg26
g27
sg28
(lp354
VRon Mercer
p355
assbag1
(g2
g3
Ntp356
Rp357
(dp358
g7
(dp359
g9
V1997-98 SkyBox Premium Autographics Century Marks #107 Antoine Walker
p360
sg11
I100
sg12
VSkyBox Premium Autographics Century Marks
p361
sg14
(lp362
Vhttp://www.beckett.com/basketball/1997-98/skybox-premium-autographics-century-marks/107-antoine-walker-3141689
p363
asg17
g18
sg19
(lp364
Vhttp://img.beckett.com/images/no-image.jpg
p365
asg22
V#107
p366
sg324
I1
sg24
V1997-98
p367
sg26
g27
sg28
(lp368
VAntoine Walker
p369
assbag1
(g2
g3
Ntp370
Rp371
(dp372
g7
(dp373
g9
V1997-98 SPx Grand Finale #4 Antoine Walker
p374
sg11
I50
sg12
VSPx Grand Finale
p375
sg14
(lp376
Vhttp://www.beckett.com/basketball/1997-98/spx-grand-finale/4-antoine-walker-3137688
p377
asg17
g18
sg19
(lp378
Vhttp://img.beckett.com/images/no-image.jpg
p379
asg22
V#4
p380
sg24
V1997-98
p381
sg26
g27
sg28
(lp382
VAntoine Walker
p383
assbag1
(g2
g3
Ntp384
Rp385
(dp386
g7
(dp387
g9
V1997-98 Stadium Club One Of A Kind #95 Antoine Walker
p388
sg11
I150
sg12
VStadium Club One Of A Kind
p389
sg14
(lp390
Vhttp://www.beckett.com/basketball/1997-98/stadium-club-one-of-a-kind/95-antoine-walker-3138394
p391
asg17
g18
sg19
(lp392
Vhttp://img.beckett.com/images/no-image.jpg
p393
asg22
V#95
p394
sg24
V1997-98
p395
sg26
g27
sg28
(lp396
VAntoine Walker
p397
assbag1
(g2
g3
Ntp398
Rp399
(dp400
g7
(dp401
g9
V1997-98 Stadium Club One Of A Kind #153 Greg Minor
p402
sg11
I150
sg12
VStadium Club One Of A Kind
p403
sg14
(lp404
Vhttp://www.beckett.com/basketball/1997-98/stadium-club-one-of-a-kind/153-greg-minor-3138452
p405
asg17
g18
sg19
(lp406
Vhttp://img.beckett.com/images/items_stock/185226/3138288/3138452/front.jpg
p407
asg22
V#153
p408
sg24
V1997-98
p409
sg26
g27
sg28
(lp410
VGreg Minor
p411
assbag1
(g2
g3
Ntp412
Rp413
(dp414
g7
(dp415
g9
V1997-98 Stadium Club One Of A Kind #178 Dana Barros
p416
sg11
I150
sg12
VStadium Club One Of A Kind
p417
sg14
(lp418
Vhttp://www.beckett.com/basketball/1997-98/stadium-club-one-of-a-kind/178-dana-barros-3138477
p419
asg17
g18
sg19
(lp420
Vhttp://img.beckett.com/images/items_stock/185226/3138288/3138477/front.jpg
p421
asg22
V#178
p422
sg24
V1997-98
p423
sg26
g27
sg28
(lp424
VDana Barros
p425
assbag1
(g2
g3
Ntp426
Rp427
(dp428
g7
(dp429
g9
V1997-98 Stadium Club One Of A Kind #232 Ron Mercer
p430
sg11
I150
sg12
VStadium Club One Of A Kind
p431
sg14
(lp432
Vhttp://www.beckett.com/basketball/1997-98/stadium-club-one-of-a-kind/232-ron-mercer-3138531
p433
asg17
g18
sg19
(lp434
Vhttp://img.beckett.com/images/no-image.jpg
p435
asg22
V#232
p436
sg24
V1997-98
p437
sg26
g27
sg28
(lp438
VRon Mercer
p439
assbag1
(g2
g3
Ntp440
Rp441
(dp442
g7
(dp443
g9
V1997-98 Stadium Club Printing Plates #95 Antoine Walker Black
p444
sg11
I1
sg12
VStadium Club Printing Plates
p445
sg14
(lp446
Vhttp://www.beckett.com/basketball/1997-98/stadium-club-printing-plates/95-antoine-walker-black-3138921
p447
asg17
g18
sg19
(lp448
Vhttp://img.beckett.com/images/no-image.jpg
p449
asg22
V#95
p450
sg24
V1997-98
p451
sg26
g27
sg28
(lp452
VAntoine Walker
p453
assbag1
(g2
g3
Ntp454
Rp455
(dp456
g7
(dp457
g9
V1997-98 Stadium Club Printing Plates #95A Antoine Walker Cyan
p458
sg11
I1
sg12
VStadium Club Printing Plates
p459
sg14
(lp460
Vhttp://www.beckett.com/basketball/1997-98/stadium-club-printing-plates/95a-antoine-walker-cyan-3138922
p461
asg17
g18
sg19
(lp462
Vhttp://img.beckett.com/images/no-image.jpg
p463
asg22
V#95A
p464
sg24
V1997-98
p465
sg26
g27
sg28
(lp466
g453
assbag1
(g2
g3
Ntp467
Rp468
(dp469
g7
(dp470
g9
V1997-98 Stadium Club Printing Plates #95B Antoine Walker Magenta
p471
sg11
I1
sg12
VStadium Club Printing Plates
p472
sg14
(lp473
Vhttp://www.beckett.com/basketball/1997-98/stadium-club-printing-plates/95b-antoine-walker-magenta-3138923
p474
asg17
g18
sg19
(lp475
Vhttp://img.beckett.com/images/no-image.jpg
p476
asg22
V#95B
p477
sg24
V1997-98
p478
sg26
g27
sg28
(lp479
g453
assbag1
(g2
g3
Ntp480
Rp481
(dp482
g7
(dp483
g9
V1997-98 Stadium Club Printing Plates #95C Antoine Walker Yellow
p484
sg11
I1
sg12
VStadium Club Printing Plates
p485
sg14
(lp486
Vhttp://www.beckett.com/basketball/1997-98/stadium-club-printing-plates/95c-antoine-walker-yellow-3138924
p487
asg17
g18
sg19
(lp488
Vhttp://img.beckett.com/images/no-image.jpg
p489
asg22
V#95C
p490
sg24
V1997-98
p491
sg26
g27
sg28
(lp492
g453
assbag1
(g2
g3
Ntp493
Rp494
(dp495
g7
(dp496
g9
V1997-98 Stadium Club Printing Plates #153 Greg Minor Black
p497
sg11
I1
sg12
VStadium Club Printing Plates
p498
sg14
(lp499
Vhttp://www.beckett.com/basketball/1997-98/stadium-club-printing-plates/153-greg-minor-black-3139153
p500
asg17
g18
sg19
(lp501
Vhttp://img.beckett.com/images/no-image.jpg
p502
asg22
V#153
p503
sg24
V1997-98
p504
sg26
g27
sg28
(lp505
VGreg Minor
p506
assbag1
(g2
g3
Ntp507
Rp508
(dp509
g7
(dp510
g9
V1997-98 Stadium Club Printing Plates #153A Greg Minor Cyan
p511
sg11
I1
sg12
VStadium Club Printing Plates
p512
sg14
(lp513
Vhttp://www.beckett.com/basketball/1997-98/stadium-club-printing-plates/153a-greg-minor-cyan-3139154
p514
asg17
g18
sg19
(lp515
Vhttp://img.beckett.com/images/no-image.jpg
p516
asg22
V#153A
p517
sg24
V1997-98
p518
sg26
g27
sg28
(lp519
g506
assbag1
(g2
g3
Ntp520
Rp521
(dp522
g7
(dp523
g9
V1997-98 Stadium Club Printing Plates #153B Greg Minor Magenta
p524
sg11
I1
sg12
VStadium Club Printing Plates
p525
sg14
(lp526
Vhttp://www.beckett.com/basketball/1997-98/stadium-club-printing-plates/153b-greg-minor-magenta-3139155
p527
asg17
g18
sg19
(lp528
Vhttp://img.beckett.com/images/no-image.jpg
p529
asg22
V#153B
p530
sg24
V1997-98
p531
sg26
g27
sg28
(lp532
g506
assbag1
(g2
g3
Ntp533
Rp534
(dp535
g7
(dp536
g9
V1997-98 Stadium Club Printing Plates #153C Greg Minor Yellow
p537
sg11
I1
sg12
VStadium Club Printing Plates
p538
sg14
(lp539
Vhttp://www.beckett.com/basketball/1997-98/stadium-club-printing-plates/153c-greg-minor-yellow-3139156
p540
asg17
g18
sg19
(lp541
Vhttp://img.beckett.com/images/no-image.jpg
p542
asg22
V#153C
p543
sg24
V1997-98
p544
sg26
g27
sg28
(lp545
g506
assbag1
(g2
g3
Ntp546
Rp547
(dp548
g7
(dp549
g9
V1997-98 Stadium Club Printing Plates #178 Dana Barros Black
p550
sg11
I1
sg12
VStadium Club Printing Plates
p551
sg14
(lp552
Vhttp://www.beckett.com/basketball/1997-98/stadium-club-printing-plates/178-dana-barros-black-3139253
p553
asg17
g18
sg19
(lp554
Vhttp://img.beckett.com/images/no-image.jpg
p555
asg22
V#178
p556
sg24
V1997-98
p557
sg26
g27
sg28
(lp558
VDana Barros
p559
assbag1
(g2
g3
Ntp560
Rp561
(dp562
g7
(dp563
g9
V1997-98 Stadium Club Printing Plates #178A Dana Barros Cyan
p564
sg11
I1
sg12
VStadium Club Printing Plates
p565
sg14
(lp566
Vhttp://www.beckett.com/basketball/1997-98/stadium-club-printing-plates/178a-dana-barros-cyan-3139254
p567
asg17
g18
sg19
(lp568
Vhttp://img.beckett.com/images/no-image.jpg
p569
asg22
V#178A
p570
sg24
V1997-98
p571
sg26
g27
sg28
(lp572
g559
assbag1
(g2
g3
Ntp573
Rp574
(dp575
g7
(dp576
g9
V1997-98 Stadium Club Printing Plates #178B Dana Barros Magenta
p577
sg11
I1
sg12
VStadium Club Printing Plates
p578
sg14
(lp579
Vhttp://www.beckett.com/basketball/1997-98/stadium-club-printing-plates/178b-dana-barros-magenta-3139255
p580
asg17
g18
sg19
(lp581
Vhttp://img.beckett.com/images/no-image.jpg
p582
asg22
V#178B
p583
sg24
V1997-98
p584
sg26
g27
sg28
(lp585
g559
assbag1
(g2
g3
Ntp586
Rp587
(dp588
g7
(dp589
g9
V1997-98 Stadium Club Printing Plates #178C Dana Barros Yellow
p590
sg11
I1
sg12
VStadium Club Printing Plates
p591
sg14
(lp592
Vhttp://www.beckett.com/basketball/1997-98/stadium-club-printing-plates/178c-dana-barros-yellow-3139256
p593
asg17
g18
sg19
(lp594
Vhttp://img.beckett.com/images/no-image.jpg
p595
asg22
V#178C
p596
sg24
V1997-98
p597
sg26
g27
sg28
(lp598
g559
assbag1
(g2
g3
Ntp599
Rp600
(dp601
g7
(dp602
g9
V1997-98 Stadium Club Printing Plates #232 Ron Mercer Black
p603
sg11
I1
sg12
VStadium Club Printing Plates
p604
sg14
(lp605
Vhttp://www.beckett.com/basketball/1997-98/stadium-club-printing-plates/232-ron-mercer-black-3139469
p606
asg17
g18
sg19
(lp607
Vhttp://img.beckett.com/images/no-image.jpg
p608
asg22
V#232
p609
sg24
V1997-98
p610
sg26
g27
sg28
(lp611
VRon Mercer
p612
assbag1
(g2
g3
Ntp613
Rp614
(dp615
g7
(dp616
g9
V1997-98 Stadium Club Printing Plates #232A Ron Mercer Cyan
p617
sg11
I1
sg12
VStadium Club Printing Plates
p618
sg14
(lp619
Vhttp://www.beckett.com/basketball/1997-98/stadium-club-printing-plates/232a-ron-mercer-cyan-3139470
p620
asg17
g18
sg19
(lp621
Vhttp://img.beckett.com/images/no-image.jpg
p622
asg22
V#232A
p623
sg24
V1997-98
p624
sg26
g27
sg28
(lp625
g612
assbag1
(g2
g3
Ntp626
Rp627
(dp628
g7
(dp629
g9
V1997-98 Stadium Club Printing Plates #232B Ron Mercer Magenta
p630
sg11
I1
sg12
VStadium Club Printing Plates
p631
sg14
(lp632
Vhttp://www.beckett.com/basketball/1997-98/stadium-club-printing-plates/232b-ron-mercer-magenta-3139471
p633
asg17
g18
sg19
(lp634
Vhttp://img.beckett.com/images/no-image.jpg
p635
asg22
V#232B
p636
sg24
V1997-98
p637
sg26
g27
sg28
(lp638
g612
assbag1
(g2
g3
Ntp639
Rp640
(dp641
g7
(dp642
g9
V1997-98 Stadium Club Printing Plates #232C Ron Mercer Yellow
p643
sg11
I1
sg12
VStadium Club Printing Plates
p644
sg14
(lp645
Vhttp://www.beckett.com/basketball/1997-98/stadium-club-printing-plates/232c-ron-mercer-yellow-3139472
p646
asg17
g18
sg19
(lp647
Vhttp://img.beckett.com/images/no-image.jpg
p648
asg22
V#232C
p649
sg24
V1997-98
p650
sg26
g27
sg28
(lp651
g612
assbag1
(g2
g3
Ntp652
Rp653
(dp654
g7
(dp655
g9
V1997-98 Ultra Masterpieces #94 Antoine Walker
p656
sg11
I1
sg12
VUltra Masterpieces
p657
sg14
(lp658
Vhttp://www.beckett.com/basketball/1997-98/ultra-masterpieces/94-antoine-walker-3135824
p659
asg17
g18
sg19
(lp660
Vhttp://img.beckett.com/images/no-image.jpg
p661
asg22
V#94
p662
sg24
V1997-98
p663
sg26
g27
sg28
(lp664
VAntoine Walker
p665
assbag1
(g2
g3
Ntp666
Rp667
(dp668
g7
(dp669
g9
V1997-98 Ultra Masterpieces #139 Ron Mercer
p670
sg11
I1
sg12
VUltra Masterpieces
p671
sg14
(lp672
Vhttp://www.beckett.com/basketball/1997-98/ultra-masterpieces/139-ron-mercer-3135869
p673
asg17
g18
sg19
(lp674
Vhttp://img.beckett.com/images/no-image.jpg
p675
asg22
V#139
p676
sg24
V1997-98
p677
sg26
g27
sg28
(lp678
VRon Mercer
p679
assbag1
(g2
g3
Ntp680
Rp681
(dp682
g7
(dp683
g9
V1997-98 Ultra Masterpieces #191 Dee Brown
p684
sg11
I1
sg12
VUltra Masterpieces
p685
sg14
(lp686
Vhttp://www.beckett.com/basketball/1997-98/ultra-masterpieces/191-dee-brown-3135919
p687
asg17
g18
sg19
(lp688
Vhttp://img.beckett.com/images/no-image.jpg
p689
asg22
V#191
p690
sg24
V1997-98
p691
sg26
g27
sg28
(lp692
VDee Brown
p693
assbag1
(g2
g3
Ntp694
Rp695
(dp696
g7
(dp697
g9
V1997-98 Ultra Masterpieces #273 Antoine Walker GRE
p698
sg11
I1
sg12
VUltra Masterpieces
p699
sg14
(lp700
Vhttp://www.beckett.com/basketball/1997-98/ultra-masterpieces/273-antoine-walker-gre-3136001
p701
asg17
g18
sg19
(lp702
Vhttp://img.beckett.com/images/no-image.jpg
p703
asg22
V#273
p704
sg24
V1997-98
p705
sg309
VGRE
p706
sg26
g27
sg28
(lp707
VAntoine Walker
p708
assbag1
(g2
g3
Ntp709
Rp710
(dp711
g7
(dp712
g9
V1997-98 Ultra Platinum Medallion #94 Antoine Walker
p713
sg11
I100
sg12
VUltra Platinum Medallion
p714
sg14
(lp715
Vhttp://www.beckett.com/basketball/1997-98/ultra-platinum-medallion/94-antoine-walker-3136108
p716
asg17
g18
sg19
(lp717
Vhttp://img.beckett.com/images/no-image.jpg
p718
asg22
V#94
p719
sg24
V1997-98
p720
sg26
g27
sg28
(lp721
VAntoine Walker
p722
assbag1
(g2
g3
Ntp723
Rp724
(dp725
g7
(dp726
g9
V1997-98 Ultra Platinum Medallion #139 Ron Mercer
p727
sg11
I100
sg12
VUltra Platinum Medallion
p728
sg14
(lp729
Vhttp://www.beckett.com/basketball/1997-98/ultra-platinum-medallion/139-ron-mercer-3136153
p730
asg17
g18
sg19
(lp731
Vhttp://img.beckett.com/images/no-image.jpg
p732
asg22
V#139
p733
sg24
V1997-98
p734
sg26
g27
sg28
(lp735
VRon Mercer
p736
assbag1
(g2
g3
Ntp737
Rp738
(dp739
g7
(dp740
g9
V1997-98 Ultra Platinum Medallion #191 Dee Brown
p741
sg11
I100
sg12
VUltra Platinum Medallion
p742
sg14
(lp743
Vhttp://www.beckett.com/basketball/1997-98/ultra-platinum-medallion/191-dee-brown-3136203
p744
asg17
g18
sg19
(lp745
Vhttp://img.beckett.com/images/no-image.jpg
p746
asg22
V#191
p747
sg24
V1997-98
p748
sg26
g27
sg28
(lp749
VDee Brown
p750
assbag1
(g2
g3
Ntp751
Rp752
(dp753
g7
(dp754
g9
V1997-98 Ultra Platinum Medallion #273 Antoine Walker GRE
p755
sg11
I100
sg12
VUltra Platinum Medallion
p756
sg14
(lp757
Vhttp://www.beckett.com/basketball/1997-98/ultra-platinum-medallion/273-antoine-walker-gre-3136285
p758
asg17
g18
sg19
(lp759
Vhttp://img.beckett.com/images/no-image.jpg
p760
asg22
V#273
p761
sg24
V1997-98
p762
sg309
VGRE
p763
sg26
g27
sg28
(lp764
VAntoine Walker
p765
assbag1
(g2
g3
Ntp766
Rp767
(dp768
g7
(dp769
g9
V1997-98 Z-Force Rave #8 Antoine Walker
p770
sg11
I399
sg12
VZ-Force Rave
p771
sg14
(lp772
Vhttp://www.beckett.com/basketball/1997-98/z-force-rave/8-antoine-walker-3133032
p773
asg17
g18
sg19
(lp774
Vhttp://img.beckett.com/images/items_stock/185226/3133012/3133032/front.jpg
p775
asg22
V#8
p776
sg24
V1997-98
p777
sg26
g27
sg28
(lp778
VAntoine Walker
p779
assbag1
(g2
g3
Ntp780
Rp781
(dp782
g7
(dp783
g9
V1997-98 Z-Force Rave #116 Ron Mercer
p784
sg11
I399
sg12
VZ-Force Rave
p785
sg14
(lp786
Vhttp://www.beckett.com/basketball/1997-98/z-force-rave/116-ron-mercer-3133138
p787
asg17
g18
sg19
(lp788
Vhttp://img.beckett.com/images/no-image.jpg
p789
asg22
V#116
p790
sg24
V1997-98
p791
sg26
g27
sg28
(lp792
VRon Mercer
p793
assbag1
(g2
g3
Ntp794
Rp795
(dp796
g7
(dp797
g9
V1997-98 Z-Force Rave #139 Dana Barros
p798
sg11
I399
sg12
VZ-Force Rave
p799
sg14
(lp800
Vhttp://www.beckett.com/basketball/1997-98/z-force-rave/139-dana-barros-3133161
p801
asg17
g18
sg19
(lp802
Vhttp://img.beckett.com/images/no-image.jpg
p803
asg22
V#139
p804
sg24
V1997-98
p805
sg26
g27
sg28
(lp806
VDana Barros
p807
assbag1
(g2
g3
Ntp808
Rp809
(dp810
g7
(dp811
g9
V1997-98 Z-Force Rave #189 Antoine Walker ZUP
p812
sg11
I399
sg12
VZ-Force Rave
p813
sg14
(lp814
Vhttp://www.beckett.com/basketball/1997-98/z-force-rave/189-antoine-walker-zup-3133212
p815
asg17
g18
sg19
(lp816
Vhttp://img.beckett.com/images/no-image.jpg
p817
asg22
V#189
p818
sg24
V1997-98
p819
sg309
VZUP
p820
sg26
g27
sg28
(lp821
VAntoine Walker
p822
assbag1
(g2
g3
Ntp823
Rp824
(dp825
g7
(dp826
g9
V1997-98 Z-Force Super Rave #116 Ron Mercer
p827
sg11
I50
sg12
VZ-Force Super Rave
p828
sg14
(lp829
Vhttp://www.beckett.com/basketball/1997-98/z-force-super-rave/116-ron-mercer-3133250
p830
asg17
g18
sg19
(lp831
Vhttp://img.beckett.com/images/no-image.jpg
p832
asg22
V#116
p833
sg24
V1997-98
p834
sg26
g27
sg28
(lp835
VRon Mercer
p836
assbag1
(g2
g3
Ntp837
Rp838
(dp839
g7
(dp840
g9
V1997-98 Z-Force Super Rave #139 Dana Barros
p841
sg11
I50
sg12
VZ-Force Super Rave
p842
sg14
(lp843
Vhttp://www.beckett.com/basketball/1997-98/z-force-super-rave/139-dana-barros-3133273
p844
asg17
g18
sg19
(lp845
Vhttp://img.beckett.com/images/no-image.jpg
p846
asg22
V#139
p847
sg24
V1997-98
p848
sg26
g27
sg28
(lp849
VDana Barros
p850
assbag1
(g2
g3
Ntp851
Rp852
(dp853
g7
(dp854
g9
V1997-98 Z-Force Super Rave #189 Antoine Walker ZUP
p855
sg11
I50
sg12
VZ-Force Super Rave
p856
sg14
(lp857
Vhttp://www.beckett.com/basketball/1997-98/z-force-super-rave/189-antoine-walker-zup-3133324
p858
asg17
g18
sg19
(lp859
Vhttp://img.beckett.com/images/no-image.jpg
p860
asg22
V#189
p861
sg24
V1997-98
p862
sg309
VZUP
p863
sg26
g27
sg28
(lp864
VAntoine Walker
p865
assbag1
(g2
g3
Ntp866
Rp867
(dp868
g7
(dp869
g9
V1997-98 Upper Deck High Dimensions #D29 Antoine Walker
p870
sg11
I2000
sg12
VUpper Deck High Dimensions
p871
sg14
(lp872
Vhttp://www.beckett.com/basketball/1997-98/upper-deck-high-dimensions/d29-antoine-walker-3132451
p873
asg17
g18
sg19
(lp874
Vhttp://img.beckett.com/images/items_stock/185226/3132415/3132451/front.jpg
p875
asg22
V#D29
p876
sg24
V1997-98
p877
sg26
g27
sg28
(lp878
VAntoine Walker
p879
assbag1
(g2
g3
Ntp880
Rp881
(dp882
g7
(dp883
g9
V1997-98 Hoops High Voltage 500 #HV13 Antoine Walker
p884
sg11
I500
sg12
VHoops High Voltage 500
p885
sg14
(lp886
Vhttp://www.beckett.com/basketball/1997-98/hoops-high-voltage-500/hv13-antoine-walker-3142302
p887
asg17
g18
sg19
(lp888
Vhttp://img.beckett.com/images/no-image.jpg
p889
asg22
V#HV13
p890
sg24
V1997-98
p891
sg26
g27
sg28
(lp892
VAntoine Walker
p893
assbag1
(g2
g3
Ntp894
Rp895
(dp896
g7
(dp897
g9
V1997-98 Metal Universe Precious Metal Gems Emerald #62 Ron Mercer
p898
sg11
I10
sg12
VMetal Universe Precious Metal Gems Emerald
p899
sg14
(lp900
Vhttp://www.beckett.com/basketball/1997-98/metal-universe-precious-metal-gems-emerald/62-ron-mercer-7055511
p901
asg17
g18
sg19
(lp902
Vhttp://img.beckett.com/images/no-image.jpg
p903
asg22
V#62
p904
sg24
V1997-98
p905
sg26
g27
sg28
(lp906
VRon Mercer
p907
assbag1
(g2
g3
Ntp908
Rp909
(dp910
g7
(dp911
g9
V1997-98 Metal Universe Precious Metal Gems Emerald #72 Antoine Walker
p912
sg11
I10
sg12
VMetal Universe Precious Metal Gems Emerald
p913
sg14
(lp914
Vhttp://www.beckett.com/basketball/1997-98/metal-universe-precious-metal-gems-emerald/72-antoine-walker-7055521
p915
asg17
g18
sg19
(lp916
Vhttp://img.beckett.com/images/no-image.jpg
p917
asg22
V#72
p918
sg24
V1997-98
p919
sg26
g27
sg28
(lp920
VAntoine Walker
p921
assbag1
(g2
g3
Ntp922
Rp923
(dp924
g7
(dp925
g9
V1997-98 SP Authentic Profiles 3 #P8 Antoine Walker
p926
sg11
I100
sg12
VSP Authentic Profiles 3
p927
sg14
(lp928
Vhttp://www.beckett.com/basketball/1997-98/sp-authentic-profiles-3/p8-antoine-walker-3140289
p929
asg17
g18
sg19
(lp930
Vhttp://img.beckett.com/images/items_stock/185226/3140273/3140289/front.jpg
p931
asg22
V#P8
p932
sg24
V1997-98
p933
sg26
g27
sg28
(lp934
VAntoine Walker
p935
assbag1
(g2
g3
Ntp936
Rp937
(dp938
g7
(dp939
g9
V1997-98 Upper Deck Diamond Dimensions #D29 Antoine Walker
p940
sg11
I100
sg12
VUpper Deck Diamond Dimensions
p941
sg14
(lp942
Vhttp://www.beckett.com/basketball/1997-98/upper-deck-diamond-dimensions/d29-antoine-walker-3132489
p943
asg17
g18
sg19
(lp944
Vhttp://img.beckett.com/images/no-image.jpg
p945
asg22
V#D29
p946
sg24
V1997-98
p947
sg26
g27
sg28
(lp948
VAntoine Walker
p949
assba.