(lp0
Naccopy_reg
_reconstructor
p1
(ctutorial.items
BeckettItem
p2
c__builtin__
object
p3
Ntp4
Rp5
(dp6
S'_values'
p7
(dp8
S'originalItemDescription'
p9
V1997-98 E-X2001 Essential Credentials Future #12 Antoine Walker/69
p10
sS'serialNumber'
p11
I69
sS'setName'
p12
VE-X2001 Essential Credentials Future
p13
sS'beckettLink'
p14
(lp15
Vhttp://www.beckett.com/basketball/1997-98/e-x2001-essential-credentials-future/12-antoine-walker69-3144598
p16
asS'team'
p17
S'Boston Celtics'
p18
sS'imageLink'
p19
(lp20
Vhttp://img.beckett.com/images/no-image.jpg
p21
asS'cardNumber'
p22
V#12
p23
sS'year'
p24
V1997-98
p25
sS'sport'
p26
S'Basketball'
p27
sS'playerNames'
p28
(lp29
VAntoine Walker
p30
assbag1
(g2
g3
Ntp31
Rp32
(dp33
g7
(dp34
g9
V1997-98 E-X2001 Essential Credentials Future #80 Ron Mercer/1
p35
sg11
I1
sg12
VE-X2001 Essential Credentials Future
p36
sg14
(lp37
Vhttp://www.beckett.com/basketball/1997-98/e-x2001-essential-credentials-future/80-ron-mercer1-3144666
p38
asg17
g18
sg19
(lp39
Vhttp://img.beckett.com/images/no-image.jpg
p40
asg22
V#80
p41
sg24
V1997-98
p42
sg26
g27
sg28
(lp43
VRon Mercer
p44
assbag1
(g2
g3
Ntp45
Rp46
(dp47
g7
(dp48
g9
V1997-98 E-X2001 Essential Credentials Now #12 Antoine Walker/12
p49
sg11
I12
sg12
VE-X2001 Essential Credentials Now
p50
sg14
(lp51
Vhttp://www.beckett.com/basketball/1997-98/e-x2001-essential-credentials-now/12-antoine-walker12-3144685
p52
asg17
g18
sg19
(lp53
Vhttp://img.beckett.com/images/no-image.jpg
p54
asg22
V#12
p55
sg24
V1997-98
p56
sg26
g27
sg28
(lp57
VAntoine Walker
p58
assbag1
(g2
g3
Ntp59
Rp60
(dp61
g7
(dp62
g9
V1997-98 E-X2001 Essential Credentials Now #80 Ron Mercer/80
p63
sg11
I80
sg12
VE-X2001 Essential Credentials Now
p64
sg14
(lp65
Vhttp://www.beckett.com/basketball/1997-98/e-x2001-essential-credentials-now/80-ron-mercer80-3144753
p66
asg17
g18
sg19
(lp67
Vhttp://img.beckett.com/images/no-image.jpg
p68
asg22
V#80
p69
sg24
V1997-98
p70
sg26
g27
sg28
(lp71
VRon Mercer
p72
assbag1
(g2
g3
Ntp73
Rp74
(dp75
g7
(dp76
g9
V1997-98 Finest Embossed Refractors #126 Antoine Walker S
p77
sg11
I263
sg12
VFinest Embossed Refractors
p78
sg14
(lp79
Vhttp://www.beckett.com/basketball/1997-98/finest-embossed-refractors/126-antoine-walker-s-3145334
p80
asg17
g18
sg19
(lp81
Vhttp://img.beckett.com/images/items_stock/185226/3145306/3145334/front.jpg
p82
asg22
V#126
p83
sg24
V1997-98
p84
sS'subsetName'
p85
VS
p86
sg26
g27
sg28
(lp87
VAntoine Walker
p88
assbag1
(g2
g3
Ntp89
Rp90
(dp91
g7
(dp92
g9
V1997-98 Finest Embossed Refractors #293 Ron Mercer S
p93
sg11
I263
sg12
VFinest Embossed Refractors
p94
sg14
(lp95
Vhttp://www.beckett.com/basketball/1997-98/finest-embossed-refractors/293-ron-mercer-s-3145401
p96
asg17
g18
sg19
(lp97
Vhttp://img.beckett.com/images/no-image.jpg
p98
asg22
V#293
p99
sg24
V1997-98
p100
sg85
g86
sg26
g27
sg28
(lp101
VRon Mercer
p102
assbag1
(g2
g3
Ntp103
Rp104
(dp105
g7
(dp106
g9
V1997-98 Finest Embossed Refractors #312 Antoine Walker G
p107
sg11
I74
sg12
VFinest Embossed Refractors
p108
sg14
(lp109
Vhttp://www.beckett.com/basketball/1997-98/finest-embossed-refractors/312-antoine-walker-g-3145420
p110
asg17
g18
sg19
(lp111
Vhttp://img.beckett.com/images/no-image.jpg
p112
asg22
V#312
p113
sg24
V1997-98
p114
sg85
VG
p115
sg26
g27
sg28
(lp116
VAntoine Walker
p117
assbag1
(g2
g3
Ntp118
Rp119
(dp120
g7
(dp121
g9
V1997-98 Finest Refractors #126 Antoine Walker S
p122
sg11
I1090
sg12
VFinest Refractors
p123
sg14
(lp124
Vhttp://www.beckett.com/basketball/1997-98/finest-refractors/126-antoine-walker-s-3145592
p125
asg17
g18
sg19
(lp126
Vhttp://img.beckett.com/images/items_stock/185226/3145435/3145592/front.jpg
p127
asg22
V#126
p128
sg24
V1997-98
p129
sg85
g86
sg26
g27
sg28
(lp130
VAntoine Walker
p131
assbag1
(g2
g3
Ntp132
Rp133
(dp134
g7
(dp135
g9
V1997-98 Finest Refractors #293 Ron Mercer S
p136
sg11
I1090
sg12
VFinest Refractors
p137
sg14
(lp138
Vhttp://www.beckett.com/basketball/1997-98/finest-refractors/293-ron-mercer-s-3145759
p139
asg17
g18
sg19
(lp140
Vhttp://img.beckett.com/images/items_stock/185226/3145435/3145759/front.jpg
p141
asg22
V#293
p142
sg24
V1997-98
p143
sg85
g86
sg26
g27
sg28
(lp144
VRon Mercer
p145
assbag1
(g2
g3
Ntp146
Rp147
(dp148
g7
(dp149
g9
V1997-98 Finest Refractors #312 Antoine Walker G
p150
sg11
I289
sg12
VFinest Refractors
p151
sg14
(lp152
Vhttp://www.beckett.com/basketball/1997-98/finest-refractors/312-antoine-walker-g-3145778
p153
asg17
g18
sg19
(lp154
Vhttp://img.beckett.com/images/no-image.jpg
p155
asg22
V#312
p156
sg24
V1997-98
p157
sg85
g115
sg26
g27
sg28
(lp158
VAntoine Walker
p159
assbag1
(g2
g3
Ntp160
Rp161
(dp162
g7
(dp163
g9
V1997-98 Flair Showcase Row 0 #8 Antoine Walker
p164
sg11
I250
sg12
VFlair Showcase Row 0
p165
sg14
(lp166
Vhttp://www.beckett.com/basketball/1997-98/flair-showcase-row-0/8-antoine-walker-3146106
p167
asg17
g18
sg19
(lp168
Vhttp://img.beckett.com/images/no-image.jpg
p169
asg22
V#8
p170
sg24
V1997-98
p171
sg26
g27
sg28
(lp172
VAntoine Walker
p173
assbag1
(g2
g3
Ntp174
Rp175
(dp176
g7
(dp177
g9
V1997-98 Flair Showcase Row 0 #14 Ron Mercer
p178
sg11
I250
sg12
VFlair Showcase Row 0
p179
sg14
(lp180
Vhttp://www.beckett.com/basketball/1997-98/flair-showcase-row-0/14-ron-mercer-3146112
p181
asg17
g18
sg19
(lp182
Vhttp://img.beckett.com/images/no-image.jpg
p183
asg22
V#14
p184
sg24
V1997-98
p185
sg26
g27
sg28
(lp186
VRon Mercer
p187
assbag1
(g2
g3
Ntp188
Rp189
(dp190
g7
(dp191
g9
V1997-98 Flair Showcase Legacy Collection Row 3 #8 Antoine Walker
p192
sg11
I100
sg12
VFlair Showcase Legacy Collection Row 3
p193
sg14
(lp194
Vhttp://www.beckett.com/basketball/1997-98/flair-showcase-legacy-collection-row-3/8-antoine-walker-3148566
p195
asg17
g18
sg19
(lp196
Vhttp://img.beckett.com/images/items_stock/185226/3148549/3148566/front.jpg
p197
asg22
V#8
p198
sg24
V1997-98
p199
sg26
g27
sg28
(lp200
VAntoine Walker
p201
assbag1
(g2
g3
Ntp202
Rp203
(dp204
g7
(dp205
g9
V1997-98 Flair Showcase Legacy Collection Row 3 #14 Ron Mercer
p206
sg11
I100
sg12
VFlair Showcase Legacy Collection Row 3
p207
sg14
(lp208
Vhttp://www.beckett.com/basketball/1997-98/flair-showcase-legacy-collection-row-3/14-ron-mercer-3148572
p209
asg17
g18
sg19
(lp210
Vhttp://img.beckett.com/images/no-image.jpg
p211
asg22
V#14
p212
sg24
V1997-98
p213
sg26
g27
sg28
(lp214
VRon Mercer
p215
assbag1
(g2
g3
Ntp216
Rp217
(dp218
g7
(dp219
g9
V1997-98 Metal Universe Precious Metal Gems #62 Ron Mercer
p220
sg11
I90
sg12
VMetal Universe Precious Metal Gems
p221
sg14
(lp222
Vhttp://www.beckett.com/basketball/1997-98/metal-universe-precious-metal-gems/62-ron-mercer-3142654
p223
asg17
g18
sg19
(lp224
Vhttp://img.beckett.com/images/no-image.jpg
p225
asg22
V#62
p226
sg24
V1997-98
p227
sg26
g27
sg28
(lp228
VRon Mercer
p229
assbag1
(g2
g3
Ntp230
Rp231
(dp232
g7
(dp233
g9
V1997-98 Metal Universe Precious Metal Gems #72 Antoine Walker
p234
sg11
I90
sg12
VMetal Universe Precious Metal Gems
p235
sg14
(lp236
Vhttp://www.beckett.com/basketball/1997-98/metal-universe-precious-metal-gems/72-antoine-walker-3142664
p237
asg17
g18
sg19
(lp238
Vhttp://img.beckett.com/images/no-image.jpg
p239
asg22
V#72
p240
sg24
V1997-98
p241
sg26
g27
sg28
(lp242
VAntoine Walker
p243
assbag1
(g2
g3
Ntp244
Rp245
(dp246
g7
(dp247
g9
V1997-98 Metal Universe Championship Precious Metal Gems #27 Antoine Walker
p248
sg11
I50
sg12
VMetal Universe Championship Precious Metal Gems
p249
sg14
(lp250
Vhttp://www.beckett.com/basketball/1997-98/metal-universe-championship-precious-metal-gems/27-antoine-walker-3140702
p251
asg17
g18
sg19
(lp252
Vhttp://img.beckett.com/images/no-image.jpg
p253
asg22
V#27
p254
sg24
V1997-98
p255
sg26
g27
sg28
(lp256
VAntoine Walker
p257
assbag1
(g2
g3
Ntp258
Rp259
(dp260
g7
(dp261
g9
V1997-98 Metal Universe Championship Precious Metal Gems #81 Ron Mercer
p262
sg11
I50
sg12
VMetal Universe Championship Precious Metal Gems
p263
sg14
(lp264
Vhttp://www.beckett.com/basketball/1997-98/metal-universe-championship-precious-metal-gems/81-ron-mercer-3140756
p265
asg17
g18
sg19
(lp266
Vhttp://img.beckett.com/images/no-image.jpg
p267
asg22
V#81
p268
sg24
V1997-98
p269
sg26
g27
sg28
(lp270
VRon Mercer
p271
assbag1
(g2
g3
Ntp272
Rp273
(dp274
g7
(dp275
g9
V1997-98 SkyBox Premium Star Rubies #35 Ron Mercer
p276
sg11
I50
sg12
VSkyBox Premium Star Rubies
p277
sg14
(lp278
Vhttp://www.beckett.com/basketball/1997-98/skybox-premium-star-rubies/35-ron-mercer-3141206
p279
asg17
g18
sg19
(lp280
Vhttp://img.beckett.com/images/no-image.jpg
p281
asg22
V#35
p282
sg24
V1997-98
p283
sg26
g27
sg28
(lp284
VRon Mercer
p285
assbag1
(g2
g3
Ntp286
Rp287
(dp288
g7
(dp289
g9
V1997-98 SkyBox Premium Star Rubies #63 Antoine Walker
p290
sg11
I50
sg12
VSkyBox Premium Star Rubies
p291
sg14
(lp292
Vhttp://www.beckett.com/basketball/1997-98/skybox-premium-star-rubies/63-antoine-walker-3141234
p293
asg17
g18
sg19
(lp294
Vhttp://img.beckett.com/images/no-image.jpg
p295
asg22
V#63
p296
sg24
V1997-98
p297
sg26
g27
sg28
(lp298
VAntoine Walker
p299
assbag1
(g2
g3
Ntp300
Rp301
(dp302
g7
(dp303
g9
V1997-98 SkyBox Premium Star Rubies #248 Antoine Walker TS
p304
sg11
I50
sg12
VSkyBox Premium Star Rubies
p305
sg14
(lp306
Vhttp://www.beckett.com/basketball/1997-98/skybox-premium-star-rubies/248-antoine-walker-ts-3141417
p307
asg17
g18
sg19
(lp308
Vhttp://img.beckett.com/images/no-image.jpg
p309
asg22
V#248
p310
sg24
V1997-98
p311
sg85
VTS
p312
sg26
g27
sg28
(lp313
VAntoine Walker
p314
assbag1
(g2
g3
Ntp315
Rp316
(dp317
g7
(dp318
g9
V1997-98 SkyBox Premium Autographics Century Marks #9 Dana Barros
p319
sg11
I100
sg12
VSkyBox Premium Autographics Century Marks
p320
sg14
(lp321
Vhttp://www.beckett.com/basketball/1997-98/skybox-premium-autographics-century-marks/9-dana-barros-3141591
p322
asg17
g18
sg19
(lp323
Vhttp://img.beckett.com/images/no-image.jpg
p324
asg22
V#9
p325
sS'autograph'
p326
I1
sg24
V1997-98
p327
sg26
g27
sg28
(lp328
VDana Barros
p329
assbag1
(g2
g3
Ntp330
Rp331
(dp332
g7
(dp333
g9
V1997-98 SkyBox Premium Autographics Century Marks #30 Andrew DeClercq
p334
sg11
I100
sg12
VSkyBox Premium Autographics Century Marks
p335
sg14
(lp336
Vhttp://www.beckett.com/basketball/1997-98/skybox-premium-autographics-century-marks/30-andrew-declercq-3141612
p337
asg17
g18
sg19
(lp338
Vhttp://img.beckett.com/images/no-image.jpg
p339
asg22
V#30
p340
sg326
I1
sg24
V1997-98
p341
sg26
g27
sg28
(lp342
VAndrew DeClercq
p343
assbag1
(g2
g3
Ntp344
Rp345
(dp346
g7
(dp347
g9
V1997-98 SkyBox Premium Autographics Century Marks #72 Ron Mercer
p348
sg11
I100
sg12
VSkyBox Premium Autographics Century Marks
p349
sg14
(lp350
Vhttp://www.beckett.com/basketball/1997-98/skybox-premium-autographics-century-marks/72-ron-mercer-3141654
p351
asg17
g18
sg19
(lp352
Vhttp://img.beckett.com/images/no-image.jpg
p353
asg22
V#72
p354
sg326
I1
sg24
V1997-98
p355
sg26
g27
sg28
(lp356
VRon Mercer
p357
assbag1
(g2
g3
Ntp358
Rp359
(dp360
g7
(dp361
g9
V1997-98 SkyBox Premium Autographics Century Marks #107 Antoine Walker
p362
sg11
I100
sg12
VSkyBox Premium Autographics Century Marks
p363
sg14
(lp364
Vhttp://www.beckett.com/basketball/1997-98/skybox-premium-autographics-century-marks/107-antoine-walker-3141689
p365
asg17
g18
sg19
(lp366
Vhttp://img.beckett.com/images/no-image.jpg
p367
asg22
V#107
p368
sg326
I1
sg24
V1997-98
p369
sg26
g27
sg28
(lp370
VAntoine Walker
p371
assbag1
(g2
g3
Ntp372
Rp373
(dp374
g7
(dp375
g9
V1997-98 SPx Grand Finale #4 Antoine Walker
p376
sg11
I50
sg12
VSPx Grand Finale
p377
sg14
(lp378
Vhttp://www.beckett.com/basketball/1997-98/spx-grand-finale/4-antoine-walker-3137688
p379
asg17
g18
sg19
(lp380
Vhttp://img.beckett.com/images/no-image.jpg
p381
asg22
V#4
p382
sg24
V1997-98
p383
sg26
g27
sg28
(lp384
VAntoine Walker
p385
assbag1
(g2
g3
Ntp386
Rp387
(dp388
g7
(dp389
g9
V1997-98 Stadium Club One Of A Kind #95 Antoine Walker
p390
sg11
I150
sg12
VStadium Club One Of A Kind
p391
sg14
(lp392
Vhttp://www.beckett.com/basketball/1997-98/stadium-club-one-of-a-kind/95-antoine-walker-3138394
p393
asg17
g18
sg19
(lp394
Vhttp://img.beckett.com/images/no-image.jpg
p395
asg22
V#95
p396
sg24
V1997-98
p397
sg26
g27
sg28
(lp398
VAntoine Walker
p399
assbag1
(g2
g3
Ntp400
Rp401
(dp402
g7
(dp403
g9
V1997-98 Stadium Club One Of A Kind #153 Greg Minor
p404
sg11
I150
sg12
VStadium Club One Of A Kind
p405
sg14
(lp406
Vhttp://www.beckett.com/basketball/1997-98/stadium-club-one-of-a-kind/153-greg-minor-3138452
p407
asg17
g18
sg19
(lp408
Vhttp://img.beckett.com/images/items_stock/185226/3138288/3138452/front.jpg
p409
asg22
V#153
p410
sg24
V1997-98
p411
sg26
g27
sg28
(lp412
VGreg Minor
p413
assbag1
(g2
g3
Ntp414
Rp415
(dp416
g7
(dp417
g9
V1997-98 Stadium Club One Of A Kind #178 Dana Barros
p418
sg11
I150
sg12
VStadium Club One Of A Kind
p419
sg14
(lp420
Vhttp://www.beckett.com/basketball/1997-98/stadium-club-one-of-a-kind/178-dana-barros-3138477
p421
asg17
g18
sg19
(lp422
Vhttp://img.beckett.com/images/items_stock/185226/3138288/3138477/front.jpg
p423
asg22
V#178
p424
sg24
V1997-98
p425
sg26
g27
sg28
(lp426
VDana Barros
p427
assbag1
(g2
g3
Ntp428
Rp429
(dp430
g7
(dp431
g9
V1997-98 Stadium Club One Of A Kind #232 Ron Mercer
p432
sg11
I150
sg12
VStadium Club One Of A Kind
p433
sg14
(lp434
Vhttp://www.beckett.com/basketball/1997-98/stadium-club-one-of-a-kind/232-ron-mercer-3138531
p435
asg17
g18
sg19
(lp436
Vhttp://img.beckett.com/images/no-image.jpg
p437
asg22
V#232
p438
sg24
V1997-98
p439
sg26
g27
sg28
(lp440
VRon Mercer
p441
assbag1
(g2
g3
Ntp442
Rp443
(dp444
g7
(dp445
g9
V1997-98 Stadium Club Printing Plates #95 Antoine Walker Black
p446
sg11
I1
sg12
VStadium Club Printing Plates
p447
sg14
(lp448
Vhttp://www.beckett.com/basketball/1997-98/stadium-club-printing-plates/95-antoine-walker-black-3138921
p449
asg17
g18
sg19
(lp450
Vhttp://img.beckett.com/images/no-image.jpg
p451
asg22
V#95
p452
sg24
V1997-98
p453
sg26
g27
sg28
(lp454
VAntoine Walker Black
p455
assbag1
(g2
g3
Ntp456
Rp457
(dp458
g7
(dp459
g9
V1997-98 Stadium Club Printing Plates #95A Antoine Walker Cyan
p460
sg11
I1
sg12
VStadium Club Printing Plates
p461
sg14
(lp462
Vhttp://www.beckett.com/basketball/1997-98/stadium-club-printing-plates/95a-antoine-walker-cyan-3138922
p463
asg17
g18
sg19
(lp464
Vhttp://img.beckett.com/images/no-image.jpg
p465
asg22
V#95A
p466
sg24
V1997-98
p467
sg26
g27
sg28
(lp468
VAntoine Walker Cyan
p469
assbag1
(g2
g3
Ntp470
Rp471
(dp472
g7
(dp473
g9
V1997-98 Stadium Club Printing Plates #95B Antoine Walker Magenta
p474
sg11
I1
sg12
VStadium Club Printing Plates
p475
sg14
(lp476
Vhttp://www.beckett.com/basketball/1997-98/stadium-club-printing-plates/95b-antoine-walker-magenta-3138923
p477
asg17
g18
sg19
(lp478
Vhttp://img.beckett.com/images/no-image.jpg
p479
asg22
V#95B
p480
sg24
V1997-98
p481
sg26
g27
sg28
(lp482
VAntoine Walker Magenta
p483
assbag1
(g2
g3
Ntp484
Rp485
(dp486
g7
(dp487
g9
V1997-98 Stadium Club Printing Plates #95C Antoine Walker Yellow
p488
sg11
I1
sg12
VStadium Club Printing Plates
p489
sg14
(lp490
Vhttp://www.beckett.com/basketball/1997-98/stadium-club-printing-plates/95c-antoine-walker-yellow-3138924
p491
asg17
g18
sg19
(lp492
Vhttp://img.beckett.com/images/no-image.jpg
p493
asg22
V#95C
p494
sg24
V1997-98
p495
sg26
g27
sg28
(lp496
VAntoine Walker Yellow
p497
assbag1
(g2
g3
Ntp498
Rp499
(dp500
g7
(dp501
g9
V1997-98 Stadium Club Printing Plates #153 Greg Minor Black
p502
sg11
I1
sg12
VStadium Club Printing Plates
p503
sg14
(lp504
Vhttp://www.beckett.com/basketball/1997-98/stadium-club-printing-plates/153-greg-minor-black-3139153
p505
asg17
g18
sg19
(lp506
Vhttp://img.beckett.com/images/no-image.jpg
p507
asg22
V#153
p508
sg24
V1997-98
p509
sg26
g27
sg28
(lp510
VGreg Minor Black
p511
assbag1
(g2
g3
Ntp512
Rp513
(dp514
g7
(dp515
g9
V1997-98 Stadium Club Printing Plates #153A Greg Minor Cyan
p516
sg11
I1
sg12
VStadium Club Printing Plates
p517
sg14
(lp518
Vhttp://www.beckett.com/basketball/1997-98/stadium-club-printing-plates/153a-greg-minor-cyan-3139154
p519
asg17
g18
sg19
(lp520
Vhttp://img.beckett.com/images/no-image.jpg
p521
asg22
V#153A
p522
sg24
V1997-98
p523
sg26
g27
sg28
(lp524
VGreg Minor Cyan
p525
assbag1
(g2
g3
Ntp526
Rp527
(dp528
g7
(dp529
g9
V1997-98 Stadium Club Printing Plates #153B Greg Minor Magenta
p530
sg11
I1
sg12
VStadium Club Printing Plates
p531
sg14
(lp532
Vhttp://www.beckett.com/basketball/1997-98/stadium-club-printing-plates/153b-greg-minor-magenta-3139155
p533
asg17
g18
sg19
(lp534
Vhttp://img.beckett.com/images/no-image.jpg
p535
asg22
V#153B
p536
sg24
V1997-98
p537
sg26
g27
sg28
(lp538
VGreg Minor Magenta
p539
assbag1
(g2
g3
Ntp540
Rp541
(dp542
g7
(dp543
g9
V1997-98 Stadium Club Printing Plates #153C Greg Minor Yellow
p544
sg11
I1
sg12
VStadium Club Printing Plates
p545
sg14
(lp546
Vhttp://www.beckett.com/basketball/1997-98/stadium-club-printing-plates/153c-greg-minor-yellow-3139156
p547
asg17
g18
sg19
(lp548
Vhttp://img.beckett.com/images/no-image.jpg
p549
asg22
V#153C
p550
sg24
V1997-98
p551
sg26
g27
sg28
(lp552
VGreg Minor Yellow
p553
assbag1
(g2
g3
Ntp554
Rp555
(dp556
g7
(dp557
g9
V1997-98 Stadium Club Printing Plates #178 Dana Barros Black
p558
sg11
I1
sg12
VStadium Club Printing Plates
p559
sg14
(lp560
Vhttp://www.beckett.com/basketball/1997-98/stadium-club-printing-plates/178-dana-barros-black-3139253
p561
asg17
g18
sg19
(lp562
Vhttp://img.beckett.com/images/no-image.jpg
p563
asg22
V#178
p564
sg24
V1997-98
p565
sg26
g27
sg28
(lp566
VDana Barros Black
p567
assbag1
(g2
g3
Ntp568
Rp569
(dp570
g7
(dp571
g9
V1997-98 Stadium Club Printing Plates #178A Dana Barros Cyan
p572
sg11
I1
sg12
VStadium Club Printing Plates
p573
sg14
(lp574
Vhttp://www.beckett.com/basketball/1997-98/stadium-club-printing-plates/178a-dana-barros-cyan-3139254
p575
asg17
g18
sg19
(lp576
Vhttp://img.beckett.com/images/no-image.jpg
p577
asg22
V#178A
p578
sg24
V1997-98
p579
sg26
g27
sg28
(lp580
VDana Barros Cyan
p581
assbag1
(g2
g3
Ntp582
Rp583
(dp584
g7
(dp585
g9
V1997-98 Stadium Club Printing Plates #178B Dana Barros Magenta
p586
sg11
I1
sg12
VStadium Club Printing Plates
p587
sg14
(lp588
Vhttp://www.beckett.com/basketball/1997-98/stadium-club-printing-plates/178b-dana-barros-magenta-3139255
p589
asg17
g18
sg19
(lp590
Vhttp://img.beckett.com/images/no-image.jpg
p591
asg22
V#178B
p592
sg24
V1997-98
p593
sg26
g27
sg28
(lp594
VDana Barros Magenta
p595
assbag1
(g2
g3
Ntp596
Rp597
(dp598
g7
(dp599
g9
V1997-98 Stadium Club Printing Plates #178C Dana Barros Yellow
p600
sg11
I1
sg12
VStadium Club Printing Plates
p601
sg14
(lp602
Vhttp://www.beckett.com/basketball/1997-98/stadium-club-printing-plates/178c-dana-barros-yellow-3139256
p603
asg17
g18
sg19
(lp604
Vhttp://img.beckett.com/images/no-image.jpg
p605
asg22
V#178C
p606
sg24
V1997-98
p607
sg26
g27
sg28
(lp608
VDana Barros Yellow
p609
assbag1
(g2
g3
Ntp610
Rp611
(dp612
g7
(dp613
g9
V1997-98 Stadium Club Printing Plates #232 Ron Mercer Black
p614
sg11
I1
sg12
VStadium Club Printing Plates
p615
sg14
(lp616
Vhttp://www.beckett.com/basketball/1997-98/stadium-club-printing-plates/232-ron-mercer-black-3139469
p617
asg17
g18
sg19
(lp618
Vhttp://img.beckett.com/images/no-image.jpg
p619
asg22
V#232
p620
sg24
V1997-98
p621
sg26
g27
sg28
(lp622
VRon Mercer Black
p623
assbag1
(g2
g3
Ntp624
Rp625
(dp626
g7
(dp627
g9
V1997-98 Stadium Club Printing Plates #232A Ron Mercer Cyan
p628
sg11
I1
sg12
VStadium Club Printing Plates
p629
sg14
(lp630
Vhttp://www.beckett.com/basketball/1997-98/stadium-club-printing-plates/232a-ron-mercer-cyan-3139470
p631
asg17
g18
sg19
(lp632
Vhttp://img.beckett.com/images/no-image.jpg
p633
asg22
V#232A
p634
sg24
V1997-98
p635
sg26
g27
sg28
(lp636
VRon Mercer Cyan
p637
assbag1
(g2
g3
Ntp638
Rp639
(dp640
g7
(dp641
g9
V1997-98 Stadium Club Printing Plates #232B Ron Mercer Magenta
p642
sg11
I1
sg12
VStadium Club Printing Plates
p643
sg14
(lp644
Vhttp://www.beckett.com/basketball/1997-98/stadium-club-printing-plates/232b-ron-mercer-magenta-3139471
p645
asg17
g18
sg19
(lp646
Vhttp://img.beckett.com/images/no-image.jpg
p647
asg22
V#232B
p648
sg24
V1997-98
p649
sg26
g27
sg28
(lp650
VRon Mercer Magenta
p651
assbag1
(g2
g3
Ntp652
Rp653
(dp654
g7
(dp655
g9
V1997-98 Stadium Club Printing Plates #232C Ron Mercer Yellow
p656
sg11
I1
sg12
VStadium Club Printing Plates
p657
sg14
(lp658
Vhttp://www.beckett.com/basketball/1997-98/stadium-club-printing-plates/232c-ron-mercer-yellow-3139472
p659
asg17
g18
sg19
(lp660
Vhttp://img.beckett.com/images/no-image.jpg
p661
asg22
V#232C
p662
sg24
V1997-98
p663
sg26
g27
sg28
(lp664
VRon Mercer Yellow
p665
assbag1
(g2
g3
Ntp666
Rp667
(dp668
g7
(dp669
g9
V1997-98 Ultra Masterpieces #94 Antoine Walker
p670
sg11
I1
sg12
VUltra Masterpieces
p671
sg14
(lp672
Vhttp://www.beckett.com/basketball/1997-98/ultra-masterpieces/94-antoine-walker-3135824
p673
asg17
g18
sg19
(lp674
Vhttp://img.beckett.com/images/no-image.jpg
p675
asg22
V#94
p676
sg24
V1997-98
p677
sg26
g27
sg28
(lp678
VAntoine Walker
p679
assbag1
(g2
g3
Ntp680
Rp681
(dp682
g7
(dp683
g9
V1997-98 Ultra Masterpieces #139 Ron Mercer
p684
sg11
I1
sg12
VUltra Masterpieces
p685
sg14
(lp686
Vhttp://www.beckett.com/basketball/1997-98/ultra-masterpieces/139-ron-mercer-3135869
p687
asg17
g18
sg19
(lp688
Vhttp://img.beckett.com/images/no-image.jpg
p689
asg22
V#139
p690
sg24
V1997-98
p691
sg26
g27
sg28
(lp692
VRon Mercer
p693
assbag1
(g2
g3
Ntp694
Rp695
(dp696
g7
(dp697
g9
V1997-98 Ultra Masterpieces #191 Dee Brown
p698
sg11
I1
sg12
VUltra Masterpieces
p699
sg14
(lp700
Vhttp://www.beckett.com/basketball/1997-98/ultra-masterpieces/191-dee-brown-3135919
p701
asg17
g18
sg19
(lp702
Vhttp://img.beckett.com/images/no-image.jpg
p703
asg22
V#191
p704
sg24
V1997-98
p705
sg26
g27
sg28
(lp706
VDee Brown
p707
assbag1
(g2
g3
Ntp708
Rp709
(dp710
g7
(dp711
g9
V1997-98 Ultra Masterpieces #273 Antoine Walker GRE
p712
sg11
I1
sg12
VUltra Masterpieces
p713
sg14
(lp714
Vhttp://www.beckett.com/basketball/1997-98/ultra-masterpieces/273-antoine-walker-gre-3136001
p715
asg17
g18
sg19
(lp716
Vhttp://img.beckett.com/images/no-image.jpg
p717
asg22
V#273
p718
sg24
V1997-98
p719
sg85
VGRE
p720
sg26
g27
sg28
(lp721
VAntoine Walker
p722
assbag1
(g2
g3
Ntp723
Rp724
(dp725
g7
(dp726
g9
V1997-98 Ultra Platinum Medallion #94 Antoine Walker
p727
sg11
I100
sg12
VUltra Platinum Medallion
p728
sg14
(lp729
Vhttp://www.beckett.com/basketball/1997-98/ultra-platinum-medallion/94-antoine-walker-3136108
p730
asg17
g18
sg19
(lp731
Vhttp://img.beckett.com/images/no-image.jpg
p732
asg22
V#94
p733
sg24
V1997-98
p734
sg26
g27
sg28
(lp735
VAntoine Walker
p736
assbag1
(g2
g3
Ntp737
Rp738
(dp739
g7
(dp740
g9
V1997-98 Ultra Platinum Medallion #139 Ron Mercer
p741
sg11
I100
sg12
VUltra Platinum Medallion
p742
sg14
(lp743
Vhttp://www.beckett.com/basketball/1997-98/ultra-platinum-medallion/139-ron-mercer-3136153
p744
asg17
g18
sg19
(lp745
Vhttp://img.beckett.com/images/no-image.jpg
p746
asg22
V#139
p747
sg24
V1997-98
p748
sg26
g27
sg28
(lp749
VRon Mercer
p750
assbag1
(g2
g3
Ntp751
Rp752
(dp753
g7
(dp754
g9
V1997-98 Ultra Platinum Medallion #191 Dee Brown
p755
sg11
I100
sg12
VUltra Platinum Medallion
p756
sg14
(lp757
Vhttp://www.beckett.com/basketball/1997-98/ultra-platinum-medallion/191-dee-brown-3136203
p758
asg17
g18
sg19
(lp759
Vhttp://img.beckett.com/images/no-image.jpg
p760
asg22
V#191
p761
sg24
V1997-98
p762
sg26
g27
sg28
(lp763
VDee Brown
p764
assbag1
(g2
g3
Ntp765
Rp766
(dp767
g7
(dp768
g9
V1997-98 Ultra Platinum Medallion #273 Antoine Walker GRE
p769
sg11
I100
sg12
VUltra Platinum Medallion
p770
sg14
(lp771
Vhttp://www.beckett.com/basketball/1997-98/ultra-platinum-medallion/273-antoine-walker-gre-3136285
p772
asg17
g18
sg19
(lp773
Vhttp://img.beckett.com/images/no-image.jpg
p774
asg22
V#273
p775
sg24
V1997-98
p776
sg85
VGRE
p777
sg26
g27
sg28
(lp778
VAntoine Walker
p779
assbag1
(g2
g3
Ntp780
Rp781
(dp782
g7
(dp783
g9
V1997-98 Z-Force Rave #8 Antoine Walker
p784
sg11
I399
sg12
VZ-Force Rave
p785
sg14
(lp786
Vhttp://www.beckett.com/basketball/1997-98/z-force-rave/8-antoine-walker-3133032
p787
asg17
g18
sg19
(lp788
Vhttp://img.beckett.com/images/items_stock/185226/3133012/3133032/front.jpg
p789
asg22
V#8
p790
sg24
V1997-98
p791
sg26
g27
sg28
(lp792
VAntoine Walker
p793
assbag1
(g2
g3
Ntp794
Rp795
(dp796
g7
(dp797
g9
V1997-98 Z-Force Rave #116 Ron Mercer
p798
sg11
I399
sg12
VZ-Force Rave
p799
sg14
(lp800
Vhttp://www.beckett.com/basketball/1997-98/z-force-rave/116-ron-mercer-3133138
p801
asg17
g18
sg19
(lp802
Vhttp://img.beckett.com/images/no-image.jpg
p803
asg22
V#116
p804
sg24
V1997-98
p805
sg26
g27
sg28
(lp806
VRon Mercer
p807
assbag1
(g2
g3
Ntp808
Rp809
(dp810
g7
(dp811
g9
V1997-98 Z-Force Rave #139 Dana Barros
p812
sg11
I399
sg12
VZ-Force Rave
p813
sg14
(lp814
Vhttp://www.beckett.com/basketball/1997-98/z-force-rave/139-dana-barros-3133161
p815
asg17
g18
sg19
(lp816
Vhttp://img.beckett.com/images/no-image.jpg
p817
asg22
V#139
p818
sg24
V1997-98
p819
sg26
g27
sg28
(lp820
VDana Barros
p821
assbag1
(g2
g3
Ntp822
Rp823
(dp824
g7
(dp825
g9
V1997-98 Z-Force Rave #189 Antoine Walker ZUP
p826
sg11
I399
sg12
VZ-Force Rave
p827
sg14
(lp828
Vhttp://www.beckett.com/basketball/1997-98/z-force-rave/189-antoine-walker-zup-3133212
p829
asg17
g18
sg19
(lp830
Vhttp://img.beckett.com/images/no-image.jpg
p831
asg22
V#189
p832
sg24
V1997-98
p833
sg85
VZUP
p834
sg26
g27
sg28
(lp835
VAntoine Walker
p836
assbag1
(g2
g3
Ntp837
Rp838
(dp839
g7
(dp840
g9
V1997-98 Z-Force Super Rave #116 Ron Mercer
p841
sg11
I50
sg12
VZ-Force Super Rave
p842
sg14
(lp843
Vhttp://www.beckett.com/basketball/1997-98/z-force-super-rave/116-ron-mercer-3133250
p844
asg17
g18
sg19
(lp845
Vhttp://img.beckett.com/images/no-image.jpg
p846
asg22
V#116
p847
sg24
V1997-98
p848
sg26
g27
sg28
(lp849
VRon Mercer
p850
assbag1
(g2
g3
Ntp851
Rp852
(dp853
g7
(dp854
g9
V1997-98 Z-Force Super Rave #139 Dana Barros
p855
sg11
I50
sg12
VZ-Force Super Rave
p856
sg14
(lp857
Vhttp://www.beckett.com/basketball/1997-98/z-force-super-rave/139-dana-barros-3133273
p858
asg17
g18
sg19
(lp859
Vhttp://img.beckett.com/images/no-image.jpg
p860
asg22
V#139
p861
sg24
V1997-98
p862
sg26
g27
sg28
(lp863
VDana Barros
p864
assbag1
(g2
g3
Ntp865
Rp866
(dp867
g7
(dp868
g9
V1997-98 Z-Force Super Rave #189 Antoine Walker ZUP
p869
sg11
I50
sg12
VZ-Force Super Rave
p870
sg14
(lp871
Vhttp://www.beckett.com/basketball/1997-98/z-force-super-rave/189-antoine-walker-zup-3133324
p872
asg17
g18
sg19
(lp873
Vhttp://img.beckett.com/images/no-image.jpg
p874
asg22
V#189
p875
sg24
V1997-98
p876
sg85
VZUP
p877
sg26
g27
sg28
(lp878
VAntoine Walker
p879
assbag1
(g2
g3
Ntp880
Rp881
(dp882
g7
(dp883
g9
V1997-98 Upper Deck High Dimensions #D29 Antoine Walker
p884
sg11
I2000
sg12
VUpper Deck High Dimensions
p885
sg14
(lp886
Vhttp://www.beckett.com/basketball/1997-98/upper-deck-high-dimensions/d29-antoine-walker-3132451
p887
asg17
g18
sg19
(lp888
Vhttp://img.beckett.com/images/items_stock/185226/3132415/3132451/front.jpg
p889
asg22
V#D29
p890
sg24
V1997-98
p891
sg26
g27
sg28
(lp892
VAntoine Walker
p893
assbag1
(g2
g3
Ntp894
Rp895
(dp896
g7
(dp897
g9
V1997-98 Hoops High Voltage 500 #HV13 Antoine Walker
p898
sg11
I500
sg12
VHoops High Voltage 500
p899
sg14
(lp900
Vhttp://www.beckett.com/basketball/1997-98/hoops-high-voltage-500/hv13-antoine-walker-3142302
p901
asg17
g18
sg19
(lp902
Vhttp://img.beckett.com/images/no-image.jpg
p903
asg22
V#HV13
p904
sg24
V1997-98
p905
sg26
g27
sg28
(lp906
VAntoine Walker
p907
assbag1
(g2
g3
Ntp908
Rp909
(dp910
g7
(dp911
g9
V1997-98 Metal Universe Precious Metal Gems Emerald #62 Ron Mercer
p912
sg11
I10
sg12
VMetal Universe Precious Metal Gems Emerald
p913
sg14
(lp914
Vhttp://www.beckett.com/basketball/1997-98/metal-universe-precious-metal-gems-emerald/62-ron-mercer-7055511
p915
asg17
g18
sg19
(lp916
Vhttp://img.beckett.com/images/no-image.jpg
p917
asg22
V#62
p918
sg24
V1997-98
p919
sg26
g27
sg28
(lp920
VRon Mercer
p921
assbag1
(g2
g3
Ntp922
Rp923
(dp924
g7
(dp925
g9
V1997-98 Metal Universe Precious Metal Gems Emerald #72 Antoine Walker
p926
sg11
I10
sg12
VMetal Universe Precious Metal Gems Emerald
p927
sg14
(lp928
Vhttp://www.beckett.com/basketball/1997-98/metal-universe-precious-metal-gems-emerald/72-antoine-walker-7055521
p929
asg17
g18
sg19
(lp930
Vhttp://img.beckett.com/images/no-image.jpg
p931
asg22
V#72
p932
sg24
V1997-98
p933
sg26
g27
sg28
(lp934
VAntoine Walker
p935
assbag1
(g2
g3
Ntp936
Rp937
(dp938
g7
(dp939
g9
V1997-98 SP Authentic Profiles 3 #P8 Antoine Walker
p940
sg11
I100
sg12
VSP Authentic Profiles 3
p941
sg14
(lp942
Vhttp://www.beckett.com/basketball/1997-98/sp-authentic-profiles-3/p8-antoine-walker-3140289
p943
asg17
g18
sg19
(lp944
Vhttp://img.beckett.com/images/items_stock/185226/3140273/3140289/front.jpg
p945
asg22
V#P8
p946
sg24
V1997-98
p947
sg26
g27
sg28
(lp948
VAntoine Walker
p949
assbag1
(g2
g3
Ntp950
Rp951
(dp952
g7
(dp953
g9
V1997-98 Upper Deck Diamond Dimensions #D29 Antoine Walker
p954
sg11
I100
sg12
VUpper Deck Diamond Dimensions
p955
sg14
(lp956
Vhttp://www.beckett.com/basketball/1997-98/upper-deck-diamond-dimensions/d29-antoine-walker-3132489
p957
asg17
g18
sg19
(lp958
Vhttp://img.beckett.com/images/no-image.jpg
p959
asg22
V#D29
p960
sg24
V1997-98
p961
sg26
g27
sg28
(lp962
VAntoine Walker
p963
assba.