(lp0
Naccopy_reg
_reconstructor
p1
(ctutorial.items
BeckettItem
p2
c__builtin__
object
p3
Ntp4
Rp5
(dp6
S'_values'
p7
(dp8
S'originalItemDescription'
p9
V1997 Bleachers/Fleer Gold #11 Scottie Pippen 1988-89
p10
sS'serialNumber'
p11
I10000
sS'setName'
p12
VBleachers/Fleer Gold
p13
sS'beckettLink'
p14
(lp15
Vhttp://www.beckett.com/basketball/1997/bleachersfleer-gold/11-scottie-pippen-1988-89-3129467
p16
asS'team'
p17
S'Chicago Bulls'
p18
sS'imageLink'
p19
(lp20
Vhttp://img.beckett.com/images/no-image.jpg
p21
asS'cardNumber'
p22
V#11
p23
sS'year'
p24
V1997
p25
sS'sport'
p26
S'Basketball'
p27
sS'playerNames'
p28
(lp29
VScottie Pippen
p30
assbag1
(g2
g3
Ntp31
Rp32
(dp33
g7
(dp34
g9
V1997 Bleachers/Fleer Gold #12 Dennis Rodman 1988-89
p35
sg11
I10000
sg12
VBleachers/Fleer Gold
p36
sg14
(lp37
Vhttp://www.beckett.com/basketball/1997/bleachersfleer-gold/12-dennis-rodman-1988-89-3129468
p38
asg17
g18
sg19
(lp39
Vhttp://img.beckett.com/images/no-image.jpg
p40
asg22
V#12
p41
sg24
V1997
p42
sg26
g27
sg28
(lp43
VDennis Rodman
p44
assbag1
(g2
g3
Ntp45
Rp46
(dp47
g7
(dp48
g9
V1997 Upper Deck Michael Jordan Championship Journals #NNO Michael Jordan/Special Card - AU/50
p49
sg11
I50
sg12
VUpper Deck Michael Jordan Championship Journals
p50
sg14
(lp51
Vhttp://www.beckett.com/basketball/1997/upper-deck-michael-jordan-championship-journals/nno-michael-jordanspecial-card---au50-3128751
p52
asg17
g18
sg19
(lp53
Vhttp://img.beckett.com/images/no-image.jpg
p54
asg22
V#NNO
p55
sS'autograph'
p56
I1
sg24
V1997
p57
sg26
g27
sg28
(lp58
VMichael Jordan
p59
aVSpecial Card -
p60
assbag1
(g2
g3
Ntp61
Rp62
(dp63
g7
(dp64
g9
V1997 SPx ProMotion Autographs #1 Michael Jordan
p65
sg11
I100
sg12
VSPx ProMotion Autographs
p66
sg14
(lp67
Vhttp://www.beckett.com/basketball/1997/spx-promotion-autographs/1-michael-jordan-3128611
p68
asg17
g18
sg19
(lp69
Vhttp://img.beckett.com/images/no-image.jpg
p70
asg22
V#1
p71
sg56
I1
sg24
V1997
p72
sg26
g27
sg28
(lp73
VMichael Jordan
p74
assbag1
(g2
g3
Ntp75
Rp76
(dp77
g7
(dp78
g9
V1997-98 Upper Deck #NNO Michael Jordan White Audio
p79
sg11
I1
sg12
VUpper Deck
p80
sg14
(lp81
Vhttp://www.beckett.com/basketball/1997-98/upper-deck/nno-michael-jordan-white-audio-3134229
p82
asg17
g18
sg19
(lp83
Vhttp://img.beckett.com/images/no-image.jpg
p84
asg22
V#NNO
p85
sg24
V1997-98
p86
sg26
g27
sg28
(lp87
VMichael Jordan White Audio
p88
assbag1
(g2
g3
Ntp89
Rp90
(dp91
g7
(dp92
g9
V1997-98 E-X2001 Essential Credentials Future #5 Dennis Rodman/76
p93
sg11
I76
sg12
VE-X2001 Essential Credentials Future
p94
sg14
(lp95
Vhttp://www.beckett.com/basketball/1997-98/e-x2001-essential-credentials-future/5-dennis-rodman76-3144591
p96
asg17
g18
sg19
(lp97
Vhttp://img.beckett.com/images/no-image.jpg
p98
asg22
V#5
p99
sg24
V1997-98
p100
sg26
g27
sg28
(lp101
VDennis Rodman
p102
assbag1
(g2
g3
Ntp103
Rp104
(dp105
g7
(dp106
g9
V1997-98 E-X2001 Essential Credentials Future #11 Scottie Pippen/70
p107
sg11
I70
sg12
VE-X2001 Essential Credentials Future
p108
sg14
(lp109
Vhttp://www.beckett.com/basketball/1997-98/e-x2001-essential-credentials-future/11-scottie-pippen70-3144597
p110
asg17
g18
sg19
(lp111
Vhttp://img.beckett.com/images/no-image.jpg
p112
asg22
V#11
p113
sg24
V1997-98
p114
sg26
g27
sg28
(lp115
VScottie Pippen
p116
assbag1
(g2
g3
Ntp117
Rp118
(dp119
g7
(dp120
g9
V1997-98 E-X2001 Essential Credentials Now #5 Dennis Rodman/5
p121
sg11
I5
sg12
VE-X2001 Essential Credentials Now
p122
sg14
(lp123
Vhttp://www.beckett.com/basketball/1997-98/e-x2001-essential-credentials-now/5-dennis-rodman5-3144678
p124
asg17
g18
sg19
(lp125
Vhttp://img.beckett.com/images/no-image.jpg
p126
asg22
V#5
p127
sg24
V1997-98
p128
sg26
g27
sg28
(lp129
VDennis Rodman
p130
assbag1
(g2
g3
Ntp131
Rp132
(dp133
g7
(dp134
g9
V1997-98 E-X2001 Essential Credentials Now #11 Scottie Pippen/11
p135
sg11
I11
sg12
VE-X2001 Essential Credentials Now
p136
sg14
(lp137
Vhttp://www.beckett.com/basketball/1997-98/e-x2001-essential-credentials-now/11-scottie-pippen11-3144684
p138
asg17
g18
sg19
(lp139
Vhttp://img.beckett.com/images/no-image.jpg
p140
asg22
V#11
p141
sg24
V1997-98
p142
sg26
g27
sg28
(lp143
VScottie Pippen
p144
assbag1
(g2
g3
Ntp145
Rp146
(dp147
g7
(dp148
g9
V1997-98 Finest Embossed Refractors #125 Scottie Pippen S
p149
sg11
I263
sg12
VFinest Embossed Refractors
p150
sg14
(lp151
Vhttp://www.beckett.com/basketball/1997-98/finest-embossed-refractors/125-scottie-pippen-s-3145333
p152
asg17
g18
sg19
(lp153
Vhttp://img.beckett.com/images/no-image.jpg
p154
asg22
V#125
p155
sg24
V1997-98
p156
sS'subsetName'
p157
VS
p158
sg26
g27
sg28
(lp159
Vcottie Pippen
p160
assbag1
(g2
g3
Ntp161
Rp162
(dp163
g7
(dp164
g9
V1997-98 Finest Embossed Refractors #142 Toni Kukoc S
p165
sg11
I263
sg12
VFinest Embossed Refractors
p166
sg14
(lp167
Vhttp://www.beckett.com/basketball/1997-98/finest-embossed-refractors/142-toni-kukoc-s-3145350
p168
asg17
g18
sg19
(lp169
Vhttp://img.beckett.com/images/no-image.jpg
p170
asg22
V#142
p171
sg24
V1997-98
p172
sg157
g158
sg26
g27
sg28
(lp173
VToni Kukoc
p174
assbag1
(g2
g3
Ntp175
Rp176
(dp177
g7
(dp178
g9
V1997-98 Finest Embossed Refractors #154 Michael Jordan G
p179
sg11
I74
sg12
VFinest Embossed Refractors
p180
sg14
(lp181
Vhttp://www.beckett.com/basketball/1997-98/finest-embossed-refractors/154-michael-jordan-g-3145362
p182
asg17
g18
sg19
(lp183
Vhttp://img.beckett.com/images/no-image.jpg
p184
asg22
V#154
p185
sg24
V1997-98
p186
sg157
VG
p187
sg26
g27
sg28
(lp188
VMichael Jordan
p189
assbag1
(g2
g3
Ntp190
Rp191
(dp192
g7
(dp193
g9
V1997-98 Finest Embossed Refractors #167 Dennis Rodman G
p194
sg11
I74
sg12
VFinest Embossed Refractors
p195
sg14
(lp196
Vhttp://www.beckett.com/basketball/1997-98/finest-embossed-refractors/167-dennis-rodman-g-3145375
p197
asg17
g18
sg19
(lp198
Vhttp://img.beckett.com/images/no-image.jpg
p199
asg22
V#167
p200
sg24
V1997-98
p201
sg157
g187
sg26
g27
sg28
(lp202
VDennis Rodman
p203
assbag1
(g2
g3
Ntp204
Rp205
(dp206
g7
(dp207
g9
V1997-98 Finest Embossed Refractors #275 Dennis Rodman S
p208
sg11
I263
sg12
VFinest Embossed Refractors
p209
sg14
(lp210
Vhttp://www.beckett.com/basketball/1997-98/finest-embossed-refractors/275-dennis-rodman-s-3145383
p211
asg17
g18
sg19
(lp212
Vhttp://img.beckett.com/images/no-image.jpg
p213
asg22
V#275
p214
sg24
V1997-98
p215
sg157
g158
sg26
g27
sg28
(lp216
VDennis Rodman
p217
assbag1
(g2
g3
Ntp218
Rp219
(dp220
g7
(dp221
g9
V1997-98 Finest Embossed Refractors #287 Michael Jordan S
p222
sg11
I263
sg12
VFinest Embossed Refractors
p223
sg14
(lp224
Vhttp://www.beckett.com/basketball/1997-98/finest-embossed-refractors/287-michael-jordan-s-3145395
p225
asg17
g18
sg19
(lp226
Vhttp://img.beckett.com/images/no-image.jpg
p227
asg22
V#287
p228
sg24
V1997-98
p229
sg157
g158
sg26
g27
sg28
(lp230
VMichael Jordan
p231
assbag1
(g2
g3
Ntp232
Rp233
(dp234
g7
(dp235
g9
V1997-98 Finest Embossed Refractors #322 Scottie Pippen G
p236
sg11
I74
sg12
VFinest Embossed Refractors
p237
sg14
(lp238
Vhttp://www.beckett.com/basketball/1997-98/finest-embossed-refractors/322-scottie-pippen-g-3145430
p239
asg17
g18
sg19
(lp240
Vhttp://img.beckett.com/images/no-image.jpg
p241
asg22
V#322
p242
sg24
V1997-98
p243
sg157
g187
sg26
g27
sg28
(lp244
VScottie Pippen
p245
assbag1
(g2
g3
Ntp246
Rp247
(dp248
g7
(dp249
g9
V1997-98 Finest Refractors #125 Scottie Pippen S
p250
sg11
I1090
sg12
VFinest Refractors
p251
sg14
(lp252
Vhttp://www.beckett.com/basketball/1997-98/finest-refractors/125-scottie-pippen-s-3145591
p253
asg17
g18
sg19
(lp254
Vhttp://img.beckett.com/images/items_stock/185226/3145435/3145591/front.jpg
p255
asg22
V#125
p256
sg24
V1997-98
p257
sg157
g158
sg26
g27
sg28
(lp258
Vcottie Pippen
p259
assbag1
(g2
g3
Ntp260
Rp261
(dp262
g7
(dp263
g9
V1997-98 Finest Refractors #142 Toni Kukoc S
p264
sg11
I1090
sg12
VFinest Refractors
p265
sg14
(lp266
Vhttp://www.beckett.com/basketball/1997-98/finest-refractors/142-toni-kukoc-s-3145608
p267
asg17
g18
sg19
(lp268
Vhttp://img.beckett.com/images/no-image.jpg
p269
asg22
V#142
p270
sg24
V1997-98
p271
sg157
g158
sg26
g27
sg28
(lp272
VToni Kukoc
p273
assbag1
(g2
g3
Ntp274
Rp275
(dp276
g7
(dp277
g9
V1997-98 Finest Refractors #154 Michael Jordan G
p278
sg11
I289
sg12
VFinest Refractors
p279
sg14
(lp280
Vhttp://www.beckett.com/basketball/1997-98/finest-refractors/154-michael-jordan-g-3145620
p281
asg17
g18
sg19
(lp282
Vhttp://img.beckett.com/images/no-image.jpg
p283
asg22
V#154
p284
sg24
V1997-98
p285
sg157
g187
sg26
g27
sg28
(lp286
VMichael Jordan
p287
assbag1
(g2
g3
Ntp288
Rp289
(dp290
g7
(dp291
g9
V1997-98 Finest Refractors #167 Dennis Rodman G
p292
sg11
I289
sg12
VFinest Refractors
p293
sg14
(lp294
Vhttp://www.beckett.com/basketball/1997-98/finest-refractors/167-dennis-rodman-g-3145633
p295
asg17
g18
sg19
(lp296
Vhttp://img.beckett.com/images/no-image.jpg
p297
asg22
V#167
p298
sg24
V1997-98
p299
sg157
g187
sg26
g27
sg28
(lp300
VDennis Rodman
p301
assbag1
(g2
g3
Ntp302
Rp303
(dp304
g7
(dp305
g9
V1997-98 Finest Refractors #275 Dennis Rodman S
p306
sg11
I1090
sg12
VFinest Refractors
p307
sg14
(lp308
Vhttp://www.beckett.com/basketball/1997-98/finest-refractors/275-dennis-rodman-s-3145741
p309
asg17
g18
sg19
(lp310
Vhttp://img.beckett.com/images/no-image.jpg
p311
asg22
V#275
p312
sg24
V1997-98
p313
sg157
g158
sg26
g27
sg28
(lp314
VDennis Rodman
p315
assbag1
(g2
g3
Ntp316
Rp317
(dp318
g7
(dp319
g9
V1997-98 Finest Refractors #322 Scottie Pippen G
p320
sg11
I289
sg12
VFinest Refractors
p321
sg14
(lp322
Vhttp://www.beckett.com/basketball/1997-98/finest-refractors/322-scottie-pippen-g-3145788
p323
asg17
g18
sg19
(lp324
Vhttp://img.beckett.com/images/no-image.jpg
p325
asg22
V#322
p326
sg24
V1997-98
p327
sg157
g187
sg26
g27
sg28
(lp328
VScottie Pippen
p329
assbag1
(g2
g3
Ntp330
Rp331
(dp332
g7
(dp333
g9
V1997-98 Flair Showcase Row 0 #13 Dennis Rodman
p334
sg11
I250
sg12
VFlair Showcase Row 0
p335
sg14
(lp336
Vhttp://www.beckett.com/basketball/1997-98/flair-showcase-row-0/13-dennis-rodman-3146111
p337
asg17
g18
sg19
(lp338
Vhttp://img.beckett.com/images/no-image.jpg
p339
asg22
V#13
p340
sg24
V1997-98
p341
sg26
g27
sg28
(lp342
VDennis Rodman
p343
assbag1
(g2
g3
Ntp344
Rp345
(dp346
g7
(dp347
g9
V1997-98 Flair Showcase Row 0 #16 Scottie Pippen
p348
sg11
I250
sg12
VFlair Showcase Row 0
p349
sg14
(lp350
Vhttp://www.beckett.com/basketball/1997-98/flair-showcase-row-0/16-scottie-pippen-3146114
p351
asg17
g18
sg19
(lp352
Vhttp://img.beckett.com/images/no-image.jpg
p353
asg22
V#16
p354
sg24
V1997-98
p355
sg26
g27
sg28
(lp356
VScottie Pippen
p357
assbag1
(g2
g3
Ntp358
Rp359
(dp360
g7
(dp361
g9
V1997-98 Flair Showcase Legacy Collection Row 3 #13 Dennis Rodman
p362
sg11
I100
sg12
VFlair Showcase Legacy Collection Row 3
p363
sg14
(lp364
Vhttp://www.beckett.com/basketball/1997-98/flair-showcase-legacy-collection-row-3/13-dennis-rodman-3148571
p365
asg17
g18
sg19
(lp366
Vhttp://img.beckett.com/images/no-image.jpg
p367
asg22
V#13
p368
sg24
V1997-98
p369
sg26
g27
sg28
(lp370
VDennis Rodman
p371
assbag1
(g2
g3
Ntp372
Rp373
(dp374
g7
(dp375
g9
V1997-98 Flair Showcase Legacy Collection Row 3 #16 Scottie Pippen
p376
sg11
I100
sg12
VFlair Showcase Legacy Collection Row 3
p377
sg14
(lp378
Vhttp://www.beckett.com/basketball/1997-98/flair-showcase-legacy-collection-row-3/16-scottie-pippen-3148574
p379
asg17
g18
sg19
(lp380
Vhttp://img.beckett.com/images/no-image.jpg
p381
asg22
V#16
p382
sg24
V1997-98
p383
sg26
g27
sg28
(lp384
VScottie Pippen
p385
assbag1
(g2
g3
Ntp386
Rp387
(dp388
g7
(dp389
g9
V1997-98 Flair Showcase Legacy Collection Row 2 #1 Michael Jordan
p390
sg11
I100
sg12
VFlair Showcase Legacy Collection Row 2
p391
sg14
(lp392
Vhttp://www.beckett.com/basketball/1997-98/flair-showcase-legacy-collection-row-2/1-michael-jordan-3148469
p393
asg17
g18
sg19
(lp394
Vhttp://img.beckett.com/images/no-image.jpg
p395
asg22
V#1
p396
sg24
V1997-98
p397
sg26
g27
sg28
(lp398
VMichael Jordan
p399
assbag1
(g2
g3
Ntp400
Rp401
(dp402
g7
(dp403
g9
V1997-98 Metal Universe Precious Metal Gems #18 Luc Longley
p404
sg11
I90
sg12
VMetal Universe Precious Metal Gems
p405
sg14
(lp406
Vhttp://www.beckett.com/basketball/1997-98/metal-universe-precious-metal-gems/18-luc-longley-3142609
p407
asg17
g18
sg19
(lp408
Vhttp://img.beckett.com/images/no-image.jpg
p409
asg22
V#18
p410
sg24
V1997-98
p411
sg26
g27
sg28
(lp412
VLuc Longley
p413
assbag1
(g2
g3
Ntp414
Rp415
(dp416
g7
(dp417
g9
V1997-98 Metal Universe Precious Metal Gems #23 Michael Jordan
p418
sg11
I90
sg12
VMetal Universe Precious Metal Gems
p419
sg14
(lp420
Vhttp://www.beckett.com/basketball/1997-98/metal-universe-precious-metal-gems/23-michael-jordan-3142614
p421
asg17
g18
sg19
(lp422
Vhttp://img.beckett.com/images/no-image.jpg
p423
asg22
V#23
p424
sg24
V1997-98
p425
sg26
g27
sg28
(lp426
VMichael Jordan
p427
assbag1
(g2
g3
Ntp428
Rp429
(dp430
g7
(dp431
g9
V1997-98 Metal Universe Precious Metal Gems #58 Steve Kerr
p432
sg11
I90
sg12
VMetal Universe Precious Metal Gems
p433
sg14
(lp434
Vhttp://www.beckett.com/basketball/1997-98/metal-universe-precious-metal-gems/58-steve-kerr-3142650
p435
asg17
g18
sg19
(lp436
Vhttp://img.beckett.com/images/no-image.jpg
p437
asg22
V#58
p438
sg24
V1997-98
p439
sg26
g27
sg28
(lp440
VSteve Kerr
p441
assbag1
(g2
g3
Ntp442
Rp443
(dp444
g7
(dp445
g9
V1997-98 Metal Universe Precious Metal Gems #61 Toni Kukoc
p446
sg11
I90
sg12
VMetal Universe Precious Metal Gems
p447
sg14
(lp448
Vhttp://www.beckett.com/basketball/1997-98/metal-universe-precious-metal-gems/61-toni-kukoc-3142653
p449
asg17
g18
sg19
(lp450
Vhttp://img.beckett.com/images/no-image.jpg
p451
asg22
V#61
p452
sg24
V1997-98
p453
sg26
g27
sg28
(lp454
VToni Kukoc
p455
assbag1
(g2
g3
Ntp456
Rp457
(dp458
g7
(dp459
g9
V1997-98 Metal Universe Precious Metal Gems #83 Scottie Pippen
p460
sg11
I90
sg12
VMetal Universe Precious Metal Gems
p461
sg14
(lp462
Vhttp://www.beckett.com/basketball/1997-98/metal-universe-precious-metal-gems/83-scottie-pippen-3142675
p463
asg17
g18
sg19
(lp464
Vhttp://img.beckett.com/images/no-image.jpg
p465
asg22
V#83
p466
sg24
V1997-98
p467
sg26
g27
sg28
(lp468
VScottie Pippen
p469
assbag1
(g2
g3
Ntp470
Rp471
(dp472
g7
(dp473
g9
V1997-98 Metal Universe Precious Metal Gems #107 Dennis Rodman
p474
sg11
I90
sg12
VMetal Universe Precious Metal Gems
p475
sg14
(lp476
Vhttp://www.beckett.com/basketball/1997-98/metal-universe-precious-metal-gems/107-dennis-rodman-3142699
p477
asg17
g18
sg19
(lp478
Vhttp://img.beckett.com/images/no-image.jpg
p479
asg22
V#107
p480
sg24
V1997-98
p481
sg26
g27
sg28
(lp482
VDennis Rodman
p483
assbag1
(g2
g3
Ntp484
Rp485
(dp486
g7
(dp487
g9
V1997-98 Metal Universe Championship Precious Metal Gems #62 Dennis Rodman
p488
sg11
I50
sg12
VMetal Universe Championship Precious Metal Gems
p489
sg14
(lp490
Vhttp://www.beckett.com/basketball/1997-98/metal-universe-championship-precious-metal-gems/62-dennis-rodman-3140737
p491
asg17
g18
sg19
(lp492
Vhttp://img.beckett.com/images/no-image.jpg
p493
asg22
V#62
p494
sg24
V1997-98
p495
sg26
g27
sg28
(lp496
VDennis Rodman
p497
assbag1
(g2
g3
Ntp498
Rp499
(dp500
g7
(dp501
g9
V1997-98 Metal Universe Championship Precious Metal Gems #85 Scottie Pippen
p502
sg11
I50
sg12
VMetal Universe Championship Precious Metal Gems
p503
sg14
(lp504
Vhttp://www.beckett.com/basketball/1997-98/metal-universe-championship-precious-metal-gems/85-scottie-pippen-3140760
p505
asg17
g18
sg19
(lp506
Vhttp://img.beckett.com/images/no-image.jpg
p507
asg22
V#85
p508
sg24
V1997-98
p509
sg26
g27
sg28
(lp510
VScottie Pippen
p511
assbag1
(g2
g3
Ntp512
Rp513
(dp514
g7
(dp515
g9
V1997-98 SkyBox Premium Star Rubies #32 Steve Kerr
p516
sg11
I50
sg12
VSkyBox Premium Star Rubies
p517
sg14
(lp518
Vhttp://www.beckett.com/basketball/1997-98/skybox-premium-star-rubies/32-steve-kerr-3141203
p519
asg17
g18
sg19
(lp520
Vhttp://img.beckett.com/images/no-image.jpg
p521
asg22
V#32
p522
sg24
V1997-98
p523
sg26
g27
sg28
(lp524
VSteve Kerr
p525
assbag1
(g2
g3
Ntp526
Rp527
(dp528
g7
(dp529
g9
V1997-98 SkyBox Premium Star Rubies #39 Toni Kukoc
p530
sg11
I50
sg12
VSkyBox Premium Star Rubies
p531
sg14
(lp532
Vhttp://www.beckett.com/basketball/1997-98/skybox-premium-star-rubies/39-toni-kukoc-3141210
p533
asg17
g18
sg19
(lp534
Vhttp://img.beckett.com/images/no-image.jpg
p535
asg22
V#39
p536
sg24
V1997-98
p537
sg26
g27
sg28
(lp538
VToni Kukoc
p539
assbag1
(g2
g3
Ntp540
Rp541
(dp542
g7
(dp543
g9
V1997-98 SkyBox Premium Star Rubies #44 Luc Longley
p544
sg11
I50
sg12
VSkyBox Premium Star Rubies
p545
sg14
(lp546
Vhttp://www.beckett.com/basketball/1997-98/skybox-premium-star-rubies/44-luc-longley-3141215
p547
asg17
g18
sg19
(lp548
Vhttp://img.beckett.com/images/no-image.jpg
p549
asg22
V#44
p550
sg24
V1997-98
p551
sg26
g27
sg28
(lp552
VLuc Longley
p553
assbag1
(g2
g3
Ntp554
Rp555
(dp556
g7
(dp557
g9
V1997-98 SkyBox Premium Star Rubies #48 Scottie Pippen
p558
sg11
I50
sg12
VSkyBox Premium Star Rubies
p559
sg14
(lp560
Vhttp://www.beckett.com/basketball/1997-98/skybox-premium-star-rubies/48-scottie-pippen-3141219
p561
asg17
g18
sg19
(lp562
Vhttp://img.beckett.com/images/no-image.jpg
p563
asg22
V#48
p564
sg24
V1997-98
p565
sg26
g27
sg28
(lp566
VScottie Pippen
p567
assbag1
(g2
g3
Ntp568
Rp569
(dp570
g7
(dp571
g9
V1997-98 SkyBox Premium Star Rubies #119 Dennis Rodman
p572
sg11
I50
sg12
VSkyBox Premium Star Rubies
p573
sg14
(lp574
Vhttp://www.beckett.com/basketball/1997-98/skybox-premium-star-rubies/119-dennis-rodman-3141290
p575
asg17
g18
sg19
(lp576
Vhttp://img.beckett.com/images/no-image.jpg
p577
asg22
V#119
p578
sg24
V1997-98
p579
sg26
g27
sg28
(lp580
VDennis Rodman
p581
assbag1
(g2
g3
Ntp582
Rp583
(dp584
g7
(dp585
g9
V1997-98 SkyBox Premium Star Rubies #207 Keith Booth
p586
sg11
I50
sg12
VSkyBox Premium Star Rubies
p587
sg14
(lp588
Vhttp://www.beckett.com/basketball/1997-98/skybox-premium-star-rubies/207-keith-booth-3141376
p589
asg17
g18
sg19
(lp590
Vhttp://img.beckett.com/images/no-image.jpg
p591
asg22
V#207
p592
sg24
V1997-98
p593
sg26
g27
sg28
(lp594
VKeith Booth
p595
assbag1
(g2
g3
Ntp596
Rp597
(dp598
g7
(dp599
g9
V1997-98 SkyBox Premium Star Rubies #220 Jud Buechler
p600
sg11
I50
sg12
VSkyBox Premium Star Rubies
p601
sg14
(lp602
Vhttp://www.beckett.com/basketball/1997-98/skybox-premium-star-rubies/220-jud-buechler-3141389
p603
asg17
g18
sg19
(lp604
Vhttp://img.beckett.com/images/no-image.jpg
p605
asg22
V#220
p606
sg24
V1997-98
p607
sg26
g27
sg28
(lp608
VJud Buechler
p609
assbag1
(g2
g3
Ntp610
Rp611
(dp612
g7
(dp613
g9
V1997-98 SkyBox Premium Star Rubies #235 Michael Jordan TS
p614
sg11
I50
sg12
VSkyBox Premium Star Rubies
p615
sg14
(lp616
Vhttp://www.beckett.com/basketball/1997-98/skybox-premium-star-rubies/235-michael-jordan-ts-3141404
p617
asg17
g18
sg19
(lp618
Vhttp://img.beckett.com/images/no-image.jpg
p619
asg22
V#235
p620
sg24
V1997-98
p621
sg157
VTS
p622
sg26
g27
sg28
(lp623
VMichael Jordan
p624
assbag1
(g2
g3
Ntp625
Rp626
(dp627
g7
(dp628
g9
V1997-98 SkyBox Premium Star Rubies #242 Scottie Pippen TS
p629
sg11
I50
sg12
VSkyBox Premium Star Rubies
p630
sg14
(lp631
Vhttp://www.beckett.com/basketball/1997-98/skybox-premium-star-rubies/242-scottie-pippen-ts-3141411
p632
asg17
g18
sg19
(lp633
Vhttp://img.beckett.com/images/no-image.jpg
p634
asg22
V#242
p635
sg24
V1997-98
p636
sg157
VTS
p637
sg26
g27
sg28
(lp638
VScottie Pippen
p639
assbag1
(g2
g3
Ntp640
Rp641
(dp642
g7
(dp643
g9
V1997-98 SkyBox Premium Star Rubies #244 Dennis Rodman TS
p644
sg11
I50
sg12
VSkyBox Premium Star Rubies
p645
sg14
(lp646
Vhttp://www.beckett.com/basketball/1997-98/skybox-premium-star-rubies/244-dennis-rodman-ts-3141413
p647
asg17
g18
sg19
(lp648
Vhttp://img.beckett.com/images/no-image.jpg
p649
asg22
V#244
p650
sg24
V1997-98
p651
sg157
VTS
p652
sg26
g27
sg28
(lp653
VDennis Rodman
p654
assbag1
(g2
g3
Ntp655
Rp656
(dp657
g7
(dp658
g9
V1997-98 SkyBox Premium Autographics Century Marks #15 Randy Brown
p659
sg11
I100
sg12
VSkyBox Premium Autographics Century Marks
p660
sg14
(lp661
Vhttp://www.beckett.com/basketball/1997-98/skybox-premium-autographics-century-marks/15-randy-brown-3141597
p662
asg17
g18
sg19
(lp663
Vhttp://img.beckett.com/images/no-image.jpg
p664
asg22
V#15
p665
sg56
I1
sg24
V1997-98
p666
sg26
g27
sg28
(lp667
VRandy Brown
p668
assbag1
(g2
g3
Ntp669
Rp670
(dp671
g7
(dp672
g9
V1997-98 SkyBox Premium Autographics Century Marks #16 Jud Buechler
p673
sg11
I100
sg12
VSkyBox Premium Autographics Century Marks
p674
sg14
(lp675
Vhttp://www.beckett.com/basketball/1997-98/skybox-premium-autographics-century-marks/16-jud-buechler-3141598
p676
asg17
g18
sg19
(lp677
Vhttp://img.beckett.com/images/no-image.jpg
p678
asg22
V#16
p679
sg56
I1
sg24
V1997-98
p680
sg26
g27
sg28
(lp681
VJud Buechler
p682
assbag1
(g2
g3
Ntp683
Rp684
(dp685
g7
(dp686
g9
V1997-98 SkyBox Premium Autographics Century Marks #46 Ron Harper
p687
sg11
I100
sg12
VSkyBox Premium Autographics Century Marks
p688
sg14
(lp689
Vhttp://www.beckett.com/basketball/1997-98/skybox-premium-autographics-century-marks/46-ron-harper-3141628
p690
asg17
g18
sg19
(lp691
Vhttp://img.beckett.com/images/no-image.jpg
p692
asg22
V#46
p693
sg56
I1
sg24
V1997-98
p694
sg26
g27
sg28
(lp695
VRon Harper
p696
assbag1
(g2
g3
Ntp697
Rp698
(dp699
g7
(dp700
g9
V1997-98 SkyBox Premium Autographics Century Marks #61 Steve Kerr
p701
sg11
I100
sg12
VSkyBox Premium Autographics Century Marks
p702
sg14
(lp703
Vhttp://www.beckett.com/basketball/1997-98/skybox-premium-autographics-century-marks/61-steve-kerr-3141643
p704
asg17
g18
sg19
(lp705
Vhttp://img.beckett.com/images/no-image.jpg
p706
asg22
V#61
p707
sg56
I1
sg24
V1997-98
p708
sg26
g27
sg28
(lp709
VSteve Kerr
p710
assbag1
(g2
g3
Ntp711
Rp712
(dp713
g7
(dp714
g9
V1997-98 SkyBox Premium Autographics Century Marks #85 Scottie Pippen
p715
sg11
I100
sg12
VSkyBox Premium Autographics Century Marks
p716
sg14
(lp717
Vhttp://www.beckett.com/basketball/1997-98/skybox-premium-autographics-century-marks/85-scottie-pippen-3141667
p718
asg17
g18
sg19
(lp719
Vhttp://img.beckett.com/images/no-image.jpg
p720
asg22
V#85
p721
sg56
I1
sg24
V1997-98
p722
sg26
g27
sg28
(lp723
VScottie Pippen
p724
assbag1
(g2
g3
Ntp725
Rp726
(dp727
g7
(dp728
g9
V1997-98 SkyBox Premium Autographics Century Marks #91 Dennis Rodman
p729
sg11
I100
sg12
VSkyBox Premium Autographics Century Marks
p730
sg14
(lp731
Vhttp://www.beckett.com/basketball/1997-98/skybox-premium-autographics-century-marks/91-dennis-rodman-3141673
p732
asg17
g18
sg19
(lp733
Vhttp://img.beckett.com/images/no-image.jpg
p734
asg22
V#91
p735
sg56
I1
sg24
V1997-98
p736
sg26
g27
sg28
(lp737
VDennis Rodman
p738
assbag1
(g2
g3
Ntp739
Rp740
(dp741
g7
(dp742
g9
V1997-98 SPx Grand Finale #7 Scottie Pippen
p743
sg11
I50
sg12
VSPx Grand Finale
p744
sg14
(lp745
Vhttp://www.beckett.com/basketball/1997-98/spx-grand-finale/7-scottie-pippen-3137691
p746
asg17
g18
sg19
(lp747
Vhttp://img.beckett.com/images/no-image.jpg
p748
asg22
V#7
p749
sg24
V1997-98
p750
sg26
g27
sg28
(lp751
VScottie Pippen
p752
assbag1
(g2
g3
Ntp753
Rp754
(dp755
g7
(dp756
g9
V1997-98 SPx Grand Finale #8 Dennis Rodman
p757
sg11
I50
sg12
VSPx Grand Finale
p758
sg14
(lp759
Vhttp://www.beckett.com/basketball/1997-98/spx-grand-finale/8-dennis-rodman-3137692
p760
asg17
g18
sg19
(lp761
Vhttp://img.beckett.com/images/no-image.jpg
p762
asg22
V#8
p763
sg24
V1997-98
p764
sg26
g27
sg28
(lp765
VDennis Rodman
p766
assbag1
(g2
g3
Ntp767
Rp768
(dp769
g7
(dp770
g9
V1997-98 Stadium Club One Of A Kind #1 Scottie Pippen
p771
sg11
I150
sg12
VStadium Club One Of A Kind
p772
sg14
(lp773
Vhttp://www.beckett.com/basketball/1997-98/stadium-club-one-of-a-kind/1-scottie-pippen-3138300
p774
asg17
g18
sg19
(lp775
Vhttp://img.beckett.com/images/items_stock/185226/3138288/3138300/front.jpg
p776
asg22
V#1
p777
sg24
V1997-98
p778
sg26
g27
sg28
(lp779
VScottie Pippen
p780
assbag1
(g2
g3
Ntp781
Rp782
(dp783
g7
(dp784
g9
V1997-98 Stadium Club One Of A Kind #5 Bulls - Team of the 90s/Ron Harper/Michael Jordan/Scottie Pippen/Dennis Rodman
p785
sg11
I150
sg12
VStadium Club One Of A Kind
p786
sg14
(lp787
Vhttp://www.beckett.com/basketball/1997-98/stadium-club-one-of-a-kind/5-bulls---team-of-the-90sron-harpermichael-jordanscottie-pippendennis-rodman-3138304
p788
asg17
g18
sg19
(lp789
Vhttp://img.beckett.com/images/no-image.jpg
p790
asg22
V#5
p791
sg24
V1997-98
p792
sg26
g27
sg28
(lp793
VBulls - Team of the
p794
aVRon Harper
p795
aVMichael Jordan
p796
aVScottie Pippen
p797
aVDennis Rodman
p798
assbag1
(g2
g3
Ntp799
Rp800
(dp801
g7
(dp802
g9
V1997-98 Stadium Club One Of A Kind #38 Ron Harper
p803
sg11
I150
sg12
VStadium Club One Of A Kind
p804
sg14
(lp805
Vhttp://www.beckett.com/basketball/1997-98/stadium-club-one-of-a-kind/38-ron-harper-3138337
p806
asg17
g18
sg19
(lp807
Vhttp://img.beckett.com/images/items_stock/185226/3138288/3138337/front.jpg
p808
asg22
V#38
p809
sg24
V1997-98
p810
sg26
g27
sg28
(lp811
VRon Harper
p812
assbag1
(g2
g3
Ntp813
Rp814
(dp815
g7
(dp816
g9
V1997-98 Stadium Club One Of A Kind #56 Dennis Rodman
p817
sg11
I150
sg12
VStadium Club One Of A Kind
p818
sg14
(lp819
Vhttp://www.beckett.com/basketball/1997-98/stadium-club-one-of-a-kind/56-dennis-rodman-3138355
p820
asg17
g18
sg19
(lp821
Vhttp://img.beckett.com/images/no-image.jpg
p822
asg22
V#56
p823
sg24
V1997-98
p824
sg26
g27
sg28
(lp825
VDennis Rodman
p826
assbag1
(g2
g3
Ntp827
Rp828
(dp829
g7
(dp830
g9
V1997-98 Stadium Club One Of A Kind #63 Steve Kerr
p831
sg11
I150
sg12
VStadium Club One Of A Kind
p832
sg14
(lp833
Vhttp://www.beckett.com/basketball/1997-98/stadium-club-one-of-a-kind/63-steve-kerr-3138362
p834
asg17
g18
sg19
(lp835
Vhttp://img.beckett.com/images/items_stock/185226/3138288/3138362/front.jpg
p836
asg22
V#63
p837
sg24
V1997-98
p838
sg26
g27
sg28
(lp839
VSteve Kerr
p840
assbag1
(g2
g3
Ntp841
Rp842
(dp843
g7
(dp844
g9
V1997-98 Stadium Club One Of A Kind #94 Will Perdue
p845
sg11
I150
sg12
VStadium Club One Of A Kind
p846
sg14
(lp847
Vhttp://www.beckett.com/basketball/1997-98/stadium-club-one-of-a-kind/94-will-perdue-3138393
p848
asg17
g18
sg19
(lp849
Vhttp://img.beckett.com/images/items_stock/185226/3138288/3138393/front.jpg
p850
asg22
V#94
p851
sg24
V1997-98
p852
sg26
g27
sg28
(lp853
VWill Perdue
p854
assbag1
(g2
g3
Ntp855
Rp856
(dp857
g7
(dp858
g9
V1997-98 Stadium Club One Of A Kind #118 Michael Jordan
p859
sg11
I150
sg12
VStadium Club One Of A Kind
p860
sg14
(lp861
Vhttp://www.beckett.com/basketball/1997-98/stadium-club-one-of-a-kind/118-michael-jordan-3138417
p862
asg17
g18
sg19
(lp863
Vhttp://img.beckett.com/images/no-image.jpg
p864
asg22
V#118
p865
sg24
V1997-98
p866
sg26
g27
sg28
(lp867
VMichael Jordan
p868
assbag1
(g2
g3
Ntp869
Rp870
(dp871
g7
(dp872
g9
V1997-98 Stadium Club One Of A Kind #148 Jason Caffey
p873
sg11
I150
sg12
VStadium Club One Of A Kind
p874
sg14
(lp875
Vhttp://www.beckett.com/basketball/1997-98/stadium-club-one-of-a-kind/148-jason-caffey-3138447
p876
asg17
g18
sg19
(lp877
Vhttp://img.beckett.com/images/items_stock/185226/3138288/3138447/front.jpg
p878
asg22
V#148
p879
sg24
V1997-98
p880
sg26
g27
sg28
(lp881
VJason Caffey
p882
assbag1
(g2
g3
Ntp883
Rp884
(dp885
g7
(dp886
g9
V1997-98 Stadium Club One Of A Kind #149 Toni Kukoc
p887
sg11
I150
sg12
VStadium Club One Of A Kind
p888
sg14
(lp889
Vhttp://www.beckett.com/basketball/1997-98/stadium-club-one-of-a-kind/149-toni-kukoc-3138448
p890
asg17
g18
sg19
(lp891
Vhttp://img.beckett.com/images/no-image.jpg
p892
asg22
V#149
p893
sg24
V1997-98
p894
sg26
g27
sg28
(lp895
VToni Kukoc
p896
assbag1
(g2
g3
Ntp897
Rp898
(dp899
g7
(dp900
g9
V1997-98 Stadium Club One Of A Kind #197 Luc Longley
p901
sg11
I150
sg12
VStadium Club One Of A Kind
p902
sg14
(lp903
Vhttp://www.beckett.com/basketball/1997-98/stadium-club-one-of-a-kind/197-luc-longley-3138496
p904
asg17
g18
sg19
(lp905
Vhttp://img.beckett.com/images/no-image.jpg
p906
asg22
V#197
p907
sg24
V1997-98
p908
sg26
g27
sg28
(lp909
VLuc Longley
p910
assbag1
(g2
g3
Ntp911
Rp912
(dp913
g7
(dp914
g9
V1997-98 Stadium Club Printing Plates #1 Scottie Pippen Black
p915
sg11
I1
sg12
VStadium Club Printing Plates
p916
sg14
(lp917
Vhttp://www.beckett.com/basketball/1997-98/stadium-club-printing-plates/1-scottie-pippen-black-3138545
p918
asg17
g18
sg19
(lp919
Vhttp://img.beckett.com/images/no-image.jpg
p920
asg22
V#1
p921
sg24
V1997-98
p922
sg26
g27
sg28
(lp923
VScottie Pippen Black
p924
assbag1
(g2
g3
Ntp925
Rp926
(dp927
g7
(dp928
g9
V1997-98 Stadium Club Printing Plates #1A Scottie Pippen Cyan
p929
sg11
I1
sg12
VStadium Club Printing Plates
p930
sg14
(lp931
Vhttp://www.beckett.com/basketball/1997-98/stadium-club-printing-plates/1a-scottie-pippen-cyan-3138546
p932
asg17
g18
sg19
(lp933
Vhttp://img.beckett.com/images/no-image.jpg
p934
asg22
V#1A
p935
sg24
V1997-98
p936
sg26
g27
sg28
(lp937
VScottie Pippen Cyan
p938
assbag1
(g2
g3
Ntp939
Rp940
(dp941
g7
(dp942
g9
V1997-98 Stadium Club Printing Plates #1B Scottie Pippen Magenta
p943
sg11
I1
sg12
VStadium Club Printing Plates
p944
sg14
(lp945
Vhttp://www.beckett.com/basketball/1997-98/stadium-club-printing-plates/1b-scottie-pippen-magenta-3138547
p946
asg17
g18
sg19
(lp947
Vhttp://img.beckett.com/images/no-image.jpg
p948
asg22
V#1B
p949
sg24
V1997-98
p950
sg26
g27
sg28
(lp951
VScottie Pippen Magenta
p952
assbag1
(g2
g3
Ntp953
Rp954
(dp955
g7
(dp956
g9
V1997-98 Stadium Club Printing Plates #1C Scottie Pippen Yellow
p957
sg11
I1
sg12
VStadium Club Printing Plates
p958
sg14
(lp959
Vhttp://www.beckett.com/basketball/1997-98/stadium-club-printing-plates/1c-scottie-pippen-yellow-3138548
p960
asg17
g18
sg19
(lp961
Vhttp://img.beckett.com/images/no-image.jpg
p962
asg22
V#1C
p963
sg24
V1997-98
p964
sg26
g27
sg28
(lp965
VScottie Pippen Yellow
p966
assbag1
(g2
g3
Ntp967
Rp968
(dp969
g7
(dp970
g9
V1997-98 Stadium Club Printing Plates #5 Bulls - Team of the 90's Black
p971
sg11
I1
sg12
VStadium Club Printing Plates
p972
sg14
(lp973
Vhttp://www.beckett.com/basketball/1997-98/stadium-club-printing-plates/5-bulls---team-of-the-90s-black-3138561
p974
asg17
g18
sg19
(lp975
Vhttp://img.beckett.com/images/no-image.jpg
p976
asg22
V#5
p977
sg24
V1997-98
p978
sg26
g27
sg28
(lp979
VBulls - Team of the Black
p980
assbag1
(g2
g3
Ntp981
Rp982
(dp983
g7
(dp984
g9
V1997-98 Stadium Club Printing Plates #5A Bulls - Team of the 90's Cyan
p985
sg11
I1
sg12
VStadium Club Printing Plates
p986
sg14
(lp987
Vhttp://www.beckett.com/basketball/1997-98/stadium-club-printing-plates/5a-bulls---team-of-the-90s-cyan-3138562
p988
asg17
g18
sg19
(lp989
Vhttp://img.beckett.com/images/no-image.jpg
p990
asg22
V#5A
p991
sg24
V1997-98
p992
sg26
g27
sg28
(lp993
VBulls - Team of the Cyan
p994
assbag1
(g2
g3
Ntp995
Rp996
(dp997
g7
(dp998
g9
V1997-98 Stadium Club Printing Plates #5B Bulls - Team of the 90's Magenta
p999
sg11
I1
sg12
VStadium Club Printing Plates
p1000
sg14
(lp1001
Vhttp://www.beckett.com/basketball/1997-98/stadium-club-printing-plates/5b-bulls---team-of-the-90s-magenta-3138563
p1002
asg17
g18
sg19
(lp1003
Vhttp://img.beckett.com/images/no-image.jpg
p1004
asg22
V#5B
p1005
sg24
V1997-98
p1006
sg26
g27
sg28
(lp1007
VBulls - Team of the Magenta
p1008
assbag1
(g2
g3
Ntp1009
Rp1010
(dp1011
g7
(dp1012
g9
V1997-98 Stadium Club Printing Plates #5C Bulls - Team of the 90's Yellow
p1013
sg11
I1
sg12
VStadium Club Printing Plates
p1014
sg14
(lp1015
Vhttp://www.beckett.com/basketball/1997-98/stadium-club-printing-plates/5c-bulls---team-of-the-90s-yellow-3138564
p1016
asg17
g18
sg19
(lp1017
Vhttp://img.beckett.com/images/no-image.jpg
p1018
asg22
V#5C
p1019
sg24
V1997-98
p1020
sg26
g27
sg28
(lp1021
VBulls - Team of the Yellow
p1022
assbag1
(g2
g3
Ntp1023
Rp1024
(dp1025
g7
(dp1026
g9
V1997-98 Stadium Club Printing Plates #38 Ron Harper Black
p1027
sg11
I1
sg12
VStadium Club Printing Plates
p1028
sg14
(lp1029
Vhttp://www.beckett.com/basketball/1997-98/stadium-club-printing-plates/38-ron-harper-black-3138693
p1030
asg17
g18
sg19
(lp1031
Vhttp://img.beckett.com/images/no-image.jpg
p1032
asg22
V#38
p1033
sg24
V1997-98
p1034
sg26
g27
sg28
(lp1035
VRon Harper Black
p1036
assbag1
(g2
g3
Ntp1037
Rp1038
(dp1039
g7
(dp1040
g9
V1997-98 Stadium Club Printing Plates #38A Ron Harper Cyan
p1041
sg11
I1
sg12
VStadium Club Printing Plates
p1042
sg14
(lp1043
Vhttp://www.beckett.com/basketball/1997-98/stadium-club-printing-plates/38a-ron-harper-cyan-3138694
p1044
asg17
g18
sg19
(lp1045
Vhttp://img.beckett.com/images/no-image.jpg
p1046
asg22
V#38A
p1047
sg24
V1997-98
p1048
sg26
g27
sg28
(lp1049
VRon Harper Cyan
p1050
assbag1
(g2
g3
Ntp1051
Rp1052
(dp1053
g7
(dp1054
g9
V1997-98 Stadium Club Printing Plates #38B Ron Harper Magenta
p1055
sg11
I1
sg12
VStadium Club Printing Plates
p1056
sg14
(lp1057
Vhttp://www.beckett.com/basketball/1997-98/stadium-club-printing-plates/38b-ron-harper-magenta-3138695
p1058
asg17
g18
sg19
(lp1059
Vhttp://img.beckett.com/images/no-image.jpg
p1060
asg22
V#38B
p1061
sg24
V1997-98
p1062
sg26
g27
sg28
(lp1063
VRon Harper Magenta
p1064
assbag1
(g2
g3
Ntp1065
Rp1066
(dp1067
g7
(dp1068
g9
V1997-98 Stadium Club Printing Plates #38C Ron Harper Yellow
p1069
sg11
I1
sg12
VStadium Club Printing Plates
p1070
sg14
(lp1071
Vhttp://www.beckett.com/basketball/1997-98/stadium-club-printing-plates/38c-ron-harper-yellow-3138696
p1072
asg17
g18
sg19
(lp1073
Vhttp://img.beckett.com/images/no-image.jpg
p1074
asg22
V#38C
p1075
sg24
V1997-98
p1076
sg26
g27
sg28
(lp1077
VRon Harper Yellow
p1078
assbag1
(g2
g3
Ntp1079
Rp1080
(dp1081
g7
(dp1082
g9
V1997-98 Stadium Club Printing Plates #56 Dennis Rodman Black
p1083
sg11
I1
sg12
VStadium Club Printing Plates
p1084
sg14
(lp1085
Vhttp://www.beckett.com/basketball/1997-98/stadium-club-printing-plates/56-dennis-rodman-black-3138765
p1086
asg17
g18
sg19
(lp1087
Vhttp://img.beckett.com/images/no-image.jpg
p1088
asg22
V#56
p1089
sg24
V1997-98
p1090
sg26
g27
sg28
(lp1091
VDennis Rodman Black
p1092
assbag1
(g2
g3
Ntp1093
Rp1094
(dp1095
g7
(dp1096
g9
V1997-98 Stadium Club Printing Plates #56A Dennis Rodman Cyan
p1097
sg11
I1
sg12
VStadium Club Printing Plates
p1098
sg14
(lp1099
Vhttp://www.beckett.com/basketball/1997-98/stadium-club-printing-plates/56a-dennis-rodman-cyan-3138766
p1100
asg17
g18
sg19
(lp1101
Vhttp://img.beckett.com/images/no-image.jpg
p1102
asg22
V#56A
p1103
sg24
V1997-98
p1104
sg26
g27
sg28
(lp1105
VDennis Rodman Cyan
p1106
assbag1
(g2
g3
Ntp1107
Rp1108
(dp1109
g7
(dp1110
g9
V1997-98 Stadium Club Printing Plates #56B Dennis Rodman Magenta
p1111
sg11
I1
sg12
VStadium Club Printing Plates
p1112
sg14
(lp1113
Vhttp://www.beckett.com/basketball/1997-98/stadium-club-printing-plates/56b-dennis-rodman-magenta-3138767
p1114
asg17
g18
sg19
(lp1115
Vhttp://img.beckett.com/images/no-image.jpg
p1116
asg22
V#56B
p1117
sg24
V1997-98
p1118
sg26
g27
sg28
(lp1119
VDennis Rodman Magenta
p1120
assbag1
(g2
g3
Ntp1121
Rp1122
(dp1123
g7
(dp1124
g9
V1997-98 Stadium Club Printing Plates #56C Dennis Rodman Yellow
p1125
sg11
I1
sg12
VStadium Club Printing Plates
p1126
sg14
(lp1127
Vhttp://www.beckett.com/basketball/1997-98/stadium-club-printing-plates/56c-dennis-rodman-yellow-3138768
p1128
asg17
g18
sg19
(lp1129
Vhttp://img.beckett.com/images/no-image.jpg
p1130
asg22
V#56C
p1131
sg24
V1997-98
p1132
sg26
g27
sg28
(lp1133
VDennis Rodman Yellow
p1134
assbag1
(g2
g3
Ntp1135
Rp1136
(dp1137
g7
(dp1138
g9
V1997-98 Stadium Club Printing Plates #63 Steve Kerr Black
p1139
sg11
I1
sg12
VStadium Club Printing Plates
p1140
sg14
(lp1141
Vhttp://www.beckett.com/basketball/1997-98/stadium-club-printing-plates/63-steve-kerr-black-3138793
p1142
asg17
g18
sg19
(lp1143
Vhttp://img.beckett.com/images/no-image.jpg
p1144
asg22
V#63
p1145
sg24
V1997-98
p1146
sg26
g27
sg28
(lp1147
VSteve Kerr Black
p1148
assbag1
(g2
g3
Ntp1149
Rp1150
(dp1151
g7
(dp1152
g9
V1997-98 Stadium Club Printing Plates #63A Steve Kerr Cyan
p1153
sg11
I1
sg12
VStadium Club Printing Plates
p1154
sg14
(lp1155
Vhttp://www.beckett.com/basketball/1997-98/stadium-club-printing-plates/63a-steve-kerr-cyan-3138794
p1156
asg17
g18
sg19
(lp1157
Vhttp://img.beckett.com/images/no-image.jpg
p1158
asg22
V#63A
p1159
sg24
V1997-98
p1160
sg26
g27
sg28
(lp1161
VSteve Kerr Cyan
p1162
assbag1
(g2
g3
Ntp1163
Rp1164
(dp1165
g7
(dp1166
g9
V1997-98 Stadium Club Printing Plates #63B Steve Kerr Magenta
p1167
sg11
I1
sg12
VStadium Club Printing Plates
p1168
sg14
(lp1169
Vhttp://www.beckett.com/basketball/1997-98/stadium-club-printing-plates/63b-steve-kerr-magenta-3138795
p1170
asg17
g18
sg19
(lp1171
Vhttp://img.beckett.com/images/no-image.jpg
p1172
asg22
V#63B
p1173
sg24
V1997-98
p1174
sg26
g27
sg28
(lp1175
VSteve Kerr Magenta
p1176
assbag1
(g2
g3
Ntp1177
Rp1178
(dp1179
g7
(dp1180
g9
V1997-98 Stadium Club Printing Plates #63C Steve Kerr Yellow
p1181
sg11
I1
sg12
VStadium Club Printing Plates
p1182
sg14
(lp1183
Vhttp://www.beckett.com/basketball/1997-98/stadium-club-printing-plates/63c-steve-kerr-yellow-3138796
p1184
asg17
g18
sg19
(lp1185
Vhttp://img.beckett.com/images/no-image.jpg
p1186
asg22
V#63C
p1187
sg24
V1997-98
p1188
sg26
g27
sg28
(lp1189
VSteve Kerr Yellow
p1190
assbag1
(g2
g3
Ntp1191
Rp1192
(dp1193
g7
(dp1194
g9
V1997-98 Stadium Club Printing Plates #94 Will Perdue Black
p1195
sg11
I1
sg12
VStadium Club Printing Plates
p1196
sg14
(lp1197
Vhttp://www.beckett.com/basketball/1997-98/stadium-club-printing-plates/94-will-perdue-black-3138917
p1198
asg17
g18
sg19
(lp1199
Vhttp://img.beckett.com/images/no-image.jpg
p1200
asg22
V#94
p1201
sg24
V1997-98
p1202
sg26
g27
sg28
(lp1203
VWill Perdue Black
p1204
assbag1
(g2
g3
Ntp1205
Rp1206
(dp1207
g7
(dp1208
g9
V1997-98 Stadium Club Printing Plates #94A Will Perdue Cyan
p1209
sg11
I1
sg12
VStadium Club Printing Plates
p1210
sg14
(lp1211
Vhttp://www.beckett.com/basketball/1997-98/stadium-club-printing-plates/94a-will-perdue-cyan-3138918
p1212
asg17
g18
sg19
(lp1213
Vhttp://img.beckett.com/images/no-image.jpg
p1214
asg22
V#94A
p1215
sg24
V1997-98
p1216
sg26
g27
sg28
(lp1217
VWill Perdue Cyan
p1218
assbag1
(g2
g3
Ntp1219
Rp1220
(dp1221
g7
(dp1222
g9
V1997-98 Stadium Club Printing Plates #94B Will Perdue Magenta
p1223
sg11
I1
sg12
VStadium Club Printing Plates
p1224
sg14
(lp1225
Vhttp://www.beckett.com/basketball/1997-98/stadium-club-printing-plates/94b-will-perdue-magenta-3138919
p1226
asg17
g18
sg19
(lp1227
Vhttp://img.beckett.com/images/no-image.jpg
p1228
asg22
V#94B
p1229
sg24
V1997-98
p1230
sg26
g27
sg28
(lp1231
VWill Perdue Magenta
p1232
assbag1
(g2
g3
Ntp1233
Rp1234
(dp1235
g7
(dp1236
g9
V1997-98 Stadium Club Printing Plates #94C Will Perdue Yellow
p1237
sg11
I1
sg12
VStadium Club Printing Plates
p1238
sg14
(lp1239
Vhttp://www.beckett.com/basketball/1997-98/stadium-club-printing-plates/94c-will-perdue-yellow-3138920
p1240
asg17
g18
sg19
(lp1241
Vhttp://img.beckett.com/images/no-image.jpg
p1242
asg22
V#94C
p1243
sg24
V1997-98
p1244
sg26
g27
sg28
(lp1245
VWill Perdue Yellow
p1246
assbag1
(g2
g3
Ntp1247
Rp1248
(dp1249
g7
(dp1250
g9
V1997-98 Stadium Club Printing Plates #118 Michael Jordan Black
p1251
sg11
I1
sg12
VStadium Club Printing Plates
p1252
sg14
(lp1253
Vhttp://www.beckett.com/basketball/1997-98/stadium-club-printing-plates/118-michael-jordan-black-3139013
p1254
asg17
g18
sg19
(lp1255
Vhttp://img.beckett.com/images/no-image.jpg
p1256
asg22
V#118
p1257
sg24
V1997-98
p1258
sg26
g27
sg28
(lp1259
VMichael Jordan Black
p1260
assbag1
(g2
g3
Ntp1261
Rp1262
(dp1263
g7
(dp1264
g9
V1997-98 Stadium Club Printing Plates #118B Michael Jordan Magenta
p1265
sg11
I1
sg12
VStadium Club Printing Plates
p1266
sg14
(lp1267
Vhttp://www.beckett.com/basketball/1997-98/stadium-club-printing-plates/118b-michael-jordan-magenta-3139015
p1268
asg17
g18
sg19
(lp1269
Vhttp://img.beckett.com/images/no-image.jpg
p1270
asg22
V#118B
p1271
sg24
V1997-98
p1272
sg26
g27
sg28
(lp1273
VMichael Jordan Magenta
p1274
assbag1
(g2
g3
Ntp1275
Rp1276
(dp1277
g7
(dp1278
g9
V1997-98 Stadium Club Printing Plates #148 Jason Caffey Black
p1279
sg11
I1
sg12
VStadium Club Printing Plates
p1280
sg14
(lp1281
Vhttp://www.beckett.com/basketball/1997-98/stadium-club-printing-plates/148-jason-caffey-black-3139133
p1282
asg17
g18
sg19
(lp1283
Vhttp://img.beckett.com/images/no-image.jpg
p1284
asg22
V#148
p1285
sg24
V1997-98
p1286
sg26
g27
sg28
(lp1287
VJason Caffey Black
p1288
assbag1
(g2
g3
Ntp1289
Rp1290
(dp1291
g7
(dp1292
g9
V1997-98 Stadium Club Printing Plates #148A Jason Caffey Cyan
p1293
sg11
I1
sg12
VStadium Club Printing Plates
p1294
sg14
(lp1295
Vhttp://www.beckett.com/basketball/1997-98/stadium-club-printing-plates/148a-jason-caffey-cyan-3139134
p1296
asg17
g18
sg19
(lp1297
Vhttp://img.beckett.com/images/no-image.jpg
p1298
asg22
V#148A
p1299
sg24
V1997-98
p1300
sg26
g27
sg28
(lp1301
VJason Caffey Cyan
p1302
assbag1
(g2
g3
Ntp1303
Rp1304
(dp1305
g7
(dp1306
g9
V1997-98 Stadium Club Printing Plates #148B Jason Caffey Magenta
p1307
sg11
I1
sg12
VStadium Club Printing Plates
p1308
sg14
(lp1309
Vhttp://www.beckett.com/basketball/1997-98/stadium-club-printing-plates/148b-jason-caffey-magenta-3139135
p1310
asg17
g18
sg19
(lp1311
Vhttp://img.beckett.com/images/no-image.jpg
p1312
asg22
V#148B
p1313
sg24
V1997-98
p1314
sg26
g27
sg28
(lp1315
VJason Caffey Magenta
p1316
assbag1
(g2
g3
Ntp1317
Rp1318
(dp1319
g7
(dp1320
g9
V1997-98 Stadium Club Printing Plates #148C Jason Caffey Yellow
p1321
sg11
I1
sg12
VStadium Club Printing Plates
p1322
sg14
(lp1323
Vhttp://www.beckett.com/basketball/1997-98/stadium-club-printing-plates/148c-jason-caffey-yellow-3139136
p1324
asg17
g18
sg19
(lp1325
Vhttp://img.beckett.com/images/no-image.jpg
p1326
asg22
V#148C
p1327
sg24
V1997-98
p1328
sg26
g27
sg28
(lp1329
VJason Caffey Yellow
p1330
assbag1
(g2
g3
Ntp1331
Rp1332
(dp1333
g7
(dp1334
g9
V1997-98 Stadium Club Printing Plates #149 Toni Kukoc Black
p1335
sg11
I1
sg12
VStadium Club Printing Plates
p1336
sg14
(lp1337
Vhttp://www.beckett.com/basketball/1997-98/stadium-club-printing-plates/149-toni-kukoc-black-3139137
p1338
asg17
g18
sg19
(lp1339
Vhttp://img.beckett.com/images/no-image.jpg
p1340
asg22
V#149
p1341
sg24
V1997-98
p1342
sg26
g27
sg28
(lp1343
VToni Kukoc Black
p1344
assbag1
(g2
g3
Ntp1345
Rp1346
(dp1347
g7
(dp1348
g9
V1997-98 Stadium Club Printing Plates #149A Toni Kukoc Cyan
p1349
sg11
I1
sg12
VStadium Club Printing Plates
p1350
sg14
(lp1351
Vhttp://www.beckett.com/basketball/1997-98/stadium-club-printing-plates/149a-toni-kukoc-cyan-3139138
p1352
asg17
g18
sg19
(lp1353
Vhttp://img.beckett.com/images/no-image.jpg
p1354
asg22
V#149A
p1355
sg24
V1997-98
p1356
sg26
g27
sg28
(lp1357
VToni Kukoc Cyan
p1358
assbag1
(g2
g3
Ntp1359
Rp1360
(dp1361
g7
(dp1362
g9
V1997-98 Stadium Club Printing Plates #149B Toni Kukoc Magenta
p1363
sg11
I1
sg12
VStadium Club Printing Plates
p1364
sg14
(lp1365
Vhttp://www.beckett.com/basketball/1997-98/stadium-club-printing-plates/149b-toni-kukoc-magenta-3139139
p1366
asg17
g18
sg19
(lp1367
Vhttp://img.beckett.com/images/no-image.jpg
p1368
asg22
V#149B
p1369
sg24
V1997-98
p1370
sg26
g27
sg28
(lp1371
VToni Kukoc Magenta
p1372
assbag1
(g2
g3
Ntp1373
Rp1374
(dp1375
g7
(dp1376
g9
V1997-98 Stadium Club Printing Plates #149C Toni Kukoc Yellow
p1377
sg11
I1
sg12
VStadium Club Printing Plates
p1378
sg14
(lp1379
Vhttp://www.beckett.com/basketball/1997-98/stadium-club-printing-plates/149c-toni-kukoc-yellow-3139140
p1380
asg17
g18
sg19
(lp1381
Vhttp://img.beckett.com/images/no-image.jpg
p1382
asg22
V#149C
p1383
sg24
V1997-98
p1384
sg26
g27
sg28
(lp1385
VToni Kukoc Yellow
p1386
assbag1
(g2
g3
Ntp1387
Rp1388
(dp1389
g7
(dp1390
g9
V1997-98 Stadium Club Printing Plates #197 Luc Longley Black
p1391
sg11
I1
sg12
VStadium Club Printing Plates
p1392
sg14
(lp1393
Vhttp://www.beckett.com/basketball/1997-98/stadium-club-printing-plates/197-luc-longley-black-3139329
p1394
asg17
g18
sg19
(lp1395
Vhttp://img.beckett.com/images/no-image.jpg
p1396
asg22
V#197
p1397
sg24
V1997-98
p1398
sg26
g27
sg28
(lp1399
VLuc Longley Black
p1400
assbag1
(g2
g3
Ntp1401
Rp1402
(dp1403
g7
(dp1404
g9
V1997-98 Stadium Club Printing Plates #197A Luc Longley Cyan
p1405
sg11
I1
sg12
VStadium Club Printing Plates
p1406
sg14
(lp1407
Vhttp://www.beckett.com/basketball/1997-98/stadium-club-printing-plates/197a-luc-longley-cyan-3139330
p1408
asg17
g18
sg19
(lp1409
Vhttp://img.beckett.com/images/no-image.jpg
p1410
asg22
V#197A
p1411
sg24
V1997-98
p1412
sg26
g27
sg28
(lp1413
VLuc Longley Cyan
p1414
assbag1
(g2
g3
Ntp1415
Rp1416
(dp1417
g7
(dp1418
g9
V1997-98 Stadium Club Printing Plates #197B Luc Longley Magenta
p1419
sg11
I1
sg12
VStadium Club Printing Plates
p1420
sg14
(lp1421
Vhttp://www.beckett.com/basketball/1997-98/stadium-club-printing-plates/197b-luc-longley-magenta-3139331
p1422
asg17
g18
sg19
(lp1423
Vhttp://img.beckett.com/images/no-image.jpg
p1424
asg22
V#197B
p1425
sg24
V1997-98
p1426
sg26
g27
sg28
(lp1427
VLuc Longley Magenta
p1428
assbag1
(g2
g3
Ntp1429
Rp1430
(dp1431
g7
(dp1432
g9
V1997-98 Stadium Club Printing Plates #197C Luc Longley Yellow
p1433
sg11
I1
sg12
VStadium Club Printing Plates
p1434
sg14
(lp1435
Vhttp://www.beckett.com/basketball/1997-98/stadium-club-printing-plates/197c-luc-longley-yellow-3139332
p1436
asg17
g18
sg19
(lp1437
Vhttp://img.beckett.com/images/no-image.jpg
p1438
asg22
V#197C
p1439
sg24
V1997-98
p1440
sg26
g27
sg28
(lp1441
VLuc Longley Yellow
p1442
assbag1
(g2
g3
Ntp1443
Rp1444
(dp1445
g7
(dp1446
g9
V1997-98 Ultra Masterpieces #9 Ron Harper
p1447
sg11
I1
sg12
VUltra Masterpieces
p1448
sg14
(lp1449
Vhttp://www.beckett.com/basketball/1997-98/ultra-masterpieces/9-ron-harper-3135739
p1450
asg17
g18
sg19
(lp1451
Vhttp://img.beckett.com/images/no-image.jpg
p1452
asg22
V#9
p1453
sg24
V1997-98
p1454
sg26
g27
sg28
(lp1455
VRon Harper
p1456
assbag1
(g2
g3
Ntp1457
Rp1458
(dp1459
g7
(dp1460
g9
V1997-98 Ultra Masterpieces #14 Steve Kerr
p1461
sg11
I1
sg12
VUltra Masterpieces
p1462
sg14
(lp1463
Vhttp://www.beckett.com/basketball/1997-98/ultra-masterpieces/14-steve-kerr-3135744
p1464
asg17
g18
sg19
(lp1465
Vhttp://img.beckett.com/images/no-image.jpg
p1466
asg22
V#14
p1467
sg24
V1997-98
p1468
sg26
g27
sg28
(lp1469
VSteve Kerr
p1470
assbag1
(g2
g3
Ntp1471
Rp1472
(dp1473
g7
(dp1474
g9
V1997-98 Ultra Masterpieces #23 Michael Jordan
p1475
sg11
I1
sg12
VUltra Masterpieces
p1476
sg14
(lp1477
Vhttp://www.beckett.com/basketball/1997-98/ultra-masterpieces/23-michael-jordan-3135753
p1478
asg17
g18
sg19
(lp1479
Vhttp://img.beckett.com/images/no-image.jpg
p1480
asg22
V#23
p1481
sg24
V1997-98
p1482
sg26
g27
sg28
(lp1483
VMichael Jordan
p1484
assbag1
(g2
g3
Ntp1485
Rp1486
(dp1487
g7
(dp1488
g9
V1997-98 Ultra Masterpieces #26 Toni Kukoc
p1489
sg11
I1
sg12
VUltra Masterpieces
p1490
sg14
(lp1491
Vhttp://www.beckett.com/basketball/1997-98/ultra-masterpieces/26-toni-kukoc-3135756
p1492
asg17
g18
sg19
(lp1493
Vhttp://img.beckett.com/images/no-image.jpg
p1494
asg22
V#26
p1495
sg24
V1997-98
p1496
sg26
g27
sg28
(lp1497
VToni Kukoc
p1498
assbag1
(g2
g3
Ntp1499
Rp1500
(dp1501
g7
(dp1502
g9
V1997-98 Ultra Masterpieces #29 Dennis Rodman
p1503
sg11
I1
sg12
VUltra Masterpieces
p1504
sg14
(lp1505
Vhttp://www.beckett.com/basketball/1997-98/ultra-masterpieces/29-dennis-rodman-3135759
p1506
asg17
g18
sg19
(lp1507
Vhttp://img.beckett.com/images/no-image.jpg
p1508
asg22
V#29
p1509
sg24
V1997-98
p1510
sg26
g27
sg28
(lp1511
VDennis Rodman
p1512
assbag1
(g2
g3
Ntp1513
Rp1514
(dp1515
g7
(dp1516
g9
V1997-98 Ultra Masterpieces #32 Luc Longley
p1517
sg11
I1
sg12
VUltra Masterpieces
p1518
sg14
(lp1519
Vhttp://www.beckett.com/basketball/1997-98/ultra-masterpieces/32-luc-longley-3135762
p1520
asg17
g18
sg19
(lp1521
Vhttp://img.beckett.com/images/no-image.jpg
p1522
asg22
V#32
p1523
sg24
V1997-98
p1524
sg26
g27
sg28
(lp1525
VLuc Longley
p1526
assbag1
(g2
g3
Ntp1527
Rp1528
(dp1529
g7
(dp1530
g9
V1997-98 Ultra Masterpieces #55 Scottie Pippen
p1531
sg11
I1
sg12
VUltra Masterpieces
p1532
sg14
(lp1533
Vhttp://www.beckett.com/basketball/1997-98/ultra-masterpieces/55-scottie-pippen-3135785
p1534
asg17
g18
sg19
(lp1535
Vhttp://img.beckett.com/images/no-image.jpg
p1536
asg22
V#55
p1537
sg24
V1997-98
p1538
sg26
g27
sg28
(lp1539
VScottie Pippen
p1540
assbag1
(g2
g3
Ntp1541
Rp1542
(dp1543
g7
(dp1544
g9
V1997-98 Ultra Masterpieces #163 Rusty LaRue
p1545
sg11
I1
sg12
VUltra Masterpieces
p1546
sg14
(lp1547
Vhttp://www.beckett.com/basketball/1997-98/ultra-masterpieces/163-rusty-larue-3135891
p1548
asg17
g18
sg19
(lp1549
Vhttp://img.beckett.com/images/no-image.jpg
p1550
asg22
V#163
p1551
sg24
V1997-98
p1552
sg26
g27
sg28
(lp1553
VRusty LaRue
p1554
assbag1
(g2
g3
Ntp1555
Rp1556
(dp1557
g7
(dp1558
g9
V1997-98 Ultra Masterpieces #209 Jud Buechler
p1559
sg11
I1
sg12
VUltra Masterpieces
p1560
sg14
(lp1561
Vhttp://www.beckett.com/basketball/1997-98/ultra-masterpieces/209-jud-buechler-3135937
p1562
asg17
g18
sg19
(lp1563
Vhttp://img.beckett.com/images/no-image.jpg
p1564
asg22
V#209
p1565
sg24
V1997-98
p1566
sg26
g27
sg28
(lp1567
VJud Buechler
p1568
assbag1
(g2
g3
Ntp1569
Rp1570
(dp1571
g7
(dp1572
g9
V1997-98 Ultra Masterpieces #232 Keith Booth
p1573
sg11
I1
sg12
VUltra Masterpieces
p1574
sg14
(lp1575
Vhttp://www.beckett.com/basketball/1997-98/ultra-masterpieces/232-keith-booth-3135960
p1576
asg17
g18
sg19
(lp1577
Vhttp://img.beckett.com/images/no-image.jpg
p1578
asg22
V#232
p1579
sg24
V1997-98
p1580
sg26
g27
sg28
(lp1581
VKeith Booth
p1582
assbag1
(g2
g3
Ntp1583
Rp1584
(dp1585
g7
(dp1586
g9
V1997-98 Ultra Masterpieces #259 Michael Jordan GRE
p1587
sg11
I1
sg12
VUltra Masterpieces
p1588
sg14
(lp1589
Vhttp://www.beckett.com/basketball/1997-98/ultra-masterpieces/259-michael-jordan-gre-3135987
p1590
asg17
g18
sg19
(lp1591
Vhttp://img.beckett.com/images/no-image.jpg
p1592
asg22
V#259
p1593
sg24
V1997-98
p1594
sg157
VGRE
p1595
sg26
g27
sg28
(lp1596
VMichael Jordan
p1597
assbag1
(g2
g3
Ntp1598
Rp1599
(dp1600
g7
(dp1601
g9
V1997-98 Ultra Masterpieces #267 Scottie Pippen GRE
p1602
sg11
I1
sg12
VUltra Masterpieces
p1603
sg14
(lp1604
Vhttp://www.beckett.com/basketball/1997-98/ultra-masterpieces/267-scottie-pippen-gre-3135995
p1605
asg17
g18
sg19
(lp1606
Vhttp://img.beckett.com/images/no-image.jpg
p1607
asg22
V#267
p1608
sg24
V1997-98
p1609
sg157
VGRE
p1610
sg26
g27
sg28
(lp1611
VScottie Pippen
p1612
assbag1
(g2
g3
Ntp1613
Rp1614
(dp1615
g7
(dp1616
g9
V1997-98 Ultra Masterpieces #269 Dennis Rodman GRE
p1617
sg11
I1
sg12
VUltra Masterpieces
p1618
sg14
(lp1619
Vhttp://www.beckett.com/basketball/1997-98/ultra-masterpieces/269-dennis-rodman-gre-3135997
p1620
asg17
g18
sg19
(lp1621
Vhttp://img.beckett.com/images/no-image.jpg
p1622
asg22
V#269
p1623
sg24
V1997-98
p1624
sg157
VGRE
p1625
sg26
g27
sg28
(lp1626
VDennis Rodman
p1627
assbag1
(g2
g3
Ntp1628
Rp1629
(dp1630
g7
(dp1631
g9
V1997-98 Ultra Platinum Medallion #9 Ron Harper
p1632
sg11
I100
sg12
VUltra Platinum Medallion
p1633
sg14
(lp1634
Vhttp://www.beckett.com/basketball/1997-98/ultra-platinum-medallion/9-ron-harper-3136023
p1635
asg17
g18
sg19
(lp1636
Vhttp://img.beckett.com/images/no-image.jpg
p1637
asg22
V#9
p1638
sg24
V1997-98
p1639
sg26
g27
sg28
(lp1640
VRon Harper
p1641
assbag1
(g2
g3
Ntp1642
Rp1643
(dp1644
g7
(dp1645
g9
V1997-98 Ultra Platinum Medallion #14 Steve Kerr
p1646
sg11
I100
sg12
VUltra Platinum Medallion
p1647
sg14
(lp1648
Vhttp://www.beckett.com/basketball/1997-98/ultra-platinum-medallion/14-steve-kerr-3136028
p1649
asg17
g18
sg19
(lp1650
Vhttp://img.beckett.com/images/no-image.jpg
p1651
asg22
V#14
p1652
sg24
V1997-98
p1653
sg26
g27
sg28
(lp1654
VSteve Kerr
p1655
assbag1
(g2
g3
Ntp1656
Rp1657
(dp1658
g7
(dp1659
g9
V1997-98 Ultra Platinum Medallion #23 Michael Jordan
p1660
sg11
I100
sg12
VUltra Platinum Medallion
p1661
sg14
(lp1662
Vhttp://www.beckett.com/basketball/1997-98/ultra-platinum-medallion/23-michael-jordan-3136037
p1663
asg17
g18
sg19
(lp1664
Vhttp://img.beckett.com/images/no-image.jpg
p1665
asg22
V#23
p1666
sg24
V1997-98
p1667
sg26
g27
sg28
(lp1668
VMichael Jordan
p1669
assbag1
(g2
g3
Ntp1670
Rp1671
(dp1672
g7
(dp1673
g9
V1997-98 Ultra Platinum Medallion #26 Toni Kukoc
p1674
sg11
I100
sg12
VUltra Platinum Medallion
p1675
sg14
(lp1676
Vhttp://www.beckett.com/basketball/1997-98/ultra-platinum-medallion/26-toni-kukoc-3136040
p1677
asg17
g18
sg19
(lp1678
Vhttp://img.beckett.com/images/no-image.jpg
p1679
asg22
V#26
p1680
sg24
V1997-98
p1681
sg26
g27
sg28
(lp1682
VToni Kukoc
p1683
assbag1
(g2
g3
Ntp1684
Rp1685
(dp1686
g7
(dp1687
g9
V1997-98 Ultra Platinum Medallion #29 Dennis Rodman
p1688
sg11
I100
sg12
VUltra Platinum Medallion
p1689
sg14
(lp1690
Vhttp://www.beckett.com/basketball/1997-98/ultra-platinum-medallion/29-dennis-rodman-3136043
p1691
asg17
g18
sg19
(lp1692
Vhttp://img.beckett.com/images/no-image.jpg
p1693
asg22
V#29
p1694
sg24
V1997-98
p1695
sg26
g27
sg28
(lp1696
VDennis Rodman
p1697
assbag1
(g2
g3
Ntp1698
Rp1699
(dp1700
g7
(dp1701
g9
V1997-98 Ultra Platinum Medallion #32 Luc Longley
p1702
sg11
I100
sg12
VUltra Platinum Medallion
p1703
sg14
(lp1704
Vhttp://www.beckett.com/basketball/1997-98/ultra-platinum-medallion/32-luc-longley-3136046
p1705
asg17
g18
sg19
(lp1706
Vhttp://img.beckett.com/images/no-image.jpg
p1707
asg22
V#32
p1708
sg24
V1997-98
p1709
sg26
g27
sg28
(lp1710
VLuc Longley
p1711
assbag1
(g2
g3
Ntp1712
Rp1713
(dp1714
g7
(dp1715
g9
V1997-98 Ultra Platinum Medallion #55 Scottie Pippen
p1716
sg11
I100
sg12
VUltra Platinum Medallion
p1717
sg14
(lp1718
Vhttp://www.beckett.com/basketball/1997-98/ultra-platinum-medallion/55-scottie-pippen-3136069
p1719
asg17
g18
sg19
(lp1720
Vhttp://img.beckett.com/images/no-image.jpg
p1721
asg22
V#55
p1722
sg24
V1997-98
p1723
sg26
g27
sg28
(lp1724
VScottie Pippen
p1725
assbag1
(g2
g3
Ntp1726
Rp1727
(dp1728
g7
(dp1729
g9
V1997-98 Ultra Platinum Medallion #163 Rusty LaRue
p1730
sg11
I100
sg12
VUltra Platinum Medallion
p1731
sg14
(lp1732
Vhttp://www.beckett.com/basketball/1997-98/ultra-platinum-medallion/163-rusty-larue-3136175
p1733
asg17
g18
sg19
(lp1734
Vhttp://img.beckett.com/images/no-image.jpg
p1735
asg22
V#163
p1736
sg24
V1997-98
p1737
sg26
g27
sg28
(lp1738
VRusty LaRue
p1739
assbag1
(g2
g3
Ntp1740
Rp1741
(dp1742
g7
(dp1743
g9
V1997-98 Ultra Platinum Medallion #209 Jud Buechler
p1744
sg11
I100
sg12
VUltra Platinum Medallion
p1745
sg14
(lp1746
Vhttp://www.beckett.com/basketball/1997-98/ultra-platinum-medallion/209-jud-buechler-3136221
p1747
asg17
g18
sg19
(lp1748
Vhttp://img.beckett.com/images/no-image.jpg
p1749
asg22
V#209
p1750
sg24
V1997-98
p1751
sg26
g27
sg28
(lp1752
VJud Buechler
p1753
assbag1
(g2
g3
Ntp1754
Rp1755
(dp1756
g7
(dp1757
g9
V1997-98 Ultra Platinum Medallion #232 Keith Booth
p1758
sg11
I100
sg12
VUltra Platinum Medallion
p1759
sg14
(lp1760
Vhttp://www.beckett.com/basketball/1997-98/ultra-platinum-medallion/232-keith-booth-3136244
p1761
asg17
g18
sg19
(lp1762
Vhttp://img.beckett.com/images/no-image.jpg
p1763
asg22
V#232
p1764
sg24
V1997-98
p1765
sg26
g27
sg28
(lp1766
VKeith Booth
p1767
assbag1
(g2
g3
Ntp1768
Rp1769
(dp1770
g7
(dp1771
g9
V1997-98 Ultra Platinum Medallion #267 Scottie Pippen GRE
p1772
sg11
I100
sg12
VUltra Platinum Medallion
p1773
sg14
(lp1774
Vhttp://www.beckett.com/basketball/1997-98/ultra-platinum-medallion/267-scottie-pippen-gre-3136279
p1775
asg17
g18
sg19
(lp1776
Vhttp://img.beckett.com/images/no-image.jpg
p1777
asg22
V#267
p1778
sg24
V1997-98
p1779
sg157
VGRE
p1780
sg26
g27
sg28
(lp1781
VScottie Pippen
p1782
assbag1
(g2
g3
Ntp1783
Rp1784
(dp1785
g7
(dp1786
g9
V1997-98 Ultra Platinum Medallion #269 Dennis Rodman GRE
p1787
sg11
I100
sg12
VUltra Platinum Medallion
p1788
sg14
(lp1789
Vhttp://www.beckett.com/basketball/1997-98/ultra-platinum-medallion/269-dennis-rodman-gre-3136281
p1790
asg17
g18
sg19
(lp1791
Vhttp://img.beckett.com/images/no-image.jpg
p1792
asg22
V#269
p1793
sg24
V1997-98
p1794
sg157
VGRE
p1795
sg26
g27
sg28
(lp1796
VDennis Rodman
p1797
assbag1
(g2
g3
Ntp1798
Rp1799
(dp1800
g7
(dp1801
g9
V1997-98 Z-Force Rave #23 Michael Jordan
p1802
sg11
I399
sg12
VZ-Force Rave
p1803
sg14
(lp1804
Vhttp://www.beckett.com/basketball/1997-98/z-force-rave/23-michael-jordan-3133047
p1805
asg17
g18
sg19
(lp1806
Vhttp://img.beckett.com/images/no-image.jpg
p1807
asg22
V#23
p1808
sg24
V1997-98
p1809
sg26
g27
sg28
(lp1810
VMichael Jordan
p1811
assbag1
(g2
g3
Ntp1812
Rp1813
(dp1814
g7
(dp1815
g9
V1997-98 Z-Force Rave #49 Toni Kukoc
p1816
sg11
I399
sg12
VZ-Force Rave
p1817
sg14
(lp1818
Vhttp://www.beckett.com/basketball/1997-98/z-force-rave/49-toni-kukoc-3133073
p1819
asg17
g18
sg19
(lp1820
Vhttp://img.beckett.com/images/no-image.jpg
p1821
asg22
V#49
p1822
sg24
V1997-98
p1823
sg26
g27
sg28
(lp1824
VToni Kukoc
p1825
assbag1
(g2
g3
Ntp1826
Rp1827
(dp1828
g7
(dp1829
g9
V1997-98 Z-Force Rave #66 Scottie Pippen
p1830
sg11
I399
sg12
VZ-Force Rave
p1831
sg14
(lp1832
Vhttp://www.beckett.com/basketball/1997-98/z-force-rave/66-scottie-pippen-3133090
p1833
asg17
g18
sg19
(lp1834
Vhttp://img.beckett.com/images/no-image.jpg
p1835
asg22
V#66
p1836
sg24
V1997-98
p1837
sg26
g27
sg28
(lp1838
VScottie Pippen
p1839
assbag1
(g2
g3
Ntp1840
Rp1841
(dp1842
g7
(dp1843
g9
V1997-98 Z-Force Rave #91 Dennis Rodman
p1844
sg11
I399
sg12
VZ-Force Rave
p1845
sg14
(lp1846
Vhttp://www.beckett.com/basketball/1997-98/z-force-rave/91-dennis-rodman-3133115
p1847
asg17
g18
sg19
(lp1848
Vhttp://img.beckett.com/images/no-image.jpg
p1849
asg22
V#91
p1850
sg24
V1997-98
p1851
sg26
g27
sg28
(lp1852
VDennis Rodman
p1853
assbag1
(g2
g3
Ntp1854
Rp1855
(dp1856
g7
(dp1857
g9
V1997-98 Z-Force Rave #191 Scottie Pippen ZUP
p1858
sg11
I399
sg12
VZ-Force Rave
p1859
sg14
(lp1860
Vhttp://www.beckett.com/basketball/1997-98/z-force-rave/191-scottie-pippen-zup-3133214
p1861
asg17
g18
sg19
(lp1862
Vhttp://img.beckett.com/images/no-image.jpg
p1863
asg22
V#191
p1864
sg24
V1997-98
p1865
sg157
VZUP
p1866
sg26
g27
sg28
(lp1867
VScottie Pippen
p1868
assbag1
(g2
g3
Ntp1869
Rp1870
(dp1871
g7
(dp1872
g9
V1997-98 Z-Force Rave #192 Dennis Rodman ZUP
p1873
sg11
I399
sg12
VZ-Force Rave
p1874
sg14
(lp1875
Vhttp://www.beckett.com/basketball/1997-98/z-force-rave/192-dennis-rodman-zup-3133215
p1876
asg17
g18
sg19
(lp1877
Vhttp://img.beckett.com/images/no-image.jpg
p1878
asg22
V#192
p1879
sg24
V1997-98
p1880
sg157
VZUP
p1881
sg26
g27
sg28
(lp1882
VDennis Rodman
p1883
assbag1
(g2
g3
Ntp1884
Rp1885
(dp1886
g7
(dp1887
g9
V1997-98 Z-Force Super Rave #191 Scottie Pippen ZUP
p1888
sg11
I50
sg12
VZ-Force Super Rave
p1889
sg14
(lp1890
Vhttp://www.beckett.com/basketball/1997-98/z-force-super-rave/191-scottie-pippen-zup-3133326
p1891
asg17
g18
sg19
(lp1892
Vhttp://img.beckett.com/images/no-image.jpg
p1893
asg22
V#191
p1894
sg24
V1997-98
p1895
sg157
VZUP
p1896
sg26
g27
sg28
(lp1897
VScottie Pippen
p1898
assbag1
(g2
g3
Ntp1899
Rp1900
(dp1901
g7
(dp1902
g9
V1997-98 Z-Force Super Rave #192 Dennis Rodman ZUP
p1903
sg11
I50
sg12
VZ-Force Super Rave
p1904
sg14
(lp1905
Vhttp://www.beckett.com/basketball/1997-98/z-force-super-rave/192-dennis-rodman-zup-3133327
p1906
asg17
g18
sg19
(lp1907
Vhttp://img.beckett.com/images/no-image.jpg
p1908
asg22
V#192
p1909
sg24
V1997-98
p1910
sg157
VZUP
p1911
sg26
g27
sg28
(lp1912
VDennis Rodman
p1913
assbag1
(g2
g3
Ntp1914
Rp1915
(dp1916
g7
(dp1917
g9
V1997-98 SP Authentic Authentics #MJ1 Michael Jordan/Signed Jersey/50
p1918
sg11
I50
sg12
VSP Authentic Authentics
p1919
sg14
(lp1920
Vhttp://www.beckett.com/basketball/1997-98/sp-authentic-authentics/mj1-michael-jordansigned-jersey50-3140099
p1921
asg17
g18
sg19
(lp1922
Vhttp://img.beckett.com/images/no-image.jpg
p1923
asg22
V#MJ1
p1924
sg56
I1
sg24
V1997-98
p1925
sg26
g27
sg28
(lp1926
VMichael Jordan
p1927
aVSigned Jersey
p1928
assbag1
(g2
g3
Ntp1929
Rp1930
(dp1931
g7
(dp1932
g9
V1997-98 SP Authentic Authentics #MJ2 Michael Jordan/Signed 16x20 Photo/100
p1933
sg11
I100
sg12
VSP Authentic Authentics
p1934
sg14
(lp1935
Vhttp://www.beckett.com/basketball/1997-98/sp-authentic-authentics/mj2-michael-jordansigned-16x20-photo100-3140100
p1936
asg17
g18
sg19
(lp1937
Vhttp://img.beckett.com/images/no-image.jpg
p1938
asg22
V#MJ2
p1939
sg56
I1
sg24
V1997-98
p1940
sg26
g27
sg28
(lp1941
VMichael Jordan
p1942
aVSigned Photo
p1943
assbag1
(g2
g3
Ntp1944
Rp1945
(dp1946
g7
(dp1947
g9
V1997-98 SP Authentic Authentics #MJ3 Michael Jordan/Unsigned 2-card set/500
p1948
sg11
I500
sg12
VSP Authentic Authentics
p1949
sg14
(lp1950
Vhttp://www.beckett.com/basketball/1997-98/sp-authentic-authentics/mj3-michael-jordanunsigned-2-card-set500-3140101
p1951
asg17
g18
sg19
(lp1952
Vhttp://img.beckett.com/images/no-image.jpg
p1953
asg22
V#MJ3
p1954
sg24
V1997-98
p1955
sg26
g27
sg28
(lp1956
VMichael Jordan
p1957
aVUnsigned set
p1958
assbag1
(g2
g3
Ntp1959
Rp1960
(dp1961
g7
(dp1962
g9
V1997-98 SP Authentic Authentics #MJ4 Michael Jordan/Unsigned 8x10 Photo/400
p1963
sg11
I400
sg12
VSP Authentic Authentics
p1964
sg14
(lp1965
Vhttp://www.beckett.com/basketball/1997-98/sp-authentic-authentics/mj4-michael-jordanunsigned-8x10-photo400-3140102
p1966
asg17
g18
sg19
(lp1967
Vhttp://img.beckett.com/images/no-image.jpg
p1968
asg22
V#MJ4
p1969
sg24
V1997-98
p1970
sg26
g27
sg28
(lp1971
VMichael Jordan
p1972
aVUnsigned Photo
p1973
assbag1
(g2
g3
Ntp1974
Rp1975
(dp1976
g7
(dp1977
g9
V1997-98 SP Authentic Authentics #MJ5 Michael Jordan/Unsigned Gold Card/250
p1978
sg11
I250
sg12
VSP Authentic Authentics
p1979
sg14
(lp1980
Vhttp://www.beckett.com/basketball/1997-98/sp-authentic-authentics/mj5-michael-jordanunsigned-gold-card250-3140103
p1981
asg17
g18
sg19
(lp1982
Vhttp://img.beckett.com/images/no-image.jpg
p1983
asg22
V#MJ5
p1984
sg24
V1997-98
p1985
sg26
g27
sg28
(lp1986
VMichael Jordan
p1987
aVUnsigned Gold Card
p1988
assbag1
(g2
g3
Ntp1989
Rp1990
(dp1991
g7
(dp1992
g9
V1997-98 SP Authentic Authentics #MJ6 Michael Jordan/Unsigned Game Night Card/100
p1993
sg11
I100
sg12
VSP Authentic Authentics
p1994
sg14
(lp1995
Vhttp://www.beckett.com/basketball/1997-98/sp-authentic-authentics/mj6-michael-jordanunsigned-game-night-card100-3140104
p1996
asg17
g18
sg19
(lp1997
Vhttp://img.beckett.com/images/no-image.jpg
p1998
asg22
V#MJ6
p1999
sg24
V1997-98
p2000
sg26
g27
sg28
(lp2001
VMichael Jordan
p2002
aVUnsigned Game Night Card
p2003
assbag1
(g2
g3
Ntp2004
Rp2005
(dp2006
g7
(dp2007
g9
V1997-98 SP Authentic Authentics #MJ6B Michael Jordan/Unsigned Game Night Card/100
p2008
sg11
I100
sg12
VSP Authentic Authentics
p2009
sg14
(lp2010
Vhttp://www.beckett.com/basketball/1997-98/sp-authentic-authentics/mj6b-michael-jordanunsigned-game-night-card100-3140105
p2011
asg17
g18
sg19
(lp2012
Vhttp://img.beckett.com/images/no-image.jpg
p2013
asg22
V#MJ6B
p2014
sg24
V1997-98
p2015
sg26
g27
sg28
(lp2016
VMichael Jordan
p2017
aVUnsigned Game Night Card
p2018
assbag1
(g2
g3
Ntp2019
Rp2020
(dp2021
g7
(dp2022
g9
V1997-98 SP Authentic Authentics #MJ6C Michael Jordan/Unsigned Game Night Card/100
p2023
sg11
I100
sg12
VSP Authentic Authentics
p2024
sg14
(lp2025
Vhttp://www.beckett.com/basketball/1997-98/sp-authentic-authentics/mj6c-michael-jordanunsigned-game-night-card100-3140106
p2026
asg17
g18
sg19
(lp2027
Vhttp://img.beckett.com/images/no-image.jpg
p2028
asg22
V#MJ6C
p2029
sg24
V1997-98
p2030
sg26
g27
sg28
(lp2031
VMichael Jordan
p2032
aVUnsigned Game Night Card
p2033
assbag1
(g2
g3
Ntp2034
Rp2035
(dp2036
g7
(dp2037
g9
V1997-98 SP Authentic Authentics #MJ6D Michael Jordan/Unsigned Game Night Card/100
p2038
sg11
I100
sg12
VSP Authentic Authentics
p2039
sg14
(lp2040
Vhttp://www.beckett.com/basketball/1997-98/sp-authentic-authentics/mj6d-michael-jordanunsigned-game-night-card100-3140107
p2041
asg17
g18
sg19
(lp2042
Vhttp://img.beckett.com/images/no-image.jpg
p2043
asg22
V#MJ6D
p2044
sg24
V1997-98
p2045
sg26
g27
sg28
(lp2046
VMichael Jordan
p2047
aVUnsigned Game Night Card
p2048
assbag1
(g2
g3
Ntp2049
Rp2050
(dp2051
g7
(dp2052
g9
V1997-98 SP Authentic Authentics #MJ6E Michael Jordan/Unsigned Game Night Card/100
p2053
sg11
I100
sg12
VSP Authentic Authentics
p2054
sg14
(lp2055
Vhttp://www.beckett.com/basketball/1997-98/sp-authentic-authentics/mj6e-michael-jordanunsigned-game-night-card100-3140108
p2056
asg17
g18
sg19
(lp2057
Vhttp://img.beckett.com/images/no-image.jpg
p2058
asg22
V#MJ6E
p2059
sg24
V1997-98
p2060
sg26
g27
sg28
(lp2061
VMichael Jordan
p2062
aVUnsigned Game Night Card
p2063
assbag1
(g2
g3
Ntp2064
Rp2065
(dp2066
g7
(dp2067
g9
V1997-98 SP Authentic Authentics #MJ7 Michael Jordan/Unsigned Blow-up Poster/200
p2068
sg11
I200
sg12
VSP Authentic Authentics
p2069
sg14
(lp2070
Vhttp://www.beckett.com/basketball/1997-98/sp-authentic-authentics/mj7-michael-jordanunsigned-blow-up-poster200-3140109
p2071
asg17
g18
sg19
(lp2072
Vhttp://img.beckett.com/images/no-image.jpg
p2073
asg22
V#MJ7
p2074
sg24
V1997-98
p2075
sg26
g27
sg28
(lp2076
VMichael Jordan
p2077
aVUnsigned Blow-up Poster
p2078
assbag1
(g2
g3
Ntp2079
Rp2080
(dp2081
g7
(dp2082
g9
V1997-98 SP Authentic Authentics #MJ8 Michael Jordan/Signed Game Night Card/23
p2083
sg11
I23
sg12
VSP Authentic Authentics
p2084
sg14
(lp2085
Vhttp://www.beckett.com/basketball/1997-98/sp-authentic-authentics/mj8-michael-jordansigned-game-night-card23-3140110
p2086
asg17
g18
sg19
(lp2087
Vhttp://img.beckett.com/images/no-image.jpg
p2088
asg22
V#MJ8
p2089
sg56
I1
sg24
V1997-98
p2090
sg26
g27
sg28
(lp2091
VMichael Jordan
p2092
aVSigned Game Night Card
p2093
assbag1
(g2
g3
Ntp2094
Rp2095
(dp2096
g7
(dp2097
g9
V1997-98 Upper Deck Great Eight #G5 Michael Jordan
p2098
sg11
I800
sg12
VUpper Deck Great Eight
p2099
sg14
(lp2100
Vhttp://www.beckett.com/basketball/1997-98/upper-deck-great-eight/g5-michael-jordan-3132411
p2101
asg17
g18
sg19
(lp2102
Vhttp://img.beckett.com/images/no-image.jpg
p2103
asg22
V#G5
p2104
sg24
V1997-98
p2105
sg26
g27
sg28
(lp2106
VMichael Jordan
p2107
assbag1
(g2
g3
Ntp2108
Rp2109
(dp2110
g7
(dp2111
g9
V1997-98 Upper Deck High Dimensions #D9 Dennis Rodman
p2112
sg11
I2000
sg12
VUpper Deck High Dimensions
p2113
sg14
(lp2114
Vhttp://www.beckett.com/basketball/1997-98/upper-deck-high-dimensions/d9-dennis-rodman-3132431
p2115
asg17
g18
sg19
(lp2116
Vhttp://img.beckett.com/images/no-image.jpg
p2117
asg22
V#D9
p2118
sg24
V1997-98
p2119
sg26
g27
sg28
(lp2120
VDennis Rodman
p2121
assbag1
(g2
g3
Ntp2122
Rp2123
(dp2124
g7
(dp2125
g9
V1997-98 Upper Deck High Dimensions #D17 Scottie Pippen
p2126
sg11
I2000
sg12
VUpper Deck High Dimensions
p2127
sg14
(lp2128
Vhttp://www.beckett.com/basketball/1997-98/upper-deck-high-dimensions/d17-scottie-pippen-3132439
p2129
asg17
g18
sg19
(lp2130
Vhttp://img.beckett.com/images/no-image.jpg
p2131
asg22
V#D17
p2132
sg24
V1997-98
p2133
sg26
g27
sg28
(lp2134
VScottie Pippen
p2135
assbag1
(g2
g3
Ntp2136
Rp2137
(dp2138
g7
(dp2139
g9
V1997-98 Upper Deck High Dimensions #D23 Michael Jordan
p2140
sg11
I2000
sg12
VUpper Deck High Dimensions
p2141
sg14
(lp2142
Vhttp://www.beckett.com/basketball/1997-98/upper-deck-high-dimensions/d23-michael-jordan-3132445
p2143
asg17
g18
sg19
(lp2144
Vhttp://img.beckett.com/images/no-image.jpg
p2145
asg22
V#D23
p2146
sg24
V1997-98
p2147
sg26
g27
sg28
(lp2148
VMichael Jordan
p2149
assbag1
(g2
g3
Ntp2150
Rp2151
(dp2152
g7
(dp2153
g9
V1997-98 Flair Showcase Masterpieces Row 3 #1 Michael Jordan
p2154
sg11
I1
sg12
VFlair Showcase Masterpieces Row 3
p2155
sg14
(lp2156
Vhttp://www.beckett.com/basketball/1997-98/flair-showcase-masterpieces-row-3/1-michael-jordan-3148900
p2157
asg17
g18
sg19
(lp2158
Vhttp://img.beckett.com/images/no-image.jpg
p2159
asg22
V#1
p2160
sg24
V1997-98
p2161
sg26
g27
sg28
(lp2162
VMichael Jordan
p2163
assbag1
(g2
g3
Ntp2164
Rp2165
(dp2166
g7
(dp2167
g9
V1997-98 Flair Showcase Masterpieces Row 2 #1 Michael Jordan
p2168
sg11
I1
sg12
VFlair Showcase Masterpieces Row 2
p2169
sg14
(lp2170
Vhttp://www.beckett.com/basketball/1997-98/flair-showcase-masterpieces-row-2/1-michael-jordan-3148814
p2171
asg17
g18
sg19
(lp2172
Vhttp://img.beckett.com/images/no-image.jpg
p2173
asg22
V#1
p2174
sg24
V1997-98
p2175
sg26
g27
sg28
(lp2176
VMichael Jordan
p2177
assbag1
(g2
g3
Ntp2178
Rp2179
(dp2180
g7
(dp2181
g9
V1997-98 Flair Showcase Masterpieces Row 0 #1 Michael Jordan
p2182
sg11
I1
sg12
VFlair Showcase Masterpieces Row 0
p2183
sg14
(lp2184
Vhttp://www.beckett.com/basketball/1997-98/flair-showcase-masterpieces-row-0/1-michael-jordan-3148644
p2185
asg17
g18
sg19
(lp2186
Vhttp://img.beckett.com/images/no-image.jpg
p2187
asg22
V#1
p2188
sg24
V1997-98
p2189
sg26
g27
sg28
(lp2190
VMichael Jordan
p2191
assbag1
(g2
g3
Ntp2192
Rp2193
(dp2194
g7
(dp2195
g9
V1997-98 Hoops High Voltage 500 #HV14 Michael Jordan
p2196
sg11
I500
sg12
VHoops High Voltage 500
p2197
sg14
(lp2198
Vhttp://www.beckett.com/basketball/1997-98/hoops-high-voltage-500/hv14-michael-jordan-3142303
p2199
asg17
g18
sg19
(lp2200
Vhttp://img.beckett.com/images/no-image.jpg
p2201
asg22
V#HV14
p2202
sg24
V1997-98
p2203
sg26
g27
sg28
(lp2204
VMichael Jordan
p2205
assbag1
(g2
g3
Ntp2206
Rp2207
(dp2208
g7
(dp2209
g9
V1997-98 Hoops High Voltage 500 #HV16 Dennis Rodman
p2210
sg11
I500
sg12
VHoops High Voltage 500
p2211
sg14
(lp2212
Vhttp://www.beckett.com/basketball/1997-98/hoops-high-voltage-500/hv16-dennis-rodman-3142305
p2213
asg17
g18
sg19
(lp2214
Vhttp://img.beckett.com/images/no-image.jpg
p2215
asg22
V#HV16
p2216
sg24
V1997-98
p2217
sg26
g27
sg28
(lp2218
VDennis Rodman
p2219
assbag1
(g2
g3
Ntp2220
Rp2221
(dp2222
g7
(dp2223
g9
V1997-98 Hoops High Voltage 500 #HV17 Scottie Pippen
p2224
sg11
I500
sg12
VHoops High Voltage 500
p2225
sg14
(lp2226
Vhttp://www.beckett.com/basketball/1997-98/hoops-high-voltage-500/hv17-scottie-pippen-3142306
p2227
asg17
g18
sg19
(lp2228
Vhttp://img.beckett.com/images/no-image.jpg
p2229
asg22
V#HV17
p2230
sg24
V1997-98
p2231
sg26
g27
sg28
(lp2232
VScottie Pippen
p2233
assbag1
(g2
g3
Ntp2234
Rp2235
(dp2236
g7
(dp2237
g9
V1997-98 Metal Universe Precious Metal Gems Emerald #18 Luc Longley
p2238
sg11
I10
sg12
VMetal Universe Precious Metal Gems Emerald
p2239
sg14
(lp2240
Vhttp://www.beckett.com/basketball/1997-98/metal-universe-precious-metal-gems-emerald/18-luc-longley-7055466
p2241
asg17
g18
sg19
(lp2242
Vhttp://img.beckett.com/images/no-image.jpg
p2243
asg22
V#18
p2244
sg24
V1997-98
p2245
sg26
g27
sg28
(lp2246
VLuc Longley
p2247
assbag1
(g2
g3
Ntp2248
Rp2249
(dp2250
g7
(dp2251
g9
V1997-98 Metal Universe Precious Metal Gems Emerald #23 Michael Jordan
p2252
sg11
I10
sg12
VMetal Universe Precious Metal Gems Emerald
p2253
sg14
(lp2254
Vhttp://www.beckett.com/basketball/1997-98/metal-universe-precious-metal-gems-emerald/23-michael-jordan-7055471
p2255
asg17
g18
sg19
(lp2256
Vhttp://img.beckett.com/images/no-image.jpg
p2257
asg22
V#23
p2258
sg24
V1997-98
p2259
sg26
g27
sg28
(lp2260
VMichael Jordan
p2261
assbag1
(g2
g3
Ntp2262
Rp2263
(dp2264
g7
(dp2265
g9
V1997-98 Metal Universe Precious Metal Gems Emerald #58 Steve Kerr
p2266
sg11
I10
sg12
VMetal Universe Precious Metal Gems Emerald
p2267
sg14
(lp2268
Vhttp://www.beckett.com/basketball/1997-98/metal-universe-precious-metal-gems-emerald/58-steve-kerr-7055507
p2269
asg17
g18
sg19
(lp2270
Vhttp://img.beckett.com/images/no-image.jpg
p2271
asg22
V#58
p2272
sg24
V1997-98
p2273
sg26
g27
sg28
(lp2274
VSteve Kerr
p2275
assbag1
(g2
g3
Ntp2276
Rp2277
(dp2278
g7
(dp2279
g9
V1997-98 Metal Universe Precious Metal Gems Emerald #61 Toni Kukoc
p2280
sg11
I10
sg12
VMetal Universe Precious Metal Gems Emerald
p2281
sg14
(lp2282
Vhttp://www.beckett.com/basketball/1997-98/metal-universe-precious-metal-gems-emerald/61-toni-kukoc-7055510
p2283
asg17
g18
sg19
(lp2284
Vhttp://img.beckett.com/images/no-image.jpg
p2285
asg22
V#61
p2286
sg24
V1997-98
p2287
sg26
g27
sg28
(lp2288
VToni Kukoc
p2289
assbag1
(g2
g3
Ntp2290
Rp2291
(dp2292
g7
(dp2293
g9
V1997-98 Metal Universe Precious Metal Gems Emerald #83 Scottie Pippen
p2294
sg11
I10
sg12
VMetal Universe Precious Metal Gems Emerald
p2295
sg14
(lp2296
Vhttp://www.beckett.com/basketball/1997-98/metal-universe-precious-metal-gems-emerald/83-scottie-pippen-7055532
p2297
asg17
g18
sg19
(lp2298
Vhttp://img.beckett.com/images/no-image.jpg
p2299
asg22
V#83
p2300
sg24
V1997-98
p2301
sg26
g27
sg28
(lp2302
VScottie Pippen
p2303
assbag1
(g2
g3
Ntp2304
Rp2305
(dp2306
g7
(dp2307
g9
V1997-98 Metal Universe Precious Metal Gems Emerald #107 Dennis Rodman
p2308
sg11
I10
sg12
VMetal Universe Precious Metal Gems Emerald
p2309
sg14
(lp2310
Vhttp://www.beckett.com/basketball/1997-98/metal-universe-precious-metal-gems-emerald/107-dennis-rodman-7055556
p2311
asg17
g18
sg19
(lp2312
Vhttp://img.beckett.com/images/no-image.jpg
p2313
asg22
V#107
p2314
sg24
V1997-98
p2315
sg26
g27
sg28
(lp2316
VDennis Rodman
p2317
assbag1
(g2
g3
Ntp2318
Rp2319
(dp2320
g7
(dp2321
g9
V1997-98 SP Authentic Profiles 3 #P28 Scottie Pippen
p2322
sg11
I100
sg12
VSP Authentic Profiles 3
p2323
sg14
(lp2324
Vhttp://www.beckett.com/basketball/1997-98/sp-authentic-profiles-3/p28-scottie-pippen-3140309
p2325
asg17
g18
sg19
(lp2326
Vhttp://img.beckett.com/images/no-image.jpg
p2327
asg22
V#P28
p2328
sg24
V1997-98
p2329
sg26
g27
sg28
(lp2330
VScottie Pippen
p2331
assbag1
(g2
g3
Ntp2332
Rp2333
(dp2334
g7
(dp2335
g9
V1997-98 SP Authentic Profiles 3 #P39 Dennis Rodman
p2336
sg11
I100
sg12
VSP Authentic Profiles 3
p2337
sg14
(lp2338
Vhttp://www.beckett.com/basketball/1997-98/sp-authentic-profiles-3/p39-dennis-rodman-3140320
p2339
asg17
g18
sg19
(lp2340
Vhttp://img.beckett.com/images/no-image.jpg
p2341
asg22
V#P39
p2342
sg24
V1997-98
p2343
sg26
g27
sg28
(lp2344
VDennis Rodman
p2345
assbag1
(g2
g3
Ntp2346
Rp2347
(dp2348
g7
(dp2349
g9
V1997-98 Upper Deck Diamond Dimensions #D9 Dennis Rodman
p2350
sg11
I100
sg12
VUpper Deck Diamond Dimensions
p2351
sg14
(lp2352
Vhttp://www.beckett.com/basketball/1997-98/upper-deck-diamond-dimensions/d9-dennis-rodman-3132469
p2353
asg17
g18
sg19
(lp2354
Vhttp://img.beckett.com/images/no-image.jpg
p2355
asg22
V#D9
p2356
sg24
V1997-98
p2357
sg26
g27
sg28
(lp2358
VDennis Rodman
p2359
assbag1
(g2
g3
Ntp2360
Rp2361
(dp2362
g7
(dp2363
g9
V1997-98 Upper Deck Diamond Dimensions #D17 Scottie Pippen
p2364
sg11
I100
sg12
VUpper Deck Diamond Dimensions
p2365
sg14
(lp2366
Vhttp://www.beckett.com/basketball/1997-98/upper-deck-diamond-dimensions/d17-scottie-pippen-3132477
p2367
asg17
g18
sg19
(lp2368
Vhttp://img.beckett.com/images/no-image.jpg
p2369
asg22
V#D17
p2370
sg24
V1997-98
p2371
sg26
g27
sg28
(lp2372
VScottie Pippen
p2373
assba.