(lp0
Naccopy_reg
_reconstructor
p1
(ctutorial.items
BeckettItem
p2
c__builtin__
object
p3
Ntp4
Rp5
(dp6
S'_values'
p7
(dp8
S'originalItemDescription'
p9
V1997 Bleachers/Fleer Gold #11 Scottie Pippen 1988-89
p10
sS'serialNumber'
p11
I10000
sS'setName'
p12
VBleachers/Fleer Gold
p13
sS'beckettLink'
p14
(lp15
Vhttp://www.beckett.com/basketball/1997/bleachersfleer-gold/11-scottie-pippen-1988-89-3129467
p16
asS'team'
p17
S'Chicago Bulls'
p18
sS'imageLink'
p19
(lp20
Vhttp://img.beckett.com/images/no-image.jpg
p21
asS'cardNumber'
p22
V#11
p23
sS'year'
p24
V1997
p25
sS'sport'
p26
S'Basketball'
p27
sS'playerNames'
p28
(lp29
VScottie Pippen
p30
assbag1
(g2
g3
Ntp31
Rp32
(dp33
g7
(dp34
g9
V1997 Bleachers/Fleer Gold #12 Dennis Rodman 1988-89
p35
sg11
I10000
sg12
VBleachers/Fleer Gold
p36
sg14
(lp37
Vhttp://www.beckett.com/basketball/1997/bleachersfleer-gold/12-dennis-rodman-1988-89-3129468
p38
asg17
g18
sg19
(lp39
Vhttp://img.beckett.com/images/no-image.jpg
p40
asg22
V#12
p41
sg24
V1997
p42
sg26
g27
sg28
(lp43
VDennis Rodman
p44
assbag1
(g2
g3
Ntp45
Rp46
(dp47
g7
(dp48
g9
V1997 Upper Deck Michael Jordan Championship Journals #NNO Michael Jordan/Special Card - AU/50
p49
sg11
I50
sg12
VUpper Deck Michael Jordan Championship Journals
p50
sg14
(lp51
Vhttp://www.beckett.com/basketball/1997/upper-deck-michael-jordan-championship-journals/nno-michael-jordanspecial-card---au50-3128751
p52
asg17
g18
sg19
(lp53
Vhttp://img.beckett.com/images/no-image.jpg
p54
asg22
V#NNO
p55
sS'autograph'
p56
I1
sg24
V1997
p57
sg26
g27
sg28
(lp58
VMichael Jordan
p59
aVSpecial Card -
p60
assbag1
(g2
g3
Ntp61
Rp62
(dp63
g7
(dp64
g9
V1997 SPx ProMotion Autographs #1 Michael Jordan
p65
sg11
I100
sg12
VSPx ProMotion Autographs
p66
sg14
(lp67
Vhttp://www.beckett.com/basketball/1997/spx-promotion-autographs/1-michael-jordan-3128611
p68
asg17
g18
sg19
(lp69
Vhttp://img.beckett.com/images/no-image.jpg
p70
asg22
V#1
p71
sg56
I1
sg24
V1997
p72
sg26
g27
sg28
(lp73
VMichael Jordan
p74
assbag1
(g2
g3
Ntp75
Rp76
(dp77
g7
(dp78
g9
V1997-98 Upper Deck #NNO Michael Jordan White Audio
p79
sg11
I1
sg12
VUpper Deck
p80
sg14
(lp81
Vhttp://www.beckett.com/basketball/1997-98/upper-deck/nno-michael-jordan-white-audio-3134229
p82
asg17
g18
sg19
(lp83
Vhttp://img.beckett.com/images/no-image.jpg
p84
asg22
V#NNO
p85
sg24
V1997-98
p86
sg26
g27
sg28
(lp87
VMichael Jordan
p88
assbag1
(g2
g3
Ntp89
Rp90
(dp91
g7
(dp92
g9
V1997-98 E-X2001 Essential Credentials Future #5 Dennis Rodman/76
p93
sg11
I76
sg12
VE-X2001 Essential Credentials Future
p94
sg14
(lp95
Vhttp://www.beckett.com/basketball/1997-98/e-x2001-essential-credentials-future/5-dennis-rodman76-3144591
p96
asg17
g18
sg19
(lp97
Vhttp://img.beckett.com/images/no-image.jpg
p98
asg22
V#5
p99
sg24
V1997-98
p100
sg26
g27
sg28
(lp101
VDennis Rodman
p102
assbag1
(g2
g3
Ntp103
Rp104
(dp105
g7
(dp106
g9
V1997-98 E-X2001 Essential Credentials Future #11 Scottie Pippen/70
p107
sg11
I70
sg12
VE-X2001 Essential Credentials Future
p108
sg14
(lp109
Vhttp://www.beckett.com/basketball/1997-98/e-x2001-essential-credentials-future/11-scottie-pippen70-3144597
p110
asg17
g18
sg19
(lp111
Vhttp://img.beckett.com/images/no-image.jpg
p112
asg22
V#11
p113
sg24
V1997-98
p114
sg26
g27
sg28
(lp115
VScottie Pippen
p116
assbag1
(g2
g3
Ntp117
Rp118
(dp119
g7
(dp120
g9
V1997-98 E-X2001 Essential Credentials Now #5 Dennis Rodman/5
p121
sg11
I5
sg12
VE-X2001 Essential Credentials Now
p122
sg14
(lp123
Vhttp://www.beckett.com/basketball/1997-98/e-x2001-essential-credentials-now/5-dennis-rodman5-3144678
p124
asg17
g18
sg19
(lp125
Vhttp://img.beckett.com/images/no-image.jpg
p126
asg22
V#5
p127
sg24
V1997-98
p128
sg26
g27
sg28
(lp129
VDennis Rodman
p130
assbag1
(g2
g3
Ntp131
Rp132
(dp133
g7
(dp134
g9
V1997-98 E-X2001 Essential Credentials Now #11 Scottie Pippen/11
p135
sg11
I11
sg12
VE-X2001 Essential Credentials Now
p136
sg14
(lp137
Vhttp://www.beckett.com/basketball/1997-98/e-x2001-essential-credentials-now/11-scottie-pippen11-3144684
p138
asg17
g18
sg19
(lp139
Vhttp://img.beckett.com/images/no-image.jpg
p140
asg22
V#11
p141
sg24
V1997-98
p142
sg26
g27
sg28
(lp143
VScottie Pippen
p144
assbag1
(g2
g3
Ntp145
Rp146
(dp147
g7
(dp148
g9
V1997-98 Finest Embossed Refractors #125 Scottie Pippen S
p149
sg11
I263
sg12
VFinest Embossed Refractors
p150
sg14
(lp151
Vhttp://www.beckett.com/basketball/1997-98/finest-embossed-refractors/125-scottie-pippen-s-3145333
p152
asg17
g18
sg19
(lp153
Vhttp://img.beckett.com/images/no-image.jpg
p154
asg22
V#125
p155
sg24
V1997-98
p156
sg26
g27
sg28
(lp157
VScottie Pippen
p158
assbag1
(g2
g3
Ntp159
Rp160
(dp161
g7
(dp162
g9
V1997-98 Finest Embossed Refractors #142 Toni Kukoc S
p163
sg11
I263
sg12
VFinest Embossed Refractors
p164
sg14
(lp165
Vhttp://www.beckett.com/basketball/1997-98/finest-embossed-refractors/142-toni-kukoc-s-3145350
p166
asg17
g18
sg19
(lp167
Vhttp://img.beckett.com/images/no-image.jpg
p168
asg22
V#142
p169
sg24
V1997-98
p170
sg26
g27
sg28
(lp171
VToni Kukoc
p172
assbag1
(g2
g3
Ntp173
Rp174
(dp175
g7
(dp176
g9
V1997-98 Finest Embossed Refractors #154 Michael Jordan G
p177
sg11
I74
sg12
VFinest Embossed Refractors
p178
sg14
(lp179
Vhttp://www.beckett.com/basketball/1997-98/finest-embossed-refractors/154-michael-jordan-g-3145362
p180
asg17
g18
sg19
(lp181
Vhttp://img.beckett.com/images/no-image.jpg
p182
asg22
V#154
p183
sg24
V1997-98
p184
sg26
g27
sg28
(lp185
VMichael Jordan
p186
assbag1
(g2
g3
Ntp187
Rp188
(dp189
g7
(dp190
g9
V1997-98 Finest Embossed Refractors #167 Dennis Rodman G
p191
sg11
I74
sg12
VFinest Embossed Refractors
p192
sg14
(lp193
Vhttp://www.beckett.com/basketball/1997-98/finest-embossed-refractors/167-dennis-rodman-g-3145375
p194
asg17
g18
sg19
(lp195
Vhttp://img.beckett.com/images/no-image.jpg
p196
asg22
V#167
p197
sg24
V1997-98
p198
sg26
g27
sg28
(lp199
VDennis Rodman
p200
assbag1
(g2
g3
Ntp201
Rp202
(dp203
g7
(dp204
g9
V1997-98 Finest Embossed Refractors #275 Dennis Rodman S
p205
sg11
I263
sg12
VFinest Embossed Refractors
p206
sg14
(lp207
Vhttp://www.beckett.com/basketball/1997-98/finest-embossed-refractors/275-dennis-rodman-s-3145383
p208
asg17
g18
sg19
(lp209
Vhttp://img.beckett.com/images/no-image.jpg
p210
asg22
V#275
p211
sg24
V1997-98
p212
sg26
g27
sg28
(lp213
VDennis Rodman
p214
assbag1
(g2
g3
Ntp215
Rp216
(dp217
g7
(dp218
g9
V1997-98 Finest Embossed Refractors #287 Michael Jordan S
p219
sg11
I263
sg12
VFinest Embossed Refractors
p220
sg14
(lp221
Vhttp://www.beckett.com/basketball/1997-98/finest-embossed-refractors/287-michael-jordan-s-3145395
p222
asg17
g18
sg19
(lp223
Vhttp://img.beckett.com/images/no-image.jpg
p224
asg22
V#287
p225
sg24
V1997-98
p226
sg26
g27
sg28
(lp227
VMichael Jordan
p228
assbag1
(g2
g3
Ntp229
Rp230
(dp231
g7
(dp232
g9
V1997-98 Finest Embossed Refractors #322 Scottie Pippen G
p233
sg11
I74
sg12
VFinest Embossed Refractors
p234
sg14
(lp235
Vhttp://www.beckett.com/basketball/1997-98/finest-embossed-refractors/322-scottie-pippen-g-3145430
p236
asg17
g18
sg19
(lp237
Vhttp://img.beckett.com/images/no-image.jpg
p238
asg22
V#322
p239
sg24
V1997-98
p240
sg26
g27
sg28
(lp241
VScottie Pippen
p242
assbag1
(g2
g3
Ntp243
Rp244
(dp245
g7
(dp246
g9
V1997-98 Finest Refractors #125 Scottie Pippen S
p247
sg11
I1090
sg12
VFinest Refractors
p248
sg14
(lp249
Vhttp://www.beckett.com/basketball/1997-98/finest-refractors/125-scottie-pippen-s-3145591
p250
asg17
g18
sg19
(lp251
Vhttp://img.beckett.com/images/items_stock/185226/3145435/3145591/front.jpg
p252
asg22
V#125
p253
sg24
V1997-98
p254
sg26
g27
sg28
(lp255
VScottie Pippen
p256
assbag1
(g2
g3
Ntp257
Rp258
(dp259
g7
(dp260
g9
V1997-98 Finest Refractors #142 Toni Kukoc S
p261
sg11
I1090
sg12
VFinest Refractors
p262
sg14
(lp263
Vhttp://www.beckett.com/basketball/1997-98/finest-refractors/142-toni-kukoc-s-3145608
p264
asg17
g18
sg19
(lp265
Vhttp://img.beckett.com/images/no-image.jpg
p266
asg22
V#142
p267
sg24
V1997-98
p268
sg26
g27
sg28
(lp269
VToni Kukoc
p270
assbag1
(g2
g3
Ntp271
Rp272
(dp273
g7
(dp274
g9
V1997-98 Finest Refractors #154 Michael Jordan G
p275
sg11
I289
sg12
VFinest Refractors
p276
sg14
(lp277
Vhttp://www.beckett.com/basketball/1997-98/finest-refractors/154-michael-jordan-g-3145620
p278
asg17
g18
sg19
(lp279
Vhttp://img.beckett.com/images/no-image.jpg
p280
asg22
V#154
p281
sg24
V1997-98
p282
sg26
g27
sg28
(lp283
VMichael Jordan
p284
assbag1
(g2
g3
Ntp285
Rp286
(dp287
g7
(dp288
g9
V1997-98 Finest Refractors #167 Dennis Rodman G
p289
sg11
I289
sg12
VFinest Refractors
p290
sg14
(lp291
Vhttp://www.beckett.com/basketball/1997-98/finest-refractors/167-dennis-rodman-g-3145633
p292
asg17
g18
sg19
(lp293
Vhttp://img.beckett.com/images/no-image.jpg
p294
asg22
V#167
p295
sg24
V1997-98
p296
sg26
g27
sg28
(lp297
VDennis Rodman
p298
assbag1
(g2
g3
Ntp299
Rp300
(dp301
g7
(dp302
g9
V1997-98 Finest Refractors #275 Dennis Rodman S
p303
sg11
I1090
sg12
VFinest Refractors
p304
sg14
(lp305
Vhttp://www.beckett.com/basketball/1997-98/finest-refractors/275-dennis-rodman-s-3145741
p306
asg17
g18
sg19
(lp307
Vhttp://img.beckett.com/images/no-image.jpg
p308
asg22
V#275
p309
sg24
V1997-98
p310
sg26
g27
sg28
(lp311
VDennis Rodman
p312
assbag1
(g2
g3
Ntp313
Rp314
(dp315
g7
(dp316
g9
V1997-98 Finest Refractors #322 Scottie Pippen G
p317
sg11
I289
sg12
VFinest Refractors
p318
sg14
(lp319
Vhttp://www.beckett.com/basketball/1997-98/finest-refractors/322-scottie-pippen-g-3145788
p320
asg17
g18
sg19
(lp321
Vhttp://img.beckett.com/images/no-image.jpg
p322
asg22
V#322
p323
sg24
V1997-98
p324
sg26
g27
sg28
(lp325
VScottie Pippen
p326
assbag1
(g2
g3
Ntp327
Rp328
(dp329
g7
(dp330
g9
V1997-98 Flair Showcase Row 0 #13 Dennis Rodman
p331
sg11
I250
sg12
VFlair Showcase Row 0
p332
sg14
(lp333
Vhttp://www.beckett.com/basketball/1997-98/flair-showcase-row-0/13-dennis-rodman-3146111
p334
asg17
g18
sg19
(lp335
Vhttp://img.beckett.com/images/no-image.jpg
p336
asg22
V#13
p337
sg24
V1997-98
p338
sg26
g27
sg28
(lp339
VDennis Rodman
p340
assbag1
(g2
g3
Ntp341
Rp342
(dp343
g7
(dp344
g9
V1997-98 Flair Showcase Row 0 #16 Scottie Pippen
p345
sg11
I250
sg12
VFlair Showcase Row 0
p346
sg14
(lp347
Vhttp://www.beckett.com/basketball/1997-98/flair-showcase-row-0/16-scottie-pippen-3146114
p348
asg17
g18
sg19
(lp349
Vhttp://img.beckett.com/images/no-image.jpg
p350
asg22
V#16
p351
sg24
V1997-98
p352
sg26
g27
sg28
(lp353
VScottie Pippen
p354
assbag1
(g2
g3
Ntp355
Rp356
(dp357
g7
(dp358
g9
V1997-98 Flair Showcase Legacy Collection Row 3 #13 Dennis Rodman
p359
sg11
I100
sg12
VFlair Showcase Legacy Collection Row 3
p360
sg14
(lp361
Vhttp://www.beckett.com/basketball/1997-98/flair-showcase-legacy-collection-row-3/13-dennis-rodman-3148571
p362
asg17
g18
sg19
(lp363
Vhttp://img.beckett.com/images/no-image.jpg
p364
asg22
V#13
p365
sg24
V1997-98
p366
sg26
g27
sg28
(lp367
VDennis Rodman
p368
assbag1
(g2
g3
Ntp369
Rp370
(dp371
g7
(dp372
g9
V1997-98 Flair Showcase Legacy Collection Row 3 #16 Scottie Pippen
p373
sg11
I100
sg12
VFlair Showcase Legacy Collection Row 3
p374
sg14
(lp375
Vhttp://www.beckett.com/basketball/1997-98/flair-showcase-legacy-collection-row-3/16-scottie-pippen-3148574
p376
asg17
g18
sg19
(lp377
Vhttp://img.beckett.com/images/no-image.jpg
p378
asg22
V#16
p379
sg24
V1997-98
p380
sg26
g27
sg28
(lp381
VScottie Pippen
p382
assbag1
(g2
g3
Ntp383
Rp384
(dp385
g7
(dp386
g9
V1997-98 Flair Showcase Legacy Collection Row 2 #1 Michael Jordan
p387
sg11
I100
sg12
VFlair Showcase Legacy Collection Row 2
p388
sg14
(lp389
Vhttp://www.beckett.com/basketball/1997-98/flair-showcase-legacy-collection-row-2/1-michael-jordan-3148469
p390
asg17
g18
sg19
(lp391
Vhttp://img.beckett.com/images/no-image.jpg
p392
asg22
V#1
p393
sg24
V1997-98
p394
sg26
g27
sg28
(lp395
VMichael Jordan
p396
assbag1
(g2
g3
Ntp397
Rp398
(dp399
g7
(dp400
g9
V1997-98 Metal Universe Precious Metal Gems #18 Luc Longley
p401
sg11
I90
sg12
VMetal Universe Precious Metal Gems
p402
sg14
(lp403
Vhttp://www.beckett.com/basketball/1997-98/metal-universe-precious-metal-gems/18-luc-longley-3142609
p404
asg17
g18
sg19
(lp405
Vhttp://img.beckett.com/images/no-image.jpg
p406
asg22
V#18
p407
sg24
V1997-98
p408
sg26
g27
sg28
(lp409
VLuc Longley
p410
assbag1
(g2
g3
Ntp411
Rp412
(dp413
g7
(dp414
g9
V1997-98 Metal Universe Precious Metal Gems #23 Michael Jordan
p415
sg11
I90
sg12
VMetal Universe Precious Metal Gems
p416
sg14
(lp417
Vhttp://www.beckett.com/basketball/1997-98/metal-universe-precious-metal-gems/23-michael-jordan-3142614
p418
asg17
g18
sg19
(lp419
Vhttp://img.beckett.com/images/no-image.jpg
p420
asg22
V#23
p421
sg24
V1997-98
p422
sg26
g27
sg28
(lp423
VMichael Jordan
p424
assbag1
(g2
g3
Ntp425
Rp426
(dp427
g7
(dp428
g9
V1997-98 Metal Universe Precious Metal Gems #58 Steve Kerr
p429
sg11
I90
sg12
VMetal Universe Precious Metal Gems
p430
sg14
(lp431
Vhttp://www.beckett.com/basketball/1997-98/metal-universe-precious-metal-gems/58-steve-kerr-3142650
p432
asg17
g18
sg19
(lp433
Vhttp://img.beckett.com/images/no-image.jpg
p434
asg22
V#58
p435
sg24
V1997-98
p436
sg26
g27
sg28
(lp437
VSteve Kerr
p438
assbag1
(g2
g3
Ntp439
Rp440
(dp441
g7
(dp442
g9
V1997-98 Metal Universe Precious Metal Gems #61 Toni Kukoc
p443
sg11
I90
sg12
VMetal Universe Precious Metal Gems
p444
sg14
(lp445
Vhttp://www.beckett.com/basketball/1997-98/metal-universe-precious-metal-gems/61-toni-kukoc-3142653
p446
asg17
g18
sg19
(lp447
Vhttp://img.beckett.com/images/no-image.jpg
p448
asg22
V#61
p449
sg24
V1997-98
p450
sg26
g27
sg28
(lp451
VToni Kukoc
p452
assbag1
(g2
g3
Ntp453
Rp454
(dp455
g7
(dp456
g9
V1997-98 Metal Universe Precious Metal Gems #83 Scottie Pippen
p457
sg11
I90
sg12
VMetal Universe Precious Metal Gems
p458
sg14
(lp459
Vhttp://www.beckett.com/basketball/1997-98/metal-universe-precious-metal-gems/83-scottie-pippen-3142675
p460
asg17
g18
sg19
(lp461
Vhttp://img.beckett.com/images/no-image.jpg
p462
asg22
V#83
p463
sg24
V1997-98
p464
sg26
g27
sg28
(lp465
VScottie Pippen
p466
assbag1
(g2
g3
Ntp467
Rp468
(dp469
g7
(dp470
g9
V1997-98 Metal Universe Precious Metal Gems #107 Dennis Rodman
p471
sg11
I90
sg12
VMetal Universe Precious Metal Gems
p472
sg14
(lp473
Vhttp://www.beckett.com/basketball/1997-98/metal-universe-precious-metal-gems/107-dennis-rodman-3142699
p474
asg17
g18
sg19
(lp475
Vhttp://img.beckett.com/images/no-image.jpg
p476
asg22
V#107
p477
sg24
V1997-98
p478
sg26
g27
sg28
(lp479
VDennis Rodman
p480
assbag1
(g2
g3
Ntp481
Rp482
(dp483
g7
(dp484
g9
V1997-98 Metal Universe Championship Precious Metal Gems #62 Dennis Rodman
p485
sg11
I50
sg12
VMetal Universe Championship Precious Metal Gems
p486
sg14
(lp487
Vhttp://www.beckett.com/basketball/1997-98/metal-universe-championship-precious-metal-gems/62-dennis-rodman-3140737
p488
asg17
g18
sg19
(lp489
Vhttp://img.beckett.com/images/no-image.jpg
p490
asg22
V#62
p491
sg24
V1997-98
p492
sg26
g27
sg28
(lp493
VDennis Rodman
p494
assbag1
(g2
g3
Ntp495
Rp496
(dp497
g7
(dp498
g9
V1997-98 Metal Universe Championship Precious Metal Gems #85 Scottie Pippen
p499
sg11
I50
sg12
VMetal Universe Championship Precious Metal Gems
p500
sg14
(lp501
Vhttp://www.beckett.com/basketball/1997-98/metal-universe-championship-precious-metal-gems/85-scottie-pippen-3140760
p502
asg17
g18
sg19
(lp503
Vhttp://img.beckett.com/images/no-image.jpg
p504
asg22
V#85
p505
sg24
V1997-98
p506
sg26
g27
sg28
(lp507
VScottie Pippen
p508
assbag1
(g2
g3
Ntp509
Rp510
(dp511
g7
(dp512
g9
V1997-98 SkyBox Premium Star Rubies #32 Steve Kerr
p513
sg11
I50
sg12
VSkyBox Premium Star Rubies
p514
sg14
(lp515
Vhttp://www.beckett.com/basketball/1997-98/skybox-premium-star-rubies/32-steve-kerr-3141203
p516
asg17
g18
sg19
(lp517
Vhttp://img.beckett.com/images/no-image.jpg
p518
asg22
V#32
p519
sg24
V1997-98
p520
sg26
g27
sg28
(lp521
VSteve Kerr
p522
assbag1
(g2
g3
Ntp523
Rp524
(dp525
g7
(dp526
g9
V1997-98 SkyBox Premium Star Rubies #39 Toni Kukoc
p527
sg11
I50
sg12
VSkyBox Premium Star Rubies
p528
sg14
(lp529
Vhttp://www.beckett.com/basketball/1997-98/skybox-premium-star-rubies/39-toni-kukoc-3141210
p530
asg17
g18
sg19
(lp531
Vhttp://img.beckett.com/images/no-image.jpg
p532
asg22
V#39
p533
sg24
V1997-98
p534
sg26
g27
sg28
(lp535
VToni Kukoc
p536
assbag1
(g2
g3
Ntp537
Rp538
(dp539
g7
(dp540
g9
V1997-98 SkyBox Premium Star Rubies #44 Luc Longley
p541
sg11
I50
sg12
VSkyBox Premium Star Rubies
p542
sg14
(lp543
Vhttp://www.beckett.com/basketball/1997-98/skybox-premium-star-rubies/44-luc-longley-3141215
p544
asg17
g18
sg19
(lp545
Vhttp://img.beckett.com/images/no-image.jpg
p546
asg22
V#44
p547
sg24
V1997-98
p548
sg26
g27
sg28
(lp549
VLuc Longley
p550
assbag1
(g2
g3
Ntp551
Rp552
(dp553
g7
(dp554
g9
V1997-98 SkyBox Premium Star Rubies #48 Scottie Pippen
p555
sg11
I50
sg12
VSkyBox Premium Star Rubies
p556
sg14
(lp557
Vhttp://www.beckett.com/basketball/1997-98/skybox-premium-star-rubies/48-scottie-pippen-3141219
p558
asg17
g18
sg19
(lp559
Vhttp://img.beckett.com/images/no-image.jpg
p560
asg22
V#48
p561
sg24
V1997-98
p562
sg26
g27
sg28
(lp563
VScottie Pippen
p564
assbag1
(g2
g3
Ntp565
Rp566
(dp567
g7
(dp568
g9
V1997-98 SkyBox Premium Star Rubies #119 Dennis Rodman
p569
sg11
I50
sg12
VSkyBox Premium Star Rubies
p570
sg14
(lp571
Vhttp://www.beckett.com/basketball/1997-98/skybox-premium-star-rubies/119-dennis-rodman-3141290
p572
asg17
g18
sg19
(lp573
Vhttp://img.beckett.com/images/no-image.jpg
p574
asg22
V#119
p575
sg24
V1997-98
p576
sg26
g27
sg28
(lp577
VDennis Rodman
p578
assbag1
(g2
g3
Ntp579
Rp580
(dp581
g7
(dp582
g9
V1997-98 SkyBox Premium Star Rubies #207 Keith Booth
p583
sg11
I50
sg12
VSkyBox Premium Star Rubies
p584
sg14
(lp585
Vhttp://www.beckett.com/basketball/1997-98/skybox-premium-star-rubies/207-keith-booth-3141376
p586
asg17
g18
sg19
(lp587
Vhttp://img.beckett.com/images/no-image.jpg
p588
asg22
V#207
p589
sg24
V1997-98
p590
sg26
g27
sg28
(lp591
VKeith Booth
p592
assbag1
(g2
g3
Ntp593
Rp594
(dp595
g7
(dp596
g9
V1997-98 SkyBox Premium Star Rubies #220 Jud Buechler
p597
sg11
I50
sg12
VSkyBox Premium Star Rubies
p598
sg14
(lp599
Vhttp://www.beckett.com/basketball/1997-98/skybox-premium-star-rubies/220-jud-buechler-3141389
p600
asg17
g18
sg19
(lp601
Vhttp://img.beckett.com/images/no-image.jpg
p602
asg22
V#220
p603
sg24
V1997-98
p604
sg26
g27
sg28
(lp605
VJud Buechler
p606
assbag1
(g2
g3
Ntp607
Rp608
(dp609
g7
(dp610
g9
V1997-98 SkyBox Premium Star Rubies #235 Michael Jordan TS
p611
sg11
I50
sg12
VSkyBox Premium Star Rubies
p612
sg14
(lp613
Vhttp://www.beckett.com/basketball/1997-98/skybox-premium-star-rubies/235-michael-jordan-ts-3141404
p614
asg17
g18
sg19
(lp615
Vhttp://img.beckett.com/images/no-image.jpg
p616
asg22
V#235
p617
sg24
V1997-98
p618
sS'subsetName'
p619
VTS
p620
sg26
g27
sg28
(lp621
VMichael Jordan
p622
assbag1
(g2
g3
Ntp623
Rp624
(dp625
g7
(dp626
g9
V1997-98 SkyBox Premium Star Rubies #242 Scottie Pippen TS
p627
sg11
I50
sg12
VSkyBox Premium Star Rubies
p628
sg14
(lp629
Vhttp://www.beckett.com/basketball/1997-98/skybox-premium-star-rubies/242-scottie-pippen-ts-3141411
p630
asg17
g18
sg19
(lp631
Vhttp://img.beckett.com/images/no-image.jpg
p632
asg22
V#242
p633
sg24
V1997-98
p634
sg619
VTS
p635
sg26
g27
sg28
(lp636
VScottie Pippen
p637
assbag1
(g2
g3
Ntp638
Rp639
(dp640
g7
(dp641
g9
V1997-98 SkyBox Premium Star Rubies #244 Dennis Rodman TS
p642
sg11
I50
sg12
VSkyBox Premium Star Rubies
p643
sg14
(lp644
Vhttp://www.beckett.com/basketball/1997-98/skybox-premium-star-rubies/244-dennis-rodman-ts-3141413
p645
asg17
g18
sg19
(lp646
Vhttp://img.beckett.com/images/no-image.jpg
p647
asg22
V#244
p648
sg24
V1997-98
p649
sg619
VTS
p650
sg26
g27
sg28
(lp651
VDennis Rodman
p652
assbag1
(g2
g3
Ntp653
Rp654
(dp655
g7
(dp656
g9
V1997-98 SkyBox Premium Autographics Century Marks #15 Randy Brown
p657
sg11
I100
sg12
VSkyBox Premium Autographics Century Marks
p658
sg14
(lp659
Vhttp://www.beckett.com/basketball/1997-98/skybox-premium-autographics-century-marks/15-randy-brown-3141597
p660
asg17
g18
sg19
(lp661
Vhttp://img.beckett.com/images/no-image.jpg
p662
asg22
V#15
p663
sg56
I1
sg24
V1997-98
p664
sg26
g27
sg28
(lp665
VRandy Brown
p666
assbag1
(g2
g3
Ntp667
Rp668
(dp669
g7
(dp670
g9
V1997-98 SkyBox Premium Autographics Century Marks #16 Jud Buechler
p671
sg11
I100
sg12
VSkyBox Premium Autographics Century Marks
p672
sg14
(lp673
Vhttp://www.beckett.com/basketball/1997-98/skybox-premium-autographics-century-marks/16-jud-buechler-3141598
p674
asg17
g18
sg19
(lp675
Vhttp://img.beckett.com/images/no-image.jpg
p676
asg22
V#16
p677
sg56
I1
sg24
V1997-98
p678
sg26
g27
sg28
(lp679
VJud Buechler
p680
assbag1
(g2
g3
Ntp681
Rp682
(dp683
g7
(dp684
g9
V1997-98 SkyBox Premium Autographics Century Marks #46 Ron Harper
p685
sg11
I100
sg12
VSkyBox Premium Autographics Century Marks
p686
sg14
(lp687
Vhttp://www.beckett.com/basketball/1997-98/skybox-premium-autographics-century-marks/46-ron-harper-3141628
p688
asg17
g18
sg19
(lp689
Vhttp://img.beckett.com/images/no-image.jpg
p690
asg22
V#46
p691
sg56
I1
sg24
V1997-98
p692
sg26
g27
sg28
(lp693
VRon Harper
p694
assbag1
(g2
g3
Ntp695
Rp696
(dp697
g7
(dp698
g9
V1997-98 SkyBox Premium Autographics Century Marks #61 Steve Kerr
p699
sg11
I100
sg12
VSkyBox Premium Autographics Century Marks
p700
sg14
(lp701
Vhttp://www.beckett.com/basketball/1997-98/skybox-premium-autographics-century-marks/61-steve-kerr-3141643
p702
asg17
g18
sg19
(lp703
Vhttp://img.beckett.com/images/no-image.jpg
p704
asg22
V#61
p705
sg56
I1
sg24
V1997-98
p706
sg26
g27
sg28
(lp707
VSteve Kerr
p708
assbag1
(g2
g3
Ntp709
Rp710
(dp711
g7
(dp712
g9
V1997-98 SkyBox Premium Autographics Century Marks #85 Scottie Pippen
p713
sg11
I100
sg12
VSkyBox Premium Autographics Century Marks
p714
sg14
(lp715
Vhttp://www.beckett.com/basketball/1997-98/skybox-premium-autographics-century-marks/85-scottie-pippen-3141667
p716
asg17
g18
sg19
(lp717
Vhttp://img.beckett.com/images/no-image.jpg
p718
asg22
V#85
p719
sg56
I1
sg24
V1997-98
p720
sg26
g27
sg28
(lp721
VScottie Pippen
p722
assbag1
(g2
g3
Ntp723
Rp724
(dp725
g7
(dp726
g9
V1997-98 SkyBox Premium Autographics Century Marks #91 Dennis Rodman
p727
sg11
I100
sg12
VSkyBox Premium Autographics Century Marks
p728
sg14
(lp729
Vhttp://www.beckett.com/basketball/1997-98/skybox-premium-autographics-century-marks/91-dennis-rodman-3141673
p730
asg17
g18
sg19
(lp731
Vhttp://img.beckett.com/images/no-image.jpg
p732
asg22
V#91
p733
sg56
I1
sg24
V1997-98
p734
sg26
g27
sg28
(lp735
VDennis Rodman
p736
assbag1
(g2
g3
Ntp737
Rp738
(dp739
g7
(dp740
g9
V1997-98 SPx Grand Finale #7 Scottie Pippen
p741
sg11
I50
sg12
VSPx Grand Finale
p742
sg14
(lp743
Vhttp://www.beckett.com/basketball/1997-98/spx-grand-finale/7-scottie-pippen-3137691
p744
asg17
g18
sg19
(lp745
Vhttp://img.beckett.com/images/no-image.jpg
p746
asg22
V#7
p747
sg24
V1997-98
p748
sg26
g27
sg28
(lp749
VScottie Pippen
p750
assbag1
(g2
g3
Ntp751
Rp752
(dp753
g7
(dp754
g9
V1997-98 SPx Grand Finale #8 Dennis Rodman
p755
sg11
I50
sg12
VSPx Grand Finale
p756
sg14
(lp757
Vhttp://www.beckett.com/basketball/1997-98/spx-grand-finale/8-dennis-rodman-3137692
p758
asg17
g18
sg19
(lp759
Vhttp://img.beckett.com/images/no-image.jpg
p760
asg22
V#8
p761
sg24
V1997-98
p762
sg26
g27
sg28
(lp763
VDennis Rodman
p764
assbag1
(g2
g3
Ntp765
Rp766
(dp767
g7
(dp768
g9
V1997-98 Stadium Club One Of A Kind #1 Scottie Pippen
p769
sg11
I150
sg12
VStadium Club One Of A Kind
p770
sg14
(lp771
Vhttp://www.beckett.com/basketball/1997-98/stadium-club-one-of-a-kind/1-scottie-pippen-3138300
p772
asg17
g18
sg19
(lp773
Vhttp://img.beckett.com/images/items_stock/185226/3138288/3138300/front.jpg
p774
asg22
V#1
p775
sg24
V1997-98
p776
sg26
g27
sg28
(lp777
VScottie Pippen
p778
assbag1
(g2
g3
Ntp779
Rp780
(dp781
g7
(dp782
g9
V1997-98 Stadium Club One Of A Kind #5 Bulls - Team of the 90s/Ron Harper/Michael Jordan/Scottie Pippen/Dennis Rodman
p783
sg11
I150
sg12
VStadium Club One Of A Kind
p784
sg14
(lp785
Vhttp://www.beckett.com/basketball/1997-98/stadium-club-one-of-a-kind/5-bulls---team-of-the-90sron-harpermichael-jordanscottie-pippendennis-rodman-3138304
p786
asg17
g18
sg19
(lp787
Vhttp://img.beckett.com/images/no-image.jpg
p788
asg22
V#5
p789
sg24
V1997-98
p790
sg26
g27
sg28
(lp791
VBulls - Team of the
p792
aVRon Harper
p793
aVMichael Jordan
p794
aVScottie Pippen
p795
aVDennis Rodman
p796
assbag1
(g2
g3
Ntp797
Rp798
(dp799
g7
(dp800
g9
V1997-98 Stadium Club One Of A Kind #38 Ron Harper
p801
sg11
I150
sg12
VStadium Club One Of A Kind
p802
sg14
(lp803
Vhttp://www.beckett.com/basketball/1997-98/stadium-club-one-of-a-kind/38-ron-harper-3138337
p804
asg17
g18
sg19
(lp805
Vhttp://img.beckett.com/images/items_stock/185226/3138288/3138337/front.jpg
p806
asg22
V#38
p807
sg24
V1997-98
p808
sg26
g27
sg28
(lp809
VRon Harper
p810
assbag1
(g2
g3
Ntp811
Rp812
(dp813
g7
(dp814
g9
V1997-98 Stadium Club One Of A Kind #56 Dennis Rodman
p815
sg11
I150
sg12
VStadium Club One Of A Kind
p816
sg14
(lp817
Vhttp://www.beckett.com/basketball/1997-98/stadium-club-one-of-a-kind/56-dennis-rodman-3138355
p818
asg17
g18
sg19
(lp819
Vhttp://img.beckett.com/images/no-image.jpg
p820
asg22
V#56
p821
sg24
V1997-98
p822
sg26
g27
sg28
(lp823
VDennis Rodman
p824
assbag1
(g2
g3
Ntp825
Rp826
(dp827
g7
(dp828
g9
V1997-98 Stadium Club One Of A Kind #63 Steve Kerr
p829
sg11
I150
sg12
VStadium Club One Of A Kind
p830
sg14
(lp831
Vhttp://www.beckett.com/basketball/1997-98/stadium-club-one-of-a-kind/63-steve-kerr-3138362
p832
asg17
g18
sg19
(lp833
Vhttp://img.beckett.com/images/items_stock/185226/3138288/3138362/front.jpg
p834
asg22
V#63
p835
sg24
V1997-98
p836
sg26
g27
sg28
(lp837
VSteve Kerr
p838
assbag1
(g2
g3
Ntp839
Rp840
(dp841
g7
(dp842
g9
V1997-98 Stadium Club One Of A Kind #94 Will Perdue
p843
sg11
I150
sg12
VStadium Club One Of A Kind
p844
sg14
(lp845
Vhttp://www.beckett.com/basketball/1997-98/stadium-club-one-of-a-kind/94-will-perdue-3138393
p846
asg17
g18
sg19
(lp847
Vhttp://img.beckett.com/images/items_stock/185226/3138288/3138393/front.jpg
p848
asg22
V#94
p849
sg24
V1997-98
p850
sg26
g27
sg28
(lp851
VWill Perdue
p852
assbag1
(g2
g3
Ntp853
Rp854
(dp855
g7
(dp856
g9
V1997-98 Stadium Club One Of A Kind #118 Michael Jordan
p857
sg11
I150
sg12
VStadium Club One Of A Kind
p858
sg14
(lp859
Vhttp://www.beckett.com/basketball/1997-98/stadium-club-one-of-a-kind/118-michael-jordan-3138417
p860
asg17
g18
sg19
(lp861
Vhttp://img.beckett.com/images/no-image.jpg
p862
asg22
V#118
p863
sg24
V1997-98
p864
sg26
g27
sg28
(lp865
VMichael Jordan
p866
assbag1
(g2
g3
Ntp867
Rp868
(dp869
g7
(dp870
g9
V1997-98 Stadium Club One Of A Kind #148 Jason Caffey
p871
sg11
I150
sg12
VStadium Club One Of A Kind
p872
sg14
(lp873
Vhttp://www.beckett.com/basketball/1997-98/stadium-club-one-of-a-kind/148-jason-caffey-3138447
p874
asg17
g18
sg19
(lp875
Vhttp://img.beckett.com/images/items_stock/185226/3138288/3138447/front.jpg
p876
asg22
V#148
p877
sg24
V1997-98
p878
sg26
g27
sg28
(lp879
VJason Caffey
p880
assbag1
(g2
g3
Ntp881
Rp882
(dp883
g7
(dp884
g9
V1997-98 Stadium Club One Of A Kind #149 Toni Kukoc
p885
sg11
I150
sg12
VStadium Club One Of A Kind
p886
sg14
(lp887
Vhttp://www.beckett.com/basketball/1997-98/stadium-club-one-of-a-kind/149-toni-kukoc-3138448
p888
asg17
g18
sg19
(lp889
Vhttp://img.beckett.com/images/no-image.jpg
p890
asg22
V#149
p891
sg24
V1997-98
p892
sg26
g27
sg28
(lp893
VToni Kukoc
p894
assbag1
(g2
g3
Ntp895
Rp896
(dp897
g7
(dp898
g9
V1997-98 Stadium Club One Of A Kind #197 Luc Longley
p899
sg11
I150
sg12
VStadium Club One Of A Kind
p900
sg14
(lp901
Vhttp://www.beckett.com/basketball/1997-98/stadium-club-one-of-a-kind/197-luc-longley-3138496
p902
asg17
g18
sg19
(lp903
Vhttp://img.beckett.com/images/no-image.jpg
p904
asg22
V#197
p905
sg24
V1997-98
p906
sg26
g27
sg28
(lp907
VLuc Longley
p908
assbag1
(g2
g3
Ntp909
Rp910
(dp911
g7
(dp912
g9
V1997-98 Stadium Club Printing Plates #1 Scottie Pippen Black
p913
sg11
I1
sg12
VStadium Club Printing Plates
p914
sg14
(lp915
Vhttp://www.beckett.com/basketball/1997-98/stadium-club-printing-plates/1-scottie-pippen-black-3138545
p916
asg17
g18
sg19
(lp917
Vhttp://img.beckett.com/images/no-image.jpg
p918
asg22
V#1
p919
sg24
V1997-98
p920
sg26
g27
sg28
(lp921
VScottie Pippen
p922
assbag1
(g2
g3
Ntp923
Rp924
(dp925
g7
(dp926
g9
V1997-98 Stadium Club Printing Plates #1A Scottie Pippen Cyan
p927
sg11
I1
sg12
VStadium Club Printing Plates
p928
sg14
(lp929
Vhttp://www.beckett.com/basketball/1997-98/stadium-club-printing-plates/1a-scottie-pippen-cyan-3138546
p930
asg17
g18
sg19
(lp931
Vhttp://img.beckett.com/images/no-image.jpg
p932
asg22
V#1A
p933
sg24
V1997-98
p934
sg26
g27
sg28
(lp935
g922
assbag1
(g2
g3
Ntp936
Rp937
(dp938
g7
(dp939
g9
V1997-98 Stadium Club Printing Plates #1B Scottie Pippen Magenta
p940
sg11
I1
sg12
VStadium Club Printing Plates
p941
sg14
(lp942
Vhttp://www.beckett.com/basketball/1997-98/stadium-club-printing-plates/1b-scottie-pippen-magenta-3138547
p943
asg17
g18
sg19
(lp944
Vhttp://img.beckett.com/images/no-image.jpg
p945
asg22
V#1B
p946
sg24
V1997-98
p947
sg26
g27
sg28
(lp948
g922
assbag1
(g2
g3
Ntp949
Rp950
(dp951
g7
(dp952
g9
V1997-98 Stadium Club Printing Plates #1C Scottie Pippen Yellow
p953
sg11
I1
sg12
VStadium Club Printing Plates
p954
sg14
(lp955
Vhttp://www.beckett.com/basketball/1997-98/stadium-club-printing-plates/1c-scottie-pippen-yellow-3138548
p956
asg17
g18
sg19
(lp957
Vhttp://img.beckett.com/images/no-image.jpg
p958
asg22
V#1C
p959
sg24
V1997-98
p960
sg26
g27
sg28
(lp961
g922
assbag1
(g2
g3
Ntp962
Rp963
(dp964
g7
(dp965
g9
V1997-98 Stadium Club Printing Plates #5 Bulls - Team of the 90's Black
p966
sg11
I1
sg12
VStadium Club Printing Plates
p967
sg14
(lp968
Vhttp://www.beckett.com/basketball/1997-98/stadium-club-printing-plates/5-bulls---team-of-the-90s-black-3138561
p969
asg17
g18
sg19
(lp970
Vhttp://img.beckett.com/images/no-image.jpg
p971
asg22
V#5
p972
sg24
V1997-98
p973
sg26
g27
sg28
(lp974
VBulls - Team of the
p975
assbag1
(g2
g3
Ntp976
Rp977
(dp978
g7
(dp979
g9
V1997-98 Stadium Club Printing Plates #5A Bulls - Team of the 90's Cyan
p980
sg11
I1
sg12
VStadium Club Printing Plates
p981
sg14
(lp982
Vhttp://www.beckett.com/basketball/1997-98/stadium-club-printing-plates/5a-bulls---team-of-the-90s-cyan-3138562
p983
asg17
g18
sg19
(lp984
Vhttp://img.beckett.com/images/no-image.jpg
p985
asg22
V#5A
p986
sg24
V1997-98
p987
sg26
g27
sg28
(lp988
g975
assbag1
(g2
g3
Ntp989
Rp990
(dp991
g7
(dp992
g9
V1997-98 Stadium Club Printing Plates #5B Bulls - Team of the 90's Magenta
p993
sg11
I1
sg12
VStadium Club Printing Plates
p994
sg14
(lp995
Vhttp://www.beckett.com/basketball/1997-98/stadium-club-printing-plates/5b-bulls---team-of-the-90s-magenta-3138563
p996
asg17
g18
sg19
(lp997
Vhttp://img.beckett.com/images/no-image.jpg
p998
asg22
V#5B
p999
sg24
V1997-98
p1000
sg26
g27
sg28
(lp1001
g975
assbag1
(g2
g3
Ntp1002
Rp1003
(dp1004
g7
(dp1005
g9
V1997-98 Stadium Club Printing Plates #5C Bulls - Team of the 90's Yellow
p1006
sg11
I1
sg12
VStadium Club Printing Plates
p1007
sg14
(lp1008
Vhttp://www.beckett.com/basketball/1997-98/stadium-club-printing-plates/5c-bulls---team-of-the-90s-yellow-3138564
p1009
asg17
g18
sg19
(lp1010
Vhttp://img.beckett.com/images/no-image.jpg
p1011
asg22
V#5C
p1012
sg24
V1997-98
p1013
sg26
g27
sg28
(lp1014
g975
assbag1
(g2
g3
Ntp1015
Rp1016
(dp1017
g7
(dp1018
g9
V1997-98 Stadium Club Printing Plates #38 Ron Harper Black
p1019
sg11
I1
sg12
VStadium Club Printing Plates
p1020
sg14
(lp1021
Vhttp://www.beckett.com/basketball/1997-98/stadium-club-printing-plates/38-ron-harper-black-3138693
p1022
asg17
g18
sg19
(lp1023
Vhttp://img.beckett.com/images/no-image.jpg
p1024
asg22
V#38
p1025
sg24
V1997-98
p1026
sg26
g27
sg28
(lp1027
VRon Harper
p1028
assbag1
(g2
g3
Ntp1029
Rp1030
(dp1031
g7
(dp1032
g9
V1997-98 Stadium Club Printing Plates #38A Ron Harper Cyan
p1033
sg11
I1
sg12
VStadium Club Printing Plates
p1034
sg14
(lp1035
Vhttp://www.beckett.com/basketball/1997-98/stadium-club-printing-plates/38a-ron-harper-cyan-3138694
p1036
asg17
g18
sg19
(lp1037
Vhttp://img.beckett.com/images/no-image.jpg
p1038
asg22
V#38A
p1039
sg24
V1997-98
p1040
sg26
g27
sg28
(lp1041
g1028
assbag1
(g2
g3
Ntp1042
Rp1043
(dp1044
g7
(dp1045
g9
V1997-98 Stadium Club Printing Plates #38B Ron Harper Magenta
p1046
sg11
I1
sg12
VStadium Club Printing Plates
p1047
sg14
(lp1048
Vhttp://www.beckett.com/basketball/1997-98/stadium-club-printing-plates/38b-ron-harper-magenta-3138695
p1049
asg17
g18
sg19
(lp1050
Vhttp://img.beckett.com/images/no-image.jpg
p1051
asg22
V#38B
p1052
sg24
V1997-98
p1053
sg26
g27
sg28
(lp1054
g1028
assbag1
(g2
g3
Ntp1055
Rp1056
(dp1057
g7
(dp1058
g9
V1997-98 Stadium Club Printing Plates #38C Ron Harper Yellow
p1059
sg11
I1
sg12
VStadium Club Printing Plates
p1060
sg14
(lp1061
Vhttp://www.beckett.com/basketball/1997-98/stadium-club-printing-plates/38c-ron-harper-yellow-3138696
p1062
asg17
g18
sg19
(lp1063
Vhttp://img.beckett.com/images/no-image.jpg
p1064
asg22
V#38C
p1065
sg24
V1997-98
p1066
sg26
g27
sg28
(lp1067
g1028
assbag1
(g2
g3
Ntp1068
Rp1069
(dp1070
g7
(dp1071
g9
V1997-98 Stadium Club Printing Plates #56 Dennis Rodman Black
p1072
sg11
I1
sg12
VStadium Club Printing Plates
p1073
sg14
(lp1074
Vhttp://www.beckett.com/basketball/1997-98/stadium-club-printing-plates/56-dennis-rodman-black-3138765
p1075
asg17
g18
sg19
(lp1076
Vhttp://img.beckett.com/images/no-image.jpg
p1077
asg22
V#56
p1078
sg24
V1997-98
p1079
sg26
g27
sg28
(lp1080
VDennis Rodman
p1081
assbag1
(g2
g3
Ntp1082
Rp1083
(dp1084
g7
(dp1085
g9
V1997-98 Stadium Club Printing Plates #56A Dennis Rodman Cyan
p1086
sg11
I1
sg12
VStadium Club Printing Plates
p1087
sg14
(lp1088
Vhttp://www.beckett.com/basketball/1997-98/stadium-club-printing-plates/56a-dennis-rodman-cyan-3138766
p1089
asg17
g18
sg19
(lp1090
Vhttp://img.beckett.com/images/no-image.jpg
p1091
asg22
V#56A
p1092
sg24
V1997-98
p1093
sg26
g27
sg28
(lp1094
g1081
assbag1
(g2
g3
Ntp1095
Rp1096
(dp1097
g7
(dp1098
g9
V1997-98 Stadium Club Printing Plates #56B Dennis Rodman Magenta
p1099
sg11
I1
sg12
VStadium Club Printing Plates
p1100
sg14
(lp1101
Vhttp://www.beckett.com/basketball/1997-98/stadium-club-printing-plates/56b-dennis-rodman-magenta-3138767
p1102
asg17
g18
sg19
(lp1103
Vhttp://img.beckett.com/images/no-image.jpg
p1104
asg22
V#56B
p1105
sg24
V1997-98
p1106
sg26
g27
sg28
(lp1107
g1081
assbag1
(g2
g3
Ntp1108
Rp1109
(dp1110
g7
(dp1111
g9
V1997-98 Stadium Club Printing Plates #56C Dennis Rodman Yellow
p1112
sg11
I1
sg12
VStadium Club Printing Plates
p1113
sg14
(lp1114
Vhttp://www.beckett.com/basketball/1997-98/stadium-club-printing-plates/56c-dennis-rodman-yellow-3138768
p1115
asg17
g18
sg19
(lp1116
Vhttp://img.beckett.com/images/no-image.jpg
p1117
asg22
V#56C
p1118
sg24
V1997-98
p1119
sg26
g27
sg28
(lp1120
g1081
assbag1
(g2
g3
Ntp1121
Rp1122
(dp1123
g7
(dp1124
g9
V1997-98 Stadium Club Printing Plates #63 Steve Kerr Black
p1125
sg11
I1
sg12
VStadium Club Printing Plates
p1126
sg14
(lp1127
Vhttp://www.beckett.com/basketball/1997-98/stadium-club-printing-plates/63-steve-kerr-black-3138793
p1128
asg17
g18
sg19
(lp1129
Vhttp://img.beckett.com/images/no-image.jpg
p1130
asg22
V#63
p1131
sg24
V1997-98
p1132
sg26
g27
sg28
(lp1133
VSteve Kerr
p1134
assbag1
(g2
g3
Ntp1135
Rp1136
(dp1137
g7
(dp1138
g9
V1997-98 Stadium Club Printing Plates #63A Steve Kerr Cyan
p1139
sg11
I1
sg12
VStadium Club Printing Plates
p1140
sg14
(lp1141
Vhttp://www.beckett.com/basketball/1997-98/stadium-club-printing-plates/63a-steve-kerr-cyan-3138794
p1142
asg17
g18
sg19
(lp1143
Vhttp://img.beckett.com/images/no-image.jpg
p1144
asg22
V#63A
p1145
sg24
V1997-98
p1146
sg26
g27
sg28
(lp1147
g1134
assbag1
(g2
g3
Ntp1148
Rp1149
(dp1150
g7
(dp1151
g9
V1997-98 Stadium Club Printing Plates #63B Steve Kerr Magenta
p1152
sg11
I1
sg12
VStadium Club Printing Plates
p1153
sg14
(lp1154
Vhttp://www.beckett.com/basketball/1997-98/stadium-club-printing-plates/63b-steve-kerr-magenta-3138795
p1155
asg17
g18
sg19
(lp1156
Vhttp://img.beckett.com/images/no-image.jpg
p1157
asg22
V#63B
p1158
sg24
V1997-98
p1159
sg26
g27
sg28
(lp1160
g1134
assbag1
(g2
g3
Ntp1161
Rp1162
(dp1163
g7
(dp1164
g9
V1997-98 Stadium Club Printing Plates #63C Steve Kerr Yellow
p1165
sg11
I1
sg12
VStadium Club Printing Plates
p1166
sg14
(lp1167
Vhttp://www.beckett.com/basketball/1997-98/stadium-club-printing-plates/63c-steve-kerr-yellow-3138796
p1168
asg17
g18
sg19
(lp1169
Vhttp://img.beckett.com/images/no-image.jpg
p1170
asg22
V#63C
p1171
sg24
V1997-98
p1172
sg26
g27
sg28
(lp1173
g1134
assbag1
(g2
g3
Ntp1174
Rp1175
(dp1176
g7
(dp1177
g9
V1997-98 Stadium Club Printing Plates #94 Will Perdue Black
p1178
sg11
I1
sg12
VStadium Club Printing Plates
p1179
sg14
(lp1180
Vhttp://www.beckett.com/basketball/1997-98/stadium-club-printing-plates/94-will-perdue-black-3138917
p1181
asg17
g18
sg19
(lp1182
Vhttp://img.beckett.com/images/no-image.jpg
p1183
asg22
V#94
p1184
sg24
V1997-98
p1185
sg26
g27
sg28
(lp1186
VWill Perdue
p1187
assbag1
(g2
g3
Ntp1188
Rp1189
(dp1190
g7
(dp1191
g9
V1997-98 Stadium Club Printing Plates #94A Will Perdue Cyan
p1192
sg11
I1
sg12
VStadium Club Printing Plates
p1193
sg14
(lp1194
Vhttp://www.beckett.com/basketball/1997-98/stadium-club-printing-plates/94a-will-perdue-cyan-3138918
p1195
asg17
g18
sg19
(lp1196
Vhttp://img.beckett.com/images/no-image.jpg
p1197
asg22
V#94A
p1198
sg24
V1997-98
p1199
sg26
g27
sg28
(lp1200
g1187
assbag1
(g2
g3
Ntp1201
Rp1202
(dp1203
g7
(dp1204
g9
V1997-98 Stadium Club Printing Plates #94B Will Perdue Magenta
p1205
sg11
I1
sg12
VStadium Club Printing Plates
p1206
sg14
(lp1207
Vhttp://www.beckett.com/basketball/1997-98/stadium-club-printing-plates/94b-will-perdue-magenta-3138919
p1208
asg17
g18
sg19
(lp1209
Vhttp://img.beckett.com/images/no-image.jpg
p1210
asg22
V#94B
p1211
sg24
V1997-98
p1212
sg26
g27
sg28
(lp1213
g1187
assbag1
(g2
g3
Ntp1214
Rp1215
(dp1216
g7
(dp1217
g9
V1997-98 Stadium Club Printing Plates #94C Will Perdue Yellow
p1218
sg11
I1
sg12
VStadium Club Printing Plates
p1219
sg14
(lp1220
Vhttp://www.beckett.com/basketball/1997-98/stadium-club-printing-plates/94c-will-perdue-yellow-3138920
p1221
asg17
g18
sg19
(lp1222
Vhttp://img.beckett.com/images/no-image.jpg
p1223
asg22
V#94C
p1224
sg24
V1997-98
p1225
sg26
g27
sg28
(lp1226
g1187
assbag1
(g2
g3
Ntp1227
Rp1228
(dp1229
g7
(dp1230
g9
V1997-98 Stadium Club Printing Plates #118 Michael Jordan Black
p1231
sg11
I1
sg12
VStadium Club Printing Plates
p1232
sg14
(lp1233
Vhttp://www.beckett.com/basketball/1997-98/stadium-club-printing-plates/118-michael-jordan-black-3139013
p1234
asg17
g18
sg19
(lp1235
Vhttp://img.beckett.com/images/no-image.jpg
p1236
asg22
V#118
p1237
sg24
V1997-98
p1238
sg26
g27
sg28
(lp1239
g88
assbag1
(g2
g3
Ntp1240
Rp1241
(dp1242
g7
(dp1243
g9
V1997-98 Stadium Club Printing Plates #118B Michael Jordan Magenta
p1244
sg11
I1
sg12
VStadium Club Printing Plates
p1245
sg14
(lp1246
Vhttp://www.beckett.com/basketball/1997-98/stadium-club-printing-plates/118b-michael-jordan-magenta-3139015
p1247
asg17
g18
sg19
(lp1248
Vhttp://img.beckett.com/images/no-image.jpg
p1249
asg22
V#118B
p1250
sg24
V1997-98
p1251
sg26
g27
sg28
(lp1252
g88
assbag1
(g2
g3
Ntp1253
Rp1254
(dp1255
g7
(dp1256
g9
V1997-98 Stadium Club Printing Plates #148 Jason Caffey Black
p1257
sg11
I1
sg12
VStadium Club Printing Plates
p1258
sg14
(lp1259
Vhttp://www.beckett.com/basketball/1997-98/stadium-club-printing-plates/148-jason-caffey-black-3139133
p1260
asg17
g18
sg19
(lp1261
Vhttp://img.beckett.com/images/no-image.jpg
p1262
asg22
V#148
p1263
sg24
V1997-98
p1264
sg26
g27
sg28
(lp1265
VJason Caffey
p1266
assbag1
(g2
g3
Ntp1267
Rp1268
(dp1269
g7
(dp1270
g9
V1997-98 Stadium Club Printing Plates #148A Jason Caffey Cyan
p1271
sg11
I1
sg12
VStadium Club Printing Plates
p1272
sg14
(lp1273
Vhttp://www.beckett.com/basketball/1997-98/stadium-club-printing-plates/148a-jason-caffey-cyan-3139134
p1274
asg17
g18
sg19
(lp1275
Vhttp://img.beckett.com/images/no-image.jpg
p1276
asg22
V#148A
p1277
sg24
V1997-98
p1278
sg26
g27
sg28
(lp1279
g1266
assbag1
(g2
g3
Ntp1280
Rp1281
(dp1282
g7
(dp1283
g9
V1997-98 Stadium Club Printing Plates #148B Jason Caffey Magenta
p1284
sg11
I1
sg12
VStadium Club Printing Plates
p1285
sg14
(lp1286
Vhttp://www.beckett.com/basketball/1997-98/stadium-club-printing-plates/148b-jason-caffey-magenta-3139135
p1287
asg17
g18
sg19
(lp1288
Vhttp://img.beckett.com/images/no-image.jpg
p1289
asg22
V#148B
p1290
sg24
V1997-98
p1291
sg26
g27
sg28
(lp1292
g1266
assbag1
(g2
g3
Ntp1293
Rp1294
(dp1295
g7
(dp1296
g9
V1997-98 Stadium Club Printing Plates #148C Jason Caffey Yellow
p1297
sg11
I1
sg12
VStadium Club Printing Plates
p1298
sg14
(lp1299
Vhttp://www.beckett.com/basketball/1997-98/stadium-club-printing-plates/148c-jason-caffey-yellow-3139136
p1300
asg17
g18
sg19
(lp1301
Vhttp://img.beckett.com/images/no-image.jpg
p1302
asg22
V#148C
p1303
sg24
V1997-98
p1304
sg26
g27
sg28
(lp1305
g1266
assbag1
(g2
g3
Ntp1306
Rp1307
(dp1308
g7
(dp1309
g9
V1997-98 Stadium Club Printing Plates #149 Toni Kukoc Black
p1310
sg11
I1
sg12
VStadium Club Printing Plates
p1311
sg14
(lp1312
Vhttp://www.beckett.com/basketball/1997-98/stadium-club-printing-plates/149-toni-kukoc-black-3139137
p1313
asg17
g18
sg19
(lp1314
Vhttp://img.beckett.com/images/no-image.jpg
p1315
asg22
V#149
p1316
sg24
V1997-98
p1317
sg26
g27
sg28
(lp1318
VToni Kukoc
p1319
assbag1
(g2
g3
Ntp1320
Rp1321
(dp1322
g7
(dp1323
g9
V1997-98 Stadium Club Printing Plates #149A Toni Kukoc Cyan
p1324
sg11
I1
sg12
VStadium Club Printing Plates
p1325
sg14
(lp1326
Vhttp://www.beckett.com/basketball/1997-98/stadium-club-printing-plates/149a-toni-kukoc-cyan-3139138
p1327
asg17
g18
sg19
(lp1328
Vhttp://img.beckett.com/images/no-image.jpg
p1329
asg22
V#149A
p1330
sg24
V1997-98
p1331
sg26
g27
sg28
(lp1332
g1319
assbag1
(g2
g3
Ntp1333
Rp1334
(dp1335
g7
(dp1336
g9
V1997-98 Stadium Club Printing Plates #149B Toni Kukoc Magenta
p1337
sg11
I1
sg12
VStadium Club Printing Plates
p1338
sg14
(lp1339
Vhttp://www.beckett.com/basketball/1997-98/stadium-club-printing-plates/149b-toni-kukoc-magenta-3139139
p1340
asg17
g18
sg19
(lp1341
Vhttp://img.beckett.com/images/no-image.jpg
p1342
asg22
V#149B
p1343
sg24
V1997-98
p1344
sg26
g27
sg28
(lp1345
g1319
assbag1
(g2
g3
Ntp1346
Rp1347
(dp1348
g7
(dp1349
g9
V1997-98 Stadium Club Printing Plates #149C Toni Kukoc Yellow
p1350
sg11
I1
sg12
VStadium Club Printing Plates
p1351
sg14
(lp1352
Vhttp://www.beckett.com/basketball/1997-98/stadium-club-printing-plates/149c-toni-kukoc-yellow-3139140
p1353
asg17
g18
sg19
(lp1354
Vhttp://img.beckett.com/images/no-image.jpg
p1355
asg22
V#149C
p1356
sg24
V1997-98
p1357
sg26
g27
sg28
(lp1358
g1319
assbag1
(g2
g3
Ntp1359
Rp1360
(dp1361
g7
(dp1362
g9
V1997-98 Stadium Club Printing Plates #197 Luc Longley Black
p1363
sg11
I1
sg12
VStadium Club Printing Plates
p1364
sg14
(lp1365
Vhttp://www.beckett.com/basketball/1997-98/stadium-club-printing-plates/197-luc-longley-black-3139329
p1366
asg17
g18
sg19
(lp1367
Vhttp://img.beckett.com/images/no-image.jpg
p1368
asg22
V#197
p1369
sg24
V1997-98
p1370
sg26
g27
sg28
(lp1371
VLuc Longley
p1372
assbag1
(g2
g3
Ntp1373
Rp1374
(dp1375
g7
(dp1376
g9
V1997-98 Stadium Club Printing Plates #197A Luc Longley Cyan
p1377
sg11
I1
sg12
VStadium Club Printing Plates
p1378
sg14
(lp1379
Vhttp://www.beckett.com/basketball/1997-98/stadium-club-printing-plates/197a-luc-longley-cyan-3139330
p1380
asg17
g18
sg19
(lp1381
Vhttp://img.beckett.com/images/no-image.jpg
p1382
asg22
V#197A
p1383
sg24
V1997-98
p1384
sg26
g27
sg28
(lp1385
g1372
assbag1
(g2
g3
Ntp1386
Rp1387
(dp1388
g7
(dp1389
g9
V1997-98 Stadium Club Printing Plates #197B Luc Longley Magenta
p1390
sg11
I1
sg12
VStadium Club Printing Plates
p1391
sg14
(lp1392
Vhttp://www.beckett.com/basketball/1997-98/stadium-club-printing-plates/197b-luc-longley-magenta-3139331
p1393
asg17
g18
sg19
(lp1394
Vhttp://img.beckett.com/images/no-image.jpg
p1395
asg22
V#197B
p1396
sg24
V1997-98
p1397
sg26
g27
sg28
(lp1398
g1372
assbag1
(g2
g3
Ntp1399
Rp1400
(dp1401
g7
(dp1402
g9
V1997-98 Stadium Club Printing Plates #197C Luc Longley Yellow
p1403
sg11
I1
sg12
VStadium Club Printing Plates
p1404
sg14
(lp1405
Vhttp://www.beckett.com/basketball/1997-98/stadium-club-printing-plates/197c-luc-longley-yellow-3139332
p1406
asg17
g18
sg19
(lp1407
Vhttp://img.beckett.com/images/no-image.jpg
p1408
asg22
V#197C
p1409
sg24
V1997-98
p1410
sg26
g27
sg28
(lp1411
g1372
assbag1
(g2
g3
Ntp1412
Rp1413
(dp1414
g7
(dp1415
g9
V1997-98 Ultra Masterpieces #9 Ron Harper
p1416
sg11
I1
sg12
VUltra Masterpieces
p1417
sg14
(lp1418
Vhttp://www.beckett.com/basketball/1997-98/ultra-masterpieces/9-ron-harper-3135739
p1419
asg17
g18
sg19
(lp1420
Vhttp://img.beckett.com/images/no-image.jpg
p1421
asg22
V#9
p1422
sg24
V1997-98
p1423
sg26
g27
sg28
(lp1424
VRon Harper
p1425
assbag1
(g2
g3
Ntp1426
Rp1427
(dp1428
g7
(dp1429
g9
V1997-98 Ultra Masterpieces #14 Steve Kerr
p1430
sg11
I1
sg12
VUltra Masterpieces
p1431
sg14
(lp1432
Vhttp://www.beckett.com/basketball/1997-98/ultra-masterpieces/14-steve-kerr-3135744
p1433
asg17
g18
sg19
(lp1434
Vhttp://img.beckett.com/images/no-image.jpg
p1435
asg22
V#14
p1436
sg24
V1997-98
p1437
sg26
g27
sg28
(lp1438
VSteve Kerr
p1439
assbag1
(g2
g3
Ntp1440
Rp1441
(dp1442
g7
(dp1443
g9
V1997-98 Ultra Masterpieces #23 Michael Jordan
p1444
sg11
I1
sg12
VUltra Masterpieces
p1445
sg14
(lp1446
Vhttp://www.beckett.com/basketball/1997-98/ultra-masterpieces/23-michael-jordan-3135753
p1447
asg17
g18
sg19
(lp1448
Vhttp://img.beckett.com/images/no-image.jpg
p1449
asg22
V#23
p1450
sg24
V1997-98
p1451
sg26
g27
sg28
(lp1452
VMichael Jordan
p1453
assbag1
(g2
g3
Ntp1454
Rp1455
(dp1456
g7
(dp1457
g9
V1997-98 Ultra Masterpieces #26 Toni Kukoc
p1458
sg11
I1
sg12
VUltra Masterpieces
p1459
sg14
(lp1460
Vhttp://www.beckett.com/basketball/1997-98/ultra-masterpieces/26-toni-kukoc-3135756
p1461
asg17
g18
sg19
(lp1462
Vhttp://img.beckett.com/images/no-image.jpg
p1463
asg22
V#26
p1464
sg24
V1997-98
p1465
sg26
g27
sg28
(lp1466
VToni Kukoc
p1467
assbag1
(g2
g3
Ntp1468
Rp1469
(dp1470
g7
(dp1471
g9
V1997-98 Ultra Masterpieces #29 Dennis Rodman
p1472
sg11
I1
sg12
VUltra Masterpieces
p1473
sg14
(lp1474
Vhttp://www.beckett.com/basketball/1997-98/ultra-masterpieces/29-dennis-rodman-3135759
p1475
asg17
g18
sg19
(lp1476
Vhttp://img.beckett.com/images/no-image.jpg
p1477
asg22
V#29
p1478
sg24
V1997-98
p1479
sg26
g27
sg28
(lp1480
VDennis Rodman
p1481
assbag1
(g2
g3
Ntp1482
Rp1483
(dp1484
g7
(dp1485
g9
V1997-98 Ultra Masterpieces #32 Luc Longley
p1486
sg11
I1
sg12
VUltra Masterpieces
p1487
sg14
(lp1488
Vhttp://www.beckett.com/basketball/1997-98/ultra-masterpieces/32-luc-longley-3135762
p1489
asg17
g18
sg19
(lp1490
Vhttp://img.beckett.com/images/no-image.jpg
p1491
asg22
V#32
p1492
sg24
V1997-98
p1493
sg26
g27
sg28
(lp1494
VLuc Longley
p1495
assbag1
(g2
g3
Ntp1496
Rp1497
(dp1498
g7
(dp1499
g9
V1997-98 Ultra Masterpieces #55 Scottie Pippen
p1500
sg11
I1
sg12
VUltra Masterpieces
p1501
sg14
(lp1502
Vhttp://www.beckett.com/basketball/1997-98/ultra-masterpieces/55-scottie-pippen-3135785
p1503
asg17
g18
sg19
(lp1504
Vhttp://img.beckett.com/images/no-image.jpg
p1505
asg22
V#55
p1506
sg24
V1997-98
p1507
sg26
g27
sg28
(lp1508
VScottie Pippen
p1509
assbag1
(g2
g3
Ntp1510
Rp1511
(dp1512
g7
(dp1513
g9
V1997-98 Ultra Masterpieces #163 Rusty LaRue
p1514
sg11
I1
sg12
VUltra Masterpieces
p1515
sg14
(lp1516
Vhttp://www.beckett.com/basketball/1997-98/ultra-masterpieces/163-rusty-larue-3135891
p1517
asg17
g18
sg19
(lp1518
Vhttp://img.beckett.com/images/no-image.jpg
p1519
asg22
V#163
p1520
sg24
V1997-98
p1521
sg26
g27
sg28
(lp1522
VRusty LaRue
p1523
assbag1
(g2
g3
Ntp1524
Rp1525
(dp1526
g7
(dp1527
g9
V1997-98 Ultra Masterpieces #209 Jud Buechler
p1528
sg11
I1
sg12
VUltra Masterpieces
p1529
sg14
(lp1530
Vhttp://www.beckett.com/basketball/1997-98/ultra-masterpieces/209-jud-buechler-3135937
p1531
asg17
g18
sg19
(lp1532
Vhttp://img.beckett.com/images/no-image.jpg
p1533
asg22
V#209
p1534
sg24
V1997-98
p1535
sg26
g27
sg28
(lp1536
VJud Buechler
p1537
assbag1
(g2
g3
Ntp1538
Rp1539
(dp1540
g7
(dp1541
g9
V1997-98 Ultra Masterpieces #232 Keith Booth
p1542
sg11
I1
sg12
VUltra Masterpieces
p1543
sg14
(lp1544
Vhttp://www.beckett.com/basketball/1997-98/ultra-masterpieces/232-keith-booth-3135960
p1545
asg17
g18
sg19
(lp1546
Vhttp://img.beckett.com/images/no-image.jpg
p1547
asg22
V#232
p1548
sg24
V1997-98
p1549
sg26
g27
sg28
(lp1550
VKeith Booth
p1551
assbag1
(g2
g3
Ntp1552
Rp1553
(dp1554
g7
(dp1555
g9
V1997-98 Ultra Masterpieces #259 Michael Jordan GRE
p1556
sg11
I1
sg12
VUltra Masterpieces
p1557
sg14
(lp1558
Vhttp://www.beckett.com/basketball/1997-98/ultra-masterpieces/259-michael-jordan-gre-3135987
p1559
asg17
g18
sg19
(lp1560
Vhttp://img.beckett.com/images/no-image.jpg
p1561
asg22
V#259
p1562
sg24
V1997-98
p1563
sg619
VGRE
p1564
sg26
g27
sg28
(lp1565
VMichael Jordan
p1566
assbag1
(g2
g3
Ntp1567
Rp1568
(dp1569
g7
(dp1570
g9
V1997-98 Ultra Masterpieces #267 Scottie Pippen GRE
p1571
sg11
I1
sg12
VUltra Masterpieces
p1572
sg14
(lp1573
Vhttp://www.beckett.com/basketball/1997-98/ultra-masterpieces/267-scottie-pippen-gre-3135995
p1574
asg17
g18
sg19
(lp1575
Vhttp://img.beckett.com/images/no-image.jpg
p1576
asg22
V#267
p1577
sg24
V1997-98
p1578
sg619
VGRE
p1579
sg26
g27
sg28
(lp1580
VScottie Pippen
p1581
assbag1
(g2
g3
Ntp1582
Rp1583
(dp1584
g7
(dp1585
g9
V1997-98 Ultra Masterpieces #269 Dennis Rodman GRE
p1586
sg11
I1
sg12
VUltra Masterpieces
p1587
sg14
(lp1588
Vhttp://www.beckett.com/basketball/1997-98/ultra-masterpieces/269-dennis-rodman-gre-3135997
p1589
asg17
g18
sg19
(lp1590
Vhttp://img.beckett.com/images/no-image.jpg
p1591
asg22
V#269
p1592
sg24
V1997-98
p1593
sg619
VGRE
p1594
sg26
g27
sg28
(lp1595
VDennis Rodman
p1596
assbag1
(g2
g3
Ntp1597
Rp1598
(dp1599
g7
(dp1600
g9
V1997-98 Ultra Platinum Medallion #9 Ron Harper
p1601
sg11
I100
sg12
VUltra Platinum Medallion
p1602
sg14
(lp1603
Vhttp://www.beckett.com/basketball/1997-98/ultra-platinum-medallion/9-ron-harper-3136023
p1604
asg17
g18
sg19
(lp1605
Vhttp://img.beckett.com/images/no-image.jpg
p1606
asg22
V#9
p1607
sg24
V1997-98
p1608
sg26
g27
sg28
(lp1609
VRon Harper
p1610
assbag1
(g2
g3
Ntp1611
Rp1612
(dp1613
g7
(dp1614
g9
V1997-98 Ultra Platinum Medallion #14 Steve Kerr
p1615
sg11
I100
sg12
VUltra Platinum Medallion
p1616
sg14
(lp1617
Vhttp://www.beckett.com/basketball/1997-98/ultra-platinum-medallion/14-steve-kerr-3136028
p1618
asg17
g18
sg19
(lp1619
Vhttp://img.beckett.com/images/no-image.jpg
p1620
asg22
V#14
p1621
sg24
V1997-98
p1622
sg26
g27
sg28
(lp1623
VSteve Kerr
p1624
assbag1
(g2
g3
Ntp1625
Rp1626
(dp1627
g7
(dp1628
g9
V1997-98 Ultra Platinum Medallion #23 Michael Jordan
p1629
sg11
I100
sg12
VUltra Platinum Medallion
p1630
sg14
(lp1631
Vhttp://www.beckett.com/basketball/1997-98/ultra-platinum-medallion/23-michael-jordan-3136037
p1632
asg17
g18
sg19
(lp1633
Vhttp://img.beckett.com/images/no-image.jpg
p1634
asg22
V#23
p1635
sg24
V1997-98
p1636
sg26
g27
sg28
(lp1637
VMichael Jordan
p1638
assbag1
(g2
g3
Ntp1639
Rp1640
(dp1641
g7
(dp1642
g9
V1997-98 Ultra Platinum Medallion #26 Toni Kukoc
p1643
sg11
I100
sg12
VUltra Platinum Medallion
p1644
sg14
(lp1645
Vhttp://www.beckett.com/basketball/1997-98/ultra-platinum-medallion/26-toni-kukoc-3136040
p1646
asg17
g18
sg19
(lp1647
Vhttp://img.beckett.com/images/no-image.jpg
p1648
asg22
V#26
p1649
sg24
V1997-98
p1650
sg26
g27
sg28
(lp1651
VToni Kukoc
p1652
assbag1
(g2
g3
Ntp1653
Rp1654
(dp1655
g7
(dp1656
g9
V1997-98 Ultra Platinum Medallion #29 Dennis Rodman
p1657
sg11
I100
sg12
VUltra Platinum Medallion
p1658
sg14
(lp1659
Vhttp://www.beckett.com/basketball/1997-98/ultra-platinum-medallion/29-dennis-rodman-3136043
p1660
asg17
g18
sg19
(lp1661
Vhttp://img.beckett.com/images/no-image.jpg
p1662
asg22
V#29
p1663
sg24
V1997-98
p1664
sg26
g27
sg28
(lp1665
VDennis Rodman
p1666
assbag1
(g2
g3
Ntp1667
Rp1668
(dp1669
g7
(dp1670
g9
V1997-98 Ultra Platinum Medallion #32 Luc Longley
p1671
sg11
I100
sg12
VUltra Platinum Medallion
p1672
sg14
(lp1673
Vhttp://www.beckett.com/basketball/1997-98/ultra-platinum-medallion/32-luc-longley-3136046
p1674
asg17
g18
sg19
(lp1675
Vhttp://img.beckett.com/images/no-image.jpg
p1676
asg22
V#32
p1677
sg24
V1997-98
p1678
sg26
g27
sg28
(lp1679
VLuc Longley
p1680
assbag1
(g2
g3
Ntp1681
Rp1682
(dp1683
g7
(dp1684
g9
V1997-98 Ultra Platinum Medallion #55 Scottie Pippen
p1685
sg11
I100
sg12
VUltra Platinum Medallion
p1686
sg14
(lp1687
Vhttp://www.beckett.com/basketball/1997-98/ultra-platinum-medallion/55-scottie-pippen-3136069
p1688
asg17
g18
sg19
(lp1689
Vhttp://img.beckett.com/images/no-image.jpg
p1690
asg22
V#55
p1691
sg24
V1997-98
p1692
sg26
g27
sg28
(lp1693
VScottie Pippen
p1694
assbag1
(g2
g3
Ntp1695
Rp1696
(dp1697
g7
(dp1698
g9
V1997-98 Ultra Platinum Medallion #163 Rusty LaRue
p1699
sg11
I100
sg12
VUltra Platinum Medallion
p1700
sg14
(lp1701
Vhttp://www.beckett.com/basketball/1997-98/ultra-platinum-medallion/163-rusty-larue-3136175
p1702
asg17
g18
sg19
(lp1703
Vhttp://img.beckett.com/images/no-image.jpg
p1704
asg22
V#163
p1705
sg24
V1997-98
p1706
sg26
g27
sg28
(lp1707
VRusty LaRue
p1708
assbag1
(g2
g3
Ntp1709
Rp1710
(dp1711
g7
(dp1712
g9
V1997-98 Ultra Platinum Medallion #209 Jud Buechler
p1713
sg11
I100
sg12
VUltra Platinum Medallion
p1714
sg14
(lp1715
Vhttp://www.beckett.com/basketball/1997-98/ultra-platinum-medallion/209-jud-buechler-3136221
p1716
asg17
g18
sg19
(lp1717
Vhttp://img.beckett.com/images/no-image.jpg
p1718
asg22
V#209
p1719
sg24
V1997-98
p1720
sg26
g27
sg28
(lp1721
VJud Buechler
p1722
assbag1
(g2
g3
Ntp1723
Rp1724
(dp1725
g7
(dp1726
g9
V1997-98 Ultra Platinum Medallion #232 Keith Booth
p1727
sg11
I100
sg12
VUltra Platinum Medallion
p1728
sg14
(lp1729
Vhttp://www.beckett.com/basketball/1997-98/ultra-platinum-medallion/232-keith-booth-3136244
p1730
asg17
g18
sg19
(lp1731
Vhttp://img.beckett.com/images/no-image.jpg
p1732
asg22
V#232
p1733
sg24
V1997-98
p1734
sg26
g27
sg28
(lp1735
VKeith Booth
p1736
assbag1
(g2
g3
Ntp1737
Rp1738
(dp1739
g7
(dp1740
g9
V1997-98 Ultra Platinum Medallion #267 Scottie Pippen GRE
p1741
sg11
I100
sg12
VUltra Platinum Medallion
p1742
sg14
(lp1743
Vhttp://www.beckett.com/basketball/1997-98/ultra-platinum-medallion/267-scottie-pippen-gre-3136279
p1744
asg17
g18
sg19
(lp1745
Vhttp://img.beckett.com/images/no-image.jpg
p1746
asg22
V#267
p1747
sg24
V1997-98
p1748
sg619
VGRE
p1749
sg26
g27
sg28
(lp1750
VScottie Pippen
p1751
assbag1
(g2
g3
Ntp1752
Rp1753
(dp1754
g7
(dp1755
g9
V1997-98 Ultra Platinum Medallion #269 Dennis Rodman GRE
p1756
sg11
I100
sg12
VUltra Platinum Medallion
p1757
sg14
(lp1758
Vhttp://www.beckett.com/basketball/1997-98/ultra-platinum-medallion/269-dennis-rodman-gre-3136281
p1759
asg17
g18
sg19
(lp1760
Vhttp://img.beckett.com/images/no-image.jpg
p1761
asg22
V#269
p1762
sg24
V1997-98
p1763
sg619
VGRE
p1764
sg26
g27
sg28
(lp1765
VDennis Rodman
p1766
assbag1
(g2
g3
Ntp1767
Rp1768
(dp1769
g7
(dp1770
g9
V1997-98 Z-Force Rave #23 Michael Jordan
p1771
sg11
I399
sg12
VZ-Force Rave
p1772
sg14
(lp1773
Vhttp://www.beckett.com/basketball/1997-98/z-force-rave/23-michael-jordan-3133047
p1774
asg17
g18
sg19
(lp1775
Vhttp://img.beckett.com/images/no-image.jpg
p1776
asg22
V#23
p1777
sg24
V1997-98
p1778
sg26
g27
sg28
(lp1779
VMichael Jordan
p1780
assbag1
(g2
g3
Ntp1781
Rp1782
(dp1783
g7
(dp1784
g9
V1997-98 Z-Force Rave #49 Toni Kukoc
p1785
sg11
I399
sg12
VZ-Force Rave
p1786
sg14
(lp1787
Vhttp://www.beckett.com/basketball/1997-98/z-force-rave/49-toni-kukoc-3133073
p1788
asg17
g18
sg19
(lp1789
Vhttp://img.beckett.com/images/no-image.jpg
p1790
asg22
V#49
p1791
sg24
V1997-98
p1792
sg26
g27
sg28
(lp1793
VToni Kukoc
p1794
assbag1
(g2
g3
Ntp1795
Rp1796
(dp1797
g7
(dp1798
g9
V1997-98 Z-Force Rave #66 Scottie Pippen
p1799
sg11
I399
sg12
VZ-Force Rave
p1800
sg14
(lp1801
Vhttp://www.beckett.com/basketball/1997-98/z-force-rave/66-scottie-pippen-3133090
p1802
asg17
g18
sg19
(lp1803
Vhttp://img.beckett.com/images/no-image.jpg
p1804
asg22
V#66
p1805
sg24
V1997-98
p1806
sg26
g27
sg28
(lp1807
VScottie Pippen
p1808
assbag1
(g2
g3
Ntp1809
Rp1810
(dp1811
g7
(dp1812
g9
V1997-98 Z-Force Rave #91 Dennis Rodman
p1813
sg11
I399
sg12
VZ-Force Rave
p1814
sg14
(lp1815
Vhttp://www.beckett.com/basketball/1997-98/z-force-rave/91-dennis-rodman-3133115
p1816
asg17
g18
sg19
(lp1817
Vhttp://img.beckett.com/images/no-image.jpg
p1818
asg22
V#91
p1819
sg24
V1997-98
p1820
sg26
g27
sg28
(lp1821
VDennis Rodman
p1822
assbag1
(g2
g3
Ntp1823
Rp1824
(dp1825
g7
(dp1826
g9
V1997-98 Z-Force Rave #191 Scottie Pippen ZUP
p1827
sg11
I399
sg12
VZ-Force Rave
p1828
sg14
(lp1829
Vhttp://www.beckett.com/basketball/1997-98/z-force-rave/191-scottie-pippen-zup-3133214
p1830
asg17
g18
sg19
(lp1831
Vhttp://img.beckett.com/images/no-image.jpg
p1832
asg22
V#191
p1833
sg24
V1997-98
p1834
sg619
VZUP
p1835
sg26
g27
sg28
(lp1836
VScottie Pippen
p1837
assbag1
(g2
g3
Ntp1838
Rp1839
(dp1840
g7
(dp1841
g9
V1997-98 Z-Force Rave #192 Dennis Rodman ZUP
p1842
sg11
I399
sg12
VZ-Force Rave
p1843
sg14
(lp1844
Vhttp://www.beckett.com/basketball/1997-98/z-force-rave/192-dennis-rodman-zup-3133215
p1845
asg17
g18
sg19
(lp1846
Vhttp://img.beckett.com/images/no-image.jpg
p1847
asg22
V#192
p1848
sg24
V1997-98
p1849
sg619
VZUP
p1850
sg26
g27
sg28
(lp1851
VDennis Rodman
p1852
assbag1
(g2
g3
Ntp1853
Rp1854
(dp1855
g7
(dp1856
g9
V1997-98 Z-Force Super Rave #191 Scottie Pippen ZUP
p1857
sg11
I50
sg12
VZ-Force Super Rave
p1858
sg14
(lp1859
Vhttp://www.beckett.com/basketball/1997-98/z-force-super-rave/191-scottie-pippen-zup-3133326
p1860
asg17
g18
sg19
(lp1861
Vhttp://img.beckett.com/images/no-image.jpg
p1862
asg22
V#191
p1863
sg24
V1997-98
p1864
sg619
VZUP
p1865
sg26
g27
sg28
(lp1866
VScottie Pippen
p1867
assbag1
(g2
g3
Ntp1868
Rp1869
(dp1870
g7
(dp1871
g9
V1997-98 Z-Force Super Rave #192 Dennis Rodman ZUP
p1872
sg11
I50
sg12
VZ-Force Super Rave
p1873
sg14
(lp1874
Vhttp://www.beckett.com/basketball/1997-98/z-force-super-rave/192-dennis-rodman-zup-3133327
p1875
asg17
g18
sg19
(lp1876
Vhttp://img.beckett.com/images/no-image.jpg
p1877
asg22
V#192
p1878
sg24
V1997-98
p1879
sg619
VZUP
p1880
sg26
g27
sg28
(lp1881
VDennis Rodman
p1882
assbag1
(g2
g3
Ntp1883
Rp1884
(dp1885
g7
(dp1886
g9
V1997-98 SP Authentic Authentics #MJ1 Michael Jordan/Signed Jersey/50
p1887
sg11
I50
sg12
VSP Authentic Authentics
p1888
sg14
(lp1889
Vhttp://www.beckett.com/basketball/1997-98/sp-authentic-authentics/mj1-michael-jordansigned-jersey50-3140099
p1890
asg17
g18
sg19
(lp1891
Vhttp://img.beckett.com/images/no-image.jpg
p1892
asg22
V#MJ1
p1893
sg56
I1
sg24
V1997-98
p1894
sg26
g27
sg28
(lp1895
VMichael Jordan
p1896
aVSigned Jersey
p1897
assbag1
(g2
g3
Ntp1898
Rp1899
(dp1900
g7
(dp1901
g9
V1997-98 SP Authentic Authentics #MJ2 Michael Jordan/Signed 16x20 Photo/100
p1902
sg11
I100
sg12
VSP Authentic Authentics
p1903
sg14
(lp1904
Vhttp://www.beckett.com/basketball/1997-98/sp-authentic-authentics/mj2-michael-jordansigned-16x20-photo100-3140100
p1905
asg17
g18
sg19
(lp1906
Vhttp://img.beckett.com/images/no-image.jpg
p1907
asg22
V#MJ2
p1908
sg56
I1
sg24
V1997-98
p1909
sg26
g27
sg28
(lp1910
VMichael Jordan
p1911
aVSigned Photo
p1912
assbag1
(g2
g3
Ntp1913
Rp1914
(dp1915
g7
(dp1916
g9
V1997-98 SP Authentic Authentics #MJ3 Michael Jordan/Unsigned 2-card set/500
p1917
sg11
I500
sg12
VSP Authentic Authentics
p1918
sg14
(lp1919
Vhttp://www.beckett.com/basketball/1997-98/sp-authentic-authentics/mj3-michael-jordanunsigned-2-card-set500-3140101
p1920
asg17
g18
sg19
(lp1921
Vhttp://img.beckett.com/images/no-image.jpg
p1922
asg22
V#MJ3
p1923
sg24
V1997-98
p1924
sg26
g27
sg28
(lp1925
VMichael Jordan
p1926
aVUnsigned set
p1927
assbag1
(g2
g3
Ntp1928
Rp1929
(dp1930
g7
(dp1931
g9
V1997-98 SP Authentic Authentics #MJ4 Michael Jordan/Unsigned 8x10 Photo/400
p1932
sg11
I400
sg12
VSP Authentic Authentics
p1933
sg14
(lp1934
Vhttp://www.beckett.com/basketball/1997-98/sp-authentic-authentics/mj4-michael-jordanunsigned-8x10-photo400-3140102
p1935
asg17
g18
sg19
(lp1936
Vhttp://img.beckett.com/images/no-image.jpg
p1937
asg22
V#MJ4
p1938
sg24
V1997-98
p1939
sg26
g27
sg28
(lp1940
VMichael Jordan
p1941
aVUnsigned set
p1942
assbag1
(g2
g3
Ntp1943
Rp1944
(dp1945
g7
(dp1946
g9
V1997-98 SP Authentic Authentics #MJ5 Michael Jordan/Unsigned Gold Card/250
p1947
sg11
I250
sg12
VSP Authentic Authentics
p1948
sg14
(lp1949
Vhttp://www.beckett.com/basketball/1997-98/sp-authentic-authentics/mj5-michael-jordanunsigned-gold-card250-3140103
p1950
asg17
g18
sg19
(lp1951
Vhttp://img.beckett.com/images/no-image.jpg
p1952
asg22
V#MJ5
p1953
sg24
V1997-98
p1954
sg26
g27
sg28
(lp1955
VMichael Jordan
p1956
ag1942
assbag1
(g2
g3
Ntp1957
Rp1958
(dp1959
g7
(dp1960
g9
V1997-98 SP Authentic Authentics #MJ6 Michael Jordan/Unsigned Game Night Card/100
p1961
sg11
I100
sg12
VSP Authentic Authentics
p1962
sg14
(lp1963
Vhttp://www.beckett.com/basketball/1997-98/sp-authentic-authentics/mj6-michael-jordanunsigned-game-night-card100-3140104
p1964
asg17
g18
sg19
(lp1965
Vhttp://img.beckett.com/images/no-image.jpg
p1966
asg22
V#MJ6
p1967
sg24
V1997-98
p1968
sg26
g27
sg28
(lp1969
VMichael Jordan
p1970
ag1942
assbag1
(g2
g3
Ntp1971
Rp1972
(dp1973
g7
(dp1974
g9
V1997-98 SP Authentic Authentics #MJ6B Michael Jordan/Unsigned Game Night Card/100
p1975
sg11
I100
sg12
VSP Authentic Authentics
p1976
sg14
(lp1977
Vhttp://www.beckett.com/basketball/1997-98/sp-authentic-authentics/mj6b-michael-jordanunsigned-game-night-card100-3140105
p1978
asg17
g18
sg19
(lp1979
Vhttp://img.beckett.com/images/no-image.jpg
p1980
asg22
V#MJ6B
p1981
sg24
V1997-98
p1982
sg26
g27
sg28
(lp1983
VMichael Jordan
p1984
ag1942
assbag1
(g2
g3
Ntp1985
Rp1986
(dp1987
g7
(dp1988
g9
V1997-98 SP Authentic Authentics #MJ6C Michael Jordan/Unsigned Game Night Card/100
p1989
sg11
I100
sg12
VSP Authentic Authentics
p1990
sg14
(lp1991
Vhttp://www.beckett.com/basketball/1997-98/sp-authentic-authentics/mj6c-michael-jordanunsigned-game-night-card100-3140106
p1992
asg17
g18
sg19
(lp1993
Vhttp://img.beckett.com/images/no-image.jpg
p1994
asg22
V#MJ6C
p1995
sg24
V1997-98
p1996
sg26
g27
sg28
(lp1997
VMichael Jordan
p1998
ag1942
assbag1
(g2
g3
Ntp1999
Rp2000
(dp2001
g7
(dp2002
g9
V1997-98 SP Authentic Authentics #MJ6D Michael Jordan/Unsigned Game Night Card/100
p2003
sg11
I100
sg12
VSP Authentic Authentics
p2004
sg14
(lp2005
Vhttp://www.beckett.com/basketball/1997-98/sp-authentic-authentics/mj6d-michael-jordanunsigned-game-night-card100-3140107
p2006
asg17
g18
sg19
(lp2007
Vhttp://img.beckett.com/images/no-image.jpg
p2008
asg22
V#MJ6D
p2009
sg24
V1997-98
p2010
sg26
g27
sg28
(lp2011
VMichael Jordan
p2012
ag1942
assbag1
(g2
g3
Ntp2013
Rp2014
(dp2015
g7
(dp2016
g9
V1997-98 SP Authentic Authentics #MJ6E Michael Jordan/Unsigned Game Night Card/100
p2017
sg11
I100
sg12
VSP Authentic Authentics
p2018
sg14
(lp2019
Vhttp://www.beckett.com/basketball/1997-98/sp-authentic-authentics/mj6e-michael-jordanunsigned-game-night-card100-3140108
p2020
asg17
g18
sg19
(lp2021
Vhttp://img.beckett.com/images/no-image.jpg
p2022
asg22
V#MJ6E
p2023
sg24
V1997-98
p2024
sg26
g27
sg28
(lp2025
VMichael Jordan
p2026
ag1942
assbag1
(g2
g3
Ntp2027
Rp2028
(dp2029
g7
(dp2030
g9
V1997-98 SP Authentic Authentics #MJ7 Michael Jordan/Unsigned Blow-up Poster/200
p2031
sg11
I200
sg12
VSP Authentic Authentics
p2032
sg14
(lp2033
Vhttp://www.beckett.com/basketball/1997-98/sp-authentic-authentics/mj7-michael-jordanunsigned-blow-up-poster200-3140109
p2034
asg17
g18
sg19
(lp2035
Vhttp://img.beckett.com/images/no-image.jpg
p2036
asg22
V#MJ7
p2037
sg24
V1997-98
p2038
sg26
g27
sg28
(lp2039
VMichael Jordan
p2040
ag1942
assbag1
(g2
g3
Ntp2041
Rp2042
(dp2043
g7
(dp2044
g9
V1997-98 SP Authentic Authentics #MJ8 Michael Jordan/Signed Game Night Card/23
p2045
sg11
I23
sg12
VSP Authentic Authentics
p2046
sg14
(lp2047
Vhttp://www.beckett.com/basketball/1997-98/sp-authentic-authentics/mj8-michael-jordansigned-game-night-card23-3140110
p2048
asg17
g18
sg19
(lp2049
Vhttp://img.beckett.com/images/no-image.jpg
p2050
asg22
V#MJ8
p2051
sg56
I1
sg24
V1997-98
p2052
sg26
g27
sg28
(lp2053
VMichael Jordan
p2054
aVSigned Game Night Card
p2055
assbag1
(g2
g3
Ntp2056
Rp2057
(dp2058
g7
(dp2059
g9
V1997-98 Upper Deck Great Eight #G5 Michael Jordan
p2060
sg11
I800
sg12
VUpper Deck Great Eight
p2061
sg14
(lp2062
Vhttp://www.beckett.com/basketball/1997-98/upper-deck-great-eight/g5-michael-jordan-3132411
p2063
asg17
g18
sg19
(lp2064
Vhttp://img.beckett.com/images/no-image.jpg
p2065
asg22
V#G5
p2066
sg24
V1997-98
p2067
sg26
g27
sg28
(lp2068
VMichael Jordan
p2069
assbag1
(g2
g3
Ntp2070
Rp2071
(dp2072
g7
(dp2073
g9
V1997-98 Upper Deck High Dimensions #D9 Dennis Rodman
p2074
sg11
I2000
sg12
VUpper Deck High Dimensions
p2075
sg14
(lp2076
Vhttp://www.beckett.com/basketball/1997-98/upper-deck-high-dimensions/d9-dennis-rodman-3132431
p2077
asg17
g18
sg19
(lp2078
Vhttp://img.beckett.com/images/no-image.jpg
p2079
asg22
V#D9
p2080
sg24
V1997-98
p2081
sg26
g27
sg28
(lp2082
VDennis Rodman
p2083
assbag1
(g2
g3
Ntp2084
Rp2085
(dp2086
g7
(dp2087
g9
V1997-98 Upper Deck High Dimensions #D17 Scottie Pippen
p2088
sg11
I2000
sg12
VUpper Deck High Dimensions
p2089
sg14
(lp2090
Vhttp://www.beckett.com/basketball/1997-98/upper-deck-high-dimensions/d17-scottie-pippen-3132439
p2091
asg17
g18
sg19
(lp2092
Vhttp://img.beckett.com/images/items_stock/185226/3132415/3132439/front.jpg
p2093
asg22
V#D17
p2094
sg24
V1997-98
p2095
sg26
g27
sg28
(lp2096
VScottie Pippen
p2097
assbag1
(g2
g3
Ntp2098
Rp2099
(dp2100
g7
(dp2101
g9
V1997-98 Upper Deck High Dimensions #D23 Michael Jordan
p2102
sg11
I2000
sg12
VUpper Deck High Dimensions
p2103
sg14
(lp2104
Vhttp://www.beckett.com/basketball/1997-98/upper-deck-high-dimensions/d23-michael-jordan-3132445
p2105
asg17
g18
sg19
(lp2106
Vhttp://img.beckett.com/images/no-image.jpg
p2107
asg22
V#D23
p2108
sg24
V1997-98
p2109
sg26
g27
sg28
(lp2110
VMichael Jordan
p2111
assbag1
(g2
g3
Ntp2112
Rp2113
(dp2114
g7
(dp2115
g9
V1997-98 Flair Showcase Masterpieces Row 3 #1 Michael Jordan
p2116
sg11
I1
sg12
VFlair Showcase Masterpieces Row 3
p2117
sg14
(lp2118
Vhttp://www.beckett.com/basketball/1997-98/flair-showcase-masterpieces-row-3/1-michael-jordan-3148900
p2119
asg17
g18
sg19
(lp2120
Vhttp://img.beckett.com/images/no-image.jpg
p2121
asg22
V#1
p2122
sg24
V1997-98
p2123
sg26
g27
sg28
(lp2124
VMichael Jordan
p2125
assbag1
(g2
g3
Ntp2126
Rp2127
(dp2128
g7
(dp2129
g9
V1997-98 Flair Showcase Masterpieces Row 2 #1 Michael Jordan
p2130
sg11
I1
sg12
VFlair Showcase Masterpieces Row 2
p2131
sg14
(lp2132
Vhttp://www.beckett.com/basketball/1997-98/flair-showcase-masterpieces-row-2/1-michael-jordan-3148814
p2133
asg17
g18
sg19
(lp2134
Vhttp://img.beckett.com/images/no-image.jpg
p2135
asg22
V#1
p2136
sg24
V1997-98
p2137
sg26
g27
sg28
(lp2138
VMichael Jordan
p2139
assbag1
(g2
g3
Ntp2140
Rp2141
(dp2142
g7
(dp2143
g9
V1997-98 Flair Showcase Masterpieces Row 0 #1 Michael Jordan
p2144
sg11
I1
sg12
VFlair Showcase Masterpieces Row 0
p2145
sg14
(lp2146
Vhttp://www.beckett.com/basketball/1997-98/flair-showcase-masterpieces-row-0/1-michael-jordan-3148644
p2147
asg17
g18
sg19
(lp2148
Vhttp://img.beckett.com/images/no-image.jpg
p2149
asg22
V#1
p2150
sg24
V1997-98
p2151
sg26
g27
sg28
(lp2152
VMichael Jordan
p2153
assbag1
(g2
g3
Ntp2154
Rp2155
(dp2156
g7
(dp2157
g9
V1997-98 Hoops High Voltage 500 #HV14 Michael Jordan
p2158
sg11
I500
sg12
VHoops High Voltage 500
p2159
sg14
(lp2160
Vhttp://www.beckett.com/basketball/1997-98/hoops-high-voltage-500/hv14-michael-jordan-3142303
p2161
asg17
g18
sg19
(lp2162
Vhttp://img.beckett.com/images/no-image.jpg
p2163
asg22
V#HV14
p2164
sg24
V1997-98
p2165
sg26
g27
sg28
(lp2166
VMichael Jordan
p2167
assbag1
(g2
g3
Ntp2168
Rp2169
(dp2170
g7
(dp2171
g9
V1997-98 Hoops High Voltage 500 #HV16 Dennis Rodman
p2172
sg11
I500
sg12
VHoops High Voltage 500
p2173
sg14
(lp2174
Vhttp://www.beckett.com/basketball/1997-98/hoops-high-voltage-500/hv16-dennis-rodman-3142305
p2175
asg17
g18
sg19
(lp2176
Vhttp://img.beckett.com/images/no-image.jpg
p2177
asg22
V#HV16
p2178
sg24
V1997-98
p2179
sg26
g27
sg28
(lp2180
VDennis Rodman
p2181
assbag1
(g2
g3
Ntp2182
Rp2183
(dp2184
g7
(dp2185
g9
V1997-98 Hoops High Voltage 500 #HV17 Scottie Pippen
p2186
sg11
I500
sg12
VHoops High Voltage 500
p2187
sg14
(lp2188
Vhttp://www.beckett.com/basketball/1997-98/hoops-high-voltage-500/hv17-scottie-pippen-3142306
p2189
asg17
g18
sg19
(lp2190
Vhttp://img.beckett.com/images/no-image.jpg
p2191
asg22
V#HV17
p2192
sg24
V1997-98
p2193
sg26
g27
sg28
(lp2194
VScottie Pippen
p2195
assbag1
(g2
g3
Ntp2196
Rp2197
(dp2198
g7
(dp2199
g9
V1997-98 Metal Universe Precious Metal Gems Emerald #18 Luc Longley
p2200
sg11
I10
sg12
VMetal Universe Precious Metal Gems Emerald
p2201
sg14
(lp2202
Vhttp://www.beckett.com/basketball/1997-98/metal-universe-precious-metal-gems-emerald/18-luc-longley-7055466
p2203
asg17
g18
sg19
(lp2204
Vhttp://img.beckett.com/images/no-image.jpg
p2205
asg22
V#18
p2206
sg24
V1997-98
p2207
sg26
g27
sg28
(lp2208
VLuc Longley
p2209
assbag1
(g2
g3
Ntp2210
Rp2211
(dp2212
g7
(dp2213
g9
V1997-98 Metal Universe Precious Metal Gems Emerald #23 Michael Jordan
p2214
sg11
I10
sg12
VMetal Universe Precious Metal Gems Emerald
p2215
sg14
(lp2216
Vhttp://www.beckett.com/basketball/1997-98/metal-universe-precious-metal-gems-emerald/23-michael-jordan-7055471
p2217
asg17
g18
sg19
(lp2218
Vhttp://img.beckett.com/images/no-image.jpg
p2219
asg22
V#23
p2220
sg24
V1997-98
p2221
sg26
g27
sg28
(lp2222
VMichael Jordan
p2223
assbag1
(g2
g3
Ntp2224
Rp2225
(dp2226
g7
(dp2227
g9
V1997-98 Metal Universe Precious Metal Gems Emerald #58 Steve Kerr
p2228
sg11
I10
sg12
VMetal Universe Precious Metal Gems Emerald
p2229
sg14
(lp2230
Vhttp://www.beckett.com/basketball/1997-98/metal-universe-precious-metal-gems-emerald/58-steve-kerr-7055507
p2231
asg17
g18
sg19
(lp2232
Vhttp://img.beckett.com/images/no-image.jpg
p2233
asg22
V#58
p2234
sg24
V1997-98
p2235
sg26
g27
sg28
(lp2236
VSteve Kerr
p2237
assbag1
(g2
g3
Ntp2238
Rp2239
(dp2240
g7
(dp2241
g9
V1997-98 Metal Universe Precious Metal Gems Emerald #61 Toni Kukoc
p2242
sg11
I10
sg12
VMetal Universe Precious Metal Gems Emerald
p2243
sg14
(lp2244
Vhttp://www.beckett.com/basketball/1997-98/metal-universe-precious-metal-gems-emerald/61-toni-kukoc-7055510
p2245
asg17
g18
sg19
(lp2246
Vhttp://img.beckett.com/images/no-image.jpg
p2247
asg22
V#61
p2248
sg24
V1997-98
p2249
sg26
g27
sg28
(lp2250
VToni Kukoc
p2251
assbag1
(g2
g3
Ntp2252
Rp2253
(dp2254
g7
(dp2255
g9
V1997-98 Metal Universe Precious Metal Gems Emerald #83 Scottie Pippen
p2256
sg11
I10
sg12
VMetal Universe Precious Metal Gems Emerald
p2257
sg14
(lp2258
Vhttp://www.beckett.com/basketball/1997-98/metal-universe-precious-metal-gems-emerald/83-scottie-pippen-7055532
p2259
asg17
g18
sg19
(lp2260
Vhttp://img.beckett.com/images/no-image.jpg
p2261
asg22
V#83
p2262
sg24
V1997-98
p2263
sg26
g27
sg28
(lp2264
VScottie Pippen
p2265
assbag1
(g2
g3
Ntp2266
Rp2267
(dp2268
g7
(dp2269
g9
V1997-98 Metal Universe Precious Metal Gems Emerald #107 Dennis Rodman
p2270
sg11
I10
sg12
VMetal Universe Precious Metal Gems Emerald
p2271
sg14
(lp2272
Vhttp://www.beckett.com/basketball/1997-98/metal-universe-precious-metal-gems-emerald/107-dennis-rodman-7055556
p2273
asg17
g18
sg19
(lp2274
Vhttp://img.beckett.com/images/no-image.jpg
p2275
asg22
V#107
p2276
sg24
V1997-98
p2277
sg26
g27
sg28
(lp2278
VDennis Rodman
p2279
assbag1
(g2
g3
Ntp2280
Rp2281
(dp2282
g7
(dp2283
g9
V1997-98 SP Authentic Profiles 3 #P28 Scottie Pippen
p2284
sg11
I100
sg12
VSP Authentic Profiles 3
p2285
sg14
(lp2286
Vhttp://www.beckett.com/basketball/1997-98/sp-authentic-profiles-3/p28-scottie-pippen-3140309
p2287
asg17
g18
sg19
(lp2288
Vhttp://img.beckett.com/images/no-image.jpg
p2289
asg22
V#P28
p2290
sg24
V1997-98
p2291
sg26
g27
sg28
(lp2292
VScottie Pippen
p2293
assbag1
(g2
g3
Ntp2294
Rp2295
(dp2296
g7
(dp2297
g9
V1997-98 SP Authentic Profiles 3 #P39 Dennis Rodman
p2298
sg11
I100
sg12
VSP Authentic Profiles 3
p2299
sg14
(lp2300
Vhttp://www.beckett.com/basketball/1997-98/sp-authentic-profiles-3/p39-dennis-rodman-3140320
p2301
asg17
g18
sg19
(lp2302
Vhttp://img.beckett.com/images/no-image.jpg
p2303
asg22
V#P39
p2304
sg24
V1997-98
p2305
sg26
g27
sg28
(lp2306
VDennis Rodman
p2307
assbag1
(g2
g3
Ntp2308
Rp2309
(dp2310
g7
(dp2311
g9
V1997-98 Upper Deck Diamond Dimensions #D9 Dennis Rodman
p2312
sg11
I100
sg12
VUpper Deck Diamond Dimensions
p2313
sg14
(lp2314
Vhttp://www.beckett.com/basketball/1997-98/upper-deck-diamond-dimensions/d9-dennis-rodman-3132469
p2315
asg17
g18
sg19
(lp2316
Vhttp://img.beckett.com/images/no-image.jpg
p2317
asg22
V#D9
p2318
sg24
V1997-98
p2319
sg26
g27
sg28
(lp2320
VDennis Rodman
p2321
assbag1
(g2
g3
Ntp2322
Rp2323
(dp2324
g7
(dp2325
g9
V1997-98 Upper Deck Diamond Dimensions #D17 Scottie Pippen
p2326
sg11
I100
sg12
VUpper Deck Diamond Dimensions
p2327
sg14
(lp2328
Vhttp://www.beckett.com/basketball/1997-98/upper-deck-diamond-dimensions/d17-scottie-pippen-3132477
p2329
asg17
g18
sg19
(lp2330
Vhttp://img.beckett.com/images/no-image.jpg
p2331
asg22
V#D17
p2332
sg24
V1997-98
p2333
sg26
g27
sg28
(lp2334
VScottie Pippen
p2335
assba.