(lp0
Naccopy_reg
_reconstructor
p1
(ctutorial.items
BeckettItem
p2
c__builtin__
object
p3
Ntp4
Rp5
(dp6
S'_values'
p7
(dp8
S'originalItemDescription'
p9
V1997 Bleachers/Fleer Gold Promos #2 Grant Hill
p10
sS'serialNumber'
p11
I10000
sS'setName'
p12
VBleachers/Fleer Gold Promos
p13
sS'beckettLink'
p14
(lp15
Vhttp://www.beckett.com/basketball/1997/bleachersfleer-gold-promos/2-grant-hill-3129503
p16
asS'team'
p17
S'Detroit Pistons'
p18
sS'imageLink'
p19
(lp20
Vhttp://img.beckett.com/images/no-image.jpg
p21
asS'cardNumber'
p22
V#2
p23
sS'year'
p24
V1997
p25
sS'sport'
p26
S'Basketball'
p27
sS'playerNames'
p28
(lp29
VGrant Hill
p30
assbag1
(g2
g3
Ntp31
Rp32
(dp33
g7
(dp34
g9
V1997 Bleachers/Fleer Gold #5 Grant Hill 1994-95
p35
sg11
I10000
sg12
VBleachers/Fleer Gold
p36
sg14
(lp37
Vhttp://www.beckett.com/basketball/1997/bleachersfleer-gold/5-grant-hill-1994-95-3129461
p38
asg17
g18
sg19
(lp39
Vhttp://img.beckett.com/images/no-image.jpg
p40
asg22
V#5
p41
sg24
V1997
p42
sg26
g27
sg28
(lp43
VGrant Hill
p44
assbag1
(g2
g3
Ntp45
Rp46
(dp47
g7
(dp48
g9
V1997-98 E-X2001 Essential Credentials Future #1 Grant Hill/80
p49
sg11
I80
sg12
VE-X2001 Essential Credentials Future
p50
sg14
(lp51
Vhttp://www.beckett.com/basketball/1997-98/e-x2001-essential-credentials-future/1-grant-hill80-3144587
p52
asg17
g18
sg19
(lp53
Vhttp://img.beckett.com/images/no-image.jpg
p54
asg22
V#1
p55
sg24
V1997-98
p56
sg26
g27
sg28
(lp57
VGrant Hill
p58
assbag1
(g2
g3
Ntp59
Rp60
(dp61
g7
(dp62
g9
V1997-98 E-X2001 Essential Credentials Future #45 Lindsey Hunter/36
p63
sg11
I36
sg12
VE-X2001 Essential Credentials Future
p64
sg14
(lp65
Vhttp://www.beckett.com/basketball/1997-98/e-x2001-essential-credentials-future/45-lindsey-hunter36-3144631
p66
asg17
g18
sg19
(lp67
Vhttp://img.beckett.com/images/no-image.jpg
p68
asg22
V#45
p69
sg24
V1997-98
p70
sg26
g27
sg28
(lp71
VLindsey Hunter
p72
assbag1
(g2
g3
Ntp73
Rp74
(dp75
g7
(dp76
g9
V1997-98 E-X2001 Essential Credentials Future #51 Joe Dumars/30
p77
sg11
I30
sg12
VE-X2001 Essential Credentials Future
p78
sg14
(lp79
Vhttp://www.beckett.com/basketball/1997-98/e-x2001-essential-credentials-future/51-joe-dumars30-3144637
p80
asg17
g18
sg19
(lp81
Vhttp://img.beckett.com/images/no-image.jpg
p82
asg22
V#51
p83
sg24
V1997-98
p84
sg26
g27
sg28
(lp85
VJoe Dumars
p86
assbag1
(g2
g3
Ntp87
Rp88
(dp89
g7
(dp90
g9
V1997-98 E-X2001 Essential Credentials Now #1 Grant Hill/1
p91
sg11
I1
sg12
VE-X2001 Essential Credentials Now
p92
sg14
(lp93
Vhttp://www.beckett.com/basketball/1997-98/e-x2001-essential-credentials-now/1-grant-hill1-3144674
p94
asg17
g18
sg19
(lp95
Vhttp://img.beckett.com/images/no-image.jpg
p96
asg22
V#1
p97
sg24
V1997-98
p98
sg26
g27
sg28
(lp99
VGrant Hill
p100
assbag1
(g2
g3
Ntp101
Rp102
(dp103
g7
(dp104
g9
V1997-98 E-X2001 Essential Credentials Now #45 Lindsey Hunter/45
p105
sg11
I45
sg12
VE-X2001 Essential Credentials Now
p106
sg14
(lp107
Vhttp://www.beckett.com/basketball/1997-98/e-x2001-essential-credentials-now/45-lindsey-hunter45-3144718
p108
asg17
g18
sg19
(lp109
Vhttp://img.beckett.com/images/no-image.jpg
p110
asg22
V#45
p111
sg24
V1997-98
p112
sg26
g27
sg28
(lp113
VLindsey Hunter
p114
assbag1
(g2
g3
Ntp115
Rp116
(dp117
g7
(dp118
g9
V1997-98 E-X2001 Essential Credentials Now #51 Joe Dumars/51
p119
sg11
I51
sg12
VE-X2001 Essential Credentials Now
p120
sg14
(lp121
Vhttp://www.beckett.com/basketball/1997-98/e-x2001-essential-credentials-now/51-joe-dumars51-3144724
p122
asg17
g18
sg19
(lp123
Vhttp://img.beckett.com/images/no-image.jpg
p124
asg22
V#51
p125
sg24
V1997-98
p126
sg26
g27
sg28
(lp127
VJoe Dumars
p128
assbag1
(g2
g3
Ntp129
Rp130
(dp131
g7
(dp132
g9
V1997-98 Finest Embossed Refractors #149 Grant Hill S
p133
sg11
I263
sg12
VFinest Embossed Refractors
p134
sg14
(lp135
Vhttp://www.beckett.com/basketball/1997-98/finest-embossed-refractors/149-grant-hill-s-3145357
p136
asg17
g18
sg19
(lp137
Vhttp://img.beckett.com/images/items_stock/185226/3145306/3145357/front.jpg
p138
asg22
V#149
p139
sg24
V1997-98
p140
sS'subsetName'
p141
VS
p142
sg26
g27
sg28
(lp143
VGrant Hill
p144
assbag1
(g2
g3
Ntp145
Rp146
(dp147
g7
(dp148
g9
V1997-98 Finest Embossed Refractors #308 Grant Hill G
p149
sg11
I74
sg12
VFinest Embossed Refractors
p150
sg14
(lp151
Vhttp://www.beckett.com/basketball/1997-98/finest-embossed-refractors/308-grant-hill-g-3145416
p152
asg17
g18
sg19
(lp153
Vhttp://img.beckett.com/images/no-image.jpg
p154
asg22
V#308
p155
sg24
V1997-98
p156
sg141
VG
p157
sg26
g27
sg28
(lp158
Vrant Hill
p159
assbag1
(g2
g3
Ntp160
Rp161
(dp162
g7
(dp163
g9
V1997-98 Finest Refractors #149 Grant Hill S
p164
sg11
I1090
sg12
VFinest Refractors
p165
sg14
(lp166
Vhttp://www.beckett.com/basketball/1997-98/finest-refractors/149-grant-hill-s-3145615
p167
asg17
g18
sg19
(lp168
Vhttp://img.beckett.com/images/items_stock/185226/3145435/3145615/front.jpg
p169
asg22
V#149
p170
sg24
V1997-98
p171
sg141
g142
sg26
g27
sg28
(lp172
VGrant Hill
p173
assbag1
(g2
g3
Ntp174
Rp175
(dp176
g7
(dp177
g9
V1997-98 Finest Refractors #308 Grant Hill G
p178
sg11
I289
sg12
VFinest Refractors
p179
sg14
(lp180
Vhttp://www.beckett.com/basketball/1997-98/finest-refractors/308-grant-hill-g-3145774
p181
asg17
g18
sg19
(lp182
Vhttp://img.beckett.com/images/items_stock/185226/3145435/3145774/front.jpg
p183
asg22
V#308
p184
sg24
V1997-98
p185
sg141
g157
sg26
g27
sg28
(lp186
Vrant Hill
p187
assbag1
(g2
g3
Ntp188
Rp189
(dp190
g7
(dp191
g9
V1997-98 Flair Showcase Row 0 #2 Grant Hill
p192
sg11
I250
sg12
VFlair Showcase Row 0
p193
sg14
(lp194
Vhttp://www.beckett.com/basketball/1997-98/flair-showcase-row-0/2-grant-hill-3146100
p195
asg17
g18
sg19
(lp196
Vhttp://img.beckett.com/images/no-image.jpg
p197
asg22
V#2
p198
sg24
V1997-98
p199
sg26
g27
sg28
(lp200
VGrant Hill
p201
assbag1
(g2
g3
Ntp202
Rp203
(dp204
g7
(dp205
g9
V1997-98 Flair Showcase Row 0 #63 Joe Dumars
p206
sg11
I2000
sg12
VFlair Showcase Row 0
p207
sg14
(lp208
Vhttp://www.beckett.com/basketball/1997-98/flair-showcase-row-0/63-joe-dumars-3146161
p209
asg17
g18
sg19
(lp210
Vhttp://img.beckett.com/images/items_stock/185226/3146075/3146161/front.jpg
p211
asg22
V#63
p212
sg24
V1997-98
p213
sg26
g27
sg28
(lp214
VJoe Dumars
p215
assbag1
(g2
g3
Ntp216
Rp217
(dp218
g7
(dp219
g9
V1997-98 Flair Showcase Legacy Collection Row 3 #2 Grant Hill
p220
sg11
I100
sg12
VFlair Showcase Legacy Collection Row 3
p221
sg14
(lp222
Vhttp://www.beckett.com/basketball/1997-98/flair-showcase-legacy-collection-row-3/2-grant-hill-3148560
p223
asg17
g18
sg19
(lp224
Vhttp://img.beckett.com/images/no-image.jpg
p225
asg22
V#2
p226
sg24
V1997-98
p227
sg26
g27
sg28
(lp228
VGrant Hill
p229
assbag1
(g2
g3
Ntp230
Rp231
(dp232
g7
(dp233
g9
V1997-98 Flair Showcase Legacy Collection Row 3 #63 Joe Dumars
p234
sg11
I100
sg12
VFlair Showcase Legacy Collection Row 3
p235
sg14
(lp236
Vhttp://www.beckett.com/basketball/1997-98/flair-showcase-legacy-collection-row-3/63-joe-dumars-3148621
p237
asg17
g18
sg19
(lp238
Vhttp://img.beckett.com/images/items_stock/185226/3148549/3148621/front.jpg
p239
asg22
V#63
p240
sg24
V1997-98
p241
sg26
g27
sg28
(lp242
VJoe Dumars
p243
assbag1
(g2
g3
Ntp244
Rp245
(dp246
g7
(dp247
g9
V1997-98 Metal Universe Precious Metal Gems #56 Joe Dumars
p248
sg11
I90
sg12
VMetal Universe Precious Metal Gems
p249
sg14
(lp250
Vhttp://www.beckett.com/basketball/1997-98/metal-universe-precious-metal-gems/56-joe-dumars-3142648
p251
asg17
g18
sg19
(lp252
Vhttp://img.beckett.com/images/no-image.jpg
p253
asg22
V#56
p254
sg24
V1997-98
p255
sg26
g27
sg28
(lp256
VJoe Dumars
p257
assbag1
(g2
g3
Ntp258
Rp259
(dp260
g7
(dp261
g9
V1997-98 Metal Universe Precious Metal Gems #64 Grant Hill
p262
sg11
I90
sg12
VMetal Universe Precious Metal Gems
p263
sg14
(lp264
Vhttp://www.beckett.com/basketball/1997-98/metal-universe-precious-metal-gems/64-grant-hill-3142656
p265
asg17
g18
sg19
(lp266
Vhttp://img.beckett.com/images/no-image.jpg
p267
asg22
V#64
p268
sg24
V1997-98
p269
sg26
g27
sg28
(lp270
VGrant Hill
p271
assbag1
(g2
g3
Ntp272
Rp273
(dp274
g7
(dp275
g9
V1997-98 Metal Universe Precious Metal Gems #71 Lindsey Hunter
p276
sg11
I90
sg12
VMetal Universe Precious Metal Gems
p277
sg14
(lp278
Vhttp://www.beckett.com/basketball/1997-98/metal-universe-precious-metal-gems/71-lindsey-hunter-3142663
p279
asg17
g18
sg19
(lp280
Vhttp://img.beckett.com/images/no-image.jpg
p281
asg22
V#71
p282
sg24
V1997-98
p283
sg26
g27
sg28
(lp284
VLindsey Hunter
p285
assbag1
(g2
g3
Ntp286
Rp287
(dp288
g7
(dp289
g9
V1997-98 Metal Universe Championship Precious Metal Gems #33 Grant Hill
p290
sg11
I50
sg12
VMetal Universe Championship Precious Metal Gems
p291
sg14
(lp292
Vhttp://www.beckett.com/basketball/1997-98/metal-universe-championship-precious-metal-gems/33-grant-hill-3140708
p293
asg17
g18
sg19
(lp294
Vhttp://img.beckett.com/images/no-image.jpg
p295
asg22
V#33
p296
sg24
V1997-98
p297
sg26
g27
sg28
(lp298
VGrant Hill
p299
assbag1
(g2
g3
Ntp300
Rp301
(dp302
g7
(dp303
g9
V1997-98 Metal Universe Championship Precious Metal Gems #90 Joe Dumars
p304
sg11
I50
sg12
VMetal Universe Championship Precious Metal Gems
p305
sg14
(lp306
Vhttp://www.beckett.com/basketball/1997-98/metal-universe-championship-precious-metal-gems/90-joe-dumars-3140765
p307
asg17
g18
sg19
(lp308
Vhttp://img.beckett.com/images/no-image.jpg
p309
asg22
V#90
p310
sg24
V1997-98
p311
sg26
g27
sg28
(lp312
VJoe Dumars
p313
assbag1
(g2
g3
Ntp314
Rp315
(dp316
g7
(dp317
g9
V1997-98 SkyBox Premium Star Rubies #1 Grant Hill
p318
sg11
I50
sg12
VSkyBox Premium Star Rubies
p319
sg14
(lp320
Vhttp://www.beckett.com/basketball/1997-98/skybox-premium-star-rubies/1-grant-hill-3141172
p321
asg17
g18
sg19
(lp322
Vhttp://img.beckett.com/images/no-image.jpg
p323
asg22
V#1
p324
sg24
V1997-98
p325
sg26
g27
sg28
(lp326
VGrant Hill
p327
assbag1
(g2
g3
Ntp328
Rp329
(dp330
g7
(dp331
g9
V1997-98 SkyBox Premium Star Rubies #49 Lindsey Hunter
p332
sg11
I50
sg12
VSkyBox Premium Star Rubies
p333
sg14
(lp334
Vhttp://www.beckett.com/basketball/1997-98/skybox-premium-star-rubies/49-lindsey-hunter-3141220
p335
asg17
g18
sg19
(lp336
Vhttp://img.beckett.com/images/no-image.jpg
p337
asg22
V#49
p338
sg24
V1997-98
p339
sg26
g27
sg28
(lp340
VLindsey Hunter
p341
assbag1
(g2
g3
Ntp342
Rp343
(dp344
g7
(dp345
g9
V1997-98 SkyBox Premium Star Rubies #64 Joe Dumars
p346
sg11
I50
sg12
VSkyBox Premium Star Rubies
p347
sg14
(lp348
Vhttp://www.beckett.com/basketball/1997-98/skybox-premium-star-rubies/64-joe-dumars-3141235
p349
asg17
g18
sg19
(lp350
Vhttp://img.beckett.com/images/no-image.jpg
p351
asg22
V#64
p352
sg24
V1997-98
p353
sg26
g27
sg28
(lp354
VJoe Dumars
p355
assbag1
(g2
g3
Ntp356
Rp357
(dp358
g7
(dp359
g9
V1997-98 SkyBox Premium Star Rubies #131 Charles O'Bannon
p360
sg11
I50
sg12
VSkyBox Premium Star Rubies
p361
sg14
(lp362
Vhttp://www.beckett.com/basketball/1997-98/skybox-premium-star-rubies/131-charles-obannon-3141300
p363
asg17
g18
sg19
(lp364
Vhttp://img.beckett.com/images/no-image.jpg
p365
asg22
V#131
p366
sg24
V1997-98
p367
sg26
g27
sg28
(lp368
VCharles O'Bannon
p369
assbag1
(g2
g3
Ntp370
Rp371
(dp372
g7
(dp373
g9
V1997-98 SkyBox Premium Star Rubies #185 Scot Pollard
p374
sg11
I50
sg12
VSkyBox Premium Star Rubies
p375
sg14
(lp376
Vhttp://www.beckett.com/basketball/1997-98/skybox-premium-star-rubies/185-scot-pollard-3141354
p377
asg17
g18
sg19
(lp378
Vhttp://img.beckett.com/images/no-image.jpg
p379
asg22
V#185
p380
sg24
V1997-98
p381
sg26
g27
sg28
(lp382
VScot Pollard
p383
assbag1
(g2
g3
Ntp384
Rp385
(dp386
g7
(dp387
g9
V1997-98 SkyBox Premium Star Rubies #232 Grant Hill TS
p388
sg11
I50
sg12
VSkyBox Premium Star Rubies
p389
sg14
(lp390
Vhttp://www.beckett.com/basketball/1997-98/skybox-premium-star-rubies/232-grant-hill-ts-3141401
p391
asg17
g18
sg19
(lp392
Vhttp://img.beckett.com/images/no-image.jpg
p393
asg22
V#232
p394
sg24
V1997-98
p395
sg141
VTS
p396
sg26
g27
sg28
(lp397
VGrant Hill
p398
assbag1
(g2
g3
Ntp399
Rp400
(dp401
g7
(dp402
g9
V1997-98 SkyBox Premium Star Rubies #249 Grant Hill CL
p403
sg11
I50
sg12
VSkyBox Premium Star Rubies
p404
sg14
(lp405
Vhttp://www.beckett.com/basketball/1997-98/skybox-premium-star-rubies/249-grant-hill-cl-3141418
p406
asg17
g18
sg19
(lp407
Vhttp://img.beckett.com/images/no-image.jpg
p408
asg22
V#249
p409
sg24
V1997-98
p410
sg141
VCL
p411
sg26
g27
sg28
(lp412
VGrant Hill
p413
assbag1
(g2
g3
Ntp414
Rp415
(dp416
g7
(dp417
g9
V1997-98 SkyBox Premium Autographics Century Marks #24 Randolph Childress
p418
sg11
I100
sg12
VSkyBox Premium Autographics Century Marks
p419
sg14
(lp420
Vhttp://www.beckett.com/basketball/1997-98/skybox-premium-autographics-century-marks/24-randolph-childress-3141606
p421
asg17
g18
sg19
(lp422
Vhttp://img.beckett.com/images/no-image.jpg
p423
asg22
V#24
p424
sS'autograph'
p425
I1
sg24
V1997-98
p426
sg26
g27
sg28
(lp427
VRandolph Childress
p428
assbag1
(g2
g3
Ntp429
Rp430
(dp431
g7
(dp432
g9
V1997-98 SkyBox Premium Autographics Century Marks #34 Joe Dumars
p433
sg11
I100
sg12
VSkyBox Premium Autographics Century Marks
p434
sg14
(lp435
Vhttp://www.beckett.com/basketball/1997-98/skybox-premium-autographics-century-marks/34-joe-dumars-3141616
p436
asg17
g18
sg19
(lp437
Vhttp://img.beckett.com/images/no-image.jpg
p438
asg22
V#34
p439
sg425
I1
sg24
V1997-98
p440
sg26
g27
sg28
(lp441
VJoe Dumars
p442
assbag1
(g2
g3
Ntp443
Rp444
(dp445
g7
(dp446
g9
V1997-98 SkyBox Premium Autographics Century Marks #48 Grant Hill
p447
sg11
I100
sg12
VSkyBox Premium Autographics Century Marks
p448
sg14
(lp449
Vhttp://www.beckett.com/basketball/1997-98/skybox-premium-autographics-century-marks/48-grant-hill-3141630
p450
asg17
g18
sg19
(lp451
Vhttp://img.beckett.com/images/no-image.jpg
p452
asg22
V#48
p453
sg425
I1
sg24
V1997-98
p454
sg26
g27
sg28
(lp455
VGrant Hill
p456
assbag1
(g2
g3
Ntp457
Rp458
(dp459
g7
(dp460
g9
V1997-98 SkyBox Premium Autographics Century Marks #52 Lindsey Hunter
p461
sg11
I100
sg12
VSkyBox Premium Autographics Century Marks
p462
sg14
(lp463
Vhttp://www.beckett.com/basketball/1997-98/skybox-premium-autographics-century-marks/52-lindsey-hunter-3141634
p464
asg17
g18
sg19
(lp465
Vhttp://img.beckett.com/images/no-image.jpg
p466
asg22
V#52
p467
sg425
I1
sg24
V1997-98
p468
sg26
g27
sg28
(lp469
VLindsey Hunter
p470
assbag1
(g2
g3
Ntp471
Rp472
(dp473
g7
(dp474
g9
V1997-98 SPx Grand Finale #13 Grant Hill
p475
sg11
I50
sg12
VSPx Grand Finale
p476
sg14
(lp477
Vhttp://www.beckett.com/basketball/1997-98/spx-grand-finale/13-grant-hill-3137697
p478
asg17
g18
sg19
(lp479
Vhttp://img.beckett.com/images/no-image.jpg
p480
asg22
V#13
p481
sg24
V1997-98
p482
sg26
g27
sg28
(lp483
VGrant Hill
p484
assbag1
(g2
g3
Ntp485
Rp486
(dp487
g7
(dp488
g9
V1997-98 SPx Grand Finale #14 Joe Dumars
p489
sg11
I50
sg12
VSPx Grand Finale
p490
sg14
(lp491
Vhttp://www.beckett.com/basketball/1997-98/spx-grand-finale/14-joe-dumars-3137698
p492
asg17
g18
sg19
(lp493
Vhttp://img.beckett.com/images/no-image.jpg
p494
asg22
V#14
p495
sg24
V1997-98
p496
sg26
g27
sg28
(lp497
VJoe Dumars
p498
assbag1
(g2
g3
Ntp499
Rp500
(dp501
g7
(dp502
g9
V1997-98 Stadium Club One Of A Kind #20 Lindsey Hunter
p503
sg11
I150
sg12
VStadium Club One Of A Kind
p504
sg14
(lp505
Vhttp://www.beckett.com/basketball/1997-98/stadium-club-one-of-a-kind/20-lindsey-hunter-3138319
p506
asg17
g18
sg19
(lp507
Vhttp://img.beckett.com/images/no-image.jpg
p508
asg22
V#20
p509
sg24
V1997-98
p510
sg26
g27
sg28
(lp511
VLindsey Hunter
p512
assbag1
(g2
g3
Ntp513
Rp514
(dp515
g7
(dp516
g9
V1997-98 Stadium Club One Of A Kind #116 Aaron McKie
p517
sg11
I150
sg12
VStadium Club One Of A Kind
p518
sg14
(lp519
Vhttp://www.beckett.com/basketball/1997-98/stadium-club-one-of-a-kind/116-aaron-mckie-3138415
p520
asg17
g18
sg19
(lp521
Vhttp://img.beckett.com/images/items_stock/185226/3138288/3138415/front.jpg
p522
asg22
V#116
p523
sg24
V1997-98
p524
sg26
g27
sg28
(lp525
VAaron McKie
p526
assbag1
(g2
g3
Ntp527
Rp528
(dp529
g7
(dp530
g9
V1997-98 Stadium Club One Of A Kind #132 Joe Dumars
p531
sg11
I150
sg12
VStadium Club One Of A Kind
p532
sg14
(lp533
Vhttp://www.beckett.com/basketball/1997-98/stadium-club-one-of-a-kind/132-joe-dumars-3138431
p534
asg17
g18
sg19
(lp535
Vhttp://img.beckett.com/images/no-image.jpg
p536
asg22
V#132
p537
sg24
V1997-98
p538
sg26
g27
sg28
(lp539
VJoe Dumars
p540
assbag1
(g2
g3
Ntp541
Rp542
(dp543
g7
(dp544
g9
V1997-98 Stadium Club One Of A Kind #145 Grant Hill
p545
sg11
I150
sg12
VStadium Club One Of A Kind
p546
sg14
(lp547
Vhttp://www.beckett.com/basketball/1997-98/stadium-club-one-of-a-kind/145-grant-hill-3138444
p548
asg17
g18
sg19
(lp549
Vhttp://img.beckett.com/images/items_stock/185226/3138288/3138444/front.jpg
p550
asg22
V#145
p551
sg24
V1997-98
p552
sg26
g27
sg28
(lp553
VGrant Hill
p554
assbag1
(g2
g3
Ntp555
Rp556
(dp557
g7
(dp558
g9
V1997-98 Stadium Club One Of A Kind #228 Scot Pollard
p559
sg11
I150
sg12
VStadium Club One Of A Kind
p560
sg14
(lp561
Vhttp://www.beckett.com/basketball/1997-98/stadium-club-one-of-a-kind/228-scot-pollard-3138527
p562
asg17
g18
sg19
(lp563
Vhttp://img.beckett.com/images/no-image.jpg
p564
asg22
V#228
p565
sg24
V1997-98
p566
sg26
g27
sg28
(lp567
VScot Pollard
p568
assbag1
(g2
g3
Ntp569
Rp570
(dp571
g7
(dp572
g9
V1997-98 Stadium Club Printing Plates #20 Lindsey Hunter Black
p573
sg11
I1
sg12
VStadium Club Printing Plates
p574
sg14
(lp575
Vhttp://www.beckett.com/basketball/1997-98/stadium-club-printing-plates/20-lindsey-hunter-black-3138621
p576
asg17
g18
sg19
(lp577
Vhttp://img.beckett.com/images/no-image.jpg
p578
asg22
V#20
p579
sg24
V1997-98
p580
sg26
g27
sg28
(lp581
VLindsey Hunter Black
p582
assbag1
(g2
g3
Ntp583
Rp584
(dp585
g7
(dp586
g9
V1997-98 Stadium Club Printing Plates #20A Lindsey Hunter Cyan
p587
sg11
I1
sg12
VStadium Club Printing Plates
p588
sg14
(lp589
Vhttp://www.beckett.com/basketball/1997-98/stadium-club-printing-plates/20a-lindsey-hunter-cyan-3138622
p590
asg17
g18
sg19
(lp591
Vhttp://img.beckett.com/images/no-image.jpg
p592
asg22
V#20A
p593
sg24
V1997-98
p594
sg26
g27
sg28
(lp595
VLindsey Hunter Cyan
p596
assbag1
(g2
g3
Ntp597
Rp598
(dp599
g7
(dp600
g9
V1997-98 Stadium Club Printing Plates #20B Lindsey Hunter Magenta
p601
sg11
I1
sg12
VStadium Club Printing Plates
p602
sg14
(lp603
Vhttp://www.beckett.com/basketball/1997-98/stadium-club-printing-plates/20b-lindsey-hunter-magenta-3138623
p604
asg17
g18
sg19
(lp605
Vhttp://img.beckett.com/images/no-image.jpg
p606
asg22
V#20B
p607
sg24
V1997-98
p608
sg26
g27
sg28
(lp609
VLindsey Hunter Magenta
p610
assbag1
(g2
g3
Ntp611
Rp612
(dp613
g7
(dp614
g9
V1997-98 Stadium Club Printing Plates #20C Lindsey Hunter Yellow
p615
sg11
I1
sg12
VStadium Club Printing Plates
p616
sg14
(lp617
Vhttp://www.beckett.com/basketball/1997-98/stadium-club-printing-plates/20c-lindsey-hunter-yellow-3138624
p618
asg17
g18
sg19
(lp619
Vhttp://img.beckett.com/images/no-image.jpg
p620
asg22
V#20C
p621
sg24
V1997-98
p622
sg26
g27
sg28
(lp623
VLindsey Hunter Yellow
p624
assbag1
(g2
g3
Ntp625
Rp626
(dp627
g7
(dp628
g9
V1997-98 Stadium Club Printing Plates #116 Aaron McKie Black
p629
sg11
I1
sg12
VStadium Club Printing Plates
p630
sg14
(lp631
Vhttp://www.beckett.com/basketball/1997-98/stadium-club-printing-plates/116-aaron-mckie-black-3139005
p632
asg17
g18
sg19
(lp633
Vhttp://img.beckett.com/images/no-image.jpg
p634
asg22
V#116
p635
sg24
V1997-98
p636
sg26
g27
sg28
(lp637
VAaron McKie Black
p638
assbag1
(g2
g3
Ntp639
Rp640
(dp641
g7
(dp642
g9
V1997-98 Stadium Club Printing Plates #116A Aaron McKie Cyan
p643
sg11
I1
sg12
VStadium Club Printing Plates
p644
sg14
(lp645
Vhttp://www.beckett.com/basketball/1997-98/stadium-club-printing-plates/116a-aaron-mckie-cyan-3139006
p646
asg17
g18
sg19
(lp647
Vhttp://img.beckett.com/images/no-image.jpg
p648
asg22
V#116A
p649
sg24
V1997-98
p650
sg26
g27
sg28
(lp651
VAaron McKie Cyan
p652
assbag1
(g2
g3
Ntp653
Rp654
(dp655
g7
(dp656
g9
V1997-98 Stadium Club Printing Plates #116B Aaron McKie Magenta
p657
sg11
I1
sg12
VStadium Club Printing Plates
p658
sg14
(lp659
Vhttp://www.beckett.com/basketball/1997-98/stadium-club-printing-plates/116b-aaron-mckie-magenta-3139007
p660
asg17
g18
sg19
(lp661
Vhttp://img.beckett.com/images/no-image.jpg
p662
asg22
V#116B
p663
sg24
V1997-98
p664
sg26
g27
sg28
(lp665
VAaron McKie Magenta
p666
assbag1
(g2
g3
Ntp667
Rp668
(dp669
g7
(dp670
g9
V1997-98 Stadium Club Printing Plates #116C Aaron McKie Yellow
p671
sg11
I1
sg12
VStadium Club Printing Plates
p672
sg14
(lp673
Vhttp://www.beckett.com/basketball/1997-98/stadium-club-printing-plates/116c-aaron-mckie-yellow-3139008
p674
asg17
g18
sg19
(lp675
Vhttp://img.beckett.com/images/no-image.jpg
p676
asg22
V#116C
p677
sg24
V1997-98
p678
sg26
g27
sg28
(lp679
VAaron McKie Yellow
p680
assbag1
(g2
g3
Ntp681
Rp682
(dp683
g7
(dp684
g9
V1997-98 Stadium Club Printing Plates #132 Joe Dumars Black
p685
sg11
I1
sg12
VStadium Club Printing Plates
p686
sg14
(lp687
Vhttp://www.beckett.com/basketball/1997-98/stadium-club-printing-plates/132-joe-dumars-black-3139069
p688
asg17
g18
sg19
(lp689
Vhttp://img.beckett.com/images/no-image.jpg
p690
asg22
V#132
p691
sg24
V1997-98
p692
sg26
g27
sg28
(lp693
VJoe Dumars Black
p694
assbag1
(g2
g3
Ntp695
Rp696
(dp697
g7
(dp698
g9
V1997-98 Stadium Club Printing Plates #132A Joe Dumars Cyan
p699
sg11
I1
sg12
VStadium Club Printing Plates
p700
sg14
(lp701
Vhttp://www.beckett.com/basketball/1997-98/stadium-club-printing-plates/132a-joe-dumars-cyan-3139070
p702
asg17
g18
sg19
(lp703
Vhttp://img.beckett.com/images/no-image.jpg
p704
asg22
V#132A
p705
sg24
V1997-98
p706
sg26
g27
sg28
(lp707
VJoe Dumars Cyan
p708
assbag1
(g2
g3
Ntp709
Rp710
(dp711
g7
(dp712
g9
V1997-98 Stadium Club Printing Plates #132B Joe Dumars Magenta
p713
sg11
I1
sg12
VStadium Club Printing Plates
p714
sg14
(lp715
Vhttp://www.beckett.com/basketball/1997-98/stadium-club-printing-plates/132b-joe-dumars-magenta-3139071
p716
asg17
g18
sg19
(lp717
Vhttp://img.beckett.com/images/no-image.jpg
p718
asg22
V#132B
p719
sg24
V1997-98
p720
sg26
g27
sg28
(lp721
VJoe Dumars Magenta
p722
assbag1
(g2
g3
Ntp723
Rp724
(dp725
g7
(dp726
g9
V1997-98 Stadium Club Printing Plates #132C Joe Dumars Yellow
p727
sg11
I1
sg12
VStadium Club Printing Plates
p728
sg14
(lp729
Vhttp://www.beckett.com/basketball/1997-98/stadium-club-printing-plates/132c-joe-dumars-yellow-3139072
p730
asg17
g18
sg19
(lp731
Vhttp://img.beckett.com/images/no-image.jpg
p732
asg22
V#132C
p733
sg24
V1997-98
p734
sg26
g27
sg28
(lp735
VJoe Dumars Yellow
p736
assbag1
(g2
g3
Ntp737
Rp738
(dp739
g7
(dp740
g9
V1997-98 Stadium Club Printing Plates #145 Grant Hill Black
p741
sg11
I1
sg12
VStadium Club Printing Plates
p742
sg14
(lp743
Vhttp://www.beckett.com/basketball/1997-98/stadium-club-printing-plates/145-grant-hill-black-3139121
p744
asg17
g18
sg19
(lp745
Vhttp://img.beckett.com/images/no-image.jpg
p746
asg22
V#145
p747
sg24
V1997-98
p748
sg26
g27
sg28
(lp749
VGrant Hill Black
p750
assbag1
(g2
g3
Ntp751
Rp752
(dp753
g7
(dp754
g9
V1997-98 Stadium Club Printing Plates #145A Grant Hill Cyan
p755
sg11
I1
sg12
VStadium Club Printing Plates
p756
sg14
(lp757
Vhttp://www.beckett.com/basketball/1997-98/stadium-club-printing-plates/145a-grant-hill-cyan-3139122
p758
asg17
g18
sg19
(lp759
Vhttp://img.beckett.com/images/no-image.jpg
p760
asg22
V#145A
p761
sg24
V1997-98
p762
sg26
g27
sg28
(lp763
VGrant Hill Cyan
p764
assbag1
(g2
g3
Ntp765
Rp766
(dp767
g7
(dp768
g9
V1997-98 Stadium Club Printing Plates #145B Grant Hill Magenta
p769
sg11
I1
sg12
VStadium Club Printing Plates
p770
sg14
(lp771
Vhttp://www.beckett.com/basketball/1997-98/stadium-club-printing-plates/145b-grant-hill-magenta-3139123
p772
asg17
g18
sg19
(lp773
Vhttp://img.beckett.com/images/no-image.jpg
p774
asg22
V#145B
p775
sg24
V1997-98
p776
sg26
g27
sg28
(lp777
VGrant Hill Magenta
p778
assbag1
(g2
g3
Ntp779
Rp780
(dp781
g7
(dp782
g9
V1997-98 Stadium Club Printing Plates #145C Grant Hill Yellow
p783
sg11
I1
sg12
VStadium Club Printing Plates
p784
sg14
(lp785
Vhttp://www.beckett.com/basketball/1997-98/stadium-club-printing-plates/145c-grant-hill-yellow-3139124
p786
asg17
g18
sg19
(lp787
Vhttp://img.beckett.com/images/no-image.jpg
p788
asg22
V#145C
p789
sg24
V1997-98
p790
sg26
g27
sg28
(lp791
VGrant Hill Yellow
p792
assbag1
(g2
g3
Ntp793
Rp794
(dp795
g7
(dp796
g9
V1997-98 Stadium Club Printing Plates #228 Scot Pollard Black
p797
sg11
I1
sg12
VStadium Club Printing Plates
p798
sg14
(lp799
Vhttp://www.beckett.com/basketball/1997-98/stadium-club-printing-plates/228-scot-pollard-black-3139453
p800
asg17
g18
sg19
(lp801
Vhttp://img.beckett.com/images/no-image.jpg
p802
asg22
V#228
p803
sg24
V1997-98
p804
sg26
g27
sg28
(lp805
VScot Pollard Black
p806
assbag1
(g2
g3
Ntp807
Rp808
(dp809
g7
(dp810
g9
V1997-98 Stadium Club Printing Plates #228A Scot Pollard Cyan
p811
sg11
I1
sg12
VStadium Club Printing Plates
p812
sg14
(lp813
Vhttp://www.beckett.com/basketball/1997-98/stadium-club-printing-plates/228a-scot-pollard-cyan-3139454
p814
asg17
g18
sg19
(lp815
Vhttp://img.beckett.com/images/no-image.jpg
p816
asg22
V#228A
p817
sg24
V1997-98
p818
sg26
g27
sg28
(lp819
VScot Pollard Cyan
p820
assbag1
(g2
g3
Ntp821
Rp822
(dp823
g7
(dp824
g9
V1997-98 Stadium Club Printing Plates #228B Scot Pollard Magenta
p825
sg11
I1
sg12
VStadium Club Printing Plates
p826
sg14
(lp827
Vhttp://www.beckett.com/basketball/1997-98/stadium-club-printing-plates/228b-scot-pollard-magenta-3139455
p828
asg17
g18
sg19
(lp829
Vhttp://img.beckett.com/images/no-image.jpg
p830
asg22
V#228B
p831
sg24
V1997-98
p832
sg26
g27
sg28
(lp833
VScot Pollard Magenta
p834
assbag1
(g2
g3
Ntp835
Rp836
(dp837
g7
(dp838
g9
V1997-98 Stadium Club Printing Plates #228C Scot Pollard Yellow
p839
sg11
I1
sg12
VStadium Club Printing Plates
p840
sg14
(lp841
Vhttp://www.beckett.com/basketball/1997-98/stadium-club-printing-plates/228c-scot-pollard-yellow-3139456
p842
asg17
g18
sg19
(lp843
Vhttp://img.beckett.com/images/no-image.jpg
p844
asg22
V#228C
p845
sg24
V1997-98
p846
sg26
g27
sg28
(lp847
VScot Pollard Yellow
p848
assbag1
(g2
g3
Ntp849
Rp850
(dp851
g7
(dp852
g9
V1997-98 Ultra Masterpieces #3 Joe Dumars
p853
sg11
I1
sg12
VUltra Masterpieces
p854
sg14
(lp855
Vhttp://www.beckett.com/basketball/1997-98/ultra-masterpieces/3-joe-dumars-3135733
p856
asg17
g18
sg19
(lp857
Vhttp://img.beckett.com/images/no-image.jpg
p858
asg22
V#3
p859
sg24
V1997-98
p860
sg26
g27
sg28
(lp861
VJoe Dumars
p862
assbag1
(g2
g3
Ntp863
Rp864
(dp865
g7
(dp866
g9
V1997-98 Ultra Masterpieces #33 Grant Hill
p867
sg11
I1
sg12
VUltra Masterpieces
p868
sg14
(lp869
Vhttp://www.beckett.com/basketball/1997-98/ultra-masterpieces/33-grant-hill-3135763
p870
asg17
g18
sg19
(lp871
Vhttp://img.beckett.com/images/no-image.jpg
p872
asg22
V#33
p873
sg24
V1997-98
p874
sg26
g27
sg28
(lp875
VGrant Hill
p876
assbag1
(g2
g3
Ntp877
Rp878
(dp879
g7
(dp880
g9
V1997-98 Ultra Masterpieces #113 Lindsey Hunter
p881
sg11
I1
sg12
VUltra Masterpieces
p882
sg14
(lp883
Vhttp://www.beckett.com/basketball/1997-98/ultra-masterpieces/113-lindsey-hunter-3135843
p884
asg17
g18
sg19
(lp885
Vhttp://img.beckett.com/images/no-image.jpg
p886
asg22
V#113
p887
sg24
V1997-98
p888
sg26
g27
sg28
(lp889
VLindsey Hunter
p890
assbag1
(g2
g3
Ntp891
Rp892
(dp893
g7
(dp894
g9
V1997-98 Ultra Masterpieces #141 Scot Pollard
p895
sg11
I1
sg12
VUltra Masterpieces
p896
sg14
(lp897
Vhttp://www.beckett.com/basketball/1997-98/ultra-masterpieces/141-scot-pollard-3135871
p898
asg17
g18
sg19
(lp899
Vhttp://img.beckett.com/images/no-image.jpg
p900
asg22
V#141
p901
sg24
V1997-98
p902
sg26
g27
sg28
(lp903
VScot Pollard
p904
assbag1
(g2
g3
Ntp905
Rp906
(dp907
g7
(dp908
g9
V1997-98 Ultra Masterpieces #161 Charles O'Bannon
p909
sg11
I1
sg12
VUltra Masterpieces
p910
sg14
(lp911
Vhttp://www.beckett.com/basketball/1997-98/ultra-masterpieces/161-charles-obannon-3135889
p912
asg17
g18
sg19
(lp913
Vhttp://img.beckett.com/images/no-image.jpg
p914
asg22
V#161
p915
sg24
V1997-98
p916
sg26
g27
sg28
(lp917
VCharles O'Bannon
p918
assbag1
(g2
g3
Ntp919
Rp920
(dp921
g7
(dp922
g9
V1997-98 Ultra Masterpieces #256 Grant Hill GRE
p923
sg11
I1
sg12
VUltra Masterpieces
p924
sg14
(lp925
Vhttp://www.beckett.com/basketball/1997-98/ultra-masterpieces/256-grant-hill-gre-3135984
p926
asg17
g18
sg19
(lp927
Vhttp://img.beckett.com/images/no-image.jpg
p928
asg22
V#256
p929
sg24
V1997-98
p930
sg141
VGRE
p931
sg26
g27
sg28
(lp932
VGrant Hill
p933
assbag1
(g2
g3
Ntp934
Rp935
(dp936
g7
(dp937
g9
V1997-98 Ultra Platinum Medallion #3 Joe Dumars
p938
sg11
I100
sg12
VUltra Platinum Medallion
p939
sg14
(lp940
Vhttp://www.beckett.com/basketball/1997-98/ultra-platinum-medallion/3-joe-dumars-3136017
p941
asg17
g18
sg19
(lp942
Vhttp://img.beckett.com/images/no-image.jpg
p943
asg22
V#3
p944
sg24
V1997-98
p945
sg26
g27
sg28
(lp946
VJoe Dumars
p947
assbag1
(g2
g3
Ntp948
Rp949
(dp950
g7
(dp951
g9
V1997-98 Ultra Platinum Medallion #33 Grant Hill
p952
sg11
I100
sg12
VUltra Platinum Medallion
p953
sg14
(lp954
Vhttp://www.beckett.com/basketball/1997-98/ultra-platinum-medallion/33-grant-hill-3136047
p955
asg17
g18
sg19
(lp956
Vhttp://img.beckett.com/images/no-image.jpg
p957
asg22
V#33
p958
sg24
V1997-98
p959
sg26
g27
sg28
(lp960
VGrant Hill
p961
assbag1
(g2
g3
Ntp962
Rp963
(dp964
g7
(dp965
g9
V1997-98 Ultra Platinum Medallion #113 Lindsey Hunter
p966
sg11
I100
sg12
VUltra Platinum Medallion
p967
sg14
(lp968
Vhttp://www.beckett.com/basketball/1997-98/ultra-platinum-medallion/113-lindsey-hunter-3136127
p969
asg17
g18
sg19
(lp970
Vhttp://img.beckett.com/images/items_stock/185226/3136002/3136127/front.jpg
p971
asg22
V#113
p972
sg24
V1997-98
p973
sg26
g27
sg28
(lp974
VLindsey Hunter
p975
assbag1
(g2
g3
Ntp976
Rp977
(dp978
g7
(dp979
g9
V1997-98 Ultra Platinum Medallion #141 Scot Pollard
p980
sg11
I100
sg12
VUltra Platinum Medallion
p981
sg14
(lp982
Vhttp://www.beckett.com/basketball/1997-98/ultra-platinum-medallion/141-scot-pollard-3136155
p983
asg17
g18
sg19
(lp984
Vhttp://img.beckett.com/images/no-image.jpg
p985
asg22
V#141
p986
sg24
V1997-98
p987
sg26
g27
sg28
(lp988
VScot Pollard
p989
assbag1
(g2
g3
Ntp990
Rp991
(dp992
g7
(dp993
g9
V1997-98 Ultra Platinum Medallion #161 Charles O'Bannon
p994
sg11
I100
sg12
VUltra Platinum Medallion
p995
sg14
(lp996
Vhttp://www.beckett.com/basketball/1997-98/ultra-platinum-medallion/161-charles-obannon-3136173
p997
asg17
g18
sg19
(lp998
Vhttp://img.beckett.com/images/no-image.jpg
p999
asg22
V#161
p1000
sg24
V1997-98
p1001
sg26
g27
sg28
(lp1002
VCharles O'Bannon
p1003
assbag1
(g2
g3
Ntp1004
Rp1005
(dp1006
g7
(dp1007
g9
V1997-98 Ultra Platinum Medallion #256 Grant Hill GRE
p1008
sg11
I100
sg12
VUltra Platinum Medallion
p1009
sg14
(lp1010
Vhttp://www.beckett.com/basketball/1997-98/ultra-platinum-medallion/256-grant-hill-gre-3136268
p1011
asg17
g18
sg19
(lp1012
Vhttp://img.beckett.com/images/no-image.jpg
p1013
asg22
V#256
p1014
sg24
V1997-98
p1015
sg141
VGRE
p1016
sg26
g27
sg28
(lp1017
VGrant Hill
p1018
assbag1
(g2
g3
Ntp1019
Rp1020
(dp1021
g7
(dp1022
g9
V1997-98 Z-Force Rave #33 Grant Hill
p1023
sg11
I399
sg12
VZ-Force Rave
p1024
sg14
(lp1025
Vhttp://www.beckett.com/basketball/1997-98/z-force-rave/33-grant-hill-3133057
p1026
asg17
g18
sg19
(lp1027
Vhttp://img.beckett.com/images/items_stock/185226/3133012/3133057/front.jpg
p1028
asg22
V#33
p1029
sg24
V1997-98
p1030
sg26
g27
sg28
(lp1031
VGrant Hill
p1032
assbag1
(g2
g3
Ntp1033
Rp1034
(dp1035
g7
(dp1036
g9
V1997-98 Z-Force Rave #74 Joe Dumars
p1037
sg11
I399
sg12
VZ-Force Rave
p1038
sg14
(lp1039
Vhttp://www.beckett.com/basketball/1997-98/z-force-rave/74-joe-dumars-3133098
p1040
asg17
g18
sg19
(lp1041
Vhttp://img.beckett.com/images/items_stock/185226/3133012/3133098/front.jpg
p1042
asg22
V#74
p1043
sg24
V1997-98
p1044
sg26
g27
sg28
(lp1045
VJoe Dumars
p1046
assbag1
(g2
g3
Ntp1047
Rp1048
(dp1049
g7
(dp1050
g9
V1997-98 Z-Force Rave #96 Lindsey Hunter
p1051
sg11
I399
sg12
VZ-Force Rave
p1052
sg14
(lp1053
Vhttp://www.beckett.com/basketball/1997-98/z-force-rave/96-lindsey-hunter-3133120
p1054
asg17
g18
sg19
(lp1055
Vhttp://img.beckett.com/images/items_stock/185226/3133012/3133120/front.jpg
p1056
asg22
V#96
p1057
sg24
V1997-98
p1058
sg26
g27
sg28
(lp1059
VLindsey Hunter
p1060
assbag1
(g2
g3
Ntp1061
Rp1062
(dp1063
g7
(dp1064
g9
V1997-98 Z-Force Rave #166 Scot Pollard
p1065
sg11
I399
sg12
VZ-Force Rave
p1066
sg14
(lp1067
Vhttp://www.beckett.com/basketball/1997-98/z-force-rave/166-scot-pollard-3133188
p1068
asg17
g18
sg19
(lp1069
Vhttp://img.beckett.com/images/no-image.jpg
p1070
asg22
V#166
p1071
sg24
V1997-98
p1072
sg26
g27
sg28
(lp1073
VScot Pollard
p1074
assbag1
(g2
g3
Ntp1075
Rp1076
(dp1077
g7
(dp1078
g9
V1997-98 Z-Force Rave #193 Grant Hill ZUP
p1079
sg11
I399
sg12
VZ-Force Rave
p1080
sg14
(lp1081
Vhttp://www.beckett.com/basketball/1997-98/z-force-rave/193-grant-hill-zup-3133216
p1082
asg17
g18
sg19
(lp1083
Vhttp://img.beckett.com/images/no-image.jpg
p1084
asg22
V#193
p1085
sg24
V1997-98
p1086
sg141
VZUP
p1087
sg26
g27
sg28
(lp1088
VGrant Hill
p1089
assbag1
(g2
g3
Ntp1090
Rp1091
(dp1092
g7
(dp1093
g9
V1997-98 Z-Force Super Rave #166 Scot Pollard
p1094
sg11
I50
sg12
VZ-Force Super Rave
p1095
sg14
(lp1096
Vhttp://www.beckett.com/basketball/1997-98/z-force-super-rave/166-scot-pollard-3133300
p1097
asg17
g18
sg19
(lp1098
Vhttp://img.beckett.com/images/no-image.jpg
p1099
asg22
V#166
p1100
sg24
V1997-98
p1101
sg26
g27
sg28
(lp1102
VScot Pollard
p1103
assbag1
(g2
g3
Ntp1104
Rp1105
(dp1106
g7
(dp1107
g9
V1997-98 Z-Force Super Rave #193 Grant Hill ZUP
p1108
sg11
I50
sg12
VZ-Force Super Rave
p1109
sg14
(lp1110
Vhttp://www.beckett.com/basketball/1997-98/z-force-super-rave/193-grant-hill-zup-3133328
p1111
asg17
g18
sg19
(lp1112
Vhttp://img.beckett.com/images/no-image.jpg
p1113
asg22
V#193
p1114
sg24
V1997-98
p1115
sg141
VZUP
p1116
sg26
g27
sg28
(lp1117
VGrant Hill
p1118
assbag1
(g2
g3
Ntp1119
Rp1120
(dp1121
g7
(dp1122
g9
V1997-98 Upper Deck Great Eight #G3 Joe Dumars
p1123
sg11
I800
sg12
VUpper Deck Great Eight
p1124
sg14
(lp1125
Vhttp://www.beckett.com/basketball/1997-98/upper-deck-great-eight/g3-joe-dumars-3132409
p1126
asg17
g18
sg19
(lp1127
Vhttp://img.beckett.com/images/items_stock/185226/3132399/3132409/front.jpg
p1128
asg22
V#G3
p1129
sg24
V1997-98
p1130
sg26
g27
sg28
(lp1131
VJoe Dumars
p1132
assbag1
(g2
g3
Ntp1133
Rp1134
(dp1135
g7
(dp1136
g9
V1997-98 Hoops High Voltage 500 #HV5 Grant Hill
p1137
sg11
I500
sg12
VHoops High Voltage 500
p1138
sg14
(lp1139
Vhttp://www.beckett.com/basketball/1997-98/hoops-high-voltage-500/hv5-grant-hill-3142294
p1140
asg17
g18
sg19
(lp1141
Vhttp://img.beckett.com/images/no-image.jpg
p1142
asg22
V#HV5
p1143
sg24
V1997-98
p1144
sg26
g27
sg28
(lp1145
VGrant Hill
p1146
assbag1
(g2
g3
Ntp1147
Rp1148
(dp1149
g7
(dp1150
g9
V1997-98 Metal Universe Precious Metal Gems Emerald #56 Joe Dumars
p1151
sg11
I10
sg12
VMetal Universe Precious Metal Gems Emerald
p1152
sg14
(lp1153
Vhttp://www.beckett.com/basketball/1997-98/metal-universe-precious-metal-gems-emerald/56-joe-dumars-7055505
p1154
asg17
g18
sg19
(lp1155
Vhttp://img.beckett.com/images/no-image.jpg
p1156
asg22
V#56
p1157
sg24
V1997-98
p1158
sg26
g27
sg28
(lp1159
VJoe Dumars
p1160
assbag1
(g2
g3
Ntp1161
Rp1162
(dp1163
g7
(dp1164
g9
V1997-98 Metal Universe Precious Metal Gems Emerald #64 Grant Hill
p1165
sg11
I10
sg12
VMetal Universe Precious Metal Gems Emerald
p1166
sg14
(lp1167
Vhttp://www.beckett.com/basketball/1997-98/metal-universe-precious-metal-gems-emerald/64-grant-hill-7055513
p1168
asg17
g18
sg19
(lp1169
Vhttp://img.beckett.com/images/no-image.jpg
p1170
asg22
V#64
p1171
sg24
V1997-98
p1172
sg26
g27
sg28
(lp1173
VGrant Hill
p1174
assbag1
(g2
g3
Ntp1175
Rp1176
(dp1177
g7
(dp1178
g9
V1997-98 Metal Universe Precious Metal Gems Emerald #71 Lindsey Hunter
p1179
sg11
I10
sg12
VMetal Universe Precious Metal Gems Emerald
p1180
sg14
(lp1181
Vhttp://www.beckett.com/basketball/1997-98/metal-universe-precious-metal-gems-emerald/71-lindsey-hunter-7055520
p1182
asg17
g18
sg19
(lp1183
Vhttp://img.beckett.com/images/no-image.jpg
p1184
asg22
V#71
p1185
sg24
V1997-98
p1186
sg26
g27
sg28
(lp1187
VLindsey Hunter
p1188
assbag1
(g2
g3
Ntp1189
Rp1190
(dp1191
g7
(dp1192
g9
V1997-98 SP Authentic Profiles 3 #P25 Grant Hill
p1193
sg11
I100
sg12
VSP Authentic Profiles 3
p1194
sg14
(lp1195
Vhttp://www.beckett.com/basketball/1997-98/sp-authentic-profiles-3/p25-grant-hill-3140306
p1196
asg17
g18
sg19
(lp1197
Vhttp://img.beckett.com/images/no-image.jpg
p1198
asg22
V#P25
p1199
sg24
V1997-98
p1200
sg26
g27
sg28
(lp1201
VGrant Hill
p1202
assba.