(lp0
Naccopy_reg
_reconstructor
p1
(ctutorial.items
BeckettItem
p2
c__builtin__
object
p3
Ntp4
Rp5
(dp6
S'_values'
p7
(dp8
S'originalItemDescription'
p9
V1997 Bleachers/Fleer Gold Promos #2 Grant Hill
p10
sS'serialNumber'
p11
I10000
sS'setName'
p12
VBleachers/Fleer Gold Promos
p13
sS'beckettLink'
p14
(lp15
Vhttp://www.beckett.com/basketball/1997/bleachersfleer-gold-promos/2-grant-hill-3129503
p16
asS'team'
p17
S'Detroit Pistons'
p18
sS'imageLink'
p19
(lp20
Vhttp://img.beckett.com/images/no-image.jpg
p21
asS'cardNumber'
p22
V#2
p23
sS'year'
p24
V1997
p25
sS'sport'
p26
S'Basketball'
p27
sS'playerNames'
p28
(lp29
VGrant Hill
p30
assbag1
(g2
g3
Ntp31
Rp32
(dp33
g7
(dp34
g9
V1997 Bleachers/Fleer Gold #5 Grant Hill 1994-95
p35
sg11
I10000
sg12
VBleachers/Fleer Gold
p36
sg14
(lp37
Vhttp://www.beckett.com/basketball/1997/bleachersfleer-gold/5-grant-hill-1994-95-3129461
p38
asg17
g18
sg19
(lp39
Vhttp://img.beckett.com/images/no-image.jpg
p40
asg22
V#5
p41
sg24
V1997
p42
sg26
g27
sg28
(lp43
VGrant Hill
p44
assbag1
(g2
g3
Ntp45
Rp46
(dp47
g7
(dp48
g9
V1997-98 E-X2001 Essential Credentials Future #1 Grant Hill/80
p49
sg11
I80
sg12
VE-X2001 Essential Credentials Future
p50
sg14
(lp51
Vhttp://www.beckett.com/basketball/1997-98/e-x2001-essential-credentials-future/1-grant-hill80-3144587
p52
asg17
g18
sg19
(lp53
Vhttp://img.beckett.com/images/no-image.jpg
p54
asg22
V#1
p55
sg24
V1997-98
p56
sg26
g27
sg28
(lp57
VGrant Hill
p58
assbag1
(g2
g3
Ntp59
Rp60
(dp61
g7
(dp62
g9
V1997-98 E-X2001 Essential Credentials Future #45 Lindsey Hunter/36
p63
sg11
I36
sg12
VE-X2001 Essential Credentials Future
p64
sg14
(lp65
Vhttp://www.beckett.com/basketball/1997-98/e-x2001-essential-credentials-future/45-lindsey-hunter36-3144631
p66
asg17
g18
sg19
(lp67
Vhttp://img.beckett.com/images/no-image.jpg
p68
asg22
V#45
p69
sg24
V1997-98
p70
sg26
g27
sg28
(lp71
VLindsey Hunter
p72
assbag1
(g2
g3
Ntp73
Rp74
(dp75
g7
(dp76
g9
V1997-98 E-X2001 Essential Credentials Future #51 Joe Dumars/30
p77
sg11
I30
sg12
VE-X2001 Essential Credentials Future
p78
sg14
(lp79
Vhttp://www.beckett.com/basketball/1997-98/e-x2001-essential-credentials-future/51-joe-dumars30-3144637
p80
asg17
g18
sg19
(lp81
Vhttp://img.beckett.com/images/no-image.jpg
p82
asg22
V#51
p83
sg24
V1997-98
p84
sg26
g27
sg28
(lp85
VJoe Dumars
p86
assbag1
(g2
g3
Ntp87
Rp88
(dp89
g7
(dp90
g9
V1997-98 E-X2001 Essential Credentials Now #1 Grant Hill/1
p91
sg11
I1
sg12
VE-X2001 Essential Credentials Now
p92
sg14
(lp93
Vhttp://www.beckett.com/basketball/1997-98/e-x2001-essential-credentials-now/1-grant-hill1-3144674
p94
asg17
g18
sg19
(lp95
Vhttp://img.beckett.com/images/no-image.jpg
p96
asg22
V#1
p97
sg24
V1997-98
p98
sg26
g27
sg28
(lp99
VGrant Hill
p100
assbag1
(g2
g3
Ntp101
Rp102
(dp103
g7
(dp104
g9
V1997-98 E-X2001 Essential Credentials Now #45 Lindsey Hunter/45
p105
sg11
I45
sg12
VE-X2001 Essential Credentials Now
p106
sg14
(lp107
Vhttp://www.beckett.com/basketball/1997-98/e-x2001-essential-credentials-now/45-lindsey-hunter45-3144718
p108
asg17
g18
sg19
(lp109
Vhttp://img.beckett.com/images/no-image.jpg
p110
asg22
V#45
p111
sg24
V1997-98
p112
sg26
g27
sg28
(lp113
VLindsey Hunter
p114
assbag1
(g2
g3
Ntp115
Rp116
(dp117
g7
(dp118
g9
V1997-98 E-X2001 Essential Credentials Now #51 Joe Dumars/51
p119
sg11
I51
sg12
VE-X2001 Essential Credentials Now
p120
sg14
(lp121
Vhttp://www.beckett.com/basketball/1997-98/e-x2001-essential-credentials-now/51-joe-dumars51-3144724
p122
asg17
g18
sg19
(lp123
Vhttp://img.beckett.com/images/no-image.jpg
p124
asg22
V#51
p125
sg24
V1997-98
p126
sg26
g27
sg28
(lp127
VJoe Dumars
p128
assbag1
(g2
g3
Ntp129
Rp130
(dp131
g7
(dp132
g9
V1997-98 Finest Embossed Refractors #149 Grant Hill S
p133
sg11
I263
sg12
VFinest Embossed Refractors
p134
sg14
(lp135
Vhttp://www.beckett.com/basketball/1997-98/finest-embossed-refractors/149-grant-hill-s-3145357
p136
asg17
g18
sg19
(lp137
Vhttp://img.beckett.com/images/items_stock/185226/3145306/3145357/front.jpg
p138
asg22
V#149
p139
sg24
V1997-98
p140
sg26
g27
sg28
(lp141
VGrant Hill
p142
assbag1
(g2
g3
Ntp143
Rp144
(dp145
g7
(dp146
g9
V1997-98 Finest Embossed Refractors #308 Grant Hill G
p147
sg11
I74
sg12
VFinest Embossed Refractors
p148
sg14
(lp149
Vhttp://www.beckett.com/basketball/1997-98/finest-embossed-refractors/308-grant-hill-g-3145416
p150
asg17
g18
sg19
(lp151
Vhttp://img.beckett.com/images/no-image.jpg
p152
asg22
V#308
p153
sg24
V1997-98
p154
sg26
g27
sg28
(lp155
VGrant Hill
p156
assbag1
(g2
g3
Ntp157
Rp158
(dp159
g7
(dp160
g9
V1997-98 Finest Refractors #149 Grant Hill S
p161
sg11
I1090
sg12
VFinest Refractors
p162
sg14
(lp163
Vhttp://www.beckett.com/basketball/1997-98/finest-refractors/149-grant-hill-s-3145615
p164
asg17
g18
sg19
(lp165
Vhttp://img.beckett.com/images/items_stock/185226/3145435/3145615/front.jpg
p166
asg22
V#149
p167
sg24
V1997-98
p168
sg26
g27
sg28
(lp169
VGrant Hill
p170
assbag1
(g2
g3
Ntp171
Rp172
(dp173
g7
(dp174
g9
V1997-98 Finest Refractors #308 Grant Hill G
p175
sg11
I289
sg12
VFinest Refractors
p176
sg14
(lp177
Vhttp://www.beckett.com/basketball/1997-98/finest-refractors/308-grant-hill-g-3145774
p178
asg17
g18
sg19
(lp179
Vhttp://img.beckett.com/images/items_stock/185226/3145435/3145774/front.jpg
p180
asg22
V#308
p181
sg24
V1997-98
p182
sg26
g27
sg28
(lp183
VGrant Hill
p184
assbag1
(g2
g3
Ntp185
Rp186
(dp187
g7
(dp188
g9
V1997-98 Flair Showcase Row 0 #2 Grant Hill
p189
sg11
I250
sg12
VFlair Showcase Row 0
p190
sg14
(lp191
Vhttp://www.beckett.com/basketball/1997-98/flair-showcase-row-0/2-grant-hill-3146100
p192
asg17
g18
sg19
(lp193
Vhttp://img.beckett.com/images/no-image.jpg
p194
asg22
V#2
p195
sg24
V1997-98
p196
sg26
g27
sg28
(lp197
VGrant Hill
p198
assbag1
(g2
g3
Ntp199
Rp200
(dp201
g7
(dp202
g9
V1997-98 Flair Showcase Row 0 #63 Joe Dumars
p203
sg11
I2000
sg12
VFlair Showcase Row 0
p204
sg14
(lp205
Vhttp://www.beckett.com/basketball/1997-98/flair-showcase-row-0/63-joe-dumars-3146161
p206
asg17
g18
sg19
(lp207
Vhttp://img.beckett.com/images/items_stock/185226/3146075/3146161/front.jpg
p208
asg22
V#63
p209
sg24
V1997-98
p210
sg26
g27
sg28
(lp211
VJoe Dumars
p212
assbag1
(g2
g3
Ntp213
Rp214
(dp215
g7
(dp216
g9
V1997-98 Flair Showcase Legacy Collection Row 3 #2 Grant Hill
p217
sg11
I100
sg12
VFlair Showcase Legacy Collection Row 3
p218
sg14
(lp219
Vhttp://www.beckett.com/basketball/1997-98/flair-showcase-legacy-collection-row-3/2-grant-hill-3148560
p220
asg17
g18
sg19
(lp221
Vhttp://img.beckett.com/images/no-image.jpg
p222
asg22
V#2
p223
sg24
V1997-98
p224
sg26
g27
sg28
(lp225
VGrant Hill
p226
assbag1
(g2
g3
Ntp227
Rp228
(dp229
g7
(dp230
g9
V1997-98 Flair Showcase Legacy Collection Row 3 #63 Joe Dumars
p231
sg11
I100
sg12
VFlair Showcase Legacy Collection Row 3
p232
sg14
(lp233
Vhttp://www.beckett.com/basketball/1997-98/flair-showcase-legacy-collection-row-3/63-joe-dumars-3148621
p234
asg17
g18
sg19
(lp235
Vhttp://img.beckett.com/images/items_stock/185226/3148549/3148621/front.jpg
p236
asg22
V#63
p237
sg24
V1997-98
p238
sg26
g27
sg28
(lp239
VJoe Dumars
p240
assbag1
(g2
g3
Ntp241
Rp242
(dp243
g7
(dp244
g9
V1997-98 Metal Universe Precious Metal Gems #56 Joe Dumars
p245
sg11
I90
sg12
VMetal Universe Precious Metal Gems
p246
sg14
(lp247
Vhttp://www.beckett.com/basketball/1997-98/metal-universe-precious-metal-gems/56-joe-dumars-3142648
p248
asg17
g18
sg19
(lp249
Vhttp://img.beckett.com/images/no-image.jpg
p250
asg22
V#56
p251
sg24
V1997-98
p252
sg26
g27
sg28
(lp253
VJoe Dumars
p254
assbag1
(g2
g3
Ntp255
Rp256
(dp257
g7
(dp258
g9
V1997-98 Metal Universe Precious Metal Gems #64 Grant Hill
p259
sg11
I90
sg12
VMetal Universe Precious Metal Gems
p260
sg14
(lp261
Vhttp://www.beckett.com/basketball/1997-98/metal-universe-precious-metal-gems/64-grant-hill-3142656
p262
asg17
g18
sg19
(lp263
Vhttp://img.beckett.com/images/no-image.jpg
p264
asg22
V#64
p265
sg24
V1997-98
p266
sg26
g27
sg28
(lp267
VGrant Hill
p268
assbag1
(g2
g3
Ntp269
Rp270
(dp271
g7
(dp272
g9
V1997-98 Metal Universe Precious Metal Gems #71 Lindsey Hunter
p273
sg11
I90
sg12
VMetal Universe Precious Metal Gems
p274
sg14
(lp275
Vhttp://www.beckett.com/basketball/1997-98/metal-universe-precious-metal-gems/71-lindsey-hunter-3142663
p276
asg17
g18
sg19
(lp277
Vhttp://img.beckett.com/images/no-image.jpg
p278
asg22
V#71
p279
sg24
V1997-98
p280
sg26
g27
sg28
(lp281
VLindsey Hunter
p282
assbag1
(g2
g3
Ntp283
Rp284
(dp285
g7
(dp286
g9
V1997-98 Metal Universe Championship Precious Metal Gems #33 Grant Hill
p287
sg11
I50
sg12
VMetal Universe Championship Precious Metal Gems
p288
sg14
(lp289
Vhttp://www.beckett.com/basketball/1997-98/metal-universe-championship-precious-metal-gems/33-grant-hill-3140708
p290
asg17
g18
sg19
(lp291
Vhttp://img.beckett.com/images/no-image.jpg
p292
asg22
V#33
p293
sg24
V1997-98
p294
sg26
g27
sg28
(lp295
VGrant Hill
p296
assbag1
(g2
g3
Ntp297
Rp298
(dp299
g7
(dp300
g9
V1997-98 Metal Universe Championship Precious Metal Gems #90 Joe Dumars
p301
sg11
I50
sg12
VMetal Universe Championship Precious Metal Gems
p302
sg14
(lp303
Vhttp://www.beckett.com/basketball/1997-98/metal-universe-championship-precious-metal-gems/90-joe-dumars-3140765
p304
asg17
g18
sg19
(lp305
Vhttp://img.beckett.com/images/no-image.jpg
p306
asg22
V#90
p307
sg24
V1997-98
p308
sg26
g27
sg28
(lp309
VJoe Dumars
p310
assbag1
(g2
g3
Ntp311
Rp312
(dp313
g7
(dp314
g9
V1997-98 SkyBox Premium Star Rubies #1 Grant Hill
p315
sg11
I50
sg12
VSkyBox Premium Star Rubies
p316
sg14
(lp317
Vhttp://www.beckett.com/basketball/1997-98/skybox-premium-star-rubies/1-grant-hill-3141172
p318
asg17
g18
sg19
(lp319
Vhttp://img.beckett.com/images/no-image.jpg
p320
asg22
V#1
p321
sg24
V1997-98
p322
sg26
g27
sg28
(lp323
VGrant Hill
p324
assbag1
(g2
g3
Ntp325
Rp326
(dp327
g7
(dp328
g9
V1997-98 SkyBox Premium Star Rubies #49 Lindsey Hunter
p329
sg11
I50
sg12
VSkyBox Premium Star Rubies
p330
sg14
(lp331
Vhttp://www.beckett.com/basketball/1997-98/skybox-premium-star-rubies/49-lindsey-hunter-3141220
p332
asg17
g18
sg19
(lp333
Vhttp://img.beckett.com/images/no-image.jpg
p334
asg22
V#49
p335
sg24
V1997-98
p336
sg26
g27
sg28
(lp337
VLindsey Hunter
p338
assbag1
(g2
g3
Ntp339
Rp340
(dp341
g7
(dp342
g9
V1997-98 SkyBox Premium Star Rubies #64 Joe Dumars
p343
sg11
I50
sg12
VSkyBox Premium Star Rubies
p344
sg14
(lp345
Vhttp://www.beckett.com/basketball/1997-98/skybox-premium-star-rubies/64-joe-dumars-3141235
p346
asg17
g18
sg19
(lp347
Vhttp://img.beckett.com/images/no-image.jpg
p348
asg22
V#64
p349
sg24
V1997-98
p350
sg26
g27
sg28
(lp351
VJoe Dumars
p352
assbag1
(g2
g3
Ntp353
Rp354
(dp355
g7
(dp356
g9
V1997-98 SkyBox Premium Star Rubies #131 Charles O'Bannon
p357
sg11
I50
sg12
VSkyBox Premium Star Rubies
p358
sg14
(lp359
Vhttp://www.beckett.com/basketball/1997-98/skybox-premium-star-rubies/131-charles-obannon-3141300
p360
asg17
g18
sg19
(lp361
Vhttp://img.beckett.com/images/no-image.jpg
p362
asg22
V#131
p363
sg24
V1997-98
p364
sg26
g27
sg28
(lp365
VCharles O'Bannon
p366
assbag1
(g2
g3
Ntp367
Rp368
(dp369
g7
(dp370
g9
V1997-98 SkyBox Premium Star Rubies #185 Scot Pollard
p371
sg11
I50
sg12
VSkyBox Premium Star Rubies
p372
sg14
(lp373
Vhttp://www.beckett.com/basketball/1997-98/skybox-premium-star-rubies/185-scot-pollard-3141354
p374
asg17
g18
sg19
(lp375
Vhttp://img.beckett.com/images/no-image.jpg
p376
asg22
V#185
p377
sg24
V1997-98
p378
sg26
g27
sg28
(lp379
VScot Pollard
p380
assbag1
(g2
g3
Ntp381
Rp382
(dp383
g7
(dp384
g9
V1997-98 SkyBox Premium Star Rubies #232 Grant Hill TS
p385
sg11
I50
sg12
VSkyBox Premium Star Rubies
p386
sg14
(lp387
Vhttp://www.beckett.com/basketball/1997-98/skybox-premium-star-rubies/232-grant-hill-ts-3141401
p388
asg17
g18
sg19
(lp389
Vhttp://img.beckett.com/images/no-image.jpg
p390
asg22
V#232
p391
sg24
V1997-98
p392
sS'subsetName'
p393
VTS
p394
sg26
g27
sg28
(lp395
VGrant Hill
p396
assbag1
(g2
g3
Ntp397
Rp398
(dp399
g7
(dp400
g9
V1997-98 SkyBox Premium Star Rubies #249 Grant Hill CL
p401
sg11
I50
sg12
VSkyBox Premium Star Rubies
p402
sg14
(lp403
Vhttp://www.beckett.com/basketball/1997-98/skybox-premium-star-rubies/249-grant-hill-cl-3141418
p404
asg17
g18
sg19
(lp405
Vhttp://img.beckett.com/images/no-image.jpg
p406
asg22
V#249
p407
sg24
V1997-98
p408
sg393
VCL
p409
sg26
g27
sg28
(lp410
VGrant Hill
p411
assbag1
(g2
g3
Ntp412
Rp413
(dp414
g7
(dp415
g9
V1997-98 SkyBox Premium Autographics Century Marks #24 Randolph Childress
p416
sg11
I100
sg12
VSkyBox Premium Autographics Century Marks
p417
sg14
(lp418
Vhttp://www.beckett.com/basketball/1997-98/skybox-premium-autographics-century-marks/24-randolph-childress-3141606
p419
asg17
g18
sg19
(lp420
Vhttp://img.beckett.com/images/no-image.jpg
p421
asg22
V#24
p422
sS'autograph'
p423
I1
sg24
V1997-98
p424
sg26
g27
sg28
(lp425
VRandolph Childress
p426
assbag1
(g2
g3
Ntp427
Rp428
(dp429
g7
(dp430
g9
V1997-98 SkyBox Premium Autographics Century Marks #34 Joe Dumars
p431
sg11
I100
sg12
VSkyBox Premium Autographics Century Marks
p432
sg14
(lp433
Vhttp://www.beckett.com/basketball/1997-98/skybox-premium-autographics-century-marks/34-joe-dumars-3141616
p434
asg17
g18
sg19
(lp435
Vhttp://img.beckett.com/images/no-image.jpg
p436
asg22
V#34
p437
sg423
I1
sg24
V1997-98
p438
sg26
g27
sg28
(lp439
VJoe Dumars
p440
assbag1
(g2
g3
Ntp441
Rp442
(dp443
g7
(dp444
g9
V1997-98 SkyBox Premium Autographics Century Marks #48 Grant Hill
p445
sg11
I100
sg12
VSkyBox Premium Autographics Century Marks
p446
sg14
(lp447
Vhttp://www.beckett.com/basketball/1997-98/skybox-premium-autographics-century-marks/48-grant-hill-3141630
p448
asg17
g18
sg19
(lp449
Vhttp://img.beckett.com/images/no-image.jpg
p450
asg22
V#48
p451
sg423
I1
sg24
V1997-98
p452
sg26
g27
sg28
(lp453
VGrant Hill
p454
assbag1
(g2
g3
Ntp455
Rp456
(dp457
g7
(dp458
g9
V1997-98 SkyBox Premium Autographics Century Marks #52 Lindsey Hunter
p459
sg11
I100
sg12
VSkyBox Premium Autographics Century Marks
p460
sg14
(lp461
Vhttp://www.beckett.com/basketball/1997-98/skybox-premium-autographics-century-marks/52-lindsey-hunter-3141634
p462
asg17
g18
sg19
(lp463
Vhttp://img.beckett.com/images/no-image.jpg
p464
asg22
V#52
p465
sg423
I1
sg24
V1997-98
p466
sg26
g27
sg28
(lp467
VLindsey Hunter
p468
assbag1
(g2
g3
Ntp469
Rp470
(dp471
g7
(dp472
g9
V1997-98 SPx Grand Finale #13 Grant Hill
p473
sg11
I50
sg12
VSPx Grand Finale
p474
sg14
(lp475
Vhttp://www.beckett.com/basketball/1997-98/spx-grand-finale/13-grant-hill-3137697
p476
asg17
g18
sg19
(lp477
Vhttp://img.beckett.com/images/no-image.jpg
p478
asg22
V#13
p479
sg24
V1997-98
p480
sg26
g27
sg28
(lp481
VGrant Hill
p482
assbag1
(g2
g3
Ntp483
Rp484
(dp485
g7
(dp486
g9
V1997-98 SPx Grand Finale #14 Joe Dumars
p487
sg11
I50
sg12
VSPx Grand Finale
p488
sg14
(lp489
Vhttp://www.beckett.com/basketball/1997-98/spx-grand-finale/14-joe-dumars-3137698
p490
asg17
g18
sg19
(lp491
Vhttp://img.beckett.com/images/no-image.jpg
p492
asg22
V#14
p493
sg24
V1997-98
p494
sg26
g27
sg28
(lp495
VJoe Dumars
p496
assbag1
(g2
g3
Ntp497
Rp498
(dp499
g7
(dp500
g9
V1997-98 Stadium Club One Of A Kind #20 Lindsey Hunter
p501
sg11
I150
sg12
VStadium Club One Of A Kind
p502
sg14
(lp503
Vhttp://www.beckett.com/basketball/1997-98/stadium-club-one-of-a-kind/20-lindsey-hunter-3138319
p504
asg17
g18
sg19
(lp505
Vhttp://img.beckett.com/images/no-image.jpg
p506
asg22
V#20
p507
sg24
V1997-98
p508
sg26
g27
sg28
(lp509
VLindsey Hunter
p510
assbag1
(g2
g3
Ntp511
Rp512
(dp513
g7
(dp514
g9
V1997-98 Stadium Club One Of A Kind #116 Aaron McKie
p515
sg11
I150
sg12
VStadium Club One Of A Kind
p516
sg14
(lp517
Vhttp://www.beckett.com/basketball/1997-98/stadium-club-one-of-a-kind/116-aaron-mckie-3138415
p518
asg17
g18
sg19
(lp519
Vhttp://img.beckett.com/images/items_stock/185226/3138288/3138415/front.jpg
p520
asg22
V#116
p521
sg24
V1997-98
p522
sg26
g27
sg28
(lp523
VAaron McKie
p524
assbag1
(g2
g3
Ntp525
Rp526
(dp527
g7
(dp528
g9
V1997-98 Stadium Club One Of A Kind #132 Joe Dumars
p529
sg11
I150
sg12
VStadium Club One Of A Kind
p530
sg14
(lp531
Vhttp://www.beckett.com/basketball/1997-98/stadium-club-one-of-a-kind/132-joe-dumars-3138431
p532
asg17
g18
sg19
(lp533
Vhttp://img.beckett.com/images/no-image.jpg
p534
asg22
V#132
p535
sg24
V1997-98
p536
sg26
g27
sg28
(lp537
VJoe Dumars
p538
assbag1
(g2
g3
Ntp539
Rp540
(dp541
g7
(dp542
g9
V1997-98 Stadium Club One Of A Kind #145 Grant Hill
p543
sg11
I150
sg12
VStadium Club One Of A Kind
p544
sg14
(lp545
Vhttp://www.beckett.com/basketball/1997-98/stadium-club-one-of-a-kind/145-grant-hill-3138444
p546
asg17
g18
sg19
(lp547
Vhttp://img.beckett.com/images/items_stock/185226/3138288/3138444/front.jpg
p548
asg22
V#145
p549
sg24
V1997-98
p550
sg26
g27
sg28
(lp551
VGrant Hill
p552
assbag1
(g2
g3
Ntp553
Rp554
(dp555
g7
(dp556
g9
V1997-98 Stadium Club One Of A Kind #228 Scot Pollard
p557
sg11
I150
sg12
VStadium Club One Of A Kind
p558
sg14
(lp559
Vhttp://www.beckett.com/basketball/1997-98/stadium-club-one-of-a-kind/228-scot-pollard-3138527
p560
asg17
g18
sg19
(lp561
Vhttp://img.beckett.com/images/no-image.jpg
p562
asg22
V#228
p563
sg24
V1997-98
p564
sg26
g27
sg28
(lp565
VScot Pollard
p566
assbag1
(g2
g3
Ntp567
Rp568
(dp569
g7
(dp570
g9
V1997-98 Stadium Club Printing Plates #20 Lindsey Hunter Black
p571
sg11
I1
sg12
VStadium Club Printing Plates
p572
sg14
(lp573
Vhttp://www.beckett.com/basketball/1997-98/stadium-club-printing-plates/20-lindsey-hunter-black-3138621
p574
asg17
g18
sg19
(lp575
Vhttp://img.beckett.com/images/no-image.jpg
p576
asg22
V#20
p577
sg24
V1997-98
p578
sg26
g27
sg28
(lp579
VLindsey Hunter
p580
assbag1
(g2
g3
Ntp581
Rp582
(dp583
g7
(dp584
g9
V1997-98 Stadium Club Printing Plates #20A Lindsey Hunter Cyan
p585
sg11
I1
sg12
VStadium Club Printing Plates
p586
sg14
(lp587
Vhttp://www.beckett.com/basketball/1997-98/stadium-club-printing-plates/20a-lindsey-hunter-cyan-3138622
p588
asg17
g18
sg19
(lp589
Vhttp://img.beckett.com/images/no-image.jpg
p590
asg22
V#20A
p591
sg24
V1997-98
p592
sg26
g27
sg28
(lp593
g580
assbag1
(g2
g3
Ntp594
Rp595
(dp596
g7
(dp597
g9
V1997-98 Stadium Club Printing Plates #20B Lindsey Hunter Magenta
p598
sg11
I1
sg12
VStadium Club Printing Plates
p599
sg14
(lp600
Vhttp://www.beckett.com/basketball/1997-98/stadium-club-printing-plates/20b-lindsey-hunter-magenta-3138623
p601
asg17
g18
sg19
(lp602
Vhttp://img.beckett.com/images/no-image.jpg
p603
asg22
V#20B
p604
sg24
V1997-98
p605
sg26
g27
sg28
(lp606
g580
assbag1
(g2
g3
Ntp607
Rp608
(dp609
g7
(dp610
g9
V1997-98 Stadium Club Printing Plates #20C Lindsey Hunter Yellow
p611
sg11
I1
sg12
VStadium Club Printing Plates
p612
sg14
(lp613
Vhttp://www.beckett.com/basketball/1997-98/stadium-club-printing-plates/20c-lindsey-hunter-yellow-3138624
p614
asg17
g18
sg19
(lp615
Vhttp://img.beckett.com/images/no-image.jpg
p616
asg22
V#20C
p617
sg24
V1997-98
p618
sg26
g27
sg28
(lp619
g580
assbag1
(g2
g3
Ntp620
Rp621
(dp622
g7
(dp623
g9
V1997-98 Stadium Club Printing Plates #116 Aaron McKie Black
p624
sg11
I1
sg12
VStadium Club Printing Plates
p625
sg14
(lp626
Vhttp://www.beckett.com/basketball/1997-98/stadium-club-printing-plates/116-aaron-mckie-black-3139005
p627
asg17
g18
sg19
(lp628
Vhttp://img.beckett.com/images/no-image.jpg
p629
asg22
V#116
p630
sg24
V1997-98
p631
sg26
g27
sg28
(lp632
VAaron McKie
p633
assbag1
(g2
g3
Ntp634
Rp635
(dp636
g7
(dp637
g9
V1997-98 Stadium Club Printing Plates #116A Aaron McKie Cyan
p638
sg11
I1
sg12
VStadium Club Printing Plates
p639
sg14
(lp640
Vhttp://www.beckett.com/basketball/1997-98/stadium-club-printing-plates/116a-aaron-mckie-cyan-3139006
p641
asg17
g18
sg19
(lp642
Vhttp://img.beckett.com/images/no-image.jpg
p643
asg22
V#116A
p644
sg24
V1997-98
p645
sg26
g27
sg28
(lp646
g633
assbag1
(g2
g3
Ntp647
Rp648
(dp649
g7
(dp650
g9
V1997-98 Stadium Club Printing Plates #116B Aaron McKie Magenta
p651
sg11
I1
sg12
VStadium Club Printing Plates
p652
sg14
(lp653
Vhttp://www.beckett.com/basketball/1997-98/stadium-club-printing-plates/116b-aaron-mckie-magenta-3139007
p654
asg17
g18
sg19
(lp655
Vhttp://img.beckett.com/images/no-image.jpg
p656
asg22
V#116B
p657
sg24
V1997-98
p658
sg26
g27
sg28
(lp659
g633
assbag1
(g2
g3
Ntp660
Rp661
(dp662
g7
(dp663
g9
V1997-98 Stadium Club Printing Plates #116C Aaron McKie Yellow
p664
sg11
I1
sg12
VStadium Club Printing Plates
p665
sg14
(lp666
Vhttp://www.beckett.com/basketball/1997-98/stadium-club-printing-plates/116c-aaron-mckie-yellow-3139008
p667
asg17
g18
sg19
(lp668
Vhttp://img.beckett.com/images/no-image.jpg
p669
asg22
V#116C
p670
sg24
V1997-98
p671
sg26
g27
sg28
(lp672
g633
assbag1
(g2
g3
Ntp673
Rp674
(dp675
g7
(dp676
g9
V1997-98 Stadium Club Printing Plates #132 Joe Dumars Black
p677
sg11
I1
sg12
VStadium Club Printing Plates
p678
sg14
(lp679
Vhttp://www.beckett.com/basketball/1997-98/stadium-club-printing-plates/132-joe-dumars-black-3139069
p680
asg17
g18
sg19
(lp681
Vhttp://img.beckett.com/images/no-image.jpg
p682
asg22
V#132
p683
sg24
V1997-98
p684
sg26
g27
sg28
(lp685
VJoe Dumars
p686
assbag1
(g2
g3
Ntp687
Rp688
(dp689
g7
(dp690
g9
V1997-98 Stadium Club Printing Plates #132A Joe Dumars Cyan
p691
sg11
I1
sg12
VStadium Club Printing Plates
p692
sg14
(lp693
Vhttp://www.beckett.com/basketball/1997-98/stadium-club-printing-plates/132a-joe-dumars-cyan-3139070
p694
asg17
g18
sg19
(lp695
Vhttp://img.beckett.com/images/no-image.jpg
p696
asg22
V#132A
p697
sg24
V1997-98
p698
sg26
g27
sg28
(lp699
g686
assbag1
(g2
g3
Ntp700
Rp701
(dp702
g7
(dp703
g9
V1997-98 Stadium Club Printing Plates #132B Joe Dumars Magenta
p704
sg11
I1
sg12
VStadium Club Printing Plates
p705
sg14
(lp706
Vhttp://www.beckett.com/basketball/1997-98/stadium-club-printing-plates/132b-joe-dumars-magenta-3139071
p707
asg17
g18
sg19
(lp708
Vhttp://img.beckett.com/images/no-image.jpg
p709
asg22
V#132B
p710
sg24
V1997-98
p711
sg26
g27
sg28
(lp712
g686
assbag1
(g2
g3
Ntp713
Rp714
(dp715
g7
(dp716
g9
V1997-98 Stadium Club Printing Plates #132C Joe Dumars Yellow
p717
sg11
I1
sg12
VStadium Club Printing Plates
p718
sg14
(lp719
Vhttp://www.beckett.com/basketball/1997-98/stadium-club-printing-plates/132c-joe-dumars-yellow-3139072
p720
asg17
g18
sg19
(lp721
Vhttp://img.beckett.com/images/no-image.jpg
p722
asg22
V#132C
p723
sg24
V1997-98
p724
sg26
g27
sg28
(lp725
g686
assbag1
(g2
g3
Ntp726
Rp727
(dp728
g7
(dp729
g9
V1997-98 Stadium Club Printing Plates #145 Grant Hill Black
p730
sg11
I1
sg12
VStadium Club Printing Plates
p731
sg14
(lp732
Vhttp://www.beckett.com/basketball/1997-98/stadium-club-printing-plates/145-grant-hill-black-3139121
p733
asg17
g18
sg19
(lp734
Vhttp://img.beckett.com/images/no-image.jpg
p735
asg22
V#145
p736
sg24
V1997-98
p737
sg26
g27
sg28
(lp738
VGrant Hill
p739
assbag1
(g2
g3
Ntp740
Rp741
(dp742
g7
(dp743
g9
V1997-98 Stadium Club Printing Plates #145A Grant Hill Cyan
p744
sg11
I1
sg12
VStadium Club Printing Plates
p745
sg14
(lp746
Vhttp://www.beckett.com/basketball/1997-98/stadium-club-printing-plates/145a-grant-hill-cyan-3139122
p747
asg17
g18
sg19
(lp748
Vhttp://img.beckett.com/images/no-image.jpg
p749
asg22
V#145A
p750
sg24
V1997-98
p751
sg26
g27
sg28
(lp752
g739
assbag1
(g2
g3
Ntp753
Rp754
(dp755
g7
(dp756
g9
V1997-98 Stadium Club Printing Plates #145B Grant Hill Magenta
p757
sg11
I1
sg12
VStadium Club Printing Plates
p758
sg14
(lp759
Vhttp://www.beckett.com/basketball/1997-98/stadium-club-printing-plates/145b-grant-hill-magenta-3139123
p760
asg17
g18
sg19
(lp761
Vhttp://img.beckett.com/images/no-image.jpg
p762
asg22
V#145B
p763
sg24
V1997-98
p764
sg26
g27
sg28
(lp765
g739
assbag1
(g2
g3
Ntp766
Rp767
(dp768
g7
(dp769
g9
V1997-98 Stadium Club Printing Plates #145C Grant Hill Yellow
p770
sg11
I1
sg12
VStadium Club Printing Plates
p771
sg14
(lp772
Vhttp://www.beckett.com/basketball/1997-98/stadium-club-printing-plates/145c-grant-hill-yellow-3139124
p773
asg17
g18
sg19
(lp774
Vhttp://img.beckett.com/images/no-image.jpg
p775
asg22
V#145C
p776
sg24
V1997-98
p777
sg26
g27
sg28
(lp778
g739
assbag1
(g2
g3
Ntp779
Rp780
(dp781
g7
(dp782
g9
V1997-98 Stadium Club Printing Plates #228 Scot Pollard Black
p783
sg11
I1
sg12
VStadium Club Printing Plates
p784
sg14
(lp785
Vhttp://www.beckett.com/basketball/1997-98/stadium-club-printing-plates/228-scot-pollard-black-3139453
p786
asg17
g18
sg19
(lp787
Vhttp://img.beckett.com/images/no-image.jpg
p788
asg22
V#228
p789
sg24
V1997-98
p790
sg26
g27
sg28
(lp791
VScot Pollard
p792
assbag1
(g2
g3
Ntp793
Rp794
(dp795
g7
(dp796
g9
V1997-98 Stadium Club Printing Plates #228A Scot Pollard Cyan
p797
sg11
I1
sg12
VStadium Club Printing Plates
p798
sg14
(lp799
Vhttp://www.beckett.com/basketball/1997-98/stadium-club-printing-plates/228a-scot-pollard-cyan-3139454
p800
asg17
g18
sg19
(lp801
Vhttp://img.beckett.com/images/no-image.jpg
p802
asg22
V#228A
p803
sg24
V1997-98
p804
sg26
g27
sg28
(lp805
g792
assbag1
(g2
g3
Ntp806
Rp807
(dp808
g7
(dp809
g9
V1997-98 Stadium Club Printing Plates #228B Scot Pollard Magenta
p810
sg11
I1
sg12
VStadium Club Printing Plates
p811
sg14
(lp812
Vhttp://www.beckett.com/basketball/1997-98/stadium-club-printing-plates/228b-scot-pollard-magenta-3139455
p813
asg17
g18
sg19
(lp814
Vhttp://img.beckett.com/images/no-image.jpg
p815
asg22
V#228B
p816
sg24
V1997-98
p817
sg26
g27
sg28
(lp818
g792
assbag1
(g2
g3
Ntp819
Rp820
(dp821
g7
(dp822
g9
V1997-98 Stadium Club Printing Plates #228C Scot Pollard Yellow
p823
sg11
I1
sg12
VStadium Club Printing Plates
p824
sg14
(lp825
Vhttp://www.beckett.com/basketball/1997-98/stadium-club-printing-plates/228c-scot-pollard-yellow-3139456
p826
asg17
g18
sg19
(lp827
Vhttp://img.beckett.com/images/no-image.jpg
p828
asg22
V#228C
p829
sg24
V1997-98
p830
sg26
g27
sg28
(lp831
g792
assbag1
(g2
g3
Ntp832
Rp833
(dp834
g7
(dp835
g9
V1997-98 Ultra Masterpieces #3 Joe Dumars
p836
sg11
I1
sg12
VUltra Masterpieces
p837
sg14
(lp838
Vhttp://www.beckett.com/basketball/1997-98/ultra-masterpieces/3-joe-dumars-3135733
p839
asg17
g18
sg19
(lp840
Vhttp://img.beckett.com/images/no-image.jpg
p841
asg22
V#3
p842
sg24
V1997-98
p843
sg26
g27
sg28
(lp844
VJoe Dumars
p845
assbag1
(g2
g3
Ntp846
Rp847
(dp848
g7
(dp849
g9
V1997-98 Ultra Masterpieces #33 Grant Hill
p850
sg11
I1
sg12
VUltra Masterpieces
p851
sg14
(lp852
Vhttp://www.beckett.com/basketball/1997-98/ultra-masterpieces/33-grant-hill-3135763
p853
asg17
g18
sg19
(lp854
Vhttp://img.beckett.com/images/no-image.jpg
p855
asg22
V#33
p856
sg24
V1997-98
p857
sg26
g27
sg28
(lp858
VGrant Hill
p859
assbag1
(g2
g3
Ntp860
Rp861
(dp862
g7
(dp863
g9
V1997-98 Ultra Masterpieces #113 Lindsey Hunter
p864
sg11
I1
sg12
VUltra Masterpieces
p865
sg14
(lp866
Vhttp://www.beckett.com/basketball/1997-98/ultra-masterpieces/113-lindsey-hunter-3135843
p867
asg17
g18
sg19
(lp868
Vhttp://img.beckett.com/images/no-image.jpg
p869
asg22
V#113
p870
sg24
V1997-98
p871
sg26
g27
sg28
(lp872
VLindsey Hunter
p873
assbag1
(g2
g3
Ntp874
Rp875
(dp876
g7
(dp877
g9
V1997-98 Ultra Masterpieces #141 Scot Pollard
p878
sg11
I1
sg12
VUltra Masterpieces
p879
sg14
(lp880
Vhttp://www.beckett.com/basketball/1997-98/ultra-masterpieces/141-scot-pollard-3135871
p881
asg17
g18
sg19
(lp882
Vhttp://img.beckett.com/images/no-image.jpg
p883
asg22
V#141
p884
sg24
V1997-98
p885
sg26
g27
sg28
(lp886
VScot Pollard
p887
assbag1
(g2
g3
Ntp888
Rp889
(dp890
g7
(dp891
g9
V1997-98 Ultra Masterpieces #161 Charles O'Bannon
p892
sg11
I1
sg12
VUltra Masterpieces
p893
sg14
(lp894
Vhttp://www.beckett.com/basketball/1997-98/ultra-masterpieces/161-charles-obannon-3135889
p895
asg17
g18
sg19
(lp896
Vhttp://img.beckett.com/images/no-image.jpg
p897
asg22
V#161
p898
sg24
V1997-98
p899
sg26
g27
sg28
(lp900
VCharles O'Bannon
p901
assbag1
(g2
g3
Ntp902
Rp903
(dp904
g7
(dp905
g9
V1997-98 Ultra Masterpieces #256 Grant Hill GRE
p906
sg11
I1
sg12
VUltra Masterpieces
p907
sg14
(lp908
Vhttp://www.beckett.com/basketball/1997-98/ultra-masterpieces/256-grant-hill-gre-3135984
p909
asg17
g18
sg19
(lp910
Vhttp://img.beckett.com/images/no-image.jpg
p911
asg22
V#256
p912
sg24
V1997-98
p913
sg393
VGRE
p914
sg26
g27
sg28
(lp915
VGrant Hill
p916
assbag1
(g2
g3
Ntp917
Rp918
(dp919
g7
(dp920
g9
V1997-98 Ultra Platinum Medallion #3 Joe Dumars
p921
sg11
I100
sg12
VUltra Platinum Medallion
p922
sg14
(lp923
Vhttp://www.beckett.com/basketball/1997-98/ultra-platinum-medallion/3-joe-dumars-3136017
p924
asg17
g18
sg19
(lp925
Vhttp://img.beckett.com/images/no-image.jpg
p926
asg22
V#3
p927
sg24
V1997-98
p928
sg26
g27
sg28
(lp929
VJoe Dumars
p930
assbag1
(g2
g3
Ntp931
Rp932
(dp933
g7
(dp934
g9
V1997-98 Ultra Platinum Medallion #33 Grant Hill
p935
sg11
I100
sg12
VUltra Platinum Medallion
p936
sg14
(lp937
Vhttp://www.beckett.com/basketball/1997-98/ultra-platinum-medallion/33-grant-hill-3136047
p938
asg17
g18
sg19
(lp939
Vhttp://img.beckett.com/images/no-image.jpg
p940
asg22
V#33
p941
sg24
V1997-98
p942
sg26
g27
sg28
(lp943
VGrant Hill
p944
assbag1
(g2
g3
Ntp945
Rp946
(dp947
g7
(dp948
g9
V1997-98 Ultra Platinum Medallion #113 Lindsey Hunter
p949
sg11
I100
sg12
VUltra Platinum Medallion
p950
sg14
(lp951
Vhttp://www.beckett.com/basketball/1997-98/ultra-platinum-medallion/113-lindsey-hunter-3136127
p952
asg17
g18
sg19
(lp953
Vhttp://img.beckett.com/images/items_stock/185226/3136002/3136127/front.jpg
p954
asg22
V#113
p955
sg24
V1997-98
p956
sg26
g27
sg28
(lp957
VLindsey Hunter
p958
assbag1
(g2
g3
Ntp959
Rp960
(dp961
g7
(dp962
g9
V1997-98 Ultra Platinum Medallion #141 Scot Pollard
p963
sg11
I100
sg12
VUltra Platinum Medallion
p964
sg14
(lp965
Vhttp://www.beckett.com/basketball/1997-98/ultra-platinum-medallion/141-scot-pollard-3136155
p966
asg17
g18
sg19
(lp967
Vhttp://img.beckett.com/images/no-image.jpg
p968
asg22
V#141
p969
sg24
V1997-98
p970
sg26
g27
sg28
(lp971
VScot Pollard
p972
assbag1
(g2
g3
Ntp973
Rp974
(dp975
g7
(dp976
g9
V1997-98 Ultra Platinum Medallion #161 Charles O'Bannon
p977
sg11
I100
sg12
VUltra Platinum Medallion
p978
sg14
(lp979
Vhttp://www.beckett.com/basketball/1997-98/ultra-platinum-medallion/161-charles-obannon-3136173
p980
asg17
g18
sg19
(lp981
Vhttp://img.beckett.com/images/no-image.jpg
p982
asg22
V#161
p983
sg24
V1997-98
p984
sg26
g27
sg28
(lp985
VCharles O'Bannon
p986
assbag1
(g2
g3
Ntp987
Rp988
(dp989
g7
(dp990
g9
V1997-98 Ultra Platinum Medallion #256 Grant Hill GRE
p991
sg11
I100
sg12
VUltra Platinum Medallion
p992
sg14
(lp993
Vhttp://www.beckett.com/basketball/1997-98/ultra-platinum-medallion/256-grant-hill-gre-3136268
p994
asg17
g18
sg19
(lp995
Vhttp://img.beckett.com/images/no-image.jpg
p996
asg22
V#256
p997
sg24
V1997-98
p998
sg393
VGRE
p999
sg26
g27
sg28
(lp1000
VGrant Hill
p1001
assbag1
(g2
g3
Ntp1002
Rp1003
(dp1004
g7
(dp1005
g9
V1997-98 Z-Force Rave #33 Grant Hill
p1006
sg11
I399
sg12
VZ-Force Rave
p1007
sg14
(lp1008
Vhttp://www.beckett.com/basketball/1997-98/z-force-rave/33-grant-hill-3133057
p1009
asg17
g18
sg19
(lp1010
Vhttp://img.beckett.com/images/items_stock/185226/3133012/3133057/front.jpg
p1011
asg22
V#33
p1012
sg24
V1997-98
p1013
sg26
g27
sg28
(lp1014
VGrant Hill
p1015
assbag1
(g2
g3
Ntp1016
Rp1017
(dp1018
g7
(dp1019
g9
V1997-98 Z-Force Rave #74 Joe Dumars
p1020
sg11
I399
sg12
VZ-Force Rave
p1021
sg14
(lp1022
Vhttp://www.beckett.com/basketball/1997-98/z-force-rave/74-joe-dumars-3133098
p1023
asg17
g18
sg19
(lp1024
Vhttp://img.beckett.com/images/items_stock/185226/3133012/3133098/front.jpg
p1025
asg22
V#74
p1026
sg24
V1997-98
p1027
sg26
g27
sg28
(lp1028
VJoe Dumars
p1029
assbag1
(g2
g3
Ntp1030
Rp1031
(dp1032
g7
(dp1033
g9
V1997-98 Z-Force Rave #96 Lindsey Hunter
p1034
sg11
I399
sg12
VZ-Force Rave
p1035
sg14
(lp1036
Vhttp://www.beckett.com/basketball/1997-98/z-force-rave/96-lindsey-hunter-3133120
p1037
asg17
g18
sg19
(lp1038
Vhttp://img.beckett.com/images/items_stock/185226/3133012/3133120/front.jpg
p1039
asg22
V#96
p1040
sg24
V1997-98
p1041
sg26
g27
sg28
(lp1042
VLindsey Hunter
p1043
assbag1
(g2
g3
Ntp1044
Rp1045
(dp1046
g7
(dp1047
g9
V1997-98 Z-Force Rave #166 Scot Pollard
p1048
sg11
I399
sg12
VZ-Force Rave
p1049
sg14
(lp1050
Vhttp://www.beckett.com/basketball/1997-98/z-force-rave/166-scot-pollard-3133188
p1051
asg17
g18
sg19
(lp1052
Vhttp://img.beckett.com/images/no-image.jpg
p1053
asg22
V#166
p1054
sg24
V1997-98
p1055
sg26
g27
sg28
(lp1056
VScot Pollard
p1057
assbag1
(g2
g3
Ntp1058
Rp1059
(dp1060
g7
(dp1061
g9
V1997-98 Z-Force Rave #193 Grant Hill ZUP
p1062
sg11
I399
sg12
VZ-Force Rave
p1063
sg14
(lp1064
Vhttp://www.beckett.com/basketball/1997-98/z-force-rave/193-grant-hill-zup-3133216
p1065
asg17
g18
sg19
(lp1066
Vhttp://img.beckett.com/images/no-image.jpg
p1067
asg22
V#193
p1068
sg24
V1997-98
p1069
sg393
VZUP
p1070
sg26
g27
sg28
(lp1071
VGrant Hill
p1072
assbag1
(g2
g3
Ntp1073
Rp1074
(dp1075
g7
(dp1076
g9
V1997-98 Z-Force Super Rave #166 Scot Pollard
p1077
sg11
I50
sg12
VZ-Force Super Rave
p1078
sg14
(lp1079
Vhttp://www.beckett.com/basketball/1997-98/z-force-super-rave/166-scot-pollard-3133300
p1080
asg17
g18
sg19
(lp1081
Vhttp://img.beckett.com/images/no-image.jpg
p1082
asg22
V#166
p1083
sg24
V1997-98
p1084
sg26
g27
sg28
(lp1085
VScot Pollard
p1086
assbag1
(g2
g3
Ntp1087
Rp1088
(dp1089
g7
(dp1090
g9
V1997-98 Z-Force Super Rave #193 Grant Hill ZUP
p1091
sg11
I50
sg12
VZ-Force Super Rave
p1092
sg14
(lp1093
Vhttp://www.beckett.com/basketball/1997-98/z-force-super-rave/193-grant-hill-zup-3133328
p1094
asg17
g18
sg19
(lp1095
Vhttp://img.beckett.com/images/no-image.jpg
p1096
asg22
V#193
p1097
sg24
V1997-98
p1098
sg393
VZUP
p1099
sg26
g27
sg28
(lp1100
VGrant Hill
p1101
assbag1
(g2
g3
Ntp1102
Rp1103
(dp1104
g7
(dp1105
g9
V1997-98 Upper Deck Great Eight #G3 Joe Dumars
p1106
sg11
I800
sg12
VUpper Deck Great Eight
p1107
sg14
(lp1108
Vhttp://www.beckett.com/basketball/1997-98/upper-deck-great-eight/g3-joe-dumars-3132409
p1109
asg17
g18
sg19
(lp1110
Vhttp://img.beckett.com/images/items_stock/185226/3132399/3132409/front.jpg
p1111
asg22
V#G3
p1112
sg24
V1997-98
p1113
sg26
g27
sg28
(lp1114
VJoe Dumars
p1115
assbag1
(g2
g3
Ntp1116
Rp1117
(dp1118
g7
(dp1119
g9
V1997-98 Hoops High Voltage 500 #HV5 Grant Hill
p1120
sg11
I500
sg12
VHoops High Voltage 500
p1121
sg14
(lp1122
Vhttp://www.beckett.com/basketball/1997-98/hoops-high-voltage-500/hv5-grant-hill-3142294
p1123
asg17
g18
sg19
(lp1124
Vhttp://img.beckett.com/images/no-image.jpg
p1125
asg22
V#HV5
p1126
sg24
V1997-98
p1127
sg26
g27
sg28
(lp1128
VGrant Hill
p1129
assbag1
(g2
g3
Ntp1130
Rp1131
(dp1132
g7
(dp1133
g9
V1997-98 Metal Universe Precious Metal Gems Emerald #56 Joe Dumars
p1134
sg11
I10
sg12
VMetal Universe Precious Metal Gems Emerald
p1135
sg14
(lp1136
Vhttp://www.beckett.com/basketball/1997-98/metal-universe-precious-metal-gems-emerald/56-joe-dumars-7055505
p1137
asg17
g18
sg19
(lp1138
Vhttp://img.beckett.com/images/no-image.jpg
p1139
asg22
V#56
p1140
sg24
V1997-98
p1141
sg26
g27
sg28
(lp1142
VJoe Dumars
p1143
assbag1
(g2
g3
Ntp1144
Rp1145
(dp1146
g7
(dp1147
g9
V1997-98 Metal Universe Precious Metal Gems Emerald #64 Grant Hill
p1148
sg11
I10
sg12
VMetal Universe Precious Metal Gems Emerald
p1149
sg14
(lp1150
Vhttp://www.beckett.com/basketball/1997-98/metal-universe-precious-metal-gems-emerald/64-grant-hill-7055513
p1151
asg17
g18
sg19
(lp1152
Vhttp://img.beckett.com/images/no-image.jpg
p1153
asg22
V#64
p1154
sg24
V1997-98
p1155
sg26
g27
sg28
(lp1156
VGrant Hill
p1157
assbag1
(g2
g3
Ntp1158
Rp1159
(dp1160
g7
(dp1161
g9
V1997-98 Metal Universe Precious Metal Gems Emerald #71 Lindsey Hunter
p1162
sg11
I10
sg12
VMetal Universe Precious Metal Gems Emerald
p1163
sg14
(lp1164
Vhttp://www.beckett.com/basketball/1997-98/metal-universe-precious-metal-gems-emerald/71-lindsey-hunter-7055520
p1165
asg17
g18
sg19
(lp1166
Vhttp://img.beckett.com/images/no-image.jpg
p1167
asg22
V#71
p1168
sg24
V1997-98
p1169
sg26
g27
sg28
(lp1170
VLindsey Hunter
p1171
assbag1
(g2
g3
Ntp1172
Rp1173
(dp1174
g7
(dp1175
g9
V1997-98 SP Authentic Profiles 3 #P25 Grant Hill
p1176
sg11
I100
sg12
VSP Authentic Profiles 3
p1177
sg14
(lp1178
Vhttp://www.beckett.com/basketball/1997-98/sp-authentic-profiles-3/p25-grant-hill-3140306
p1179
asg17
g18
sg19
(lp1180
Vhttp://img.beckett.com/images/no-image.jpg
p1181
asg22
V#P25
p1182
sg24
V1997-98
p1183
sg26
g27
sg28
(lp1184
VGrant Hill
p1185
assba.