(lp0
Naccopy_reg
_reconstructor
p1
(ctutorial.items
BeckettItem
p2
c__builtin__
object
p3
Ntp4
Rp5
(dp6
S'_values'
p7
(dp8
S'originalItemDescription'
p9
V1997 Bleachers/Fleer Gold #10 Shaquille O'Neal 1992-93
p10
sS'serialNumber'
p11
I10000
sS'setName'
p12
VBleachers/Fleer Gold
p13
sS'beckettLink'
p14
(lp15
Vhttp://www.beckett.com/basketball/1997/bleachersfleer-gold/10-shaquille-oneal-1992-93-3129466
p16
asS'team'
p17
S'Los Angeles Lakers'
p18
sS'imageLink'
p19
(lp20
Vhttp://img.beckett.com/images/no-image.jpg
p21
asS'cardNumber'
p22
V#10
p23
sS'year'
p24
V1997
p25
sS'sport'
p26
S'Basketball'
p27
sS'playerNames'
p28
(lp29
VShaquille O'Neal
p30
assbag1
(g2
g3
Ntp31
Rp32
(dp33
g7
(dp34
g9
V1997 Collector's Edge Extra #9 Kobe Bryant
p35
sg11
I100
sg12
VCollector's Edge Extra
p36
sg14
(lp37
Vhttp://www.beckett.com/basketball/1997/collectors-edge-extra/9-kobe-bryant-3129042
p38
asg17
g18
sg19
(lp39
Vhttp://img.beckett.com/images/no-image.jpg
p40
asg22
V#9
p41
sg24
V1997
p42
sg26
g27
sg28
(lp43
VKobe Bryant
p44
assbag1
(g2
g3
Ntp45
Rp46
(dp47
g7
(dp48
g9
V1997-98 E-X2001 Essential Credentials Future #7 Shaquille O'Neal/74
p49
sg11
I74
sg12
VE-X2001 Essential Credentials Future
p50
sg14
(lp51
Vhttp://www.beckett.com/basketball/1997-98/e-x2001-essential-credentials-future/7-shaquille-oneal74-3144593
p52
asg17
g18
sg19
(lp53
Vhttp://img.beckett.com/images/no-image.jpg
p54
asg22
V#7
p55
sg24
V1997-98
p56
sg26
g27
sg28
(lp57
VShaquille O'Neal
p58
assbag1
(g2
g3
Ntp59
Rp60
(dp61
g7
(dp62
g9
V1997-98 E-X2001 Essential Credentials Future #8 Kobe Bryant/73
p63
sg11
I73
sg12
VE-X2001 Essential Credentials Future
p64
sg14
(lp65
Vhttp://www.beckett.com/basketball/1997-98/e-x2001-essential-credentials-future/8-kobe-bryant73-3144594
p66
asg17
g18
sg19
(lp67
Vhttp://img.beckett.com/images/no-image.jpg
p68
asg22
V#8
p69
sg24
V1997-98
p70
sg26
g27
sg28
(lp71
VKobe Bryant
p72
assbag1
(g2
g3
Ntp73
Rp74
(dp75
g7
(dp76
g9
V1997-98 E-X2001 Essential Credentials Future #16 Eddie Jones/65
p77
sg11
I65
sg12
VE-X2001 Essential Credentials Future
p78
sg14
(lp79
Vhttp://www.beckett.com/basketball/1997-98/e-x2001-essential-credentials-future/16-eddie-jones65-3144602
p80
asg17
g18
sg19
(lp81
Vhttp://img.beckett.com/images/no-image.jpg
p82
asg22
V#16
p83
sg24
V1997-98
p84
sg26
g27
sg28
(lp85
VEddie Jones
p86
assbag1
(g2
g3
Ntp87
Rp88
(dp89
g7
(dp90
g9
V1997-98 E-X2001 Essential Credentials Now #7 Shaquille O'Neal/7
p91
sg11
I7
sg12
VE-X2001 Essential Credentials Now
p92
sg14
(lp93
Vhttp://www.beckett.com/basketball/1997-98/e-x2001-essential-credentials-now/7-shaquille-oneal7-3144680
p94
asg17
g18
sg19
(lp95
Vhttp://img.beckett.com/images/no-image.jpg
p96
asg22
V#7
p97
sg24
V1997-98
p98
sg26
g27
sg28
(lp99
VShaquille O'Neal
p100
assbag1
(g2
g3
Ntp101
Rp102
(dp103
g7
(dp104
g9
V1997-98 E-X2001 Essential Credentials Now #8 Kobe Bryant/8
p105
sg11
I8
sg12
VE-X2001 Essential Credentials Now
p106
sg14
(lp107
Vhttp://www.beckett.com/basketball/1997-98/e-x2001-essential-credentials-now/8-kobe-bryant8-3144681
p108
asg17
g18
sg19
(lp109
Vhttp://img.beckett.com/images/no-image.jpg
p110
asg22
V#8
p111
sg24
V1997-98
p112
sg26
g27
sg28
(lp113
VKobe Bryant
p114
assbag1
(g2
g3
Ntp115
Rp116
(dp117
g7
(dp118
g9
V1997-98 E-X2001 Essential Credentials Now #16 Eddie Jones/16
p119
sg11
I16
sg12
VE-X2001 Essential Credentials Now
p120
sg14
(lp121
Vhttp://www.beckett.com/basketball/1997-98/e-x2001-essential-credentials-now/16-eddie-jones16-3144689
p122
asg17
g18
sg19
(lp123
Vhttp://img.beckett.com/images/no-image.jpg
p124
asg22
V#16
p125
sg24
V1997-98
p126
sg26
g27
sg28
(lp127
VEddie Jones
p128
assbag1
(g2
g3
Ntp129
Rp130
(dp131
g7
(dp132
g9
V1997-98 Finest Embossed Refractors #137 Kobe Bryant S
p133
sg11
I263
sg12
VFinest Embossed Refractors
p134
sg14
(lp135
Vhttp://www.beckett.com/basketball/1997-98/finest-embossed-refractors/137-kobe-bryant-s-3145345
p136
asg17
g18
sg19
(lp137
Vhttp://img.beckett.com/images/no-image.jpg
p138
asg22
V#137
p139
sg24
V1997-98
p140
sS'subsetName'
p141
VS
p142
sg26
g27
sg28
(lp143
VKobe Bryant
p144
assbag1
(g2
g3
Ntp145
Rp146
(dp147
g7
(dp148
g9
V1997-98 Finest Embossed Refractors #148 Shaquille O'Neal S
p149
sg11
I263
sg12
VFinest Embossed Refractors
p150
sg14
(lp151
Vhttp://www.beckett.com/basketball/1997-98/finest-embossed-refractors/148-shaquille-oneal-s-3145356
p152
asg17
g18
sg19
(lp153
Vhttp://img.beckett.com/images/no-image.jpg
p154
asg22
V#148
p155
sg24
V1997-98
p156
sg141
g142
sg26
g27
sg28
(lp157
Vhaquille O'Neal
p158
assbag1
(g2
g3
Ntp159
Rp160
(dp161
g7
(dp162
g9
V1997-98 Finest Embossed Refractors #153 Eddie Jones S
p163
sg11
I263
sg12
VFinest Embossed Refractors
p164
sg14
(lp165
Vhttp://www.beckett.com/basketball/1997-98/finest-embossed-refractors/153-eddie-jones-s-3145361
p166
asg17
g18
sg19
(lp167
Vhttp://img.beckett.com/images/no-image.jpg
p168
asg22
V#153
p169
sg24
V1997-98
p170
sg141
g142
sg26
g27
sg28
(lp171
VEddie Jones
p172
assbag1
(g2
g3
Ntp173
Rp174
(dp175
g7
(dp176
g9
V1997-98 Finest Embossed Refractors #309 Shaquille O'Neal G
p177
sg11
I74
sg12
VFinest Embossed Refractors
p178
sg14
(lp179
Vhttp://www.beckett.com/basketball/1997-98/finest-embossed-refractors/309-shaquille-oneal-g-3145417
p180
asg17
g18
sg19
(lp181
Vhttp://img.beckett.com/images/no-image.jpg
p182
asg22
V#309
p183
sg24
V1997-98
p184
sg141
VG
p185
sg26
g27
sg28
(lp186
VShaquille O'Neal
p187
assbag1
(g2
g3
Ntp188
Rp189
(dp190
g7
(dp191
g9
V1997-98 Finest Embossed Refractors #323 Kobe Bryant G
p192
sg11
I74
sg12
VFinest Embossed Refractors
p193
sg14
(lp194
Vhttp://www.beckett.com/basketball/1997-98/finest-embossed-refractors/323-kobe-bryant-g-3145431
p195
asg17
g18
sg19
(lp196
Vhttp://img.beckett.com/images/no-image.jpg
p197
asg22
V#323
p198
sg24
V1997-98
p199
sg141
g185
sg26
g27
sg28
(lp200
VKobe Bryant
p201
assbag1
(g2
g3
Ntp202
Rp203
(dp204
g7
(dp205
g9
V1997-98 Finest Refractors #137 Kobe Bryant S
p206
sg11
I1090
sg12
VFinest Refractors
p207
sg14
(lp208
Vhttp://www.beckett.com/basketball/1997-98/finest-refractors/137-kobe-bryant-s-3145603
p209
asg17
g18
sg19
(lp210
Vhttp://img.beckett.com/images/no-image.jpg
p211
asg22
V#137
p212
sg24
V1997-98
p213
sg141
g142
sg26
g27
sg28
(lp214
VKobe Bryant
p215
assbag1
(g2
g3
Ntp216
Rp217
(dp218
g7
(dp219
g9
V1997-98 Finest Refractors #148 Shaquille O'Neal S
p220
sg11
I1090
sg12
VFinest Refractors
p221
sg14
(lp222
Vhttp://www.beckett.com/basketball/1997-98/finest-refractors/148-shaquille-oneal-s-3145614
p223
asg17
g18
sg19
(lp224
Vhttp://img.beckett.com/images/items_stock/185226/3145435/3145614/front.jpg
p225
asg22
V#148
p226
sg24
V1997-98
p227
sg141
g142
sg26
g27
sg28
(lp228
Vhaquille O'Neal
p229
assbag1
(g2
g3
Ntp230
Rp231
(dp232
g7
(dp233
g9
V1997-98 Finest Refractors #153 Eddie Jones S
p234
sg11
I1090
sg12
VFinest Refractors
p235
sg14
(lp236
Vhttp://www.beckett.com/basketball/1997-98/finest-refractors/153-eddie-jones-s-3145619
p237
asg17
g18
sg19
(lp238
Vhttp://img.beckett.com/images/no-image.jpg
p239
asg22
V#153
p240
sg24
V1997-98
p241
sg141
g142
sg26
g27
sg28
(lp242
VEddie Jones
p243
assbag1
(g2
g3
Ntp244
Rp245
(dp246
g7
(dp247
g9
V1997-98 Finest Refractors #309 Shaquille O'Neal G
p248
sg11
I289
sg12
VFinest Refractors
p249
sg14
(lp250
Vhttp://www.beckett.com/basketball/1997-98/finest-refractors/309-shaquille-oneal-g-3145775
p251
asg17
g18
sg19
(lp252
Vhttp://img.beckett.com/images/items_stock/185226/3145435/3145775/front.jpg
p253
asg22
V#309
p254
sg24
V1997-98
p255
sg141
g185
sg26
g27
sg28
(lp256
VShaquille O'Neal
p257
assbag1
(g2
g3
Ntp258
Rp259
(dp260
g7
(dp261
g9
V1997-98 Finest Refractors #323 Kobe Bryant G
p262
sg11
I289
sg12
VFinest Refractors
p263
sg14
(lp264
Vhttp://www.beckett.com/basketball/1997-98/finest-refractors/323-kobe-bryant-g-3145789
p265
asg17
g18
sg19
(lp266
Vhttp://img.beckett.com/images/no-image.jpg
p267
asg22
V#323
p268
sg24
V1997-98
p269
sg141
g185
sg26
g27
sg28
(lp270
VKobe Bryant
p271
assbag1
(g2
g3
Ntp272
Rp273
(dp274
g7
(dp275
g9
V1997-98 Flair Showcase Row 0 #7 Shaquille O'Neal
p276
sg11
I250
sg12
VFlair Showcase Row 0
p277
sg14
(lp278
Vhttp://www.beckett.com/basketball/1997-98/flair-showcase-row-0/7-shaquille-oneal-3146105
p279
asg17
g18
sg19
(lp280
Vhttp://img.beckett.com/images/no-image.jpg
p281
asg22
V#7
p282
sg24
V1997-98
p283
sg26
g27
sg28
(lp284
VShaquille O'Neal
p285
assbag1
(g2
g3
Ntp286
Rp287
(dp288
g7
(dp289
g9
V1997-98 Flair Showcase Row 0 #18 Kobe Bryant
p290
sg11
I250
sg12
VFlair Showcase Row 0
p291
sg14
(lp292
Vhttp://www.beckett.com/basketball/1997-98/flair-showcase-row-0/18-kobe-bryant-3146116
p293
asg17
g18
sg19
(lp294
Vhttp://img.beckett.com/images/no-image.jpg
p295
asg22
V#18
p296
sg24
V1997-98
p297
sg26
g27
sg28
(lp298
VKobe Bryant
p299
assbag1
(g2
g3
Ntp300
Rp301
(dp302
g7
(dp303
g9
V1997-98 Flair Showcase Row 0 #31 Eddie Jones
p304
sg11
I500
sg12
VFlair Showcase Row 0
p305
sg14
(lp306
Vhttp://www.beckett.com/basketball/1997-98/flair-showcase-row-0/31-eddie-jones-3146129
p307
asg17
g18
sg19
(lp308
Vhttp://img.beckett.com/images/no-image.jpg
p309
asg22
V#31
p310
sg24
V1997-98
p311
sg26
g27
sg28
(lp312
VEddie Jones
p313
assbag1
(g2
g3
Ntp314
Rp315
(dp316
g7
(dp317
g9
V1997-98 Flair Showcase Legacy Collection Row 3 #7 Shaquille O'Neal
p318
sg11
I100
sg12
VFlair Showcase Legacy Collection Row 3
p319
sg14
(lp320
Vhttp://www.beckett.com/basketball/1997-98/flair-showcase-legacy-collection-row-3/7-shaquille-oneal-3148565
p321
asg17
g18
sg19
(lp322
Vhttp://img.beckett.com/images/no-image.jpg
p323
asg22
V#7
p324
sg24
V1997-98
p325
sg26
g27
sg28
(lp326
VShaquille O'Neal
p327
assbag1
(g2
g3
Ntp328
Rp329
(dp330
g7
(dp331
g9
V1997-98 Flair Showcase Legacy Collection Row 3 #18 Kobe Bryant
p332
sg11
I100
sg12
VFlair Showcase Legacy Collection Row 3
p333
sg14
(lp334
Vhttp://www.beckett.com/basketball/1997-98/flair-showcase-legacy-collection-row-3/18-kobe-bryant-3148576
p335
asg17
g18
sg19
(lp336
Vhttp://img.beckett.com/images/no-image.jpg
p337
asg22
V#18
p338
sg24
V1997-98
p339
sg26
g27
sg28
(lp340
VKobe Bryant
p341
assbag1
(g2
g3
Ntp342
Rp343
(dp344
g7
(dp345
g9
V1997-98 Flair Showcase Legacy Collection Row 3 #31 Eddie Jones
p346
sg11
I100
sg12
VFlair Showcase Legacy Collection Row 3
p347
sg14
(lp348
Vhttp://www.beckett.com/basketball/1997-98/flair-showcase-legacy-collection-row-3/31-eddie-jones-3148589
p349
asg17
g18
sg19
(lp350
Vhttp://img.beckett.com/images/no-image.jpg
p351
asg22
V#31
p352
sg24
V1997-98
p353
sg26
g27
sg28
(lp354
VEddie Jones
p355
assbag1
(g2
g3
Ntp356
Rp357
(dp358
g7
(dp359
g9
V1997-98 Flair Showcase Legacy Collection Row 2 #18 Kobe Bryant
p360
sg11
I100
sg12
VFlair Showcase Legacy Collection Row 2
p361
sg14
(lp362
Vhttp://www.beckett.com/basketball/1997-98/flair-showcase-legacy-collection-row-2/18-kobe-bryant-3148486
p363
asg17
g18
sg19
(lp364
Vhttp://img.beckett.com/images/no-image.jpg
p365
asg22
V#18
p366
sg24
V1997-98
p367
sg26
g27
sg28
(lp368
VKobe Bryant
p369
assbag1
(g2
g3
Ntp370
Rp371
(dp372
g7
(dp373
g9
V1997-98 Flair Showcase Legacy Collection Row 1 #18 Kobe Bryant
p374
sg11
I100
sg12
VFlair Showcase Legacy Collection Row 1
p375
sg14
(lp376
Vhttp://www.beckett.com/basketball/1997-98/flair-showcase-legacy-collection-row-1/18-kobe-bryant-3148401
p377
asg17
g18
sg19
(lp378
Vhttp://img.beckett.com/images/no-image.jpg
p379
asg22
V#18
p380
sg24
V1997-98
p381
sg26
g27
sg28
(lp382
VKobe Bryant
p383
assbag1
(g2
g3
Ntp384
Rp385
(dp386
g7
(dp387
g9
V1997-98 Flair Showcase Legacy Collection Row 0 #18 Kobe Bryant
p388
sg11
I100
sg12
VFlair Showcase Legacy Collection Row 0
p389
sg14
(lp390
Vhttp://www.beckett.com/basketball/1997-98/flair-showcase-legacy-collection-row-0/18-kobe-bryant-3149284
p391
asg17
g18
sg19
(lp392
Vhttp://img.beckett.com/images/no-image.jpg
p393
asg22
V#18
p394
sg24
V1997-98
p395
sg26
g27
sg28
(lp396
VKobe Bryant
p397
assbag1
(g2
g3
Ntp398
Rp399
(dp400
g7
(dp401
g9
V1997-98 Metal Universe Precious Metal Gems #3 Derek Fisher
p402
sg11
I90
sg12
VMetal Universe Precious Metal Gems
p403
sg14
(lp404
Vhttp://www.beckett.com/basketball/1997-98/metal-universe-precious-metal-gems/3-derek-fisher-3142594
p405
asg17
g18
sg19
(lp406
Vhttp://img.beckett.com/images/no-image.jpg
p407
asg22
V#3
p408
sg24
V1997-98
p409
sg26
g27
sg28
(lp410
VDerek Fisher
p411
assbag1
(g2
g3
Ntp412
Rp413
(dp414
g7
(dp415
g9
V1997-98 Metal Universe Precious Metal Gems #50 Shaquille O'Neal
p416
sg11
I90
sg12
VMetal Universe Precious Metal Gems
p417
sg14
(lp418
Vhttp://www.beckett.com/basketball/1997-98/metal-universe-precious-metal-gems/50-shaquille-oneal-3142642
p419
asg17
g18
sg19
(lp420
Vhttp://img.beckett.com/images/no-image.jpg
p421
asg22
V#50
p422
sg24
V1997-98
p423
sg26
g27
sg28
(lp424
VShaquille O'Neal
p425
assbag1
(g2
g3
Ntp426
Rp427
(dp428
g7
(dp429
g9
V1997-98 Metal Universe Precious Metal Gems #81 Kobe Bryant
p430
sg11
I90
sg12
VMetal Universe Precious Metal Gems
p431
sg14
(lp432
Vhttp://www.beckett.com/basketball/1997-98/metal-universe-precious-metal-gems/81-kobe-bryant-3142673
p433
asg17
g18
sg19
(lp434
Vhttp://img.beckett.com/images/no-image.jpg
p435
asg22
V#81
p436
sg24
V1997-98
p437
sg26
g27
sg28
(lp438
VKobe Bryant
p439
assbag1
(g2
g3
Ntp440
Rp441
(dp442
g7
(dp443
g9
V1997-98 Metal Universe Precious Metal Gems #94 Eddie Jones
p444
sg11
I90
sg12
VMetal Universe Precious Metal Gems
p445
sg14
(lp446
Vhttp://www.beckett.com/basketball/1997-98/metal-universe-precious-metal-gems/94-eddie-jones-3142686
p447
asg17
g18
sg19
(lp448
Vhttp://img.beckett.com/images/no-image.jpg
p449
asg22
V#94
p450
sg24
V1997-98
p451
sg26
g27
sg28
(lp452
VEddie Jones
p453
assbag1
(g2
g3
Ntp454
Rp455
(dp456
g7
(dp457
g9
V1997-98 Metal Universe Championship Precious Metal Gems #1 Shaquille O'Neal
p458
sg11
I50
sg12
VMetal Universe Championship Precious Metal Gems
p459
sg14
(lp460
Vhttp://www.beckett.com/basketball/1997-98/metal-universe-championship-precious-metal-gems/1-shaquille-oneal-3140676
p461
asg17
g18
sg19
(lp462
Vhttp://img.beckett.com/images/no-image.jpg
p463
asg22
V#1
p464
sg24
V1997-98
p465
sg26
g27
sg28
(lp466
VShaquille O'Neal
p467
assbag1
(g2
g3
Ntp468
Rp469
(dp470
g7
(dp471
g9
V1997-98 Metal Universe Championship Precious Metal Gems #63 Eddie Jones
p472
sg11
I50
sg12
VMetal Universe Championship Precious Metal Gems
p473
sg14
(lp474
Vhttp://www.beckett.com/basketball/1997-98/metal-universe-championship-precious-metal-gems/63-eddie-jones-3140738
p475
asg17
g18
sg19
(lp476
Vhttp://img.beckett.com/images/no-image.jpg
p477
asg22
V#63
p478
sg24
V1997-98
p479
sg26
g27
sg28
(lp480
VEddie Jones
p481
assbag1
(g2
g3
Ntp482
Rp483
(dp484
g7
(dp485
g9
V1997-98 Metal Universe Championship Precious Metal Gems #86 Kobe Bryant
p486
sg11
I50
sg12
VMetal Universe Championship Precious Metal Gems
p487
sg14
(lp488
Vhttp://www.beckett.com/basketball/1997-98/metal-universe-championship-precious-metal-gems/86-kobe-bryant-3140761
p489
asg17
g18
sg19
(lp490
Vhttp://img.beckett.com/images/no-image.jpg
p491
asg22
V#86
p492
sg24
V1997-98
p493
sg26
g27
sg28
(lp494
VKobe Bryant
p495
assbag1
(g2
g3
Ntp496
Rp497
(dp498
g7
(dp499
g9
V1997-98 SkyBox Premium Star Rubies #23 Kobe Bryant
p500
sg11
I50
sg12
VSkyBox Premium Star Rubies
p501
sg14
(lp502
Vhttp://www.beckett.com/basketball/1997-98/skybox-premium-star-rubies/23-kobe-bryant-3141194
p503
asg17
g18
sg19
(lp504
Vhttp://img.beckett.com/images/no-image.jpg
p505
asg22
V#23
p506
sg24
V1997-98
p507
sg26
g27
sg28
(lp508
VKobe Bryant
p509
assbag1
(g2
g3
Ntp510
Rp511
(dp512
g7
(dp513
g9
V1997-98 SkyBox Premium Star Rubies #76 Derek Fisher
p514
sg11
I50
sg12
VSkyBox Premium Star Rubies
p515
sg14
(lp516
Vhttp://www.beckett.com/basketball/1997-98/skybox-premium-star-rubies/76-derek-fisher-3141247
p517
asg17
g18
sg19
(lp518
Vhttp://img.beckett.com/images/no-image.jpg
p519
asg22
V#76
p520
sg24
V1997-98
p521
sg26
g27
sg28
(lp522
VDerek Fisher
p523
assbag1
(g2
g3
Ntp524
Rp525
(dp526
g7
(dp527
g9
V1997-98 SkyBox Premium Star Rubies #86 Robert Horry
p528
sg11
I50
sg12
VSkyBox Premium Star Rubies
p529
sg14
(lp530
Vhttp://www.beckett.com/basketball/1997-98/skybox-premium-star-rubies/86-robert-horry-3141257
p531
asg17
g18
sg19
(lp532
Vhttp://img.beckett.com/images/no-image.jpg
p533
asg22
V#86
p534
sg24
V1997-98
p535
sg26
g27
sg28
(lp536
VRobert Horry
p537
assbag1
(g2
g3
Ntp538
Rp539
(dp540
g7
(dp541
g9
V1997-98 SkyBox Premium Star Rubies #90 Eddie Jones
p542
sg11
I50
sg12
VSkyBox Premium Star Rubies
p543
sg14
(lp544
Vhttp://www.beckett.com/basketball/1997-98/skybox-premium-star-rubies/90-eddie-jones-3141261
p545
asg17
g18
sg19
(lp546
Vhttp://img.beckett.com/images/no-image.jpg
p547
asg22
V#90
p548
sg24
V1997-98
p549
sg26
g27
sg28
(lp550
VEddie Jones
p551
assbag1
(g2
g3
Ntp552
Rp553
(dp554
g7
(dp555
g9
V1997-98 SkyBox Premium Star Rubies #116 Shaquille O'Neal
p556
sg11
I50
sg12
VSkyBox Premium Star Rubies
p557
sg14
(lp558
Vhttp://www.beckett.com/basketball/1997-98/skybox-premium-star-rubies/116-shaquille-oneal-3141287
p559
asg17
g18
sg19
(lp560
Vhttp://img.beckett.com/images/no-image.jpg
p561
asg22
V#116
p562
sg24
V1997-98
p563
sg26
g27
sg28
(lp564
VShaquille O'Neal
p565
assbag1
(g2
g3
Ntp566
Rp567
(dp568
g7
(dp569
g9
V1997-98 SkyBox Premium Star Rubies #196 Jon Barry
p570
sg11
I50
sg12
VSkyBox Premium Star Rubies
p571
sg14
(lp572
Vhttp://www.beckett.com/basketball/1997-98/skybox-premium-star-rubies/196-jon-barry-3141365
p573
asg17
g18
sg19
(lp574
Vhttp://img.beckett.com/images/no-image.jpg
p575
asg22
V#196
p576
sg24
V1997-98
p577
sg26
g27
sg28
(lp578
VJon Barry
p579
assbag1
(g2
g3
Ntp580
Rp581
(dp582
g7
(dp583
g9
V1997-98 SkyBox Premium Star Rubies #226 Kobe Bryant TS
p584
sg11
I50
sg12
VSkyBox Premium Star Rubies
p585
sg14
(lp586
Vhttp://www.beckett.com/basketball/1997-98/skybox-premium-star-rubies/226-kobe-bryant-ts-3141395
p587
asg17
g18
sg19
(lp588
Vhttp://img.beckett.com/images/no-image.jpg
p589
asg22
V#226
p590
sg24
V1997-98
p591
sg141
VTS
p592
sg26
g27
sg28
(lp593
VKobe Bryant
p594
assbag1
(g2
g3
Ntp595
Rp596
(dp597
g7
(dp598
g9
V1997-98 SkyBox Premium Star Rubies #240 Shaquille O'Neal TS
p599
sg11
I50
sg12
VSkyBox Premium Star Rubies
p600
sg14
(lp601
Vhttp://www.beckett.com/basketball/1997-98/skybox-premium-star-rubies/240-shaquille-oneal-ts-3141409
p602
asg17
g18
sg19
(lp603
Vhttp://img.beckett.com/images/no-image.jpg
p604
asg22
V#240
p605
sg24
V1997-98
p606
sg141
VTS
p607
sg26
g27
sg28
(lp608
VShaquille O'Neal
p609
assbag1
(g2
g3
Ntp610
Rp611
(dp612
g7
(dp613
g9
V1997-98 SkyBox Premium Autographics Century Marks #13 Corie Blount
p614
sg11
I100
sg12
VSkyBox Premium Autographics Century Marks
p615
sg14
(lp616
Vhttp://www.beckett.com/basketball/1997-98/skybox-premium-autographics-century-marks/13-corie-blount-3141595
p617
asg17
g18
sg19
(lp618
Vhttp://img.beckett.com/images/no-image.jpg
p619
asg22
V#13
p620
sS'autograph'
p621
I1
sg24
V1997-98
p622
sg26
g27
sg28
(lp623
VCorie Blount
p624
assbag1
(g2
g3
Ntp625
Rp626
(dp627
g7
(dp628
g9
V1997-98 SkyBox Premium Autographics Century Marks #38 Derek Fisher
p629
sg11
I100
sg12
VSkyBox Premium Autographics Century Marks
p630
sg14
(lp631
Vhttp://www.beckett.com/basketball/1997-98/skybox-premium-autographics-century-marks/38-derek-fisher-3141620
p632
asg17
g18
sg19
(lp633
Vhttp://img.beckett.com/images/no-image.jpg
p634
asg22
V#38
p635
sg621
I1
sg24
V1997-98
p636
sg26
g27
sg28
(lp637
VDerek Fisher
p638
assbag1
(g2
g3
Ntp639
Rp640
(dp641
g7
(dp642
g9
V1997-98 SkyBox Premium Autographics Century Marks #103 Nick Van Exel
p643
sg11
I100
sg12
VSkyBox Premium Autographics Century Marks
p644
sg14
(lp645
Vhttp://www.beckett.com/basketball/1997-98/skybox-premium-autographics-century-marks/103-nick-van-exel-3141685
p646
asg17
g18
sg19
(lp647
Vhttp://img.beckett.com/images/no-image.jpg
p648
asg22
V#103
p649
sg621
I1
sg24
V1997-98
p650
sg26
g27
sg28
(lp651
VNick Van Exel
p652
assbag1
(g2
g3
Ntp653
Rp654
(dp655
g7
(dp656
g9
V1997-98 SPx Grand Finale #21 Kobe Bryant
p657
sg11
I50
sg12
VSPx Grand Finale
p658
sg14
(lp659
Vhttp://www.beckett.com/basketball/1997-98/spx-grand-finale/21-kobe-bryant-3137705
p660
asg17
g18
sg19
(lp661
Vhttp://img.beckett.com/images/no-image.jpg
p662
asg22
V#21
p663
sg24
V1997-98
p664
sg26
g27
sg28
(lp665
VKobe Bryant
p666
assbag1
(g2
g3
Ntp667
Rp668
(dp669
g7
(dp670
g9
V1997-98 SPx Grand Finale #22 Shaquille O'Neal
p671
sg11
I50
sg12
VSPx Grand Finale
p672
sg14
(lp673
Vhttp://www.beckett.com/basketball/1997-98/spx-grand-finale/22-shaquille-oneal-3137706
p674
asg17
g18
sg19
(lp675
Vhttp://img.beckett.com/images/no-image.jpg
p676
asg22
V#22
p677
sg24
V1997-98
p678
sg26
g27
sg28
(lp679
VShaquille O'Neal
p680
assbag1
(g2
g3
Ntp681
Rp682
(dp683
g7
(dp684
g9
V1997-98 Stadium Club One Of A Kind #10 Nick Van Exel
p685
sg11
I150
sg12
VStadium Club One Of A Kind
p686
sg14
(lp687
Vhttp://www.beckett.com/basketball/1997-98/stadium-club-one-of-a-kind/10-nick-van-exel-3138309
p688
asg17
g18
sg19
(lp689
Vhttp://img.beckett.com/images/no-image.jpg
p690
asg22
V#10
p691
sg24
V1997-98
p692
sg26
g27
sg28
(lp693
VNick Van Exel
p694
assbag1
(g2
g3
Ntp695
Rp696
(dp697
g7
(dp698
g9
V1997-98 Stadium Club One Of A Kind #43 Shaquille O'Neal
p699
sg11
I150
sg12
VStadium Club One Of A Kind
p700
sg14
(lp701
Vhttp://www.beckett.com/basketball/1997-98/stadium-club-one-of-a-kind/43-shaquille-oneal-3138342
p702
asg17
g18
sg19
(lp703
Vhttp://img.beckett.com/images/no-image.jpg
p704
asg22
V#43
p705
sg24
V1997-98
p706
sg26
g27
sg28
(lp707
VShaquille O'Neal
p708
assbag1
(g2
g3
Ntp709
Rp710
(dp711
g7
(dp712
g9
V1997-98 Stadium Club One Of A Kind #78 Sean Rooks
p713
sg11
I150
sg12
VStadium Club One Of A Kind
p714
sg14
(lp715
Vhttp://www.beckett.com/basketball/1997-98/stadium-club-one-of-a-kind/78-sean-rooks-3138377
p716
asg17
g18
sg19
(lp717
Vhttp://img.beckett.com/images/no-image.jpg
p718
asg22
V#78
p719
sg24
V1997-98
p720
sg26
g27
sg28
(lp721
VSean Rooks
p722
assbag1
(g2
g3
Ntp723
Rp724
(dp725
g7
(dp726
g9
V1997-98 Stadium Club One Of A Kind #146 Kobe Bryant
p727
sg11
I150
sg12
VStadium Club One Of A Kind
p728
sg14
(lp729
Vhttp://www.beckett.com/basketball/1997-98/stadium-club-one-of-a-kind/146-kobe-bryant-3138445
p730
asg17
g18
sg19
(lp731
Vhttp://img.beckett.com/images/no-image.jpg
p732
asg22
V#146
p733
sg24
V1997-98
p734
sg26
g27
sg28
(lp735
VKobe Bryant
p736
assbag1
(g2
g3
Ntp737
Rp738
(dp739
g7
(dp740
g9
V1997-98 Stadium Club One Of A Kind #161 Robert Horry
p741
sg11
I150
sg12
VStadium Club One Of A Kind
p742
sg14
(lp743
Vhttp://www.beckett.com/basketball/1997-98/stadium-club-one-of-a-kind/161-robert-horry-3138460
p744
asg17
g18
sg19
(lp745
Vhttp://img.beckett.com/images/items_stock/185226/3138288/3138460/front.jpg
p746
asg22
V#161
p747
sg24
V1997-98
p748
sg26
g27
sg28
(lp749
VRobert Horry
p750
assbag1
(g2
g3
Ntp751
Rp752
(dp753
g7
(dp754
g9
V1997-98 Stadium Club One Of A Kind #185 Derek Fisher
p755
sg11
I150
sg12
VStadium Club One Of A Kind
p756
sg14
(lp757
Vhttp://www.beckett.com/basketball/1997-98/stadium-club-one-of-a-kind/185-derek-fisher-3138484
p758
asg17
g18
sg19
(lp759
Vhttp://img.beckett.com/images/no-image.jpg
p760
asg22
V#185
p761
sg24
V1997-98
p762
sg26
g27
sg28
(lp763
VDerek Fisher
p764
assbag1
(g2
g3
Ntp765
Rp766
(dp767
g7
(dp768
g9
V1997-98 Stadium Club One Of A Kind #186 Eddie Jones
p769
sg11
I150
sg12
VStadium Club One Of A Kind
p770
sg14
(lp771
Vhttp://www.beckett.com/basketball/1997-98/stadium-club-one-of-a-kind/186-eddie-jones-3138485
p772
asg17
g18
sg19
(lp773
Vhttp://img.beckett.com/images/items_stock/185226/3138288/3138485/front.jpg
p774
asg22
V#186
p775
sg24
V1997-98
p776
sg26
g27
sg28
(lp777
VEddie Jones
p778
assbag1
(g2
g3
Ntp779
Rp780
(dp781
g7
(dp782
g9
V1997-98 Stadium Club Printing Plates #10 Nick Van Exel Black
p783
sg11
I1
sg12
VStadium Club Printing Plates
p784
sg14
(lp785
Vhttp://www.beckett.com/basketball/1997-98/stadium-club-printing-plates/10-nick-van-exel-black-3138581
p786
asg17
g18
sg19
(lp787
Vhttp://img.beckett.com/images/no-image.jpg
p788
asg22
V#10
p789
sg24
V1997-98
p790
sg26
g27
sg28
(lp791
VNick Van Exel Black
p792
assbag1
(g2
g3
Ntp793
Rp794
(dp795
g7
(dp796
g9
V1997-98 Stadium Club Printing Plates #10A Nick Van Exel Cyan
p797
sg11
I1
sg12
VStadium Club Printing Plates
p798
sg14
(lp799
Vhttp://www.beckett.com/basketball/1997-98/stadium-club-printing-plates/10a-nick-van-exel-cyan-3138582
p800
asg17
g18
sg19
(lp801
Vhttp://img.beckett.com/images/no-image.jpg
p802
asg22
V#10A
p803
sg24
V1997-98
p804
sg26
g27
sg28
(lp805
VNick Van Exel Cyan
p806
assbag1
(g2
g3
Ntp807
Rp808
(dp809
g7
(dp810
g9
V1997-98 Stadium Club Printing Plates #10B Nick Van Exel Magenta
p811
sg11
I1
sg12
VStadium Club Printing Plates
p812
sg14
(lp813
Vhttp://www.beckett.com/basketball/1997-98/stadium-club-printing-plates/10b-nick-van-exel-magenta-3138583
p814
asg17
g18
sg19
(lp815
Vhttp://img.beckett.com/images/no-image.jpg
p816
asg22
V#10B
p817
sg24
V1997-98
p818
sg26
g27
sg28
(lp819
VNick Van Exel Magenta
p820
assbag1
(g2
g3
Ntp821
Rp822
(dp823
g7
(dp824
g9
V1997-98 Stadium Club Printing Plates #10C Nick Van Exel Yellow
p825
sg11
I1
sg12
VStadium Club Printing Plates
p826
sg14
(lp827
Vhttp://www.beckett.com/basketball/1997-98/stadium-club-printing-plates/10c-nick-van-exel-yellow-3138584
p828
asg17
g18
sg19
(lp829
Vhttp://img.beckett.com/images/no-image.jpg
p830
asg22
V#10C
p831
sg24
V1997-98
p832
sg26
g27
sg28
(lp833
VNick Van Exel Yellow
p834
assbag1
(g2
g3
Ntp835
Rp836
(dp837
g7
(dp838
g9
V1997-98 Stadium Club Printing Plates #43 Shaquille O'Neal Black
p839
sg11
I1
sg12
VStadium Club Printing Plates
p840
sg14
(lp841
Vhttp://www.beckett.com/basketball/1997-98/stadium-club-printing-plates/43-shaquille-oneal-black-3138713
p842
asg17
g18
sg19
(lp843
Vhttp://img.beckett.com/images/no-image.jpg
p844
asg22
V#43
p845
sg24
V1997-98
p846
sg26
g27
sg28
(lp847
VShaquille O'Neal Black
p848
assbag1
(g2
g3
Ntp849
Rp850
(dp851
g7
(dp852
g9
V1997-98 Stadium Club Printing Plates #43A Shaquille O'Neal Cyan
p853
sg11
I1
sg12
VStadium Club Printing Plates
p854
sg14
(lp855
Vhttp://www.beckett.com/basketball/1997-98/stadium-club-printing-plates/43a-shaquille-oneal-cyan-3138714
p856
asg17
g18
sg19
(lp857
Vhttp://img.beckett.com/images/no-image.jpg
p858
asg22
V#43A
p859
sg24
V1997-98
p860
sg26
g27
sg28
(lp861
VShaquille O'Neal Cyan
p862
assbag1
(g2
g3
Ntp863
Rp864
(dp865
g7
(dp866
g9
V1997-98 Stadium Club Printing Plates #43B Shaquille O'Neal Magenta
p867
sg11
I1
sg12
VStadium Club Printing Plates
p868
sg14
(lp869
Vhttp://www.beckett.com/basketball/1997-98/stadium-club-printing-plates/43b-shaquille-oneal-magenta-3138715
p870
asg17
g18
sg19
(lp871
Vhttp://img.beckett.com/images/no-image.jpg
p872
asg22
V#43B
p873
sg24
V1997-98
p874
sg26
g27
sg28
(lp875
VShaquille O'Neal Magenta
p876
assbag1
(g2
g3
Ntp877
Rp878
(dp879
g7
(dp880
g9
V1997-98 Stadium Club Printing Plates #43C Shaquille O'Neal Yellow
p881
sg11
I1
sg12
VStadium Club Printing Plates
p882
sg14
(lp883
Vhttp://www.beckett.com/basketball/1997-98/stadium-club-printing-plates/43c-shaquille-oneal-yellow-3138716
p884
asg17
g18
sg19
(lp885
Vhttp://img.beckett.com/images/no-image.jpg
p886
asg22
V#43C
p887
sg24
V1997-98
p888
sg26
g27
sg28
(lp889
VShaquille O'Neal Yellow
p890
assbag1
(g2
g3
Ntp891
Rp892
(dp893
g7
(dp894
g9
V1997-98 Stadium Club Printing Plates #78 Sean Rooks Black
p895
sg11
I1
sg12
VStadium Club Printing Plates
p896
sg14
(lp897
Vhttp://www.beckett.com/basketball/1997-98/stadium-club-printing-plates/78-sean-rooks-black-3138853
p898
asg17
g18
sg19
(lp899
Vhttp://img.beckett.com/images/no-image.jpg
p900
asg22
V#78
p901
sg24
V1997-98
p902
sg26
g27
sg28
(lp903
VSean Rooks Black
p904
assbag1
(g2
g3
Ntp905
Rp906
(dp907
g7
(dp908
g9
V1997-98 Stadium Club Printing Plates #78A Sean Rooks Cyan
p909
sg11
I1
sg12
VStadium Club Printing Plates
p910
sg14
(lp911
Vhttp://www.beckett.com/basketball/1997-98/stadium-club-printing-plates/78a-sean-rooks-cyan-3138854
p912
asg17
g18
sg19
(lp913
Vhttp://img.beckett.com/images/no-image.jpg
p914
asg22
V#78A
p915
sg24
V1997-98
p916
sg26
g27
sg28
(lp917
VSean Rooks Cyan
p918
assbag1
(g2
g3
Ntp919
Rp920
(dp921
g7
(dp922
g9
V1997-98 Stadium Club Printing Plates #78B Sean Rooks Magenta
p923
sg11
I1
sg12
VStadium Club Printing Plates
p924
sg14
(lp925
Vhttp://www.beckett.com/basketball/1997-98/stadium-club-printing-plates/78b-sean-rooks-magenta-3138855
p926
asg17
g18
sg19
(lp927
Vhttp://img.beckett.com/images/no-image.jpg
p928
asg22
V#78B
p929
sg24
V1997-98
p930
sg26
g27
sg28
(lp931
VSean Rooks Magenta
p932
assbag1
(g2
g3
Ntp933
Rp934
(dp935
g7
(dp936
g9
V1997-98 Stadium Club Printing Plates #78C Sean Rooks Yellow
p937
sg11
I1
sg12
VStadium Club Printing Plates
p938
sg14
(lp939
Vhttp://www.beckett.com/basketball/1997-98/stadium-club-printing-plates/78c-sean-rooks-yellow-3138856
p940
asg17
g18
sg19
(lp941
Vhttp://img.beckett.com/images/no-image.jpg
p942
asg22
V#78C
p943
sg24
V1997-98
p944
sg26
g27
sg28
(lp945
VSean Rooks Yellow
p946
assbag1
(g2
g3
Ntp947
Rp948
(dp949
g7
(dp950
g9
V1997-98 Stadium Club Printing Plates #146 Kobe Bryant Black
p951
sg11
I1
sg12
VStadium Club Printing Plates
p952
sg14
(lp953
Vhttp://www.beckett.com/basketball/1997-98/stadium-club-printing-plates/146-kobe-bryant-black-3139125
p954
asg17
g18
sg19
(lp955
Vhttp://img.beckett.com/images/no-image.jpg
p956
asg22
V#146
p957
sg24
V1997-98
p958
sg26
g27
sg28
(lp959
VKobe Bryant Black
p960
assbag1
(g2
g3
Ntp961
Rp962
(dp963
g7
(dp964
g9
V1997-98 Stadium Club Printing Plates #146A Kobe Bryant Cyan
p965
sg11
I1
sg12
VStadium Club Printing Plates
p966
sg14
(lp967
Vhttp://www.beckett.com/basketball/1997-98/stadium-club-printing-plates/146a-kobe-bryant-cyan-3139126
p968
asg17
g18
sg19
(lp969
Vhttp://img.beckett.com/images/no-image.jpg
p970
asg22
V#146A
p971
sg24
V1997-98
p972
sg26
g27
sg28
(lp973
VKobe Bryant Cyan
p974
assbag1
(g2
g3
Ntp975
Rp976
(dp977
g7
(dp978
g9
V1997-98 Stadium Club Printing Plates #146B Kobe Bryant Magenta
p979
sg11
I1
sg12
VStadium Club Printing Plates
p980
sg14
(lp981
Vhttp://www.beckett.com/basketball/1997-98/stadium-club-printing-plates/146b-kobe-bryant-magenta-3139127
p982
asg17
g18
sg19
(lp983
Vhttp://img.beckett.com/images/no-image.jpg
p984
asg22
V#146B
p985
sg24
V1997-98
p986
sg26
g27
sg28
(lp987
VKobe Bryant Magenta
p988
assbag1
(g2
g3
Ntp989
Rp990
(dp991
g7
(dp992
g9
V1997-98 Stadium Club Printing Plates #146C Kobe Bryant Yellow
p993
sg11
I1
sg12
VStadium Club Printing Plates
p994
sg14
(lp995
Vhttp://www.beckett.com/basketball/1997-98/stadium-club-printing-plates/146c-kobe-bryant-yellow-3139128
p996
asg17
g18
sg19
(lp997
Vhttp://img.beckett.com/images/no-image.jpg
p998
asg22
V#146C
p999
sg24
V1997-98
p1000
sg26
g27
sg28
(lp1001
VKobe Bryant Yellow
p1002
assbag1
(g2
g3
Ntp1003
Rp1004
(dp1005
g7
(dp1006
g9
V1997-98 Stadium Club Printing Plates #161 Robert Horry Black
p1007
sg11
I1
sg12
VStadium Club Printing Plates
p1008
sg14
(lp1009
Vhttp://www.beckett.com/basketball/1997-98/stadium-club-printing-plates/161-robert-horry-black-3139185
p1010
asg17
g18
sg19
(lp1011
Vhttp://img.beckett.com/images/no-image.jpg
p1012
asg22
V#161
p1013
sg24
V1997-98
p1014
sg26
g27
sg28
(lp1015
VRobert Horry Black
p1016
assbag1
(g2
g3
Ntp1017
Rp1018
(dp1019
g7
(dp1020
g9
V1997-98 Stadium Club Printing Plates #161A Robert Horry Cyan
p1021
sg11
I1
sg12
VStadium Club Printing Plates
p1022
sg14
(lp1023
Vhttp://www.beckett.com/basketball/1997-98/stadium-club-printing-plates/161a-robert-horry-cyan-3139186
p1024
asg17
g18
sg19
(lp1025
Vhttp://img.beckett.com/images/no-image.jpg
p1026
asg22
V#161A
p1027
sg24
V1997-98
p1028
sg26
g27
sg28
(lp1029
VRobert Horry Cyan
p1030
assbag1
(g2
g3
Ntp1031
Rp1032
(dp1033
g7
(dp1034
g9
V1997-98 Stadium Club Printing Plates #161B Robert Horry Magenta
p1035
sg11
I1
sg12
VStadium Club Printing Plates
p1036
sg14
(lp1037
Vhttp://www.beckett.com/basketball/1997-98/stadium-club-printing-plates/161b-robert-horry-magenta-3139187
p1038
asg17
g18
sg19
(lp1039
Vhttp://img.beckett.com/images/no-image.jpg
p1040
asg22
V#161B
p1041
sg24
V1997-98
p1042
sg26
g27
sg28
(lp1043
VRobert Horry Magenta
p1044
assbag1
(g2
g3
Ntp1045
Rp1046
(dp1047
g7
(dp1048
g9
V1997-98 Stadium Club Printing Plates #161C Robert Horry Yellow
p1049
sg11
I1
sg12
VStadium Club Printing Plates
p1050
sg14
(lp1051
Vhttp://www.beckett.com/basketball/1997-98/stadium-club-printing-plates/161c-robert-horry-yellow-3139188
p1052
asg17
g18
sg19
(lp1053
Vhttp://img.beckett.com/images/no-image.jpg
p1054
asg22
V#161C
p1055
sg24
V1997-98
p1056
sg26
g27
sg28
(lp1057
VRobert Horry Yellow
p1058
assbag1
(g2
g3
Ntp1059
Rp1060
(dp1061
g7
(dp1062
g9
V1997-98 Stadium Club Printing Plates #185 Derek Fisher Black
p1063
sg11
I1
sg12
VStadium Club Printing Plates
p1064
sg14
(lp1065
Vhttp://www.beckett.com/basketball/1997-98/stadium-club-printing-plates/185-derek-fisher-black-3139281
p1066
asg17
g18
sg19
(lp1067
Vhttp://img.beckett.com/images/no-image.jpg
p1068
asg22
V#185
p1069
sg24
V1997-98
p1070
sg26
g27
sg28
(lp1071
VDerek Fisher Black
p1072
assbag1
(g2
g3
Ntp1073
Rp1074
(dp1075
g7
(dp1076
g9
V1997-98 Stadium Club Printing Plates #185A Derek Fisher Cyan
p1077
sg11
I1
sg12
VStadium Club Printing Plates
p1078
sg14
(lp1079
Vhttp://www.beckett.com/basketball/1997-98/stadium-club-printing-plates/185a-derek-fisher-cyan-3139282
p1080
asg17
g18
sg19
(lp1081
Vhttp://img.beckett.com/images/no-image.jpg
p1082
asg22
V#185A
p1083
sg24
V1997-98
p1084
sg26
g27
sg28
(lp1085
VDerek Fisher Cyan
p1086
assbag1
(g2
g3
Ntp1087
Rp1088
(dp1089
g7
(dp1090
g9
V1997-98 Stadium Club Printing Plates #185B Derek Fisher Magenta
p1091
sg11
I1
sg12
VStadium Club Printing Plates
p1092
sg14
(lp1093
Vhttp://www.beckett.com/basketball/1997-98/stadium-club-printing-plates/185b-derek-fisher-magenta-3139283
p1094
asg17
g18
sg19
(lp1095
Vhttp://img.beckett.com/images/no-image.jpg
p1096
asg22
V#185B
p1097
sg24
V1997-98
p1098
sg26
g27
sg28
(lp1099
VDerek Fisher Magenta
p1100
assbag1
(g2
g3
Ntp1101
Rp1102
(dp1103
g7
(dp1104
g9
V1997-98 Stadium Club Printing Plates #185C Derek Fisher Yellow
p1105
sg11
I1
sg12
VStadium Club Printing Plates
p1106
sg14
(lp1107
Vhttp://www.beckett.com/basketball/1997-98/stadium-club-printing-plates/185c-derek-fisher-yellow-3139284
p1108
asg17
g18
sg19
(lp1109
Vhttp://img.beckett.com/images/no-image.jpg
p1110
asg22
V#185C
p1111
sg24
V1997-98
p1112
sg26
g27
sg28
(lp1113
VDerek Fisher Yellow
p1114
assbag1
(g2
g3
Ntp1115
Rp1116
(dp1117
g7
(dp1118
g9
V1997-98 Stadium Club Printing Plates #186 Eddie Jones Black
p1119
sg11
I1
sg12
VStadium Club Printing Plates
p1120
sg14
(lp1121
Vhttp://www.beckett.com/basketball/1997-98/stadium-club-printing-plates/186-eddie-jones-black-3139285
p1122
asg17
g18
sg19
(lp1123
Vhttp://img.beckett.com/images/no-image.jpg
p1124
asg22
V#186
p1125
sg24
V1997-98
p1126
sg26
g27
sg28
(lp1127
VEddie Jones Black
p1128
assbag1
(g2
g3
Ntp1129
Rp1130
(dp1131
g7
(dp1132
g9
V1997-98 Stadium Club Printing Plates #186A Eddie Jones Cyan
p1133
sg11
I1
sg12
VStadium Club Printing Plates
p1134
sg14
(lp1135
Vhttp://www.beckett.com/basketball/1997-98/stadium-club-printing-plates/186a-eddie-jones-cyan-3139286
p1136
asg17
g18
sg19
(lp1137
Vhttp://img.beckett.com/images/no-image.jpg
p1138
asg22
V#186A
p1139
sg24
V1997-98
p1140
sg26
g27
sg28
(lp1141
VEddie Jones Cyan
p1142
assbag1
(g2
g3
Ntp1143
Rp1144
(dp1145
g7
(dp1146
g9
V1997-98 Stadium Club Printing Plates #186B Eddie Jones Magenta
p1147
sg11
I1
sg12
VStadium Club Printing Plates
p1148
sg14
(lp1149
Vhttp://www.beckett.com/basketball/1997-98/stadium-club-printing-plates/186b-eddie-jones-magenta-3139287
p1150
asg17
g18
sg19
(lp1151
Vhttp://img.beckett.com/images/no-image.jpg
p1152
asg22
V#186B
p1153
sg24
V1997-98
p1154
sg26
g27
sg28
(lp1155
VEddie Jones Magenta
p1156
assbag1
(g2
g3
Ntp1157
Rp1158
(dp1159
g7
(dp1160
g9
V1997-98 Stadium Club Printing Plates #186C Eddie Jones Yellow
p1161
sg11
I1
sg12
VStadium Club Printing Plates
p1162
sg14
(lp1163
Vhttp://www.beckett.com/basketball/1997-98/stadium-club-printing-plates/186c-eddie-jones-yellow-3139288
p1164
asg17
g18
sg19
(lp1165
Vhttp://img.beckett.com/images/no-image.jpg
p1166
asg22
V#186C
p1167
sg24
V1997-98
p1168
sg26
g27
sg28
(lp1169
VEddie Jones Yellow
p1170
assbag1
(g2
g3
Ntp1171
Rp1172
(dp1173
g7
(dp1174
g9
V1997-98 Ultra Masterpieces #1 Kobe Bryant
p1175
sg11
I1
sg12
VUltra Masterpieces
p1176
sg14
(lp1177
Vhttp://www.beckett.com/basketball/1997-98/ultra-masterpieces/1-kobe-bryant-3135731
p1178
asg17
g18
sg19
(lp1179
Vhttp://img.beckett.com/images/no-image.jpg
p1180
asg22
V#1
p1181
sg24
V1997-98
p1182
sg26
g27
sg28
(lp1183
VKobe Bryant
p1184
assbag1
(g2
g3
Ntp1185
Rp1186
(dp1187
g7
(dp1188
g9
V1997-98 Ultra Masterpieces #35 Eddie Jones
p1189
sg11
I1
sg12
VUltra Masterpieces
p1190
sg14
(lp1191
Vhttp://www.beckett.com/basketball/1997-98/ultra-masterpieces/35-eddie-jones-3135765
p1192
asg17
g18
sg19
(lp1193
Vhttp://img.beckett.com/images/no-image.jpg
p1194
asg22
V#35
p1195
sg24
V1997-98
p1196
sg26
g27
sg28
(lp1197
VEddie Jones
p1198
assbag1
(g2
g3
Ntp1199
Rp1200
(dp1201
g7
(dp1202
g9
V1997-98 Ultra Masterpieces #114 Robert Horry
p1203
sg11
I1
sg12
VUltra Masterpieces
p1204
sg14
(lp1205
Vhttp://www.beckett.com/basketball/1997-98/ultra-masterpieces/114-robert-horry-3135844
p1206
asg17
g18
sg19
(lp1207
Vhttp://img.beckett.com/images/no-image.jpg
p1208
asg22
V#114
p1209
sg24
V1997-98
p1210
sg26
g27
sg28
(lp1211
VRobert Horry
p1212
assbag1
(g2
g3
Ntp1213
Rp1214
(dp1215
g7
(dp1216
g9
V1997-98 Ultra Masterpieces #120 Derek Fisher
p1217
sg11
I1
sg12
VUltra Masterpieces
p1218
sg14
(lp1219
Vhttp://www.beckett.com/basketball/1997-98/ultra-masterpieces/120-derek-fisher-3135850
p1220
asg17
g18
sg19
(lp1221
Vhttp://img.beckett.com/images/no-image.jpg
p1222
asg22
V#120
p1223
sg24
V1997-98
p1224
sg26
g27
sg28
(lp1225
VDerek Fisher
p1226
assbag1
(g2
g3
Ntp1227
Rp1228
(dp1229
g7
(dp1230
g9
V1997-98 Ultra Masterpieces #176 Sean Rooks
p1231
sg11
I1
sg12
VUltra Masterpieces
p1232
sg14
(lp1233
Vhttp://www.beckett.com/basketball/1997-98/ultra-masterpieces/176-sean-rooks-3135904
p1234
asg17
g18
sg19
(lp1235
Vhttp://img.beckett.com/images/no-image.jpg
p1236
asg22
V#176
p1237
sg24
V1997-98
p1238
sg26
g27
sg28
(lp1239
VSean Rooks
p1240
assbag1
(g2
g3
Ntp1241
Rp1242
(dp1243
g7
(dp1244
g9
V1997-98 Ultra Masterpieces #188 Jon Barry
p1245
sg11
I1
sg12
VUltra Masterpieces
p1246
sg14
(lp1247
Vhttp://www.beckett.com/basketball/1997-98/ultra-masterpieces/188-jon-barry-3135916
p1248
asg17
g18
sg19
(lp1249
Vhttp://img.beckett.com/images/no-image.jpg
p1250
asg22
V#188
p1251
sg24
V1997-98
p1252
sg26
g27
sg28
(lp1253
VJon Barry
p1254
assbag1
(g2
g3
Ntp1255
Rp1256
(dp1257
g7
(dp1258
g9
V1997-98 Ultra Masterpieces #216 Nick Van Exel
p1259
sg11
I1
sg12
VUltra Masterpieces
p1260
sg14
(lp1261
Vhttp://www.beckett.com/basketball/1997-98/ultra-masterpieces/216-nick-van-exel-3135944
p1262
asg17
g18
sg19
(lp1263
Vhttp://img.beckett.com/images/no-image.jpg
p1264
asg22
V#216
p1265
sg24
V1997-98
p1266
sg26
g27
sg28
(lp1267
VNick Van Exel
p1268
assbag1
(g2
g3
Ntp1269
Rp1270
(dp1271
g7
(dp1272
g9
V1997-98 Ultra Masterpieces #223 Shea Seals
p1273
sg11
I1
sg12
VUltra Masterpieces
p1274
sg14
(lp1275
Vhttp://www.beckett.com/basketball/1997-98/ultra-masterpieces/223-shea-seals-3135951
p1276
asg17
g18
sg19
(lp1277
Vhttp://img.beckett.com/images/no-image.jpg
p1278
asg22
V#223
p1279
sg24
V1997-98
p1280
sg26
g27
sg28
(lp1281
VShea Seals
p1282
assbag1
(g2
g3
Ntp1283
Rp1284
(dp1285
g7
(dp1286
g9
V1997-98 Ultra Masterpieces #252 Kobe Bryant GRE
p1287
sg11
I1
sg12
VUltra Masterpieces
p1288
sg14
(lp1289
Vhttp://www.beckett.com/basketball/1997-98/ultra-masterpieces/252-kobe-bryant-gre-3135980
p1290
asg17
g18
sg19
(lp1291
Vhttp://img.beckett.com/images/no-image.jpg
p1292
asg22
V#252
p1293
sg24
V1997-98
p1294
sg141
VGRE
p1295
sg26
g27
sg28
(lp1296
VKobe Bryant
p1297
assbag1
(g2
g3
Ntp1298
Rp1299
(dp1300
g7
(dp1301
g9
V1997-98 Ultra Masterpieces #265 Shaquille O'Neal GRE
p1302
sg11
I1
sg12
VUltra Masterpieces
p1303
sg14
(lp1304
Vhttp://www.beckett.com/basketball/1997-98/ultra-masterpieces/265-shaquille-oneal-gre-3135993
p1305
asg17
g18
sg19
(lp1306
Vhttp://img.beckett.com/images/no-image.jpg
p1307
asg22
V#265
p1308
sg24
V1997-98
p1309
sg141
VGRE
p1310
sg26
g27
sg28
(lp1311
VShaquille O'Neal
p1312
assbag1
(g2
g3
Ntp1313
Rp1314
(dp1315
g7
(dp1316
g9
V1997-98 Ultra Platinum Medallion #1 Kobe Bryant
p1317
sg11
I100
sg12
VUltra Platinum Medallion
p1318
sg14
(lp1319
Vhttp://www.beckett.com/basketball/1997-98/ultra-platinum-medallion/1-kobe-bryant-3136015
p1320
asg17
g18
sg19
(lp1321
Vhttp://img.beckett.com/images/no-image.jpg
p1322
asg22
V#1
p1323
sg24
V1997-98
p1324
sg26
g27
sg28
(lp1325
VKobe Bryant
p1326
assbag1
(g2
g3
Ntp1327
Rp1328
(dp1329
g7
(dp1330
g9
V1997-98 Ultra Platinum Medallion #35 Eddie Jones
p1331
sg11
I100
sg12
VUltra Platinum Medallion
p1332
sg14
(lp1333
Vhttp://www.beckett.com/basketball/1997-98/ultra-platinum-medallion/35-eddie-jones-3136049
p1334
asg17
g18
sg19
(lp1335
Vhttp://img.beckett.com/images/no-image.jpg
p1336
asg22
V#35
p1337
sg24
V1997-98
p1338
sg26
g27
sg28
(lp1339
VEddie Jones
p1340
assbag1
(g2
g3
Ntp1341
Rp1342
(dp1343
g7
(dp1344
g9
V1997-98 Ultra Platinum Medallion #114 Robert Horry
p1345
sg11
I100
sg12
VUltra Platinum Medallion
p1346
sg14
(lp1347
Vhttp://www.beckett.com/basketball/1997-98/ultra-platinum-medallion/114-robert-horry-3136128
p1348
asg17
g18
sg19
(lp1349
Vhttp://img.beckett.com/images/items_stock/185226/3136002/3136128/front.jpg
p1350
asg22
V#114
p1351
sg24
V1997-98
p1352
sg26
g27
sg28
(lp1353
VRobert Horry
p1354
assbag1
(g2
g3
Ntp1355
Rp1356
(dp1357
g7
(dp1358
g9
V1997-98 Ultra Platinum Medallion #120 Derek Fisher
p1359
sg11
I100
sg12
VUltra Platinum Medallion
p1360
sg14
(lp1361
Vhttp://www.beckett.com/basketball/1997-98/ultra-platinum-medallion/120-derek-fisher-3136134
p1362
asg17
g18
sg19
(lp1363
Vhttp://img.beckett.com/images/no-image.jpg
p1364
asg22
V#120
p1365
sg24
V1997-98
p1366
sg26
g27
sg28
(lp1367
VDerek Fisher
p1368
assbag1
(g2
g3
Ntp1369
Rp1370
(dp1371
g7
(dp1372
g9
V1997-98 Ultra Platinum Medallion #176 Sean Rooks
p1373
sg11
I100
sg12
VUltra Platinum Medallion
p1374
sg14
(lp1375
Vhttp://www.beckett.com/basketball/1997-98/ultra-platinum-medallion/176-sean-rooks-3136188
p1376
asg17
g18
sg19
(lp1377
Vhttp://img.beckett.com/images/no-image.jpg
p1378
asg22
V#176
p1379
sg24
V1997-98
p1380
sg26
g27
sg28
(lp1381
VSean Rooks
p1382
assbag1
(g2
g3
Ntp1383
Rp1384
(dp1385
g7
(dp1386
g9
V1997-98 Ultra Platinum Medallion #188 Jon Barry
p1387
sg11
I100
sg12
VUltra Platinum Medallion
p1388
sg14
(lp1389
Vhttp://www.beckett.com/basketball/1997-98/ultra-platinum-medallion/188-jon-barry-3136200
p1390
asg17
g18
sg19
(lp1391
Vhttp://img.beckett.com/images/no-image.jpg
p1392
asg22
V#188
p1393
sg24
V1997-98
p1394
sg26
g27
sg28
(lp1395
VJon Barry
p1396
assbag1
(g2
g3
Ntp1397
Rp1398
(dp1399
g7
(dp1400
g9
V1997-98 Ultra Platinum Medallion #216 Nick Van Exel
p1401
sg11
I100
sg12
VUltra Platinum Medallion
p1402
sg14
(lp1403
Vhttp://www.beckett.com/basketball/1997-98/ultra-platinum-medallion/216-nick-van-exel-3136228
p1404
asg17
g18
sg19
(lp1405
Vhttp://img.beckett.com/images/no-image.jpg
p1406
asg22
V#216
p1407
sg24
V1997-98
p1408
sg26
g27
sg28
(lp1409
VNick Van Exel
p1410
assbag1
(g2
g3
Ntp1411
Rp1412
(dp1413
g7
(dp1414
g9
V1997-98 Ultra Platinum Medallion #223 Shea Seals
p1415
sg11
I100
sg12
VUltra Platinum Medallion
p1416
sg14
(lp1417
Vhttp://www.beckett.com/basketball/1997-98/ultra-platinum-medallion/223-shea-seals-3136235
p1418
asg17
g18
sg19
(lp1419
Vhttp://img.beckett.com/images/no-image.jpg
p1420
asg22
V#223
p1421
sg24
V1997-98
p1422
sg26
g27
sg28
(lp1423
VShea Seals
p1424
assbag1
(g2
g3
Ntp1425
Rp1426
(dp1427
g7
(dp1428
g9
V1997-98 Ultra Platinum Medallion #252 Kobe Bryant GRE
p1429
sg11
I100
sg12
VUltra Platinum Medallion
p1430
sg14
(lp1431
Vhttp://www.beckett.com/basketball/1997-98/ultra-platinum-medallion/252-kobe-bryant-gre-3136264
p1432
asg17
g18
sg19
(lp1433
Vhttp://img.beckett.com/images/no-image.jpg
p1434
asg22
V#252
p1435
sg24
V1997-98
p1436
sg141
VGRE
p1437
sg26
g27
sg28
(lp1438
VKobe Bryant
p1439
assbag1
(g2
g3
Ntp1440
Rp1441
(dp1442
g7
(dp1443
g9
V1997-98 Ultra Platinum Medallion #265 Shaquille O'Neal GRE
p1444
sg11
I100
sg12
VUltra Platinum Medallion
p1445
sg14
(lp1446
Vhttp://www.beckett.com/basketball/1997-98/ultra-platinum-medallion/265-shaquille-oneal-gre-3136277
p1447
asg17
g18
sg19
(lp1448
Vhttp://img.beckett.com/images/no-image.jpg
p1449
asg22
V#265
p1450
sg24
V1997-98
p1451
sg141
VGRE
p1452
sg26
g27
sg28
(lp1453
VShaquille O'Neal
p1454
assbag1
(g2
g3
Ntp1455
Rp1456
(dp1457
g7
(dp1458
g9
V1997-98 Z-Force Rave #9 Nick Van Exel
p1459
sg11
I399
sg12
VZ-Force Rave
p1460
sg14
(lp1461
Vhttp://www.beckett.com/basketball/1997-98/z-force-rave/9-nick-van-exel-3133033
p1462
asg17
g18
sg19
(lp1463
Vhttp://img.beckett.com/images/no-image.jpg
p1464
asg22
V#9
p1465
sg24
V1997-98
p1466
sg26
g27
sg28
(lp1467
VNick Van Exel
p1468
assbag1
(g2
g3
Ntp1469
Rp1470
(dp1471
g7
(dp1472
g9
V1997-98 Z-Force Rave #34 Shaquille O'Neal
p1473
sg11
I399
sg12
VZ-Force Rave
p1474
sg14
(lp1475
Vhttp://www.beckett.com/basketball/1997-98/z-force-rave/34-shaquille-oneal-3133058
p1476
asg17
g18
sg19
(lp1477
Vhttp://img.beckett.com/images/no-image.jpg
p1478
asg22
V#34
p1479
sg24
V1997-98
p1480
sg26
g27
sg28
(lp1481
VShaquille O'Neal
p1482
assbag1
(g2
g3
Ntp1483
Rp1484
(dp1485
g7
(dp1486
g9
V1997-98 Z-Force Rave #59 Robert Horry
p1487
sg11
I399
sg12
VZ-Force Rave
p1488
sg14
(lp1489
Vhttp://www.beckett.com/basketball/1997-98/z-force-rave/59-robert-horry-3133083
p1490
asg17
g18
sg19
(lp1491
Vhttp://img.beckett.com/images/items_stock/185226/3133012/3133083/front.jpg
p1492
asg22
V#59
p1493
sg24
V1997-98
p1494
sg26
g27
sg28
(lp1495
VRobert Horry
p1496
assbag1
(g2
g3
Ntp1497
Rp1498
(dp1499
g7
(dp1500
g9
V1997-98 Z-Force Rave #88 Kobe Bryant
p1501
sg11
I399
sg12
VZ-Force Rave
p1502
sg14
(lp1503
Vhttp://www.beckett.com/basketball/1997-98/z-force-rave/88-kobe-bryant-3133112
p1504
asg17
g18
sg19
(lp1505
Vhttp://img.beckett.com/images/no-image.jpg
p1506
asg22
V#88
p1507
sg24
V1997-98
p1508
sg26
g27
sg28
(lp1509
VKobe Bryant
p1510
assbag1
(g2
g3
Ntp1511
Rp1512
(dp1513
g7
(dp1514
g9
V1997-98 Z-Force Rave #173 Eddie Jones
p1515
sg11
I399
sg12
VZ-Force Rave
p1516
sg14
(lp1517
Vhttp://www.beckett.com/basketball/1997-98/z-force-rave/173-eddie-jones-3133196
p1518
asg17
g18
sg19
(lp1519
Vhttp://img.beckett.com/images/items_stock/185226/3133012/3133196/front.jpg
p1520
asg22
V#173
p1521
sg24
V1997-98
p1522
sg26
g27
sg28
(lp1523
VEddie Jones
p1524
assbag1
(g2
g3
Ntp1525
Rp1526
(dp1527
g7
(dp1528
g9
V1997-98 Z-Force Rave #195 Kobe Bryant ZUP
p1529
sg11
I399
sg12
VZ-Force Rave
p1530
sg14
(lp1531
Vhttp://www.beckett.com/basketball/1997-98/z-force-rave/195-kobe-bryant-zup-3133218
p1532
asg17
g18
sg19
(lp1533
Vhttp://img.beckett.com/images/no-image.jpg
p1534
asg22
V#195
p1535
sg24
V1997-98
p1536
sg141
VZUP
p1537
sg26
g27
sg28
(lp1538
VKobe Bryant
p1539
assbag1
(g2
g3
Ntp1540
Rp1541
(dp1542
g7
(dp1543
g9
V1997-98 Z-Force Rave #196 Shaquille O'Neal ZUP
p1544
sg11
I399
sg12
VZ-Force Rave
p1545
sg14
(lp1546
Vhttp://www.beckett.com/basketball/1997-98/z-force-rave/196-shaquille-oneal-zup-3133219
p1547
asg17
g18
sg19
(lp1548
Vhttp://img.beckett.com/images/no-image.jpg
p1549
asg22
V#196
p1550
sg24
V1997-98
p1551
sg141
VZUP
p1552
sg26
g27
sg28
(lp1553
VShaquille O'Neal
p1554
assbag1
(g2
g3
Ntp1555
Rp1556
(dp1557
g7
(dp1558
g9
V1997-98 Z-Force Super Rave #173 Eddie Jones
p1559
sg11
I50
sg12
VZ-Force Super Rave
p1560
sg14
(lp1561
Vhttp://www.beckett.com/basketball/1997-98/z-force-super-rave/173-eddie-jones-3133308
p1562
asg17
g18
sg19
(lp1563
Vhttp://img.beckett.com/images/no-image.jpg
p1564
asg22
V#173
p1565
sg24
V1997-98
p1566
sg26
g27
sg28
(lp1567
VEddie Jones
p1568
assbag1
(g2
g3
Ntp1569
Rp1570
(dp1571
g7
(dp1572
g9
V1997-98 Z-Force Super Rave #195 Kobe Bryant ZUP
p1573
sg11
I50
sg12
VZ-Force Super Rave
p1574
sg14
(lp1575
Vhttp://www.beckett.com/basketball/1997-98/z-force-super-rave/195-kobe-bryant-zup-3133330
p1576
asg17
g18
sg19
(lp1577
Vhttp://img.beckett.com/images/no-image.jpg
p1578
asg22
V#195
p1579
sg24
V1997-98
p1580
sg141
VZUP
p1581
sg26
g27
sg28
(lp1582
VKobe Bryant
p1583
assbag1
(g2
g3
Ntp1584
Rp1585
(dp1586
g7
(dp1587
g9
V1997-98 Z-Force Super Rave #196 Shaquille O'Neal ZUP
p1588
sg11
I50
sg12
VZ-Force Super Rave
p1589
sg14
(lp1590
Vhttp://www.beckett.com/basketball/1997-98/z-force-super-rave/196-shaquille-oneal-zup-3133331
p1591
asg17
g18
sg19
(lp1592
Vhttp://img.beckett.com/images/no-image.jpg
p1593
asg22
V#196
p1594
sg24
V1997-98
p1595
sg141
VZUP
p1596
sg26
g27
sg28
(lp1597
VShaquille O'Neal
p1598
assbag1
(g2
g3
Ntp1599
Rp1600
(dp1601
g7
(dp1602
g9
V1997-98 Upper Deck High Dimensions #D8 Kobe Bryant
p1603
sg11
I2000
sg12
VUpper Deck High Dimensions
p1604
sg14
(lp1605
Vhttp://www.beckett.com/basketball/1997-98/upper-deck-high-dimensions/d8-kobe-bryant-3132430
p1606
asg17
g18
sg19
(lp1607
Vhttp://img.beckett.com/images/no-image.jpg
p1608
asg22
V#D8
p1609
sg24
V1997-98
p1610
sg26
g27
sg28
(lp1611
VKobe Bryant
p1612
assbag1
(g2
g3
Ntp1613
Rp1614
(dp1615
g7
(dp1616
g9
V1997-98 Upper Deck High Dimensions #D12 Shaquille O'Neal
p1617
sg11
I2000
sg12
VUpper Deck High Dimensions
p1618
sg14
(lp1619
Vhttp://www.beckett.com/basketball/1997-98/upper-deck-high-dimensions/d12-shaquille-oneal-3132434
p1620
asg17
g18
sg19
(lp1621
Vhttp://img.beckett.com/images/no-image.jpg
p1622
asg22
V#D12
p1623
sg24
V1997-98
p1624
sg26
g27
sg28
(lp1625
VShaquille O'Neal
p1626
assbag1
(g2
g3
Ntp1627
Rp1628
(dp1629
g7
(dp1630
g9
V1997-98 Flair Showcase Masterpieces Row 3 #18 Kobe Bryant
p1631
sg11
I1
sg12
VFlair Showcase Masterpieces Row 3
p1632
sg14
(lp1633
Vhttp://www.beckett.com/basketball/1997-98/flair-showcase-masterpieces-row-3/18-kobe-bryant-3148917
p1634
asg17
g18
sg19
(lp1635
Vhttp://img.beckett.com/images/no-image.jpg
p1636
asg22
V#18
p1637
sg24
V1997-98
p1638
sg26
g27
sg28
(lp1639
VKobe Bryant
p1640
assbag1
(g2
g3
Ntp1641
Rp1642
(dp1643
g7
(dp1644
g9
V1997-98 Flair Showcase Masterpieces Row 2 #18 Kobe Bryant
p1645
sg11
I1
sg12
VFlair Showcase Masterpieces Row 2
p1646
sg14
(lp1647
Vhttp://www.beckett.com/basketball/1997-98/flair-showcase-masterpieces-row-2/18-kobe-bryant-3148831
p1648
asg17
g18
sg19
(lp1649
Vhttp://img.beckett.com/images/no-image.jpg
p1650
asg22
V#18
p1651
sg24
V1997-98
p1652
sg26
g27
sg28
(lp1653
VKobe Bryant
p1654
assbag1
(g2
g3
Ntp1655
Rp1656
(dp1657
g7
(dp1658
g9
V1997-98 Flair Showcase Masterpieces Row 1 #18 Kobe Bryant
p1659
sg11
I1
sg12
VFlair Showcase Masterpieces Row 1
p1660
sg14
(lp1661
Vhttp://www.beckett.com/basketball/1997-98/flair-showcase-masterpieces-row-1/18-kobe-bryant-3148746
p1662
asg17
g18
sg19
(lp1663
Vhttp://img.beckett.com/images/no-image.jpg
p1664
asg22
V#18
p1665
sg24
V1997-98
p1666
sg26
g27
sg28
(lp1667
VKobe Bryant
p1668
assbag1
(g2
g3
Ntp1669
Rp1670
(dp1671
g7
(dp1672
g9
V1997-98 Flair Showcase Masterpieces Row 0 #18 Kobe Bryant
p1673
sg11
I1
sg12
VFlair Showcase Masterpieces Row 0
p1674
sg14
(lp1675
Vhttp://www.beckett.com/basketball/1997-98/flair-showcase-masterpieces-row-0/18-kobe-bryant-3148661
p1676
asg17
g18
sg19
(lp1677
Vhttp://img.beckett.com/images/no-image.jpg
p1678
asg22
V#18
p1679
sg24
V1997-98
p1680
sg26
g27
sg28
(lp1681
VKobe Bryant
p1682
assbag1
(g2
g3
Ntp1683
Rp1684
(dp1685
g7
(dp1686
g9
V1997-98 Hoops High Voltage 500 #HV1 Kobe Bryant
p1687
sg11
I500
sg12
VHoops High Voltage 500
p1688
sg14
(lp1689
Vhttp://www.beckett.com/basketball/1997-98/hoops-high-voltage-500/hv1-kobe-bryant-3142290
p1690
asg17
g18
sg19
(lp1691
Vhttp://img.beckett.com/images/no-image.jpg
p1692
asg22
V#HV1
p1693
sg24
V1997-98
p1694
sg26
g27
sg28
(lp1695
VKobe Bryant
p1696
assbag1
(g2
g3
Ntp1697
Rp1698
(dp1699
g7
(dp1700
g9
V1997-98 Hoops High Voltage 500 #HV2 Eddie Jones
p1701
sg11
I500
sg12
VHoops High Voltage 500
p1702
sg14
(lp1703
Vhttp://www.beckett.com/basketball/1997-98/hoops-high-voltage-500/hv2-eddie-jones-3142291
p1704
asg17
g18
sg19
(lp1705
Vhttp://img.beckett.com/images/no-image.jpg
p1706
asg22
V#HV2
p1707
sg24
V1997-98
p1708
sg26
g27
sg28
(lp1709
VEddie Jones
p1710
assbag1
(g2
g3
Ntp1711
Rp1712
(dp1713
g7
(dp1714
g9
V1997-98 Metal Universe Precious Metal Gems Emerald #3 Derek Fisher
p1715
sg11
I10
sg12
VMetal Universe Precious Metal Gems Emerald
p1716
sg14
(lp1717
Vhttp://www.beckett.com/basketball/1997-98/metal-universe-precious-metal-gems-emerald/3-derek-fisher-7055451
p1718
asg17
g18
sg19
(lp1719
Vhttp://img.beckett.com/images/no-image.jpg
p1720
asg22
V#3
p1721
sg24
V1997-98
p1722
sg26
g27
sg28
(lp1723
VDerek Fisher
p1724
assbag1
(g2
g3
Ntp1725
Rp1726
(dp1727
g7
(dp1728
g9
V1997-98 Metal Universe Precious Metal Gems Emerald #50 Shaquille O'Neal
p1729
sg11
I10
sg12
VMetal Universe Precious Metal Gems Emerald
p1730
sg14
(lp1731
Vhttp://www.beckett.com/basketball/1997-98/metal-universe-precious-metal-gems-emerald/50-shaquille-oneal-7055499
p1732
asg17
g18
sg19
(lp1733
Vhttp://img.beckett.com/images/no-image.jpg
p1734
asg22
V#50
p1735
sg24
V1997-98
p1736
sg26
g27
sg28
(lp1737
VShaquille O'Neal
p1738
assbag1
(g2
g3
Ntp1739
Rp1740
(dp1741
g7
(dp1742
g9
V1997-98 Metal Universe Precious Metal Gems Emerald #81 Kobe Bryant
p1743
sg11
I10
sg12
VMetal Universe Precious Metal Gems Emerald
p1744
sg14
(lp1745
Vhttp://www.beckett.com/basketball/1997-98/metal-universe-precious-metal-gems-emerald/81-kobe-bryant-7055530
p1746
asg17
g18
sg19
(lp1747
Vhttp://img.beckett.com/images/no-image.jpg
p1748
asg22
V#81
p1749
sg24
V1997-98
p1750
sg26
g27
sg28
(lp1751
VKobe Bryant
p1752
assbag1
(g2
g3
Ntp1753
Rp1754
(dp1755
g7
(dp1756
g9
V1997-98 Metal Universe Precious Metal Gems Emerald #94 Eddie Jones
p1757
sg11
I10
sg12
VMetal Universe Precious Metal Gems Emerald
p1758
sg14
(lp1759
Vhttp://www.beckett.com/basketball/1997-98/metal-universe-precious-metal-gems-emerald/94-eddie-jones-7055543
p1760
asg17
g18
sg19
(lp1761
Vhttp://img.beckett.com/images/no-image.jpg
p1762
asg22
V#94
p1763
sg24
V1997-98
p1764
sg26
g27
sg28
(lp1765
VEddie Jones
p1766
assbag1
(g2
g3
Ntp1767
Rp1768
(dp1769
g7
(dp1770
g9
V1997-98 SP Authentic Profiles 3 #P23 Shaquille O'Neal
p1771
sg11
I100
sg12
VSP Authentic Profiles 3
p1772
sg14
(lp1773
Vhttp://www.beckett.com/basketball/1997-98/sp-authentic-profiles-3/p23-shaquille-oneal-3140304
p1774
asg17
g18
sg19
(lp1775
Vhttp://img.beckett.com/images/no-image.jpg
p1776
asg22
V#P23
p1777
sg24
V1997-98
p1778
sg26
g27
sg28
(lp1779
VShaquille O'Neal
p1780
assbag1
(g2
g3
Ntp1781
Rp1782
(dp1783
g7
(dp1784
g9
V1997-98 SP Authentic Profiles 3 #P32 Kobe Bryant
p1785
sg11
I100
sg12
VSP Authentic Profiles 3
p1786
sg14
(lp1787
Vhttp://www.beckett.com/basketball/1997-98/sp-authentic-profiles-3/p32-kobe-bryant-3140313
p1788
asg17
g18
sg19
(lp1789
Vhttp://img.beckett.com/images/no-image.jpg
p1790
asg22
V#P32
p1791
sg24
V1997-98
p1792
sg26
g27
sg28
(lp1793
VKobe Bryant
p1794
assbag1
(g2
g3
Ntp1795
Rp1796
(dp1797
g7
(dp1798
g9
V1997-98 Upper Deck Diamond Dimensions #D8 Kobe Bryant
p1799
sg11
I100
sg12
VUpper Deck Diamond Dimensions
p1800
sg14
(lp1801
Vhttp://www.beckett.com/basketball/1997-98/upper-deck-diamond-dimensions/d8-kobe-bryant-3132468
p1802
asg17
g18
sg19
(lp1803
Vhttp://img.beckett.com/images/no-image.jpg
p1804
asg22
V#D8
p1805
sg24
V1997-98
p1806
sg26
g27
sg28
(lp1807
VKobe Bryant
p1808
assbag1
(g2
g3
Ntp1809
Rp1810
(dp1811
g7
(dp1812
g9
V1997-98 Upper Deck Diamond Dimensions #D12 Shaquille O'Neal
p1813
sg11
I100
sg12
VUpper Deck Diamond Dimensions
p1814
sg14
(lp1815
Vhttp://www.beckett.com/basketball/1997-98/upper-deck-diamond-dimensions/d12-shaquille-oneal-3132472
p1816
asg17
g18
sg19
(lp1817
Vhttp://img.beckett.com/images/no-image.jpg
p1818
asg22
V#D12
p1819
sg24
V1997-98
p1820
sg26
g27
sg28
(lp1821
VShaquille O'Neal
p1822
assbag1
(g2
g3
Ntp1823
Rp1824
(dp1825
g7
(dp1826
g9
V1997 Score Board Talk N' Sports Phone Cards $20 #6 Kobe Bryant
p1827
sg11
I1440
sg12
VScore Board Talk N' Sports Phone Cards $20
p1828
sg14
(lp1829
Vhttp://www.beckett.com/multisport/1997/score-board-talk-n-sports-phone-cards-20/6-kobe-bryant-3500738
p1830
asg17
g18
sg19
(lp1831
Vhttp://img.beckett.com/images/no-image.jpg
p1832
asg22
V#6
p1833
sg24
V1997
p1834
sg26
g27
sg28
(lp1835
VKobe Bryant
p1836
assbag1
(g2
g3
Ntp1837
Rp1838
(dp1839
g7
(dp1840
g9
V1997-98 Score Board Autographed Collection Sports City USA Strongbox #SC6 Kobe Bryant/Adrian Beltre
p1841
sg11
I600
sg12
VScore Board Autographed Collection Sports City USA Strongbox
p1842
sg14
(lp1843
Vhttp://www.beckett.com/multisport/1997-98/score-board-autographed-collection-sports-city-usa-strongbox/sc6-kobe-bryantadrian-beltre-3500813
p1844
asg17
g18
sg19
(lp1845
Vhttp://img.beckett.com/images/no-image.jpg
p1846
asg22
V#SC6
p1847
sg24
V1997-98
p1848
sg26
g27
sg28
(lp1849
VKobe Bryant
p1850
aVAdrian Beltre
p1851
assba.