(lp0
Naccopy_reg
_reconstructor
p1
(ctutorial.items
BeckettItem
p2
c__builtin__
object
p3
Ntp4
Rp5
(dp6
S'_values'
p7
(dp8
S'originalItemDescription'
p9
V1997 Bleachers/Fleer Gold #10 Shaquille O'Neal 1992-93
p10
sS'serialNumber'
p11
I10000
sS'setName'
p12
VBleachers/Fleer Gold
p13
sS'beckettLink'
p14
(lp15
Vhttp://www.beckett.com/basketball/1997/bleachersfleer-gold/10-shaquille-oneal-1992-93-3129466
p16
asS'team'
p17
S'Los Angeles Lakers'
p18
sS'imageLink'
p19
(lp20
Vhttp://img.beckett.com/images/no-image.jpg
p21
asS'cardNumber'
p22
V#10
p23
sS'year'
p24
V1997
p25
sS'sport'
p26
S'Basketball'
p27
sS'playerNames'
p28
(lp29
VShaquille O'Neal
p30
assbag1
(g2
g3
Ntp31
Rp32
(dp33
g7
(dp34
g9
V1997 Collector's Edge Extra #9 Kobe Bryant
p35
sg11
I100
sg12
VCollector's Edge Extra
p36
sg14
(lp37
Vhttp://www.beckett.com/basketball/1997/collectors-edge-extra/9-kobe-bryant-3129042
p38
asg17
g18
sg19
(lp39
Vhttp://img.beckett.com/images/no-image.jpg
p40
asg22
V#9
p41
sg24
V1997
p42
sg26
g27
sg28
(lp43
VKobe Bryant
p44
assbag1
(g2
g3
Ntp45
Rp46
(dp47
g7
(dp48
g9
V1997-98 E-X2001 Essential Credentials Future #7 Shaquille O'Neal/74
p49
sg11
I74
sg12
VE-X2001 Essential Credentials Future
p50
sg14
(lp51
Vhttp://www.beckett.com/basketball/1997-98/e-x2001-essential-credentials-future/7-shaquille-oneal74-3144593
p52
asg17
g18
sg19
(lp53
Vhttp://img.beckett.com/images/no-image.jpg
p54
asg22
V#7
p55
sg24
V1997-98
p56
sg26
g27
sg28
(lp57
VShaquille O'Neal
p58
assbag1
(g2
g3
Ntp59
Rp60
(dp61
g7
(dp62
g9
V1997-98 E-X2001 Essential Credentials Future #8 Kobe Bryant/73
p63
sg11
I73
sg12
VE-X2001 Essential Credentials Future
p64
sg14
(lp65
Vhttp://www.beckett.com/basketball/1997-98/e-x2001-essential-credentials-future/8-kobe-bryant73-3144594
p66
asg17
g18
sg19
(lp67
Vhttp://img.beckett.com/images/no-image.jpg
p68
asg22
V#8
p69
sg24
V1997-98
p70
sg26
g27
sg28
(lp71
VKobe Bryant
p72
assbag1
(g2
g3
Ntp73
Rp74
(dp75
g7
(dp76
g9
V1997-98 E-X2001 Essential Credentials Future #16 Eddie Jones/65
p77
sg11
I65
sg12
VE-X2001 Essential Credentials Future
p78
sg14
(lp79
Vhttp://www.beckett.com/basketball/1997-98/e-x2001-essential-credentials-future/16-eddie-jones65-3144602
p80
asg17
g18
sg19
(lp81
Vhttp://img.beckett.com/images/no-image.jpg
p82
asg22
V#16
p83
sg24
V1997-98
p84
sg26
g27
sg28
(lp85
VEddie Jones
p86
assbag1
(g2
g3
Ntp87
Rp88
(dp89
g7
(dp90
g9
V1997-98 E-X2001 Essential Credentials Now #7 Shaquille O'Neal/7
p91
sg11
I7
sg12
VE-X2001 Essential Credentials Now
p92
sg14
(lp93
Vhttp://www.beckett.com/basketball/1997-98/e-x2001-essential-credentials-now/7-shaquille-oneal7-3144680
p94
asg17
g18
sg19
(lp95
Vhttp://img.beckett.com/images/no-image.jpg
p96
asg22
V#7
p97
sg24
V1997-98
p98
sg26
g27
sg28
(lp99
VShaquille O'Neal
p100
assbag1
(g2
g3
Ntp101
Rp102
(dp103
g7
(dp104
g9
V1997-98 E-X2001 Essential Credentials Now #8 Kobe Bryant/8
p105
sg11
I8
sg12
VE-X2001 Essential Credentials Now
p106
sg14
(lp107
Vhttp://www.beckett.com/basketball/1997-98/e-x2001-essential-credentials-now/8-kobe-bryant8-3144681
p108
asg17
g18
sg19
(lp109
Vhttp://img.beckett.com/images/no-image.jpg
p110
asg22
V#8
p111
sg24
V1997-98
p112
sg26
g27
sg28
(lp113
VKobe Bryant
p114
assbag1
(g2
g3
Ntp115
Rp116
(dp117
g7
(dp118
g9
V1997-98 E-X2001 Essential Credentials Now #16 Eddie Jones/16
p119
sg11
I16
sg12
VE-X2001 Essential Credentials Now
p120
sg14
(lp121
Vhttp://www.beckett.com/basketball/1997-98/e-x2001-essential-credentials-now/16-eddie-jones16-3144689
p122
asg17
g18
sg19
(lp123
Vhttp://img.beckett.com/images/no-image.jpg
p124
asg22
V#16
p125
sg24
V1997-98
p126
sg26
g27
sg28
(lp127
VEddie Jones
p128
assbag1
(g2
g3
Ntp129
Rp130
(dp131
g7
(dp132
g9
V1997-98 Finest Embossed Refractors #137 Kobe Bryant S
p133
sg11
I263
sg12
VFinest Embossed Refractors
p134
sg14
(lp135
Vhttp://www.beckett.com/basketball/1997-98/finest-embossed-refractors/137-kobe-bryant-s-3145345
p136
asg17
g18
sg19
(lp137
Vhttp://img.beckett.com/images/no-image.jpg
p138
asg22
V#137
p139
sg24
V1997-98
p140
sg26
g27
sg28
(lp141
VKobe Bryant
p142
assbag1
(g2
g3
Ntp143
Rp144
(dp145
g7
(dp146
g9
V1997-98 Finest Embossed Refractors #148 Shaquille O'Neal S
p147
sg11
I263
sg12
VFinest Embossed Refractors
p148
sg14
(lp149
Vhttp://www.beckett.com/basketball/1997-98/finest-embossed-refractors/148-shaquille-oneal-s-3145356
p150
asg17
g18
sg19
(lp151
Vhttp://img.beckett.com/images/no-image.jpg
p152
asg22
V#148
p153
sg24
V1997-98
p154
sg26
g27
sg28
(lp155
VShaquille O'Neal
p156
assbag1
(g2
g3
Ntp157
Rp158
(dp159
g7
(dp160
g9
V1997-98 Finest Embossed Refractors #153 Eddie Jones S
p161
sg11
I263
sg12
VFinest Embossed Refractors
p162
sg14
(lp163
Vhttp://www.beckett.com/basketball/1997-98/finest-embossed-refractors/153-eddie-jones-s-3145361
p164
asg17
g18
sg19
(lp165
Vhttp://img.beckett.com/images/no-image.jpg
p166
asg22
V#153
p167
sg24
V1997-98
p168
sg26
g27
sg28
(lp169
VEddie Jones
p170
assbag1
(g2
g3
Ntp171
Rp172
(dp173
g7
(dp174
g9
V1997-98 Finest Embossed Refractors #309 Shaquille O'Neal G
p175
sg11
I74
sg12
VFinest Embossed Refractors
p176
sg14
(lp177
Vhttp://www.beckett.com/basketball/1997-98/finest-embossed-refractors/309-shaquille-oneal-g-3145417
p178
asg17
g18
sg19
(lp179
Vhttp://img.beckett.com/images/no-image.jpg
p180
asg22
V#309
p181
sg24
V1997-98
p182
sg26
g27
sg28
(lp183
VShaquille O'Neal
p184
assbag1
(g2
g3
Ntp185
Rp186
(dp187
g7
(dp188
g9
V1997-98 Finest Embossed Refractors #323 Kobe Bryant G
p189
sg11
I74
sg12
VFinest Embossed Refractors
p190
sg14
(lp191
Vhttp://www.beckett.com/basketball/1997-98/finest-embossed-refractors/323-kobe-bryant-g-3145431
p192
asg17
g18
sg19
(lp193
Vhttp://img.beckett.com/images/no-image.jpg
p194
asg22
V#323
p195
sg24
V1997-98
p196
sg26
g27
sg28
(lp197
VKobe Bryant
p198
assbag1
(g2
g3
Ntp199
Rp200
(dp201
g7
(dp202
g9
V1997-98 Finest Refractors #137 Kobe Bryant S
p203
sg11
I1090
sg12
VFinest Refractors
p204
sg14
(lp205
Vhttp://www.beckett.com/basketball/1997-98/finest-refractors/137-kobe-bryant-s-3145603
p206
asg17
g18
sg19
(lp207
Vhttp://img.beckett.com/images/no-image.jpg
p208
asg22
V#137
p209
sg24
V1997-98
p210
sg26
g27
sg28
(lp211
VKobe Bryant
p212
assbag1
(g2
g3
Ntp213
Rp214
(dp215
g7
(dp216
g9
V1997-98 Finest Refractors #148 Shaquille O'Neal S
p217
sg11
I1090
sg12
VFinest Refractors
p218
sg14
(lp219
Vhttp://www.beckett.com/basketball/1997-98/finest-refractors/148-shaquille-oneal-s-3145614
p220
asg17
g18
sg19
(lp221
Vhttp://img.beckett.com/images/items_stock/185226/3145435/3145614/front.jpg
p222
asg22
V#148
p223
sg24
V1997-98
p224
sg26
g27
sg28
(lp225
VShaquille O'Neal
p226
assbag1
(g2
g3
Ntp227
Rp228
(dp229
g7
(dp230
g9
V1997-98 Finest Refractors #153 Eddie Jones S
p231
sg11
I1090
sg12
VFinest Refractors
p232
sg14
(lp233
Vhttp://www.beckett.com/basketball/1997-98/finest-refractors/153-eddie-jones-s-3145619
p234
asg17
g18
sg19
(lp235
Vhttp://img.beckett.com/images/no-image.jpg
p236
asg22
V#153
p237
sg24
V1997-98
p238
sg26
g27
sg28
(lp239
VEddie Jones
p240
assbag1
(g2
g3
Ntp241
Rp242
(dp243
g7
(dp244
g9
V1997-98 Finest Refractors #309 Shaquille O'Neal G
p245
sg11
I289
sg12
VFinest Refractors
p246
sg14
(lp247
Vhttp://www.beckett.com/basketball/1997-98/finest-refractors/309-shaquille-oneal-g-3145775
p248
asg17
g18
sg19
(lp249
Vhttp://img.beckett.com/images/items_stock/185226/3145435/3145775/front.jpg
p250
asg22
V#309
p251
sg24
V1997-98
p252
sg26
g27
sg28
(lp253
VShaquille O'Neal
p254
assbag1
(g2
g3
Ntp255
Rp256
(dp257
g7
(dp258
g9
V1997-98 Finest Refractors #323 Kobe Bryant G
p259
sg11
I289
sg12
VFinest Refractors
p260
sg14
(lp261
Vhttp://www.beckett.com/basketball/1997-98/finest-refractors/323-kobe-bryant-g-3145789
p262
asg17
g18
sg19
(lp263
Vhttp://img.beckett.com/images/no-image.jpg
p264
asg22
V#323
p265
sg24
V1997-98
p266
sg26
g27
sg28
(lp267
VKobe Bryant
p268
assbag1
(g2
g3
Ntp269
Rp270
(dp271
g7
(dp272
g9
V1997-98 Flair Showcase Row 0 #7 Shaquille O'Neal
p273
sg11
I250
sg12
VFlair Showcase Row 0
p274
sg14
(lp275
Vhttp://www.beckett.com/basketball/1997-98/flair-showcase-row-0/7-shaquille-oneal-3146105
p276
asg17
g18
sg19
(lp277
Vhttp://img.beckett.com/images/no-image.jpg
p278
asg22
V#7
p279
sg24
V1997-98
p280
sg26
g27
sg28
(lp281
VShaquille O'Neal
p282
assbag1
(g2
g3
Ntp283
Rp284
(dp285
g7
(dp286
g9
V1997-98 Flair Showcase Row 0 #18 Kobe Bryant
p287
sg11
I250
sg12
VFlair Showcase Row 0
p288
sg14
(lp289
Vhttp://www.beckett.com/basketball/1997-98/flair-showcase-row-0/18-kobe-bryant-3146116
p290
asg17
g18
sg19
(lp291
Vhttp://img.beckett.com/images/no-image.jpg
p292
asg22
V#18
p293
sg24
V1997-98
p294
sg26
g27
sg28
(lp295
VKobe Bryant
p296
assbag1
(g2
g3
Ntp297
Rp298
(dp299
g7
(dp300
g9
V1997-98 Flair Showcase Row 0 #31 Eddie Jones
p301
sg11
I500
sg12
VFlair Showcase Row 0
p302
sg14
(lp303
Vhttp://www.beckett.com/basketball/1997-98/flair-showcase-row-0/31-eddie-jones-3146129
p304
asg17
g18
sg19
(lp305
Vhttp://img.beckett.com/images/no-image.jpg
p306
asg22
V#31
p307
sg24
V1997-98
p308
sg26
g27
sg28
(lp309
VEddie Jones
p310
assbag1
(g2
g3
Ntp311
Rp312
(dp313
g7
(dp314
g9
V1997-98 Flair Showcase Legacy Collection Row 3 #7 Shaquille O'Neal
p315
sg11
I100
sg12
VFlair Showcase Legacy Collection Row 3
p316
sg14
(lp317
Vhttp://www.beckett.com/basketball/1997-98/flair-showcase-legacy-collection-row-3/7-shaquille-oneal-3148565
p318
asg17
g18
sg19
(lp319
Vhttp://img.beckett.com/images/no-image.jpg
p320
asg22
V#7
p321
sg24
V1997-98
p322
sg26
g27
sg28
(lp323
VShaquille O'Neal
p324
assbag1
(g2
g3
Ntp325
Rp326
(dp327
g7
(dp328
g9
V1997-98 Flair Showcase Legacy Collection Row 3 #18 Kobe Bryant
p329
sg11
I100
sg12
VFlair Showcase Legacy Collection Row 3
p330
sg14
(lp331
Vhttp://www.beckett.com/basketball/1997-98/flair-showcase-legacy-collection-row-3/18-kobe-bryant-3148576
p332
asg17
g18
sg19
(lp333
Vhttp://img.beckett.com/images/no-image.jpg
p334
asg22
V#18
p335
sg24
V1997-98
p336
sg26
g27
sg28
(lp337
VKobe Bryant
p338
assbag1
(g2
g3
Ntp339
Rp340
(dp341
g7
(dp342
g9
V1997-98 Flair Showcase Legacy Collection Row 3 #31 Eddie Jones
p343
sg11
I100
sg12
VFlair Showcase Legacy Collection Row 3
p344
sg14
(lp345
Vhttp://www.beckett.com/basketball/1997-98/flair-showcase-legacy-collection-row-3/31-eddie-jones-3148589
p346
asg17
g18
sg19
(lp347
Vhttp://img.beckett.com/images/no-image.jpg
p348
asg22
V#31
p349
sg24
V1997-98
p350
sg26
g27
sg28
(lp351
VEddie Jones
p352
assbag1
(g2
g3
Ntp353
Rp354
(dp355
g7
(dp356
g9
V1997-98 Flair Showcase Legacy Collection Row 2 #18 Kobe Bryant
p357
sg11
I100
sg12
VFlair Showcase Legacy Collection Row 2
p358
sg14
(lp359
Vhttp://www.beckett.com/basketball/1997-98/flair-showcase-legacy-collection-row-2/18-kobe-bryant-3148486
p360
asg17
g18
sg19
(lp361
Vhttp://img.beckett.com/images/no-image.jpg
p362
asg22
V#18
p363
sg24
V1997-98
p364
sg26
g27
sg28
(lp365
VKobe Bryant
p366
assbag1
(g2
g3
Ntp367
Rp368
(dp369
g7
(dp370
g9
V1997-98 Flair Showcase Legacy Collection Row 1 #18 Kobe Bryant
p371
sg11
I100
sg12
VFlair Showcase Legacy Collection Row 1
p372
sg14
(lp373
Vhttp://www.beckett.com/basketball/1997-98/flair-showcase-legacy-collection-row-1/18-kobe-bryant-3148401
p374
asg17
g18
sg19
(lp375
Vhttp://img.beckett.com/images/no-image.jpg
p376
asg22
V#18
p377
sg24
V1997-98
p378
sg26
g27
sg28
(lp379
VKobe Bryant
p380
assbag1
(g2
g3
Ntp381
Rp382
(dp383
g7
(dp384
g9
V1997-98 Flair Showcase Legacy Collection Row 0 #18 Kobe Bryant
p385
sg11
I100
sg12
VFlair Showcase Legacy Collection Row 0
p386
sg14
(lp387
Vhttp://www.beckett.com/basketball/1997-98/flair-showcase-legacy-collection-row-0/18-kobe-bryant-3149284
p388
asg17
g18
sg19
(lp389
Vhttp://img.beckett.com/images/no-image.jpg
p390
asg22
V#18
p391
sg24
V1997-98
p392
sg26
g27
sg28
(lp393
VKobe Bryant
p394
assbag1
(g2
g3
Ntp395
Rp396
(dp397
g7
(dp398
g9
V1997-98 Metal Universe Precious Metal Gems #3 Derek Fisher
p399
sg11
I90
sg12
VMetal Universe Precious Metal Gems
p400
sg14
(lp401
Vhttp://www.beckett.com/basketball/1997-98/metal-universe-precious-metal-gems/3-derek-fisher-3142594
p402
asg17
g18
sg19
(lp403
Vhttp://img.beckett.com/images/no-image.jpg
p404
asg22
V#3
p405
sg24
V1997-98
p406
sg26
g27
sg28
(lp407
VDerek Fisher
p408
assbag1
(g2
g3
Ntp409
Rp410
(dp411
g7
(dp412
g9
V1997-98 Metal Universe Precious Metal Gems #50 Shaquille O'Neal
p413
sg11
I90
sg12
VMetal Universe Precious Metal Gems
p414
sg14
(lp415
Vhttp://www.beckett.com/basketball/1997-98/metal-universe-precious-metal-gems/50-shaquille-oneal-3142642
p416
asg17
g18
sg19
(lp417
Vhttp://img.beckett.com/images/no-image.jpg
p418
asg22
V#50
p419
sg24
V1997-98
p420
sg26
g27
sg28
(lp421
VShaquille O'Neal
p422
assbag1
(g2
g3
Ntp423
Rp424
(dp425
g7
(dp426
g9
V1997-98 Metal Universe Precious Metal Gems #81 Kobe Bryant
p427
sg11
I90
sg12
VMetal Universe Precious Metal Gems
p428
sg14
(lp429
Vhttp://www.beckett.com/basketball/1997-98/metal-universe-precious-metal-gems/81-kobe-bryant-3142673
p430
asg17
g18
sg19
(lp431
Vhttp://img.beckett.com/images/no-image.jpg
p432
asg22
V#81
p433
sg24
V1997-98
p434
sg26
g27
sg28
(lp435
VKobe Bryant
p436
assbag1
(g2
g3
Ntp437
Rp438
(dp439
g7
(dp440
g9
V1997-98 Metal Universe Precious Metal Gems #94 Eddie Jones
p441
sg11
I90
sg12
VMetal Universe Precious Metal Gems
p442
sg14
(lp443
Vhttp://www.beckett.com/basketball/1997-98/metal-universe-precious-metal-gems/94-eddie-jones-3142686
p444
asg17
g18
sg19
(lp445
Vhttp://img.beckett.com/images/no-image.jpg
p446
asg22
V#94
p447
sg24
V1997-98
p448
sg26
g27
sg28
(lp449
VEddie Jones
p450
assbag1
(g2
g3
Ntp451
Rp452
(dp453
g7
(dp454
g9
V1997-98 Metal Universe Championship Precious Metal Gems #1 Shaquille O'Neal
p455
sg11
I50
sg12
VMetal Universe Championship Precious Metal Gems
p456
sg14
(lp457
Vhttp://www.beckett.com/basketball/1997-98/metal-universe-championship-precious-metal-gems/1-shaquille-oneal-3140676
p458
asg17
g18
sg19
(lp459
Vhttp://img.beckett.com/images/no-image.jpg
p460
asg22
V#1
p461
sg24
V1997-98
p462
sg26
g27
sg28
(lp463
VShaquille O'Neal
p464
assbag1
(g2
g3
Ntp465
Rp466
(dp467
g7
(dp468
g9
V1997-98 Metal Universe Championship Precious Metal Gems #63 Eddie Jones
p469
sg11
I50
sg12
VMetal Universe Championship Precious Metal Gems
p470
sg14
(lp471
Vhttp://www.beckett.com/basketball/1997-98/metal-universe-championship-precious-metal-gems/63-eddie-jones-3140738
p472
asg17
g18
sg19
(lp473
Vhttp://img.beckett.com/images/no-image.jpg
p474
asg22
V#63
p475
sg24
V1997-98
p476
sg26
g27
sg28
(lp477
VEddie Jones
p478
assbag1
(g2
g3
Ntp479
Rp480
(dp481
g7
(dp482
g9
V1997-98 Metal Universe Championship Precious Metal Gems #86 Kobe Bryant
p483
sg11
I50
sg12
VMetal Universe Championship Precious Metal Gems
p484
sg14
(lp485
Vhttp://www.beckett.com/basketball/1997-98/metal-universe-championship-precious-metal-gems/86-kobe-bryant-3140761
p486
asg17
g18
sg19
(lp487
Vhttp://img.beckett.com/images/no-image.jpg
p488
asg22
V#86
p489
sg24
V1997-98
p490
sg26
g27
sg28
(lp491
VKobe Bryant
p492
assbag1
(g2
g3
Ntp493
Rp494
(dp495
g7
(dp496
g9
V1997-98 SkyBox Premium Star Rubies #23 Kobe Bryant
p497
sg11
I50
sg12
VSkyBox Premium Star Rubies
p498
sg14
(lp499
Vhttp://www.beckett.com/basketball/1997-98/skybox-premium-star-rubies/23-kobe-bryant-3141194
p500
asg17
g18
sg19
(lp501
Vhttp://img.beckett.com/images/no-image.jpg
p502
asg22
V#23
p503
sg24
V1997-98
p504
sg26
g27
sg28
(lp505
VKobe Bryant
p506
assbag1
(g2
g3
Ntp507
Rp508
(dp509
g7
(dp510
g9
V1997-98 SkyBox Premium Star Rubies #76 Derek Fisher
p511
sg11
I50
sg12
VSkyBox Premium Star Rubies
p512
sg14
(lp513
Vhttp://www.beckett.com/basketball/1997-98/skybox-premium-star-rubies/76-derek-fisher-3141247
p514
asg17
g18
sg19
(lp515
Vhttp://img.beckett.com/images/no-image.jpg
p516
asg22
V#76
p517
sg24
V1997-98
p518
sg26
g27
sg28
(lp519
VDerek Fisher
p520
assbag1
(g2
g3
Ntp521
Rp522
(dp523
g7
(dp524
g9
V1997-98 SkyBox Premium Star Rubies #86 Robert Horry
p525
sg11
I50
sg12
VSkyBox Premium Star Rubies
p526
sg14
(lp527
Vhttp://www.beckett.com/basketball/1997-98/skybox-premium-star-rubies/86-robert-horry-3141257
p528
asg17
g18
sg19
(lp529
Vhttp://img.beckett.com/images/no-image.jpg
p530
asg22
V#86
p531
sg24
V1997-98
p532
sg26
g27
sg28
(lp533
VRobert Horry
p534
assbag1
(g2
g3
Ntp535
Rp536
(dp537
g7
(dp538
g9
V1997-98 SkyBox Premium Star Rubies #90 Eddie Jones
p539
sg11
I50
sg12
VSkyBox Premium Star Rubies
p540
sg14
(lp541
Vhttp://www.beckett.com/basketball/1997-98/skybox-premium-star-rubies/90-eddie-jones-3141261
p542
asg17
g18
sg19
(lp543
Vhttp://img.beckett.com/images/no-image.jpg
p544
asg22
V#90
p545
sg24
V1997-98
p546
sg26
g27
sg28
(lp547
VEddie Jones
p548
assbag1
(g2
g3
Ntp549
Rp550
(dp551
g7
(dp552
g9
V1997-98 SkyBox Premium Star Rubies #116 Shaquille O'Neal
p553
sg11
I50
sg12
VSkyBox Premium Star Rubies
p554
sg14
(lp555
Vhttp://www.beckett.com/basketball/1997-98/skybox-premium-star-rubies/116-shaquille-oneal-3141287
p556
asg17
g18
sg19
(lp557
Vhttp://img.beckett.com/images/no-image.jpg
p558
asg22
V#116
p559
sg24
V1997-98
p560
sg26
g27
sg28
(lp561
VShaquille O'Neal
p562
assbag1
(g2
g3
Ntp563
Rp564
(dp565
g7
(dp566
g9
V1997-98 SkyBox Premium Star Rubies #196 Jon Barry
p567
sg11
I50
sg12
VSkyBox Premium Star Rubies
p568
sg14
(lp569
Vhttp://www.beckett.com/basketball/1997-98/skybox-premium-star-rubies/196-jon-barry-3141365
p570
asg17
g18
sg19
(lp571
Vhttp://img.beckett.com/images/no-image.jpg
p572
asg22
V#196
p573
sg24
V1997-98
p574
sg26
g27
sg28
(lp575
VJon Barry
p576
assbag1
(g2
g3
Ntp577
Rp578
(dp579
g7
(dp580
g9
V1997-98 SkyBox Premium Star Rubies #226 Kobe Bryant TS
p581
sg11
I50
sg12
VSkyBox Premium Star Rubies
p582
sg14
(lp583
Vhttp://www.beckett.com/basketball/1997-98/skybox-premium-star-rubies/226-kobe-bryant-ts-3141395
p584
asg17
g18
sg19
(lp585
Vhttp://img.beckett.com/images/no-image.jpg
p586
asg22
V#226
p587
sg24
V1997-98
p588
sS'subsetName'
p589
VTS
p590
sg26
g27
sg28
(lp591
VKobe Bryant
p592
assbag1
(g2
g3
Ntp593
Rp594
(dp595
g7
(dp596
g9
V1997-98 SkyBox Premium Star Rubies #240 Shaquille O'Neal TS
p597
sg11
I50
sg12
VSkyBox Premium Star Rubies
p598
sg14
(lp599
Vhttp://www.beckett.com/basketball/1997-98/skybox-premium-star-rubies/240-shaquille-oneal-ts-3141409
p600
asg17
g18
sg19
(lp601
Vhttp://img.beckett.com/images/no-image.jpg
p602
asg22
V#240
p603
sg24
V1997-98
p604
sg589
VTS
p605
sg26
g27
sg28
(lp606
VShaquille O'Neal
p607
assbag1
(g2
g3
Ntp608
Rp609
(dp610
g7
(dp611
g9
V1997-98 SkyBox Premium Autographics Century Marks #13 Corie Blount
p612
sg11
I100
sg12
VSkyBox Premium Autographics Century Marks
p613
sg14
(lp614
Vhttp://www.beckett.com/basketball/1997-98/skybox-premium-autographics-century-marks/13-corie-blount-3141595
p615
asg17
g18
sg19
(lp616
Vhttp://img.beckett.com/images/no-image.jpg
p617
asg22
V#13
p618
sS'autograph'
p619
I1
sg24
V1997-98
p620
sg26
g27
sg28
(lp621
VCorie Blount
p622
assbag1
(g2
g3
Ntp623
Rp624
(dp625
g7
(dp626
g9
V1997-98 SkyBox Premium Autographics Century Marks #38 Derek Fisher
p627
sg11
I100
sg12
VSkyBox Premium Autographics Century Marks
p628
sg14
(lp629
Vhttp://www.beckett.com/basketball/1997-98/skybox-premium-autographics-century-marks/38-derek-fisher-3141620
p630
asg17
g18
sg19
(lp631
Vhttp://img.beckett.com/images/no-image.jpg
p632
asg22
V#38
p633
sg619
I1
sg24
V1997-98
p634
sg26
g27
sg28
(lp635
VDerek Fisher
p636
assbag1
(g2
g3
Ntp637
Rp638
(dp639
g7
(dp640
g9
V1997-98 SkyBox Premium Autographics Century Marks #103 Nick Van Exel
p641
sg11
I100
sg12
VSkyBox Premium Autographics Century Marks
p642
sg14
(lp643
Vhttp://www.beckett.com/basketball/1997-98/skybox-premium-autographics-century-marks/103-nick-van-exel-3141685
p644
asg17
g18
sg19
(lp645
Vhttp://img.beckett.com/images/no-image.jpg
p646
asg22
V#103
p647
sg619
I1
sg24
V1997-98
p648
sg26
g27
sg28
(lp649
VNick Van Exel
p650
assbag1
(g2
g3
Ntp651
Rp652
(dp653
g7
(dp654
g9
V1997-98 SPx Grand Finale #21 Kobe Bryant
p655
sg11
I50
sg12
VSPx Grand Finale
p656
sg14
(lp657
Vhttp://www.beckett.com/basketball/1997-98/spx-grand-finale/21-kobe-bryant-3137705
p658
asg17
g18
sg19
(lp659
Vhttp://img.beckett.com/images/no-image.jpg
p660
asg22
V#21
p661
sg24
V1997-98
p662
sg26
g27
sg28
(lp663
VKobe Bryant
p664
assbag1
(g2
g3
Ntp665
Rp666
(dp667
g7
(dp668
g9
V1997-98 SPx Grand Finale #22 Shaquille O'Neal
p669
sg11
I50
sg12
VSPx Grand Finale
p670
sg14
(lp671
Vhttp://www.beckett.com/basketball/1997-98/spx-grand-finale/22-shaquille-oneal-3137706
p672
asg17
g18
sg19
(lp673
Vhttp://img.beckett.com/images/no-image.jpg
p674
asg22
V#22
p675
sg24
V1997-98
p676
sg26
g27
sg28
(lp677
VShaquille O'Neal
p678
assbag1
(g2
g3
Ntp679
Rp680
(dp681
g7
(dp682
g9
V1997-98 Stadium Club One Of A Kind #10 Nick Van Exel
p683
sg11
I150
sg12
VStadium Club One Of A Kind
p684
sg14
(lp685
Vhttp://www.beckett.com/basketball/1997-98/stadium-club-one-of-a-kind/10-nick-van-exel-3138309
p686
asg17
g18
sg19
(lp687
Vhttp://img.beckett.com/images/no-image.jpg
p688
asg22
V#10
p689
sg24
V1997-98
p690
sg26
g27
sg28
(lp691
VNick Van Exel
p692
assbag1
(g2
g3
Ntp693
Rp694
(dp695
g7
(dp696
g9
V1997-98 Stadium Club One Of A Kind #43 Shaquille O'Neal
p697
sg11
I150
sg12
VStadium Club One Of A Kind
p698
sg14
(lp699
Vhttp://www.beckett.com/basketball/1997-98/stadium-club-one-of-a-kind/43-shaquille-oneal-3138342
p700
asg17
g18
sg19
(lp701
Vhttp://img.beckett.com/images/no-image.jpg
p702
asg22
V#43
p703
sg24
V1997-98
p704
sg26
g27
sg28
(lp705
VShaquille O'Neal
p706
assbag1
(g2
g3
Ntp707
Rp708
(dp709
g7
(dp710
g9
V1997-98 Stadium Club One Of A Kind #78 Sean Rooks
p711
sg11
I150
sg12
VStadium Club One Of A Kind
p712
sg14
(lp713
Vhttp://www.beckett.com/basketball/1997-98/stadium-club-one-of-a-kind/78-sean-rooks-3138377
p714
asg17
g18
sg19
(lp715
Vhttp://img.beckett.com/images/no-image.jpg
p716
asg22
V#78
p717
sg24
V1997-98
p718
sg26
g27
sg28
(lp719
VSean Rooks
p720
assbag1
(g2
g3
Ntp721
Rp722
(dp723
g7
(dp724
g9
V1997-98 Stadium Club One Of A Kind #146 Kobe Bryant
p725
sg11
I150
sg12
VStadium Club One Of A Kind
p726
sg14
(lp727
Vhttp://www.beckett.com/basketball/1997-98/stadium-club-one-of-a-kind/146-kobe-bryant-3138445
p728
asg17
g18
sg19
(lp729
Vhttp://img.beckett.com/images/no-image.jpg
p730
asg22
V#146
p731
sg24
V1997-98
p732
sg26
g27
sg28
(lp733
VKobe Bryant
p734
assbag1
(g2
g3
Ntp735
Rp736
(dp737
g7
(dp738
g9
V1997-98 Stadium Club One Of A Kind #161 Robert Horry
p739
sg11
I150
sg12
VStadium Club One Of A Kind
p740
sg14
(lp741
Vhttp://www.beckett.com/basketball/1997-98/stadium-club-one-of-a-kind/161-robert-horry-3138460
p742
asg17
g18
sg19
(lp743
Vhttp://img.beckett.com/images/items_stock/185226/3138288/3138460/front.jpg
p744
asg22
V#161
p745
sg24
V1997-98
p746
sg26
g27
sg28
(lp747
VRobert Horry
p748
assbag1
(g2
g3
Ntp749
Rp750
(dp751
g7
(dp752
g9
V1997-98 Stadium Club One Of A Kind #185 Derek Fisher
p753
sg11
I150
sg12
VStadium Club One Of A Kind
p754
sg14
(lp755
Vhttp://www.beckett.com/basketball/1997-98/stadium-club-one-of-a-kind/185-derek-fisher-3138484
p756
asg17
g18
sg19
(lp757
Vhttp://img.beckett.com/images/no-image.jpg
p758
asg22
V#185
p759
sg24
V1997-98
p760
sg26
g27
sg28
(lp761
VDerek Fisher
p762
assbag1
(g2
g3
Ntp763
Rp764
(dp765
g7
(dp766
g9
V1997-98 Stadium Club One Of A Kind #186 Eddie Jones
p767
sg11
I150
sg12
VStadium Club One Of A Kind
p768
sg14
(lp769
Vhttp://www.beckett.com/basketball/1997-98/stadium-club-one-of-a-kind/186-eddie-jones-3138485
p770
asg17
g18
sg19
(lp771
Vhttp://img.beckett.com/images/items_stock/185226/3138288/3138485/front.jpg
p772
asg22
V#186
p773
sg24
V1997-98
p774
sg26
g27
sg28
(lp775
VEddie Jones
p776
assbag1
(g2
g3
Ntp777
Rp778
(dp779
g7
(dp780
g9
V1997-98 Stadium Club Printing Plates #10 Nick Van Exel Black
p781
sg11
I1
sg12
VStadium Club Printing Plates
p782
sg14
(lp783
Vhttp://www.beckett.com/basketball/1997-98/stadium-club-printing-plates/10-nick-van-exel-black-3138581
p784
asg17
g18
sg19
(lp785
Vhttp://img.beckett.com/images/no-image.jpg
p786
asg22
V#10
p787
sg24
V1997-98
p788
sg26
g27
sg28
(lp789
VNick Van Exel
p790
assbag1
(g2
g3
Ntp791
Rp792
(dp793
g7
(dp794
g9
V1997-98 Stadium Club Printing Plates #10A Nick Van Exel Cyan
p795
sg11
I1
sg12
VStadium Club Printing Plates
p796
sg14
(lp797
Vhttp://www.beckett.com/basketball/1997-98/stadium-club-printing-plates/10a-nick-van-exel-cyan-3138582
p798
asg17
g18
sg19
(lp799
Vhttp://img.beckett.com/images/no-image.jpg
p800
asg22
V#10A
p801
sg24
V1997-98
p802
sg26
g27
sg28
(lp803
g790
assbag1
(g2
g3
Ntp804
Rp805
(dp806
g7
(dp807
g9
V1997-98 Stadium Club Printing Plates #10B Nick Van Exel Magenta
p808
sg11
I1
sg12
VStadium Club Printing Plates
p809
sg14
(lp810
Vhttp://www.beckett.com/basketball/1997-98/stadium-club-printing-plates/10b-nick-van-exel-magenta-3138583
p811
asg17
g18
sg19
(lp812
Vhttp://img.beckett.com/images/no-image.jpg
p813
asg22
V#10B
p814
sg24
V1997-98
p815
sg26
g27
sg28
(lp816
g790
assbag1
(g2
g3
Ntp817
Rp818
(dp819
g7
(dp820
g9
V1997-98 Stadium Club Printing Plates #10C Nick Van Exel Yellow
p821
sg11
I1
sg12
VStadium Club Printing Plates
p822
sg14
(lp823
Vhttp://www.beckett.com/basketball/1997-98/stadium-club-printing-plates/10c-nick-van-exel-yellow-3138584
p824
asg17
g18
sg19
(lp825
Vhttp://img.beckett.com/images/no-image.jpg
p826
asg22
V#10C
p827
sg24
V1997-98
p828
sg26
g27
sg28
(lp829
g790
assbag1
(g2
g3
Ntp830
Rp831
(dp832
g7
(dp833
g9
V1997-98 Stadium Club Printing Plates #43 Shaquille O'Neal Black
p834
sg11
I1
sg12
VStadium Club Printing Plates
p835
sg14
(lp836
Vhttp://www.beckett.com/basketball/1997-98/stadium-club-printing-plates/43-shaquille-oneal-black-3138713
p837
asg17
g18
sg19
(lp838
Vhttp://img.beckett.com/images/no-image.jpg
p839
asg22
V#43
p840
sg24
V1997-98
p841
sg26
g27
sg28
(lp842
VShaquille O'Neal
p843
assbag1
(g2
g3
Ntp844
Rp845
(dp846
g7
(dp847
g9
V1997-98 Stadium Club Printing Plates #43A Shaquille O'Neal Cyan
p848
sg11
I1
sg12
VStadium Club Printing Plates
p849
sg14
(lp850
Vhttp://www.beckett.com/basketball/1997-98/stadium-club-printing-plates/43a-shaquille-oneal-cyan-3138714
p851
asg17
g18
sg19
(lp852
Vhttp://img.beckett.com/images/no-image.jpg
p853
asg22
V#43A
p854
sg24
V1997-98
p855
sg26
g27
sg28
(lp856
g843
assbag1
(g2
g3
Ntp857
Rp858
(dp859
g7
(dp860
g9
V1997-98 Stadium Club Printing Plates #43B Shaquille O'Neal Magenta
p861
sg11
I1
sg12
VStadium Club Printing Plates
p862
sg14
(lp863
Vhttp://www.beckett.com/basketball/1997-98/stadium-club-printing-plates/43b-shaquille-oneal-magenta-3138715
p864
asg17
g18
sg19
(lp865
Vhttp://img.beckett.com/images/no-image.jpg
p866
asg22
V#43B
p867
sg24
V1997-98
p868
sg26
g27
sg28
(lp869
g843
assbag1
(g2
g3
Ntp870
Rp871
(dp872
g7
(dp873
g9
V1997-98 Stadium Club Printing Plates #43C Shaquille O'Neal Yellow
p874
sg11
I1
sg12
VStadium Club Printing Plates
p875
sg14
(lp876
Vhttp://www.beckett.com/basketball/1997-98/stadium-club-printing-plates/43c-shaquille-oneal-yellow-3138716
p877
asg17
g18
sg19
(lp878
Vhttp://img.beckett.com/images/no-image.jpg
p879
asg22
V#43C
p880
sg24
V1997-98
p881
sg26
g27
sg28
(lp882
g843
assbag1
(g2
g3
Ntp883
Rp884
(dp885
g7
(dp886
g9
V1997-98 Stadium Club Printing Plates #78 Sean Rooks Black
p887
sg11
I1
sg12
VStadium Club Printing Plates
p888
sg14
(lp889
Vhttp://www.beckett.com/basketball/1997-98/stadium-club-printing-plates/78-sean-rooks-black-3138853
p890
asg17
g18
sg19
(lp891
Vhttp://img.beckett.com/images/no-image.jpg
p892
asg22
V#78
p893
sg24
V1997-98
p894
sg26
g27
sg28
(lp895
VSean Rooks
p896
assbag1
(g2
g3
Ntp897
Rp898
(dp899
g7
(dp900
g9
V1997-98 Stadium Club Printing Plates #78A Sean Rooks Cyan
p901
sg11
I1
sg12
VStadium Club Printing Plates
p902
sg14
(lp903
Vhttp://www.beckett.com/basketball/1997-98/stadium-club-printing-plates/78a-sean-rooks-cyan-3138854
p904
asg17
g18
sg19
(lp905
Vhttp://img.beckett.com/images/no-image.jpg
p906
asg22
V#78A
p907
sg24
V1997-98
p908
sg26
g27
sg28
(lp909
g896
assbag1
(g2
g3
Ntp910
Rp911
(dp912
g7
(dp913
g9
V1997-98 Stadium Club Printing Plates #78B Sean Rooks Magenta
p914
sg11
I1
sg12
VStadium Club Printing Plates
p915
sg14
(lp916
Vhttp://www.beckett.com/basketball/1997-98/stadium-club-printing-plates/78b-sean-rooks-magenta-3138855
p917
asg17
g18
sg19
(lp918
Vhttp://img.beckett.com/images/no-image.jpg
p919
asg22
V#78B
p920
sg24
V1997-98
p921
sg26
g27
sg28
(lp922
g896
assbag1
(g2
g3
Ntp923
Rp924
(dp925
g7
(dp926
g9
V1997-98 Stadium Club Printing Plates #78C Sean Rooks Yellow
p927
sg11
I1
sg12
VStadium Club Printing Plates
p928
sg14
(lp929
Vhttp://www.beckett.com/basketball/1997-98/stadium-club-printing-plates/78c-sean-rooks-yellow-3138856
p930
asg17
g18
sg19
(lp931
Vhttp://img.beckett.com/images/no-image.jpg
p932
asg22
V#78C
p933
sg24
V1997-98
p934
sg26
g27
sg28
(lp935
g896
assbag1
(g2
g3
Ntp936
Rp937
(dp938
g7
(dp939
g9
V1997-98 Stadium Club Printing Plates #146 Kobe Bryant Black
p940
sg11
I1
sg12
VStadium Club Printing Plates
p941
sg14
(lp942
Vhttp://www.beckett.com/basketball/1997-98/stadium-club-printing-plates/146-kobe-bryant-black-3139125
p943
asg17
g18
sg19
(lp944
Vhttp://img.beckett.com/images/no-image.jpg
p945
asg22
V#146
p946
sg24
V1997-98
p947
sg26
g27
sg28
(lp948
VKobe Bryant
p949
assbag1
(g2
g3
Ntp950
Rp951
(dp952
g7
(dp953
g9
V1997-98 Stadium Club Printing Plates #146A Kobe Bryant Cyan
p954
sg11
I1
sg12
VStadium Club Printing Plates
p955
sg14
(lp956
Vhttp://www.beckett.com/basketball/1997-98/stadium-club-printing-plates/146a-kobe-bryant-cyan-3139126
p957
asg17
g18
sg19
(lp958
Vhttp://img.beckett.com/images/no-image.jpg
p959
asg22
V#146A
p960
sg24
V1997-98
p961
sg26
g27
sg28
(lp962
g949
assbag1
(g2
g3
Ntp963
Rp964
(dp965
g7
(dp966
g9
V1997-98 Stadium Club Printing Plates #146B Kobe Bryant Magenta
p967
sg11
I1
sg12
VStadium Club Printing Plates
p968
sg14
(lp969
Vhttp://www.beckett.com/basketball/1997-98/stadium-club-printing-plates/146b-kobe-bryant-magenta-3139127
p970
asg17
g18
sg19
(lp971
Vhttp://img.beckett.com/images/no-image.jpg
p972
asg22
V#146B
p973
sg24
V1997-98
p974
sg26
g27
sg28
(lp975
g949
assbag1
(g2
g3
Ntp976
Rp977
(dp978
g7
(dp979
g9
V1997-98 Stadium Club Printing Plates #146C Kobe Bryant Yellow
p980
sg11
I1
sg12
VStadium Club Printing Plates
p981
sg14
(lp982
Vhttp://www.beckett.com/basketball/1997-98/stadium-club-printing-plates/146c-kobe-bryant-yellow-3139128
p983
asg17
g18
sg19
(lp984
Vhttp://img.beckett.com/images/no-image.jpg
p985
asg22
V#146C
p986
sg24
V1997-98
p987
sg26
g27
sg28
(lp988
g949
assbag1
(g2
g3
Ntp989
Rp990
(dp991
g7
(dp992
g9
V1997-98 Stadium Club Printing Plates #161 Robert Horry Black
p993
sg11
I1
sg12
VStadium Club Printing Plates
p994
sg14
(lp995
Vhttp://www.beckett.com/basketball/1997-98/stadium-club-printing-plates/161-robert-horry-black-3139185
p996
asg17
g18
sg19
(lp997
Vhttp://img.beckett.com/images/no-image.jpg
p998
asg22
V#161
p999
sg24
V1997-98
p1000
sg26
g27
sg28
(lp1001
VRobert Horry
p1002
assbag1
(g2
g3
Ntp1003
Rp1004
(dp1005
g7
(dp1006
g9
V1997-98 Stadium Club Printing Plates #161A Robert Horry Cyan
p1007
sg11
I1
sg12
VStadium Club Printing Plates
p1008
sg14
(lp1009
Vhttp://www.beckett.com/basketball/1997-98/stadium-club-printing-plates/161a-robert-horry-cyan-3139186
p1010
asg17
g18
sg19
(lp1011
Vhttp://img.beckett.com/images/no-image.jpg
p1012
asg22
V#161A
p1013
sg24
V1997-98
p1014
sg26
g27
sg28
(lp1015
g1002
assbag1
(g2
g3
Ntp1016
Rp1017
(dp1018
g7
(dp1019
g9
V1997-98 Stadium Club Printing Plates #161B Robert Horry Magenta
p1020
sg11
I1
sg12
VStadium Club Printing Plates
p1021
sg14
(lp1022
Vhttp://www.beckett.com/basketball/1997-98/stadium-club-printing-plates/161b-robert-horry-magenta-3139187
p1023
asg17
g18
sg19
(lp1024
Vhttp://img.beckett.com/images/no-image.jpg
p1025
asg22
V#161B
p1026
sg24
V1997-98
p1027
sg26
g27
sg28
(lp1028
g1002
assbag1
(g2
g3
Ntp1029
Rp1030
(dp1031
g7
(dp1032
g9
V1997-98 Stadium Club Printing Plates #161C Robert Horry Yellow
p1033
sg11
I1
sg12
VStadium Club Printing Plates
p1034
sg14
(lp1035
Vhttp://www.beckett.com/basketball/1997-98/stadium-club-printing-plates/161c-robert-horry-yellow-3139188
p1036
asg17
g18
sg19
(lp1037
Vhttp://img.beckett.com/images/no-image.jpg
p1038
asg22
V#161C
p1039
sg24
V1997-98
p1040
sg26
g27
sg28
(lp1041
g1002
assbag1
(g2
g3
Ntp1042
Rp1043
(dp1044
g7
(dp1045
g9
V1997-98 Stadium Club Printing Plates #185 Derek Fisher Black
p1046
sg11
I1
sg12
VStadium Club Printing Plates
p1047
sg14
(lp1048
Vhttp://www.beckett.com/basketball/1997-98/stadium-club-printing-plates/185-derek-fisher-black-3139281
p1049
asg17
g18
sg19
(lp1050
Vhttp://img.beckett.com/images/no-image.jpg
p1051
asg22
V#185
p1052
sg24
V1997-98
p1053
sg26
g27
sg28
(lp1054
VDerek Fisher
p1055
assbag1
(g2
g3
Ntp1056
Rp1057
(dp1058
g7
(dp1059
g9
V1997-98 Stadium Club Printing Plates #185A Derek Fisher Cyan
p1060
sg11
I1
sg12
VStadium Club Printing Plates
p1061
sg14
(lp1062
Vhttp://www.beckett.com/basketball/1997-98/stadium-club-printing-plates/185a-derek-fisher-cyan-3139282
p1063
asg17
g18
sg19
(lp1064
Vhttp://img.beckett.com/images/no-image.jpg
p1065
asg22
V#185A
p1066
sg24
V1997-98
p1067
sg26
g27
sg28
(lp1068
g1055
assbag1
(g2
g3
Ntp1069
Rp1070
(dp1071
g7
(dp1072
g9
V1997-98 Stadium Club Printing Plates #185B Derek Fisher Magenta
p1073
sg11
I1
sg12
VStadium Club Printing Plates
p1074
sg14
(lp1075
Vhttp://www.beckett.com/basketball/1997-98/stadium-club-printing-plates/185b-derek-fisher-magenta-3139283
p1076
asg17
g18
sg19
(lp1077
Vhttp://img.beckett.com/images/no-image.jpg
p1078
asg22
V#185B
p1079
sg24
V1997-98
p1080
sg26
g27
sg28
(lp1081
g1055
assbag1
(g2
g3
Ntp1082
Rp1083
(dp1084
g7
(dp1085
g9
V1997-98 Stadium Club Printing Plates #185C Derek Fisher Yellow
p1086
sg11
I1
sg12
VStadium Club Printing Plates
p1087
sg14
(lp1088
Vhttp://www.beckett.com/basketball/1997-98/stadium-club-printing-plates/185c-derek-fisher-yellow-3139284
p1089
asg17
g18
sg19
(lp1090
Vhttp://img.beckett.com/images/no-image.jpg
p1091
asg22
V#185C
p1092
sg24
V1997-98
p1093
sg26
g27
sg28
(lp1094
g1055
assbag1
(g2
g3
Ntp1095
Rp1096
(dp1097
g7
(dp1098
g9
V1997-98 Stadium Club Printing Plates #186 Eddie Jones Black
p1099
sg11
I1
sg12
VStadium Club Printing Plates
p1100
sg14
(lp1101
Vhttp://www.beckett.com/basketball/1997-98/stadium-club-printing-plates/186-eddie-jones-black-3139285
p1102
asg17
g18
sg19
(lp1103
Vhttp://img.beckett.com/images/no-image.jpg
p1104
asg22
V#186
p1105
sg24
V1997-98
p1106
sg26
g27
sg28
(lp1107
VEddie Jones
p1108
assbag1
(g2
g3
Ntp1109
Rp1110
(dp1111
g7
(dp1112
g9
V1997-98 Stadium Club Printing Plates #186A Eddie Jones Cyan
p1113
sg11
I1
sg12
VStadium Club Printing Plates
p1114
sg14
(lp1115
Vhttp://www.beckett.com/basketball/1997-98/stadium-club-printing-plates/186a-eddie-jones-cyan-3139286
p1116
asg17
g18
sg19
(lp1117
Vhttp://img.beckett.com/images/no-image.jpg
p1118
asg22
V#186A
p1119
sg24
V1997-98
p1120
sg26
g27
sg28
(lp1121
g1108
assbag1
(g2
g3
Ntp1122
Rp1123
(dp1124
g7
(dp1125
g9
V1997-98 Stadium Club Printing Plates #186B Eddie Jones Magenta
p1126
sg11
I1
sg12
VStadium Club Printing Plates
p1127
sg14
(lp1128
Vhttp://www.beckett.com/basketball/1997-98/stadium-club-printing-plates/186b-eddie-jones-magenta-3139287
p1129
asg17
g18
sg19
(lp1130
Vhttp://img.beckett.com/images/no-image.jpg
p1131
asg22
V#186B
p1132
sg24
V1997-98
p1133
sg26
g27
sg28
(lp1134
g1108
assbag1
(g2
g3
Ntp1135
Rp1136
(dp1137
g7
(dp1138
g9
V1997-98 Stadium Club Printing Plates #186C Eddie Jones Yellow
p1139
sg11
I1
sg12
VStadium Club Printing Plates
p1140
sg14
(lp1141
Vhttp://www.beckett.com/basketball/1997-98/stadium-club-printing-plates/186c-eddie-jones-yellow-3139288
p1142
asg17
g18
sg19
(lp1143
Vhttp://img.beckett.com/images/no-image.jpg
p1144
asg22
V#186C
p1145
sg24
V1997-98
p1146
sg26
g27
sg28
(lp1147
g1108
assbag1
(g2
g3
Ntp1148
Rp1149
(dp1150
g7
(dp1151
g9
V1997-98 Ultra Masterpieces #1 Kobe Bryant
p1152
sg11
I1
sg12
VUltra Masterpieces
p1153
sg14
(lp1154
Vhttp://www.beckett.com/basketball/1997-98/ultra-masterpieces/1-kobe-bryant-3135731
p1155
asg17
g18
sg19
(lp1156
Vhttp://img.beckett.com/images/no-image.jpg
p1157
asg22
V#1
p1158
sg24
V1997-98
p1159
sg26
g27
sg28
(lp1160
VKobe Bryant
p1161
assbag1
(g2
g3
Ntp1162
Rp1163
(dp1164
g7
(dp1165
g9
V1997-98 Ultra Masterpieces #35 Eddie Jones
p1166
sg11
I1
sg12
VUltra Masterpieces
p1167
sg14
(lp1168
Vhttp://www.beckett.com/basketball/1997-98/ultra-masterpieces/35-eddie-jones-3135765
p1169
asg17
g18
sg19
(lp1170
Vhttp://img.beckett.com/images/no-image.jpg
p1171
asg22
V#35
p1172
sg24
V1997-98
p1173
sg26
g27
sg28
(lp1174
VEddie Jones
p1175
assbag1
(g2
g3
Ntp1176
Rp1177
(dp1178
g7
(dp1179
g9
V1997-98 Ultra Masterpieces #114 Robert Horry
p1180
sg11
I1
sg12
VUltra Masterpieces
p1181
sg14
(lp1182
Vhttp://www.beckett.com/basketball/1997-98/ultra-masterpieces/114-robert-horry-3135844
p1183
asg17
g18
sg19
(lp1184
Vhttp://img.beckett.com/images/no-image.jpg
p1185
asg22
V#114
p1186
sg24
V1997-98
p1187
sg26
g27
sg28
(lp1188
VRobert Horry
p1189
assbag1
(g2
g3
Ntp1190
Rp1191
(dp1192
g7
(dp1193
g9
V1997-98 Ultra Masterpieces #120 Derek Fisher
p1194
sg11
I1
sg12
VUltra Masterpieces
p1195
sg14
(lp1196
Vhttp://www.beckett.com/basketball/1997-98/ultra-masterpieces/120-derek-fisher-3135850
p1197
asg17
g18
sg19
(lp1198
Vhttp://img.beckett.com/images/no-image.jpg
p1199
asg22
V#120
p1200
sg24
V1997-98
p1201
sg26
g27
sg28
(lp1202
VDerek Fisher
p1203
assbag1
(g2
g3
Ntp1204
Rp1205
(dp1206
g7
(dp1207
g9
V1997-98 Ultra Masterpieces #176 Sean Rooks
p1208
sg11
I1
sg12
VUltra Masterpieces
p1209
sg14
(lp1210
Vhttp://www.beckett.com/basketball/1997-98/ultra-masterpieces/176-sean-rooks-3135904
p1211
asg17
g18
sg19
(lp1212
Vhttp://img.beckett.com/images/no-image.jpg
p1213
asg22
V#176
p1214
sg24
V1997-98
p1215
sg26
g27
sg28
(lp1216
VSean Rooks
p1217
assbag1
(g2
g3
Ntp1218
Rp1219
(dp1220
g7
(dp1221
g9
V1997-98 Ultra Masterpieces #188 Jon Barry
p1222
sg11
I1
sg12
VUltra Masterpieces
p1223
sg14
(lp1224
Vhttp://www.beckett.com/basketball/1997-98/ultra-masterpieces/188-jon-barry-3135916
p1225
asg17
g18
sg19
(lp1226
Vhttp://img.beckett.com/images/no-image.jpg
p1227
asg22
V#188
p1228
sg24
V1997-98
p1229
sg26
g27
sg28
(lp1230
VJon Barry
p1231
assbag1
(g2
g3
Ntp1232
Rp1233
(dp1234
g7
(dp1235
g9
V1997-98 Ultra Masterpieces #216 Nick Van Exel
p1236
sg11
I1
sg12
VUltra Masterpieces
p1237
sg14
(lp1238
Vhttp://www.beckett.com/basketball/1997-98/ultra-masterpieces/216-nick-van-exel-3135944
p1239
asg17
g18
sg19
(lp1240
Vhttp://img.beckett.com/images/no-image.jpg
p1241
asg22
V#216
p1242
sg24
V1997-98
p1243
sg26
g27
sg28
(lp1244
VNick Van Exel
p1245
assbag1
(g2
g3
Ntp1246
Rp1247
(dp1248
g7
(dp1249
g9
V1997-98 Ultra Masterpieces #223 Shea Seals
p1250
sg11
I1
sg12
VUltra Masterpieces
p1251
sg14
(lp1252
Vhttp://www.beckett.com/basketball/1997-98/ultra-masterpieces/223-shea-seals-3135951
p1253
asg17
g18
sg19
(lp1254
Vhttp://img.beckett.com/images/no-image.jpg
p1255
asg22
V#223
p1256
sg24
V1997-98
p1257
sg26
g27
sg28
(lp1258
VShea Seals
p1259
assbag1
(g2
g3
Ntp1260
Rp1261
(dp1262
g7
(dp1263
g9
V1997-98 Ultra Masterpieces #252 Kobe Bryant GRE
p1264
sg11
I1
sg12
VUltra Masterpieces
p1265
sg14
(lp1266
Vhttp://www.beckett.com/basketball/1997-98/ultra-masterpieces/252-kobe-bryant-gre-3135980
p1267
asg17
g18
sg19
(lp1268
Vhttp://img.beckett.com/images/no-image.jpg
p1269
asg22
V#252
p1270
sg24
V1997-98
p1271
sg589
VGRE
p1272
sg26
g27
sg28
(lp1273
VKobe Bryant
p1274
assbag1
(g2
g3
Ntp1275
Rp1276
(dp1277
g7
(dp1278
g9
V1997-98 Ultra Masterpieces #265 Shaquille O'Neal GRE
p1279
sg11
I1
sg12
VUltra Masterpieces
p1280
sg14
(lp1281
Vhttp://www.beckett.com/basketball/1997-98/ultra-masterpieces/265-shaquille-oneal-gre-3135993
p1282
asg17
g18
sg19
(lp1283
Vhttp://img.beckett.com/images/no-image.jpg
p1284
asg22
V#265
p1285
sg24
V1997-98
p1286
sg589
VGRE
p1287
sg26
g27
sg28
(lp1288
VShaquille O'Neal
p1289
assbag1
(g2
g3
Ntp1290
Rp1291
(dp1292
g7
(dp1293
g9
V1997-98 Ultra Platinum Medallion #1 Kobe Bryant
p1294
sg11
I100
sg12
VUltra Platinum Medallion
p1295
sg14
(lp1296
Vhttp://www.beckett.com/basketball/1997-98/ultra-platinum-medallion/1-kobe-bryant-3136015
p1297
asg17
g18
sg19
(lp1298
Vhttp://img.beckett.com/images/no-image.jpg
p1299
asg22
V#1
p1300
sg24
V1997-98
p1301
sg26
g27
sg28
(lp1302
VKobe Bryant
p1303
assbag1
(g2
g3
Ntp1304
Rp1305
(dp1306
g7
(dp1307
g9
V1997-98 Ultra Platinum Medallion #35 Eddie Jones
p1308
sg11
I100
sg12
VUltra Platinum Medallion
p1309
sg14
(lp1310
Vhttp://www.beckett.com/basketball/1997-98/ultra-platinum-medallion/35-eddie-jones-3136049
p1311
asg17
g18
sg19
(lp1312
Vhttp://img.beckett.com/images/no-image.jpg
p1313
asg22
V#35
p1314
sg24
V1997-98
p1315
sg26
g27
sg28
(lp1316
VEddie Jones
p1317
assbag1
(g2
g3
Ntp1318
Rp1319
(dp1320
g7
(dp1321
g9
V1997-98 Ultra Platinum Medallion #114 Robert Horry
p1322
sg11
I100
sg12
VUltra Platinum Medallion
p1323
sg14
(lp1324
Vhttp://www.beckett.com/basketball/1997-98/ultra-platinum-medallion/114-robert-horry-3136128
p1325
asg17
g18
sg19
(lp1326
Vhttp://img.beckett.com/images/items_stock/185226/3136002/3136128/front.jpg
p1327
asg22
V#114
p1328
sg24
V1997-98
p1329
sg26
g27
sg28
(lp1330
VRobert Horry
p1331
assbag1
(g2
g3
Ntp1332
Rp1333
(dp1334
g7
(dp1335
g9
V1997-98 Ultra Platinum Medallion #120 Derek Fisher
p1336
sg11
I100
sg12
VUltra Platinum Medallion
p1337
sg14
(lp1338
Vhttp://www.beckett.com/basketball/1997-98/ultra-platinum-medallion/120-derek-fisher-3136134
p1339
asg17
g18
sg19
(lp1340
Vhttp://img.beckett.com/images/no-image.jpg
p1341
asg22
V#120
p1342
sg24
V1997-98
p1343
sg26
g27
sg28
(lp1344
VDerek Fisher
p1345
assbag1
(g2
g3
Ntp1346
Rp1347
(dp1348
g7
(dp1349
g9
V1997-98 Ultra Platinum Medallion #176 Sean Rooks
p1350
sg11
I100
sg12
VUltra Platinum Medallion
p1351
sg14
(lp1352
Vhttp://www.beckett.com/basketball/1997-98/ultra-platinum-medallion/176-sean-rooks-3136188
p1353
asg17
g18
sg19
(lp1354
Vhttp://img.beckett.com/images/no-image.jpg
p1355
asg22
V#176
p1356
sg24
V1997-98
p1357
sg26
g27
sg28
(lp1358
VSean Rooks
p1359
assbag1
(g2
g3
Ntp1360
Rp1361
(dp1362
g7
(dp1363
g9
V1997-98 Ultra Platinum Medallion #188 Jon Barry
p1364
sg11
I100
sg12
VUltra Platinum Medallion
p1365
sg14
(lp1366
Vhttp://www.beckett.com/basketball/1997-98/ultra-platinum-medallion/188-jon-barry-3136200
p1367
asg17
g18
sg19
(lp1368
Vhttp://img.beckett.com/images/no-image.jpg
p1369
asg22
V#188
p1370
sg24
V1997-98
p1371
sg26
g27
sg28
(lp1372
VJon Barry
p1373
assbag1
(g2
g3
Ntp1374
Rp1375
(dp1376
g7
(dp1377
g9
V1997-98 Ultra Platinum Medallion #216 Nick Van Exel
p1378
sg11
I100
sg12
VUltra Platinum Medallion
p1379
sg14
(lp1380
Vhttp://www.beckett.com/basketball/1997-98/ultra-platinum-medallion/216-nick-van-exel-3136228
p1381
asg17
g18
sg19
(lp1382
Vhttp://img.beckett.com/images/no-image.jpg
p1383
asg22
V#216
p1384
sg24
V1997-98
p1385
sg26
g27
sg28
(lp1386
VNick Van Exel
p1387
assbag1
(g2
g3
Ntp1388
Rp1389
(dp1390
g7
(dp1391
g9
V1997-98 Ultra Platinum Medallion #223 Shea Seals
p1392
sg11
I100
sg12
VUltra Platinum Medallion
p1393
sg14
(lp1394
Vhttp://www.beckett.com/basketball/1997-98/ultra-platinum-medallion/223-shea-seals-3136235
p1395
asg17
g18
sg19
(lp1396
Vhttp://img.beckett.com/images/no-image.jpg
p1397
asg22
V#223
p1398
sg24
V1997-98
p1399
sg26
g27
sg28
(lp1400
VShea Seals
p1401
assbag1
(g2
g3
Ntp1402
Rp1403
(dp1404
g7
(dp1405
g9
V1997-98 Ultra Platinum Medallion #252 Kobe Bryant GRE
p1406
sg11
I100
sg12
VUltra Platinum Medallion
p1407
sg14
(lp1408
Vhttp://www.beckett.com/basketball/1997-98/ultra-platinum-medallion/252-kobe-bryant-gre-3136264
p1409
asg17
g18
sg19
(lp1410
Vhttp://img.beckett.com/images/no-image.jpg
p1411
asg22
V#252
p1412
sg24
V1997-98
p1413
sg589
VGRE
p1414
sg26
g27
sg28
(lp1415
VKobe Bryant
p1416
assbag1
(g2
g3
Ntp1417
Rp1418
(dp1419
g7
(dp1420
g9
V1997-98 Ultra Platinum Medallion #265 Shaquille O'Neal GRE
p1421
sg11
I100
sg12
VUltra Platinum Medallion
p1422
sg14
(lp1423
Vhttp://www.beckett.com/basketball/1997-98/ultra-platinum-medallion/265-shaquille-oneal-gre-3136277
p1424
asg17
g18
sg19
(lp1425
Vhttp://img.beckett.com/images/no-image.jpg
p1426
asg22
V#265
p1427
sg24
V1997-98
p1428
sg589
VGRE
p1429
sg26
g27
sg28
(lp1430
VShaquille O'Neal
p1431
assbag1
(g2
g3
Ntp1432
Rp1433
(dp1434
g7
(dp1435
g9
V1997-98 Z-Force Rave #9 Nick Van Exel
p1436
sg11
I399
sg12
VZ-Force Rave
p1437
sg14
(lp1438
Vhttp://www.beckett.com/basketball/1997-98/z-force-rave/9-nick-van-exel-3133033
p1439
asg17
g18
sg19
(lp1440
Vhttp://img.beckett.com/images/no-image.jpg
p1441
asg22
V#9
p1442
sg24
V1997-98
p1443
sg26
g27
sg28
(lp1444
VNick Van Exel
p1445
assbag1
(g2
g3
Ntp1446
Rp1447
(dp1448
g7
(dp1449
g9
V1997-98 Z-Force Rave #34 Shaquille O'Neal
p1450
sg11
I399
sg12
VZ-Force Rave
p1451
sg14
(lp1452
Vhttp://www.beckett.com/basketball/1997-98/z-force-rave/34-shaquille-oneal-3133058
p1453
asg17
g18
sg19
(lp1454
Vhttp://img.beckett.com/images/no-image.jpg
p1455
asg22
V#34
p1456
sg24
V1997-98
p1457
sg26
g27
sg28
(lp1458
VShaquille O'Neal
p1459
assbag1
(g2
g3
Ntp1460
Rp1461
(dp1462
g7
(dp1463
g9
V1997-98 Z-Force Rave #59 Robert Horry
p1464
sg11
I399
sg12
VZ-Force Rave
p1465
sg14
(lp1466
Vhttp://www.beckett.com/basketball/1997-98/z-force-rave/59-robert-horry-3133083
p1467
asg17
g18
sg19
(lp1468
Vhttp://img.beckett.com/images/items_stock/185226/3133012/3133083/front.jpg
p1469
asg22
V#59
p1470
sg24
V1997-98
p1471
sg26
g27
sg28
(lp1472
VRobert Horry
p1473
assbag1
(g2
g3
Ntp1474
Rp1475
(dp1476
g7
(dp1477
g9
V1997-98 Z-Force Rave #88 Kobe Bryant
p1478
sg11
I399
sg12
VZ-Force Rave
p1479
sg14
(lp1480
Vhttp://www.beckett.com/basketball/1997-98/z-force-rave/88-kobe-bryant-3133112
p1481
asg17
g18
sg19
(lp1482
Vhttp://img.beckett.com/images/no-image.jpg
p1483
asg22
V#88
p1484
sg24
V1997-98
p1485
sg26
g27
sg28
(lp1486
VKobe Bryant
p1487
assbag1
(g2
g3
Ntp1488
Rp1489
(dp1490
g7
(dp1491
g9
V1997-98 Z-Force Rave #173 Eddie Jones
p1492
sg11
I399
sg12
VZ-Force Rave
p1493
sg14
(lp1494
Vhttp://www.beckett.com/basketball/1997-98/z-force-rave/173-eddie-jones-3133196
p1495
asg17
g18
sg19
(lp1496
Vhttp://img.beckett.com/images/items_stock/185226/3133012/3133196/front.jpg
p1497
asg22
V#173
p1498
sg24
V1997-98
p1499
sg26
g27
sg28
(lp1500
VEddie Jones
p1501
assbag1
(g2
g3
Ntp1502
Rp1503
(dp1504
g7
(dp1505
g9
V1997-98 Z-Force Rave #195 Kobe Bryant ZUP
p1506
sg11
I399
sg12
VZ-Force Rave
p1507
sg14
(lp1508
Vhttp://www.beckett.com/basketball/1997-98/z-force-rave/195-kobe-bryant-zup-3133218
p1509
asg17
g18
sg19
(lp1510
Vhttp://img.beckett.com/images/no-image.jpg
p1511
asg22
V#195
p1512
sg24
V1997-98
p1513
sg589
VZUP
p1514
sg26
g27
sg28
(lp1515
VKobe Bryant
p1516
assbag1
(g2
g3
Ntp1517
Rp1518
(dp1519
g7
(dp1520
g9
V1997-98 Z-Force Rave #196 Shaquille O'Neal ZUP
p1521
sg11
I399
sg12
VZ-Force Rave
p1522
sg14
(lp1523
Vhttp://www.beckett.com/basketball/1997-98/z-force-rave/196-shaquille-oneal-zup-3133219
p1524
asg17
g18
sg19
(lp1525
Vhttp://img.beckett.com/images/no-image.jpg
p1526
asg22
V#196
p1527
sg24
V1997-98
p1528
sg589
VZUP
p1529
sg26
g27
sg28
(lp1530
VShaquille O'Neal
p1531
assbag1
(g2
g3
Ntp1532
Rp1533
(dp1534
g7
(dp1535
g9
V1997-98 Z-Force Super Rave #173 Eddie Jones
p1536
sg11
I50
sg12
VZ-Force Super Rave
p1537
sg14
(lp1538
Vhttp://www.beckett.com/basketball/1997-98/z-force-super-rave/173-eddie-jones-3133308
p1539
asg17
g18
sg19
(lp1540
Vhttp://img.beckett.com/images/no-image.jpg
p1541
asg22
V#173
p1542
sg24
V1997-98
p1543
sg26
g27
sg28
(lp1544
VEddie Jones
p1545
assbag1
(g2
g3
Ntp1546
Rp1547
(dp1548
g7
(dp1549
g9
V1997-98 Z-Force Super Rave #195 Kobe Bryant ZUP
p1550
sg11
I50
sg12
VZ-Force Super Rave
p1551
sg14
(lp1552
Vhttp://www.beckett.com/basketball/1997-98/z-force-super-rave/195-kobe-bryant-zup-3133330
p1553
asg17
g18
sg19
(lp1554
Vhttp://img.beckett.com/images/no-image.jpg
p1555
asg22
V#195
p1556
sg24
V1997-98
p1557
sg589
VZUP
p1558
sg26
g27
sg28
(lp1559
VKobe Bryant
p1560
assbag1
(g2
g3
Ntp1561
Rp1562
(dp1563
g7
(dp1564
g9
V1997-98 Z-Force Super Rave #196 Shaquille O'Neal ZUP
p1565
sg11
I50
sg12
VZ-Force Super Rave
p1566
sg14
(lp1567
Vhttp://www.beckett.com/basketball/1997-98/z-force-super-rave/196-shaquille-oneal-zup-3133331
p1568
asg17
g18
sg19
(lp1569
Vhttp://img.beckett.com/images/no-image.jpg
p1570
asg22
V#196
p1571
sg24
V1997-98
p1572
sg589
VZUP
p1573
sg26
g27
sg28
(lp1574
VShaquille O'Neal
p1575
assbag1
(g2
g3
Ntp1576
Rp1577
(dp1578
g7
(dp1579
g9
V1997-98 Upper Deck High Dimensions #D8 Kobe Bryant
p1580
sg11
I2000
sg12
VUpper Deck High Dimensions
p1581
sg14
(lp1582
Vhttp://www.beckett.com/basketball/1997-98/upper-deck-high-dimensions/d8-kobe-bryant-3132430
p1583
asg17
g18
sg19
(lp1584
Vhttp://img.beckett.com/images/no-image.jpg
p1585
asg22
V#D8
p1586
sg24
V1997-98
p1587
sg26
g27
sg28
(lp1588
VKobe Bryant
p1589
assbag1
(g2
g3
Ntp1590
Rp1591
(dp1592
g7
(dp1593
g9
V1997-98 Upper Deck High Dimensions #D12 Shaquille O'Neal
p1594
sg11
I2000
sg12
VUpper Deck High Dimensions
p1595
sg14
(lp1596
Vhttp://www.beckett.com/basketball/1997-98/upper-deck-high-dimensions/d12-shaquille-oneal-3132434
p1597
asg17
g18
sg19
(lp1598
Vhttp://img.beckett.com/images/no-image.jpg
p1599
asg22
V#D12
p1600
sg24
V1997-98
p1601
sg26
g27
sg28
(lp1602
VShaquille O'Neal
p1603
assbag1
(g2
g3
Ntp1604
Rp1605
(dp1606
g7
(dp1607
g9
V1997-98 Flair Showcase Masterpieces Row 3 #18 Kobe Bryant
p1608
sg11
I1
sg12
VFlair Showcase Masterpieces Row 3
p1609
sg14
(lp1610
Vhttp://www.beckett.com/basketball/1997-98/flair-showcase-masterpieces-row-3/18-kobe-bryant-3148917
p1611
asg17
g18
sg19
(lp1612
Vhttp://img.beckett.com/images/no-image.jpg
p1613
asg22
V#18
p1614
sg24
V1997-98
p1615
sg26
g27
sg28
(lp1616
VKobe Bryant
p1617
assbag1
(g2
g3
Ntp1618
Rp1619
(dp1620
g7
(dp1621
g9
V1997-98 Flair Showcase Masterpieces Row 2 #18 Kobe Bryant
p1622
sg11
I1
sg12
VFlair Showcase Masterpieces Row 2
p1623
sg14
(lp1624
Vhttp://www.beckett.com/basketball/1997-98/flair-showcase-masterpieces-row-2/18-kobe-bryant-3148831
p1625
asg17
g18
sg19
(lp1626
Vhttp://img.beckett.com/images/no-image.jpg
p1627
asg22
V#18
p1628
sg24
V1997-98
p1629
sg26
g27
sg28
(lp1630
VKobe Bryant
p1631
assbag1
(g2
g3
Ntp1632
Rp1633
(dp1634
g7
(dp1635
g9
V1997-98 Flair Showcase Masterpieces Row 1 #18 Kobe Bryant
p1636
sg11
I1
sg12
VFlair Showcase Masterpieces Row 1
p1637
sg14
(lp1638
Vhttp://www.beckett.com/basketball/1997-98/flair-showcase-masterpieces-row-1/18-kobe-bryant-3148746
p1639
asg17
g18
sg19
(lp1640
Vhttp://img.beckett.com/images/no-image.jpg
p1641
asg22
V#18
p1642
sg24
V1997-98
p1643
sg26
g27
sg28
(lp1644
VKobe Bryant
p1645
assbag1
(g2
g3
Ntp1646
Rp1647
(dp1648
g7
(dp1649
g9
V1997-98 Flair Showcase Masterpieces Row 0 #18 Kobe Bryant
p1650
sg11
I1
sg12
VFlair Showcase Masterpieces Row 0
p1651
sg14
(lp1652
Vhttp://www.beckett.com/basketball/1997-98/flair-showcase-masterpieces-row-0/18-kobe-bryant-3148661
p1653
asg17
g18
sg19
(lp1654
Vhttp://img.beckett.com/images/no-image.jpg
p1655
asg22
V#18
p1656
sg24
V1997-98
p1657
sg26
g27
sg28
(lp1658
VKobe Bryant
p1659
assbag1
(g2
g3
Ntp1660
Rp1661
(dp1662
g7
(dp1663
g9
V1997-98 Hoops High Voltage 500 #HV1 Kobe Bryant
p1664
sg11
I500
sg12
VHoops High Voltage 500
p1665
sg14
(lp1666
Vhttp://www.beckett.com/basketball/1997-98/hoops-high-voltage-500/hv1-kobe-bryant-3142290
p1667
asg17
g18
sg19
(lp1668
Vhttp://img.beckett.com/images/no-image.jpg
p1669
asg22
V#HV1
p1670
sg24
V1997-98
p1671
sg26
g27
sg28
(lp1672
VKobe Bryant
p1673
assbag1
(g2
g3
Ntp1674
Rp1675
(dp1676
g7
(dp1677
g9
V1997-98 Hoops High Voltage 500 #HV2 Eddie Jones
p1678
sg11
I500
sg12
VHoops High Voltage 500
p1679
sg14
(lp1680
Vhttp://www.beckett.com/basketball/1997-98/hoops-high-voltage-500/hv2-eddie-jones-3142291
p1681
asg17
g18
sg19
(lp1682
Vhttp://img.beckett.com/images/no-image.jpg
p1683
asg22
V#HV2
p1684
sg24
V1997-98
p1685
sg26
g27
sg28
(lp1686
VEddie Jones
p1687
assbag1
(g2
g3
Ntp1688
Rp1689
(dp1690
g7
(dp1691
g9
V1997-98 Metal Universe Precious Metal Gems Emerald #3 Derek Fisher
p1692
sg11
I10
sg12
VMetal Universe Precious Metal Gems Emerald
p1693
sg14
(lp1694
Vhttp://www.beckett.com/basketball/1997-98/metal-universe-precious-metal-gems-emerald/3-derek-fisher-7055451
p1695
asg17
g18
sg19
(lp1696
Vhttp://img.beckett.com/images/no-image.jpg
p1697
asg22
V#3
p1698
sg24
V1997-98
p1699
sg26
g27
sg28
(lp1700
VDerek Fisher
p1701
assbag1
(g2
g3
Ntp1702
Rp1703
(dp1704
g7
(dp1705
g9
V1997-98 Metal Universe Precious Metal Gems Emerald #50 Shaquille O'Neal
p1706
sg11
I10
sg12
VMetal Universe Precious Metal Gems Emerald
p1707
sg14
(lp1708
Vhttp://www.beckett.com/basketball/1997-98/metal-universe-precious-metal-gems-emerald/50-shaquille-oneal-7055499
p1709
asg17
g18
sg19
(lp1710
Vhttp://img.beckett.com/images/no-image.jpg
p1711
asg22
V#50
p1712
sg24
V1997-98
p1713
sg26
g27
sg28
(lp1714
VShaquille O'Neal
p1715
assbag1
(g2
g3
Ntp1716
Rp1717
(dp1718
g7
(dp1719
g9
V1997-98 Metal Universe Precious Metal Gems Emerald #81 Kobe Bryant
p1720
sg11
I10
sg12
VMetal Universe Precious Metal Gems Emerald
p1721
sg14
(lp1722
Vhttp://www.beckett.com/basketball/1997-98/metal-universe-precious-metal-gems-emerald/81-kobe-bryant-7055530
p1723
asg17
g18
sg19
(lp1724
Vhttp://img.beckett.com/images/no-image.jpg
p1725
asg22
V#81
p1726
sg24
V1997-98
p1727
sg26
g27
sg28
(lp1728
VKobe Bryant
p1729
assbag1
(g2
g3
Ntp1730
Rp1731
(dp1732
g7
(dp1733
g9
V1997-98 Metal Universe Precious Metal Gems Emerald #94 Eddie Jones
p1734
sg11
I10
sg12
VMetal Universe Precious Metal Gems Emerald
p1735
sg14
(lp1736
Vhttp://www.beckett.com/basketball/1997-98/metal-universe-precious-metal-gems-emerald/94-eddie-jones-7055543
p1737
asg17
g18
sg19
(lp1738
Vhttp://img.beckett.com/images/no-image.jpg
p1739
asg22
V#94
p1740
sg24
V1997-98
p1741
sg26
g27
sg28
(lp1742
VEddie Jones
p1743
assbag1
(g2
g3
Ntp1744
Rp1745
(dp1746
g7
(dp1747
g9
V1997-98 SP Authentic Profiles 3 #P23 Shaquille O'Neal
p1748
sg11
I100
sg12
VSP Authentic Profiles 3
p1749
sg14
(lp1750
Vhttp://www.beckett.com/basketball/1997-98/sp-authentic-profiles-3/p23-shaquille-oneal-3140304
p1751
asg17
g18
sg19
(lp1752
Vhttp://img.beckett.com/images/no-image.jpg
p1753
asg22
V#P23
p1754
sg24
V1997-98
p1755
sg26
g27
sg28
(lp1756
VShaquille O'Neal
p1757
assbag1
(g2
g3
Ntp1758
Rp1759
(dp1760
g7
(dp1761
g9
V1997-98 SP Authentic Profiles 3 #P32 Kobe Bryant
p1762
sg11
I100
sg12
VSP Authentic Profiles 3
p1763
sg14
(lp1764
Vhttp://www.beckett.com/basketball/1997-98/sp-authentic-profiles-3/p32-kobe-bryant-3140313
p1765
asg17
g18
sg19
(lp1766
Vhttp://img.beckett.com/images/no-image.jpg
p1767
asg22
V#P32
p1768
sg24
V1997-98
p1769
sg26
g27
sg28
(lp1770
VKobe Bryant
p1771
assbag1
(g2
g3
Ntp1772
Rp1773
(dp1774
g7
(dp1775
g9
V1997-98 Upper Deck Diamond Dimensions #D8 Kobe Bryant
p1776
sg11
I100
sg12
VUpper Deck Diamond Dimensions
p1777
sg14
(lp1778
Vhttp://www.beckett.com/basketball/1997-98/upper-deck-diamond-dimensions/d8-kobe-bryant-3132468
p1779
asg17
g18
sg19
(lp1780
Vhttp://img.beckett.com/images/no-image.jpg
p1781
asg22
V#D8
p1782
sg24
V1997-98
p1783
sg26
g27
sg28
(lp1784
VKobe Bryant
p1785
assbag1
(g2
g3
Ntp1786
Rp1787
(dp1788
g7
(dp1789
g9
V1997-98 Upper Deck Diamond Dimensions #D12 Shaquille O'Neal
p1790
sg11
I100
sg12
VUpper Deck Diamond Dimensions
p1791
sg14
(lp1792
Vhttp://www.beckett.com/basketball/1997-98/upper-deck-diamond-dimensions/d12-shaquille-oneal-3132472
p1793
asg17
g18
sg19
(lp1794
Vhttp://img.beckett.com/images/no-image.jpg
p1795
asg22
V#D12
p1796
sg24
V1997-98
p1797
sg26
g27
sg28
(lp1798
VShaquille O'Neal
p1799
assbag1
(g2
g3
Ntp1800
Rp1801
(dp1802
g7
(dp1803
g9
V1997 Score Board Talk N' Sports Phone Cards $20 #6 Kobe Bryant
p1804
sg11
I1440
sg12
VScore Board Talk N' Sports Phone Cards $20
p1805
sg14
(lp1806
Vhttp://www.beckett.com/multisport/1997/score-board-talk-n-sports-phone-cards-20/6-kobe-bryant-3500738
p1807
asg17
g18
sg19
(lp1808
Vhttp://img.beckett.com/images/no-image.jpg
p1809
asg22
V#6
p1810
sg24
V1997
p1811
sg26
g27
sg28
(lp1812
VKobe Bryant
p1813
assbag1
(g2
g3
Ntp1814
Rp1815
(dp1816
g7
(dp1817
g9
V1997-98 Score Board Autographed Collection Sports City USA Strongbox #SC6 Kobe Bryant/Adrian Beltre
p1818
sg11
I600
sg12
VScore Board Autographed Collection Sports City USA Strongbox
p1819
sg14
(lp1820
Vhttp://www.beckett.com/multisport/1997-98/score-board-autographed-collection-sports-city-usa-strongbox/sc6-kobe-bryantadrian-beltre-3500813
p1821
asg17
g18
sg19
(lp1822
Vhttp://img.beckett.com/images/no-image.jpg
p1823
asg22
V#SC6
p1824
sg24
V1997-98
p1825
sg26
g27
sg28
(lp1826
VKobe Bryant
p1827
aVAdrian Beltre
p1828
assba.