(lp0
Naccopy_reg
_reconstructor
p1
(ctutorial.items
BeckettItem
p2
c__builtin__
object
p3
Ntp4
Rp5
(dp6
S'_values'
p7
(dp8
S'originalItemDescription'
p9
V1997-98 E-X2001 Essential Credentials Future #22 Kerry Kittles/59
p10
sS'serialNumber'
p11
I59
sS'setName'
p12
VE-X2001 Essential Credentials Future
p13
sS'beckettLink'
p14
(lp15
Vhttp://www.beckett.com/basketball/1997-98/e-x2001-essential-credentials-future/22-kerry-kittles59-3144608
p16
asS'team'
p17
S'New Jersey Nets'
p18
sS'imageLink'
p19
(lp20
Vhttp://img.beckett.com/images/no-image.jpg
p21
asS'cardNumber'
p22
V#22
p23
sS'year'
p24
V1997-98
p25
sS'sport'
p26
S'Basketball'
p27
sS'playerNames'
p28
(lp29
VKerry Kittles
p30
assbag1
(g2
g3
Ntp31
Rp32
(dp33
g7
(dp34
g9
V1997-98 E-X2001 Essential Credentials Future #41 Sam Cassell/40
p35
sg11
I40
sg12
VE-X2001 Essential Credentials Future
p36
sg14
(lp37
Vhttp://www.beckett.com/basketball/1997-98/e-x2001-essential-credentials-future/41-sam-cassell40-3144627
p38
asg17
g18
sg19
(lp39
Vhttp://img.beckett.com/images/no-image.jpg
p40
asg22
V#41
p41
sg24
V1997-98
p42
sg26
g27
sg28
(lp43
VSam Cassell
p44
assbag1
(g2
g3
Ntp45
Rp46
(dp47
g7
(dp48
g9
V1997-98 E-X2001 Essential Credentials Now #22 Kerry Kittles/22
p49
sg11
I22
sg12
VE-X2001 Essential Credentials Now
p50
sg14
(lp51
Vhttp://www.beckett.com/basketball/1997-98/e-x2001-essential-credentials-now/22-kerry-kittles22-3144695
p52
asg17
g18
sg19
(lp53
Vhttp://img.beckett.com/images/no-image.jpg
p54
asg22
V#22
p55
sg24
V1997-98
p56
sg26
g27
sg28
(lp57
VKerry Kittles
p58
assbag1
(g2
g3
Ntp59
Rp60
(dp61
g7
(dp62
g9
V1997-98 E-X2001 Essential Credentials Now #41 Sam Cassell/41
p63
sg11
I41
sg12
VE-X2001 Essential Credentials Now
p64
sg14
(lp65
Vhttp://www.beckett.com/basketball/1997-98/e-x2001-essential-credentials-now/41-sam-cassell41-3144714
p66
asg17
g18
sg19
(lp67
Vhttp://img.beckett.com/images/no-image.jpg
p68
asg22
V#41
p69
sg24
V1997-98
p70
sg26
g27
sg28
(lp71
VSam Cassell
p72
assbag1
(g2
g3
Ntp73
Rp74
(dp75
g7
(dp76
g9
V1997-98 Finest Embossed Refractors #147 Jayson Williams S
p77
sg11
I263
sg12
VFinest Embossed Refractors
p78
sg14
(lp79
Vhttp://www.beckett.com/basketball/1997-98/finest-embossed-refractors/147-jayson-williams-s-3145355
p80
asg17
g18
sg19
(lp81
Vhttp://img.beckett.com/images/no-image.jpg
p82
asg22
V#147
p83
sg24
V1997-98
p84
sg26
g27
sg28
(lp85
VJayson Williams
p86
assbag1
(g2
g3
Ntp87
Rp88
(dp89
g7
(dp90
g9
V1997-98 Finest Embossed Refractors #163 Kerry Kittles G
p91
sg11
I74
sg12
VFinest Embossed Refractors
p92
sg14
(lp93
Vhttp://www.beckett.com/basketball/1997-98/finest-embossed-refractors/163-kerry-kittles-g-3145371
p94
asg17
g18
sg19
(lp95
Vhttp://img.beckett.com/images/no-image.jpg
p96
asg22
V#163
p97
sg24
V1997-98
p98
sg26
g27
sg28
(lp99
VKerry Kittles
p100
assbag1
(g2
g3
Ntp101
Rp102
(dp103
g7
(dp104
g9
V1997-98 Finest Embossed Refractors #298 Kerry Kittles S
p105
sg11
I263
sg12
VFinest Embossed Refractors
p106
sg14
(lp107
Vhttp://www.beckett.com/basketball/1997-98/finest-embossed-refractors/298-kerry-kittles-s-3145406
p108
asg17
g18
sg19
(lp109
Vhttp://img.beckett.com/images/no-image.jpg
p110
asg22
V#298
p111
sg24
V1997-98
p112
sg26
g27
sg28
(lp113
VKerry Kittles
p114
assbag1
(g2
g3
Ntp115
Rp116
(dp117
g7
(dp118
g9
V1997-98 Finest Refractors #147 Jayson Williams S
p119
sg11
I1090
sg12
VFinest Refractors
p120
sg14
(lp121
Vhttp://www.beckett.com/basketball/1997-98/finest-refractors/147-jayson-williams-s-3145613
p122
asg17
g18
sg19
(lp123
Vhttp://img.beckett.com/images/items_stock/185226/3145435/3145613/front.jpg
p124
asg22
V#147
p125
sg24
V1997-98
p126
sg26
g27
sg28
(lp127
VJayson Williams
p128
assbag1
(g2
g3
Ntp129
Rp130
(dp131
g7
(dp132
g9
V1997-98 Finest Refractors #163 Kerry Kittles G
p133
sg11
I289
sg12
VFinest Refractors
p134
sg14
(lp135
Vhttp://www.beckett.com/basketball/1997-98/finest-refractors/163-kerry-kittles-g-3145629
p136
asg17
g18
sg19
(lp137
Vhttp://img.beckett.com/images/items_stock/185226/3145435/3145629/front.jpg
p138
asg22
V#163
p139
sg24
V1997-98
p140
sg26
g27
sg28
(lp141
VKerry Kittles
p142
assbag1
(g2
g3
Ntp143
Rp144
(dp145
g7
(dp146
g9
V1997-98 Finest Refractors #298 Kerry Kittles S
p147
sg11
I1090
sg12
VFinest Refractors
p148
sg14
(lp149
Vhttp://www.beckett.com/basketball/1997-98/finest-refractors/298-kerry-kittles-s-3145764
p150
asg17
g18
sg19
(lp151
Vhttp://img.beckett.com/images/items_stock/185226/3145435/3145764/front.jpg
p152
asg22
V#298
p153
sg24
V1997-98
p154
sg26
g27
sg28
(lp155
VKerry Kittles
p156
assbag1
(g2
g3
Ntp157
Rp158
(dp159
g7
(dp160
g9
V1997-98 Flair Showcase Row 0 #17 Kerry Kittles
p161
sg11
I250
sg12
VFlair Showcase Row 0
p162
sg14
(lp163
Vhttp://www.beckett.com/basketball/1997-98/flair-showcase-row-0/17-kerry-kittles-3146115
p164
asg17
g18
sg19
(lp165
Vhttp://img.beckett.com/images/no-image.jpg
p166
asg22
V#17
p167
sg24
V1997-98
p168
sg26
g27
sg28
(lp169
VKerry Kittles
p170
assbag1
(g2
g3
Ntp171
Rp172
(dp173
g7
(dp174
g9
V1997-98 Flair Showcase Legacy Collection Row 3 #17 Kerry Kittles
p175
sg11
I100
sg12
VFlair Showcase Legacy Collection Row 3
p176
sg14
(lp177
Vhttp://www.beckett.com/basketball/1997-98/flair-showcase-legacy-collection-row-3/17-kerry-kittles-3148575
p178
asg17
g18
sg19
(lp179
Vhttp://img.beckett.com/images/no-image.jpg
p180
asg22
V#17
p181
sg24
V1997-98
p182
sg26
g27
sg28
(lp183
VKerry Kittles
p184
assbag1
(g2
g3
Ntp185
Rp186
(dp187
g7
(dp188
g9
V1997-98 Metal Universe Precious Metal Gems #47 Kerry Kittles
p189
sg11
I90
sg12
VMetal Universe Precious Metal Gems
p190
sg14
(lp191
Vhttp://www.beckett.com/basketball/1997-98/metal-universe-precious-metal-gems/47-kerry-kittles-3142639
p192
asg17
g18
sg19
(lp193
Vhttp://img.beckett.com/images/no-image.jpg
p194
asg22
V#47
p195
sg24
V1997-98
p196
sg26
g27
sg28
(lp197
VKerry Kittles
p198
assbag1
(g2
g3
Ntp199
Rp200
(dp201
g7
(dp202
g9
V1997-98 Metal Universe Championship Precious Metal Gems #58 Sam Cassell
p203
sg11
I50
sg12
VMetal Universe Championship Precious Metal Gems
p204
sg14
(lp205
Vhttp://www.beckett.com/basketball/1997-98/metal-universe-championship-precious-metal-gems/58-sam-cassell-3140733
p206
asg17
g18
sg19
(lp207
Vhttp://img.beckett.com/images/no-image.jpg
p208
asg22
V#58
p209
sg24
V1997-98
p210
sg26
g27
sg28
(lp211
VSam Cassell
p212
assbag1
(g2
g3
Ntp213
Rp214
(dp215
g7
(dp216
g9
V1997-98 Metal Universe Championship Precious Metal Gems #83 Kerry Kittles
p217
sg11
I50
sg12
VMetal Universe Championship Precious Metal Gems
p218
sg14
(lp219
Vhttp://www.beckett.com/basketball/1997-98/metal-universe-championship-precious-metal-gems/83-kerry-kittles-3140758
p220
asg17
g18
sg19
(lp221
Vhttp://img.beckett.com/images/no-image.jpg
p222
asg22
V#83
p223
sg24
V1997-98
p224
sg26
g27
sg28
(lp225
VKerry Kittles
p226
assbag1
(g2
g3
Ntp227
Rp228
(dp229
g7
(dp230
g9
V1997-98 SkyBox Premium Star Rubies #123 Kerry Kittles
p231
sg11
I50
sg12
VSkyBox Premium Star Rubies
p232
sg14
(lp233
Vhttp://www.beckett.com/basketball/1997-98/skybox-premium-star-rubies/123-kerry-kittles-3141294
p234
asg17
g18
sg19
(lp235
Vhttp://img.beckett.com/images/no-image.jpg
p236
asg22
V#123
p237
sg24
V1997-98
p238
sg26
g27
sg28
(lp239
VKerry Kittles
p240
assbag1
(g2
g3
Ntp241
Rp242
(dp243
g7
(dp244
g9
V1997-98 SkyBox Premium Star Rubies #144 Chris Gatling
p245
sg11
I50
sg12
VSkyBox Premium Star Rubies
p246
sg14
(lp247
Vhttp://www.beckett.com/basketball/1997-98/skybox-premium-star-rubies/144-chris-gatling-3141313
p248
asg17
g18
sg19
(lp249
Vhttp://img.beckett.com/images/no-image.jpg
p250
asg22
V#144
p251
sg24
V1997-98
p252
sg26
g27
sg28
(lp253
VChris Gatling
p254
assbag1
(g2
g3
Ntp255
Rp256
(dp257
g7
(dp258
g9
V1997-98 SkyBox Premium Star Rubies #151 Jayson Williams
p259
sg11
I50
sg12
VSkyBox Premium Star Rubies
p260
sg14
(lp261
Vhttp://www.beckett.com/basketball/1997-98/skybox-premium-star-rubies/151-jayson-williams-3141320
p262
asg17
g18
sg19
(lp263
Vhttp://img.beckett.com/images/no-image.jpg
p264
asg22
V#151
p265
sg24
V1997-98
p266
sg26
g27
sg28
(lp267
VJayson Williams
p268
assbag1
(g2
g3
Ntp269
Rp270
(dp271
g7
(dp272
g9
V1997-98 SkyBox Premium Star Rubies #159 Sam Cassell
p273
sg11
I50
sg12
VSkyBox Premium Star Rubies
p274
sg14
(lp275
Vhttp://www.beckett.com/basketball/1997-98/skybox-premium-star-rubies/159-sam-cassell-3141328
p276
asg17
g18
sg19
(lp277
Vhttp://img.beckett.com/images/no-image.jpg
p278
asg22
V#159
p279
sg24
V1997-98
p280
sg26
g27
sg28
(lp281
VSam Cassell
p282
assbag1
(g2
g3
Ntp283
Rp284
(dp285
g7
(dp286
g9
V1997-98 SkyBox Premium Autographics Century Marks #41 Chris Gatling
p287
sg11
I100
sg12
VSkyBox Premium Autographics Century Marks
p288
sg14
(lp289
Vhttp://www.beckett.com/basketball/1997-98/skybox-premium-autographics-century-marks/41-chris-gatling-3141623
p290
asg17
g18
sg19
(lp291
Vhttp://img.beckett.com/images/no-image.jpg
p292
asg22
V#41
p293
sS'autograph'
p294
I1
sg24
V1997-98
p295
sg26
g27
sg28
(lp296
VChris Gatling
p297
assbag1
(g2
g3
Ntp298
Rp299
(dp300
g7
(dp301
g9
V1997-98 SkyBox Premium Autographics Century Marks #62 Kerry Kittles
p302
sg11
I100
sg12
VSkyBox Premium Autographics Century Marks
p303
sg14
(lp304
Vhttp://www.beckett.com/basketball/1997-98/skybox-premium-autographics-century-marks/62-kerry-kittles-3141644
p305
asg17
g18
sg19
(lp306
Vhttp://img.beckett.com/images/no-image.jpg
p307
asg22
V#62
p308
sg294
I1
sg24
V1997-98
p309
sg26
g27
sg28
(lp310
VKerry Kittles
p311
assbag1
(g2
g3
Ntp312
Rp313
(dp314
g7
(dp315
g9
V1997-98 Stadium Club One Of A Kind #53 Kerry Kittles
p316
sg11
I150
sg12
VStadium Club One Of A Kind
p317
sg14
(lp318
Vhttp://www.beckett.com/basketball/1997-98/stadium-club-one-of-a-kind/53-kerry-kittles-3138352
p319
asg17
g18
sg19
(lp320
Vhttp://img.beckett.com/images/items_stock/185226/3138288/3138352/front.jpg
p321
asg22
V#53
p322
sg24
V1997-98
p323
sg26
g27
sg28
(lp324
VKerry Kittles
p325
assbag1
(g2
g3
Ntp326
Rp327
(dp328
g7
(dp329
g9
V1997-98 Stadium Club One Of A Kind #54 Kerry Kittles
p330
sg11
I150
sg12
VStadium Club One Of A Kind
p331
sg14
(lp332
Vhttp://www.beckett.com/basketball/1997-98/stadium-club-one-of-a-kind/54-kerry-kittles-3138353
p333
asg17
g18
sg19
(lp334
Vhttp://img.beckett.com/images/items_stock/185226/3138288/3138353/front.jpg
p335
asg22
V#54
p336
sg24
V1997-98
p337
sg26
g27
sg28
(lp338
VKerry Kittles
p339
assbag1
(g2
g3
Ntp340
Rp341
(dp342
g7
(dp343
g9
V1997-98 Stadium Club One Of A Kind #162 Sam Cassell
p344
sg11
I150
sg12
VStadium Club One Of A Kind
p345
sg14
(lp346
Vhttp://www.beckett.com/basketball/1997-98/stadium-club-one-of-a-kind/162-sam-cassell-3138461
p347
asg17
g18
sg19
(lp348
Vhttp://img.beckett.com/images/no-image.jpg
p349
asg22
V#162
p350
sg24
V1997-98
p351
sg26
g27
sg28
(lp352
VSam Cassell
p353
assbag1
(g2
g3
Ntp354
Rp355
(dp356
g7
(dp357
g9
V1997-98 Stadium Club One Of A Kind #165 Sam Cassell
p358
sg11
I150
sg12
VStadium Club One Of A Kind
p359
sg14
(lp360
Vhttp://www.beckett.com/basketball/1997-98/stadium-club-one-of-a-kind/165-sam-cassell-3138464
p361
asg17
g18
sg19
(lp362
Vhttp://img.beckett.com/images/items_stock/185226/3138288/3138464/front.jpg
p363
asg22
V#165
p364
sg24
V1997-98
p365
sg26
g27
sg28
(lp366
VSam Cassell
p367
assbag1
(g2
g3
Ntp368
Rp369
(dp370
g7
(dp371
g9
V1997-98 Stadium Club One Of A Kind #180 Jayson Williams
p372
sg11
I150
sg12
VStadium Club One Of A Kind
p373
sg14
(lp374
Vhttp://www.beckett.com/basketball/1997-98/stadium-club-one-of-a-kind/180-jayson-williams-3138479
p375
asg17
g18
sg19
(lp376
Vhttp://img.beckett.com/images/no-image.jpg
p377
asg22
V#180
p378
sg24
V1997-98
p379
sg26
g27
sg28
(lp380
VJayson Williams
p381
assbag1
(g2
g3
Ntp382
Rp383
(dp384
g7
(dp385
g9
V1997-98 Stadium Club Printing Plates #53 Kerry Kittles Black
p386
sg11
I1
sg12
VStadium Club Printing Plates
p387
sg14
(lp388
Vhttp://www.beckett.com/basketball/1997-98/stadium-club-printing-plates/53-kerry-kittles-black-3138753
p389
asg17
g18
sg19
(lp390
Vhttp://img.beckett.com/images/no-image.jpg
p391
asg22
V#53
p392
sg24
V1997-98
p393
sg26
g27
sg28
(lp394
VKerry Kittles
p395
assbag1
(g2
g3
Ntp396
Rp397
(dp398
g7
(dp399
g9
V1997-98 Stadium Club Printing Plates #53A Kerry Kittles Cyan
p400
sg11
I1
sg12
VStadium Club Printing Plates
p401
sg14
(lp402
Vhttp://www.beckett.com/basketball/1997-98/stadium-club-printing-plates/53a-kerry-kittles-cyan-3138754
p403
asg17
g18
sg19
(lp404
Vhttp://img.beckett.com/images/no-image.jpg
p405
asg22
V#53A
p406
sg24
V1997-98
p407
sg26
g27
sg28
(lp408
g395
assbag1
(g2
g3
Ntp409
Rp410
(dp411
g7
(dp412
g9
V1997-98 Stadium Club Printing Plates #53B Kerry Kittles Magenta
p413
sg11
I1
sg12
VStadium Club Printing Plates
p414
sg14
(lp415
Vhttp://www.beckett.com/basketball/1997-98/stadium-club-printing-plates/53b-kerry-kittles-magenta-3138755
p416
asg17
g18
sg19
(lp417
Vhttp://img.beckett.com/images/no-image.jpg
p418
asg22
V#53B
p419
sg24
V1997-98
p420
sg26
g27
sg28
(lp421
g395
assbag1
(g2
g3
Ntp422
Rp423
(dp424
g7
(dp425
g9
V1997-98 Stadium Club Printing Plates #53C Kerry Kittles Yellow
p426
sg11
I1
sg12
VStadium Club Printing Plates
p427
sg14
(lp428
Vhttp://www.beckett.com/basketball/1997-98/stadium-club-printing-plates/53c-kerry-kittles-yellow-3138756
p429
asg17
g18
sg19
(lp430
Vhttp://img.beckett.com/images/no-image.jpg
p431
asg22
V#53C
p432
sg24
V1997-98
p433
sg26
g27
sg28
(lp434
g395
assbag1
(g2
g3
Ntp435
Rp436
(dp437
g7
(dp438
g9
V1997-98 Stadium Club Printing Plates #54 Kerry Kittles Black
p439
sg11
I1
sg12
VStadium Club Printing Plates
p440
sg14
(lp441
Vhttp://www.beckett.com/basketball/1997-98/stadium-club-printing-plates/54-kerry-kittles-black-3138757
p442
asg17
g18
sg19
(lp443
Vhttp://img.beckett.com/images/no-image.jpg
p444
asg22
V#54
p445
sg24
V1997-98
p446
sg26
g27
sg28
(lp447
g395
assbag1
(g2
g3
Ntp448
Rp449
(dp450
g7
(dp451
g9
V1997-98 Stadium Club Printing Plates #54A Kerry Kittles Cyan
p452
sg11
I1
sg12
VStadium Club Printing Plates
p453
sg14
(lp454
Vhttp://www.beckett.com/basketball/1997-98/stadium-club-printing-plates/54a-kerry-kittles-cyan-3138758
p455
asg17
g18
sg19
(lp456
Vhttp://img.beckett.com/images/no-image.jpg
p457
asg22
V#54A
p458
sg24
V1997-98
p459
sg26
g27
sg28
(lp460
g395
assbag1
(g2
g3
Ntp461
Rp462
(dp463
g7
(dp464
g9
V1997-98 Stadium Club Printing Plates #54B Kerry Kittles Magenta
p465
sg11
I1
sg12
VStadium Club Printing Plates
p466
sg14
(lp467
Vhttp://www.beckett.com/basketball/1997-98/stadium-club-printing-plates/54b-kerry-kittles-magenta-3138759
p468
asg17
g18
sg19
(lp469
Vhttp://img.beckett.com/images/no-image.jpg
p470
asg22
V#54B
p471
sg24
V1997-98
p472
sg26
g27
sg28
(lp473
g395
assbag1
(g2
g3
Ntp474
Rp475
(dp476
g7
(dp477
g9
V1997-98 Stadium Club Printing Plates #54C Kerry Kittles Yellow
p478
sg11
I1
sg12
VStadium Club Printing Plates
p479
sg14
(lp480
Vhttp://www.beckett.com/basketball/1997-98/stadium-club-printing-plates/54c-kerry-kittles-yellow-3138760
p481
asg17
g18
sg19
(lp482
Vhttp://img.beckett.com/images/no-image.jpg
p483
asg22
V#54C
p484
sg24
V1997-98
p485
sg26
g27
sg28
(lp486
g395
assbag1
(g2
g3
Ntp487
Rp488
(dp489
g7
(dp490
g9
V1997-98 Stadium Club Printing Plates #162 Sam Cassell Black
p491
sg11
I1
sg12
VStadium Club Printing Plates
p492
sg14
(lp493
Vhttp://www.beckett.com/basketball/1997-98/stadium-club-printing-plates/162-sam-cassell-black-3139189
p494
asg17
g18
sg19
(lp495
Vhttp://img.beckett.com/images/no-image.jpg
p496
asg22
V#162
p497
sg24
V1997-98
p498
sg26
g27
sg28
(lp499
VSam Cassell
p500
assbag1
(g2
g3
Ntp501
Rp502
(dp503
g7
(dp504
g9
V1997-98 Stadium Club Printing Plates #162A Sam Cassell Cyan
p505
sg11
I1
sg12
VStadium Club Printing Plates
p506
sg14
(lp507
Vhttp://www.beckett.com/basketball/1997-98/stadium-club-printing-plates/162a-sam-cassell-cyan-3139190
p508
asg17
g18
sg19
(lp509
Vhttp://img.beckett.com/images/no-image.jpg
p510
asg22
V#162A
p511
sg24
V1997-98
p512
sg26
g27
sg28
(lp513
g500
assbag1
(g2
g3
Ntp514
Rp515
(dp516
g7
(dp517
g9
V1997-98 Stadium Club Printing Plates #162B Sam Cassell Magenta
p518
sg11
I1
sg12
VStadium Club Printing Plates
p519
sg14
(lp520
Vhttp://www.beckett.com/basketball/1997-98/stadium-club-printing-plates/162b-sam-cassell-magenta-3139191
p521
asg17
g18
sg19
(lp522
Vhttp://img.beckett.com/images/no-image.jpg
p523
asg22
V#162B
p524
sg24
V1997-98
p525
sg26
g27
sg28
(lp526
g500
assbag1
(g2
g3
Ntp527
Rp528
(dp529
g7
(dp530
g9
V1997-98 Stadium Club Printing Plates #162C Sam Cassell Yellow
p531
sg11
I1
sg12
VStadium Club Printing Plates
p532
sg14
(lp533
Vhttp://www.beckett.com/basketball/1997-98/stadium-club-printing-plates/162c-sam-cassell-yellow-3139192
p534
asg17
g18
sg19
(lp535
Vhttp://img.beckett.com/images/no-image.jpg
p536
asg22
V#162C
p537
sg24
V1997-98
p538
sg26
g27
sg28
(lp539
g500
assbag1
(g2
g3
Ntp540
Rp541
(dp542
g7
(dp543
g9
V1997-98 Stadium Club Printing Plates #165 Sam Cassell Black
p544
sg11
I1
sg12
VStadium Club Printing Plates
p545
sg14
(lp546
Vhttp://www.beckett.com/basketball/1997-98/stadium-club-printing-plates/165-sam-cassell-black-3139201
p547
asg17
g18
sg19
(lp548
Vhttp://img.beckett.com/images/no-image.jpg
p549
asg22
V#165
p550
sg24
V1997-98
p551
sg26
g27
sg28
(lp552
g500
assbag1
(g2
g3
Ntp553
Rp554
(dp555
g7
(dp556
g9
V1997-98 Stadium Club Printing Plates #165A Sam Cassell Cyan
p557
sg11
I1
sg12
VStadium Club Printing Plates
p558
sg14
(lp559
Vhttp://www.beckett.com/basketball/1997-98/stadium-club-printing-plates/165a-sam-cassell-cyan-3139202
p560
asg17
g18
sg19
(lp561
Vhttp://img.beckett.com/images/no-image.jpg
p562
asg22
V#165A
p563
sg24
V1997-98
p564
sg26
g27
sg28
(lp565
g500
assbag1
(g2
g3
Ntp566
Rp567
(dp568
g7
(dp569
g9
V1997-98 Stadium Club Printing Plates #165B Sam Cassell Magenta
p570
sg11
I1
sg12
VStadium Club Printing Plates
p571
sg14
(lp572
Vhttp://www.beckett.com/basketball/1997-98/stadium-club-printing-plates/165b-sam-cassell-magenta-3139203
p573
asg17
g18
sg19
(lp574
Vhttp://img.beckett.com/images/no-image.jpg
p575
asg22
V#165B
p576
sg24
V1997-98
p577
sg26
g27
sg28
(lp578
g500
assbag1
(g2
g3
Ntp579
Rp580
(dp581
g7
(dp582
g9
V1997-98 Stadium Club Printing Plates #165C Sam Cassell Yellow
p583
sg11
I1
sg12
VStadium Club Printing Plates
p584
sg14
(lp585
Vhttp://www.beckett.com/basketball/1997-98/stadium-club-printing-plates/165c-sam-cassell-yellow-3139204
p586
asg17
g18
sg19
(lp587
Vhttp://img.beckett.com/images/no-image.jpg
p588
asg22
V#165C
p589
sg24
V1997-98
p590
sg26
g27
sg28
(lp591
g500
assbag1
(g2
g3
Ntp592
Rp593
(dp594
g7
(dp595
g9
V1997-98 Stadium Club Printing Plates #180 Jayson Williams Black
p596
sg11
I1
sg12
VStadium Club Printing Plates
p597
sg14
(lp598
Vhttp://www.beckett.com/basketball/1997-98/stadium-club-printing-plates/180-jayson-williams-black-3139261
p599
asg17
g18
sg19
(lp600
Vhttp://img.beckett.com/images/no-image.jpg
p601
asg22
V#180
p602
sg24
V1997-98
p603
sg26
g27
sg28
(lp604
VJayson Williams
p605
assbag1
(g2
g3
Ntp606
Rp607
(dp608
g7
(dp609
g9
V1997-98 Stadium Club Printing Plates #180A Jayson Williams Cyan
p610
sg11
I1
sg12
VStadium Club Printing Plates
p611
sg14
(lp612
Vhttp://www.beckett.com/basketball/1997-98/stadium-club-printing-plates/180a-jayson-williams-cyan-3139262
p613
asg17
g18
sg19
(lp614
Vhttp://img.beckett.com/images/no-image.jpg
p615
asg22
V#180A
p616
sg24
V1997-98
p617
sg26
g27
sg28
(lp618
g605
assbag1
(g2
g3
Ntp619
Rp620
(dp621
g7
(dp622
g9
V1997-98 Stadium Club Printing Plates #180B Jayson Williams Magenta
p623
sg11
I1
sg12
VStadium Club Printing Plates
p624
sg14
(lp625
Vhttp://www.beckett.com/basketball/1997-98/stadium-club-printing-plates/180b-jayson-williams-magenta-3139263
p626
asg17
g18
sg19
(lp627
Vhttp://img.beckett.com/images/no-image.jpg
p628
asg22
V#180B
p629
sg24
V1997-98
p630
sg26
g27
sg28
(lp631
g605
assbag1
(g2
g3
Ntp632
Rp633
(dp634
g7
(dp635
g9
V1997-98 Stadium Club Printing Plates #180C Jayson Williams Yellow
p636
sg11
I1
sg12
VStadium Club Printing Plates
p637
sg14
(lp638
Vhttp://www.beckett.com/basketball/1997-98/stadium-club-printing-plates/180c-jayson-williams-yellow-3139264
p639
asg17
g18
sg19
(lp640
Vhttp://img.beckett.com/images/no-image.jpg
p641
asg22
V#180C
p642
sg24
V1997-98
p643
sg26
g27
sg28
(lp644
g605
assbag1
(g2
g3
Ntp645
Rp646
(dp647
g7
(dp648
g9
V1997-98 Ultra Masterpieces #61 Kerry Kittles
p649
sg11
I1
sg12
VUltra Masterpieces
p650
sg14
(lp651
Vhttp://www.beckett.com/basketball/1997-98/ultra-masterpieces/61-kerry-kittles-3135791
p652
asg17
g18
sg19
(lp653
Vhttp://img.beckett.com/images/no-image.jpg
p654
asg22
V#61
p655
sg24
V1997-98
p656
sg26
g27
sg28
(lp657
VKerry Kittles
p658
assbag1
(g2
g3
Ntp659
Rp660
(dp661
g7
(dp662
g9
V1997-98 Ultra Masterpieces #68 Jayson Williams
p663
sg11
I1
sg12
VUltra Masterpieces
p664
sg14
(lp665
Vhttp://www.beckett.com/basketball/1997-98/ultra-masterpieces/68-jayson-williams-3135798
p666
asg17
g18
sg19
(lp667
Vhttp://img.beckett.com/images/no-image.jpg
p668
asg22
V#68
p669
sg24
V1997-98
p670
sg26
g27
sg28
(lp671
VJayson Williams
p672
assbag1
(g2
g3
Ntp673
Rp674
(dp675
g7
(dp676
g9
V1997-98 Ultra Masterpieces #100 Chris Gatling
p677
sg11
I1
sg12
VUltra Masterpieces
p678
sg14
(lp679
Vhttp://www.beckett.com/basketball/1997-98/ultra-masterpieces/100-chris-gatling-3135830
p680
asg17
g18
sg19
(lp681
Vhttp://img.beckett.com/images/no-image.jpg
p682
asg22
V#100
p683
sg24
V1997-98
p684
sg26
g27
sg28
(lp685
VChris Gatling
p686
assbag1
(g2
g3
Ntp687
Rp688
(dp689
g7
(dp690
g9
V1997-98 Ultra Masterpieces #190 Sam Cassell
p691
sg11
I1
sg12
VUltra Masterpieces
p692
sg14
(lp693
Vhttp://www.beckett.com/basketball/1997-98/ultra-masterpieces/190-sam-cassell-3135918
p694
asg17
g18
sg19
(lp695
Vhttp://img.beckett.com/images/no-image.jpg
p696
asg22
V#190
p697
sg24
V1997-98
p698
sg26
g27
sg28
(lp699
VSam Cassell
p700
assbag1
(g2
g3
Ntp701
Rp702
(dp703
g7
(dp704
g9
V1997-98 Ultra Masterpieces #194 David Benoit
p705
sg11
I1
sg12
VUltra Masterpieces
p706
sg14
(lp707
Vhttp://www.beckett.com/basketball/1997-98/ultra-masterpieces/194-david-benoit-3135922
p708
asg17
g18
sg19
(lp709
Vhttp://img.beckett.com/images/no-image.jpg
p710
asg22
V#194
p711
sg24
V1997-98
p712
sg26
g27
sg28
(lp713
VDavid Benoit
p714
assbag1
(g2
g3
Ntp715
Rp716
(dp717
g7
(dp718
g9
V1997-98 Ultra Masterpieces #261 Kerry Kittles GRE
p719
sg11
I1
sg12
VUltra Masterpieces
p720
sg14
(lp721
Vhttp://www.beckett.com/basketball/1997-98/ultra-masterpieces/261-kerry-kittles-gre-3135989
p722
asg17
g18
sg19
(lp723
Vhttp://img.beckett.com/images/no-image.jpg
p724
asg22
V#261
p725
sg24
V1997-98
p726
sS'subsetName'
p727
VGRE
p728
sg26
g27
sg28
(lp729
VKerry Kittles
p730
assbag1
(g2
g3
Ntp731
Rp732
(dp733
g7
(dp734
g9
V1997-98 Ultra Platinum Medallion #61 Kerry Kittles
p735
sg11
I100
sg12
VUltra Platinum Medallion
p736
sg14
(lp737
Vhttp://www.beckett.com/basketball/1997-98/ultra-platinum-medallion/61-kerry-kittles-3136075
p738
asg17
g18
sg19
(lp739
Vhttp://img.beckett.com/images/no-image.jpg
p740
asg22
V#61
p741
sg24
V1997-98
p742
sg26
g27
sg28
(lp743
VKerry Kittles
p744
assbag1
(g2
g3
Ntp745
Rp746
(dp747
g7
(dp748
g9
V1997-98 Ultra Platinum Medallion #68 Jayson Williams
p749
sg11
I100
sg12
VUltra Platinum Medallion
p750
sg14
(lp751
Vhttp://www.beckett.com/basketball/1997-98/ultra-platinum-medallion/68-jayson-williams-3136082
p752
asg17
g18
sg19
(lp753
Vhttp://img.beckett.com/images/no-image.jpg
p754
asg22
V#68
p755
sg24
V1997-98
p756
sg26
g27
sg28
(lp757
VJayson Williams
p758
assbag1
(g2
g3
Ntp759
Rp760
(dp761
g7
(dp762
g9
V1997-98 Ultra Platinum Medallion #100 Chris Gatling
p763
sg11
I100
sg12
VUltra Platinum Medallion
p764
sg14
(lp765
Vhttp://www.beckett.com/basketball/1997-98/ultra-platinum-medallion/100-chris-gatling-3136114
p766
asg17
g18
sg19
(lp767
Vhttp://img.beckett.com/images/no-image.jpg
p768
asg22
V#100
p769
sg24
V1997-98
p770
sg26
g27
sg28
(lp771
VChris Gatling
p772
assbag1
(g2
g3
Ntp773
Rp774
(dp775
g7
(dp776
g9
V1997-98 Ultra Platinum Medallion #190 Sam Cassell
p777
sg11
I100
sg12
VUltra Platinum Medallion
p778
sg14
(lp779
Vhttp://www.beckett.com/basketball/1997-98/ultra-platinum-medallion/190-sam-cassell-3136202
p780
asg17
g18
sg19
(lp781
Vhttp://img.beckett.com/images/no-image.jpg
p782
asg22
V#190
p783
sg24
V1997-98
p784
sg26
g27
sg28
(lp785
VSam Cassell
p786
assbag1
(g2
g3
Ntp787
Rp788
(dp789
g7
(dp790
g9
V1997-98 Ultra Platinum Medallion #194 David Benoit
p791
sg11
I100
sg12
VUltra Platinum Medallion
p792
sg14
(lp793
Vhttp://www.beckett.com/basketball/1997-98/ultra-platinum-medallion/194-david-benoit-3136206
p794
asg17
g18
sg19
(lp795
Vhttp://img.beckett.com/images/no-image.jpg
p796
asg22
V#194
p797
sg24
V1997-98
p798
sg26
g27
sg28
(lp799
VDavid Benoit
p800
assbag1
(g2
g3
Ntp801
Rp802
(dp803
g7
(dp804
g9
V1997-98 Ultra Platinum Medallion #261 Kerry Kittles GRE
p805
sg11
I100
sg12
VUltra Platinum Medallion
p806
sg14
(lp807
Vhttp://www.beckett.com/basketball/1997-98/ultra-platinum-medallion/261-kerry-kittles-gre-3136273
p808
asg17
g18
sg19
(lp809
Vhttp://img.beckett.com/images/no-image.jpg
p810
asg22
V#261
p811
sg24
V1997-98
p812
sg727
VGRE
p813
sg26
g27
sg28
(lp814
VKerry Kittles
p815
assbag1
(g2
g3
Ntp816
Rp817
(dp818
g7
(dp819
g9
V1997-98 Z-Force Rave #30 Kerry Kittles
p820
sg11
I399
sg12
VZ-Force Rave
p821
sg14
(lp822
Vhttp://www.beckett.com/basketball/1997-98/z-force-rave/30-kerry-kittles-3133054
p823
asg17
g18
sg19
(lp824
Vhttp://img.beckett.com/images/no-image.jpg
p825
asg22
V#30
p826
sg24
V1997-98
p827
sg26
g27
sg28
(lp828
VKerry Kittles
p829
assbag1
(g2
g3
Ntp830
Rp831
(dp832
g7
(dp833
g9
V1997-98 Z-Force Rave #104 Sam Cassell
p834
sg11
I399
sg12
VZ-Force Rave
p835
sg14
(lp836
Vhttp://www.beckett.com/basketball/1997-98/z-force-rave/104-sam-cassell-3133128
p837
asg17
g18
sg19
(lp838
Vhttp://img.beckett.com/images/items_stock/185226/3133012/3133128/front.jpg
p839
asg22
V#104
p840
sg24
V1997-98
p841
sg26
g27
sg28
(lp842
VSam Cassell
p843
assbag1
(g2
g3
Ntp844
Rp845
(dp846
g7
(dp847
g9
V1997-98 Z-Force Rave #132 Chris Gatling
p848
sg11
I399
sg12
VZ-Force Rave
p849
sg14
(lp850
Vhttp://www.beckett.com/basketball/1997-98/z-force-rave/132-chris-gatling-3133154
p851
asg17
g18
sg19
(lp852
Vhttp://img.beckett.com/images/no-image.jpg
p853
asg22
V#132
p854
sg24
V1997-98
p855
sg26
g27
sg28
(lp856
VChris Gatling
p857
assbag1
(g2
g3
Ntp858
Rp859
(dp860
g7
(dp861
g9
V1997-98 Z-Force Rave #154 Jayson Williams
p862
sg11
I399
sg12
VZ-Force Rave
p863
sg14
(lp864
Vhttp://www.beckett.com/basketball/1997-98/z-force-rave/154-jayson-williams-3133176
p865
asg17
g18
sg19
(lp866
Vhttp://img.beckett.com/images/items_stock/185226/3133012/3133176/front.jpg
p867
asg22
V#154
p868
sg24
V1997-98
p869
sg26
g27
sg28
(lp870
VJayson Williams
p871
assbag1
(g2
g3
Ntp872
Rp873
(dp874
g7
(dp875
g9
V1997-98 Z-Force Rave #167 Sam Cassell
p876
sg11
I399
sg12
VZ-Force Rave
p877
sg14
(lp878
Vhttp://www.beckett.com/basketball/1997-98/z-force-rave/167-sam-cassell-3133189
p879
asg17
g18
sg19
(lp880
Vhttp://img.beckett.com/images/items_stock/185226/3133012/3133189/front.jpg
p881
asg22
V#167
p882
sg24
V1997-98
p883
sg26
g27
sg28
(lp884
VSam Cassell
p885
assbag1
(g2
g3
Ntp886
Rp887
(dp888
g7
(dp889
g9
V1997-98 Z-Force Rave #174 Kerry Kittles
p890
sg11
I399
sg12
VZ-Force Rave
p891
sg14
(lp892
Vhttp://www.beckett.com/basketball/1997-98/z-force-rave/174-kerry-kittles-3133197
p893
asg17
g18
sg19
(lp894
Vhttp://img.beckett.com/images/no-image.jpg
p895
asg22
V#174
p896
sg24
V1997-98
p897
sg26
g27
sg28
(lp898
VKerry Kittles
p899
assbag1
(g2
g3
Ntp900
Rp901
(dp902
g7
(dp903
g9
V1997-98 Z-Force Super Rave #132 Chris Gatling
p904
sg11
I50
sg12
VZ-Force Super Rave
p905
sg14
(lp906
Vhttp://www.beckett.com/basketball/1997-98/z-force-super-rave/132-chris-gatling-3133266
p907
asg17
g18
sg19
(lp908
Vhttp://img.beckett.com/images/no-image.jpg
p909
asg22
V#132
p910
sg24
V1997-98
p911
sg26
g27
sg28
(lp912
VChris Gatling
p913
assbag1
(g2
g3
Ntp914
Rp915
(dp916
g7
(dp917
g9
V1997-98 Z-Force Super Rave #154 Jayson Williams
p918
sg11
I50
sg12
VZ-Force Super Rave
p919
sg14
(lp920
Vhttp://www.beckett.com/basketball/1997-98/z-force-super-rave/154-jayson-williams-3133288
p921
asg17
g18
sg19
(lp922
Vhttp://img.beckett.com/images/no-image.jpg
p923
asg22
V#154
p924
sg24
V1997-98
p925
sg26
g27
sg28
(lp926
VJayson Williams
p927
assbag1
(g2
g3
Ntp928
Rp929
(dp930
g7
(dp931
g9
V1997-98 Z-Force Super Rave #167 Sam Cassell
p932
sg11
I50
sg12
VZ-Force Super Rave
p933
sg14
(lp934
Vhttp://www.beckett.com/basketball/1997-98/z-force-super-rave/167-sam-cassell-3133301
p935
asg17
g18
sg19
(lp936
Vhttp://img.beckett.com/images/no-image.jpg
p937
asg22
V#167
p938
sg24
V1997-98
p939
sg26
g27
sg28
(lp940
VSam Cassell
p941
assbag1
(g2
g3
Ntp942
Rp943
(dp944
g7
(dp945
g9
V1997-98 Z-Force Super Rave #174 Kerry Kittles
p946
sg11
I50
sg12
VZ-Force Super Rave
p947
sg14
(lp948
Vhttp://www.beckett.com/basketball/1997-98/z-force-super-rave/174-kerry-kittles-3133309
p949
asg17
g18
sg19
(lp950
Vhttp://img.beckett.com/images/no-image.jpg
p951
asg22
V#174
p952
sg24
V1997-98
p953
sg26
g27
sg28
(lp954
VKerry Kittles
p955
assbag1
(g2
g3
Ntp956
Rp957
(dp958
g7
(dp959
g9
V1997-98 Upper Deck High Dimensions #D10 Kerry Kittles
p960
sg11
I2000
sg12
VUpper Deck High Dimensions
p961
sg14
(lp962
Vhttp://www.beckett.com/basketball/1997-98/upper-deck-high-dimensions/d10-kerry-kittles-3132432
p963
asg17
g18
sg19
(lp964
Vhttp://img.beckett.com/images/no-image.jpg
p965
asg22
V#D10
p966
sg24
V1997-98
p967
sg26
g27
sg28
(lp968
VKerry Kittles
p969
assbag1
(g2
g3
Ntp970
Rp971
(dp972
g7
(dp973
g9
V1997-98 Hoops High Voltage 500 #HV9 Kerry Kittles
p974
sg11
I500
sg12
VHoops High Voltage 500
p975
sg14
(lp976
Vhttp://www.beckett.com/basketball/1997-98/hoops-high-voltage-500/hv9-kerry-kittles-3142298
p977
asg17
g18
sg19
(lp978
Vhttp://img.beckett.com/images/no-image.jpg
p979
asg22
V#HV9
p980
sg24
V1997-98
p981
sg26
g27
sg28
(lp982
VKerry Kittles
p983
assbag1
(g2
g3
Ntp984
Rp985
(dp986
g7
(dp987
g9
V1997-98 Metal Universe Precious Metal Gems Emerald #47 Kerry Kittles
p988
sg11
I10
sg12
VMetal Universe Precious Metal Gems Emerald
p989
sg14
(lp990
Vhttp://www.beckett.com/basketball/1997-98/metal-universe-precious-metal-gems-emerald/47-kerry-kittles-7055496
p991
asg17
g18
sg19
(lp992
Vhttp://img.beckett.com/images/no-image.jpg
p993
asg22
V#47
p994
sg24
V1997-98
p995
sg26
g27
sg28
(lp996
VKerry Kittles
p997
assbag1
(g2
g3
Ntp998
Rp999
(dp1000
g7
(dp1001
g9
V1997-98 Upper Deck Diamond Dimensions #D10 Kerry Kittles
p1002
sg11
I100
sg12
VUpper Deck Diamond Dimensions
p1003
sg14
(lp1004
Vhttp://www.beckett.com/basketball/1997-98/upper-deck-diamond-dimensions/d10-kerry-kittles-3132470
p1005
asg17
g18
sg19
(lp1006
Vhttp://img.beckett.com/images/no-image.jpg
p1007
asg22
V#D10
p1008
sg24
V1997-98
p1009
sg26
g27
sg28
(lp1010
VKerry Kittles
p1011
assba.