(lp0
Naccopy_reg
_reconstructor
p1
(ctutorial.items
BeckettItem
p2
c__builtin__
object
p3
Ntp4
Rp5
(dp6
S'_values'
p7
(dp8
S'originalItemDescription'
p9
V1997 Bleachers/Fleer Gold #3 Patrick Ewing 1986-87
p10
sS'serialNumber'
p11
I10000
sS'setName'
p12
VBleachers/Fleer Gold
p13
sS'beckettLink'
p14
(lp15
Vhttp://www.beckett.com/basketball/1997/bleachersfleer-gold/3-patrick-ewing-1986-87-3129459
p16
asS'team'
p17
S'New York Knicks'
p18
sS'imageLink'
p19
(lp20
Vhttp://img.beckett.com/images/no-image.jpg
p21
asS'cardNumber'
p22
V#3
p23
sS'year'
p24
V1997
p25
sS'sport'
p26
S'Basketball'
p27
sS'playerNames'
p28
(lp29
VPatrick Ewing
p30
assbag1
(g2
g3
Ntp31
Rp32
(dp33
g7
(dp34
g9
V1997-98 E-X2001 Essential Credentials Future #21 Patrick Ewing/60
p35
sg11
I60
sg12
VE-X2001 Essential Credentials Future
p36
sg14
(lp37
Vhttp://www.beckett.com/basketball/1997-98/e-x2001-essential-credentials-future/21-patrick-ewing60-3144607
p38
asg17
g18
sg19
(lp39
Vhttp://img.beckett.com/images/no-image.jpg
p40
asg22
V#21
p41
sg24
V1997-98
p42
sg26
g27
sg28
(lp43
VPatrick Ewing
p44
assbag1
(g2
g3
Ntp45
Rp46
(dp47
g7
(dp48
g9
V1997-98 E-X2001 Essential Credentials Future #26 John Starks/55
p49
sg11
I55
sg12
VE-X2001 Essential Credentials Future
p50
sg14
(lp51
Vhttp://www.beckett.com/basketball/1997-98/e-x2001-essential-credentials-future/26-john-starks55-3144612
p52
asg17
g18
sg19
(lp53
Vhttp://img.beckett.com/images/no-image.jpg
p54
asg22
V#26
p55
sg24
V1997-98
p56
sg26
g27
sg28
(lp57
VJohn Starks
p58
assbag1
(g2
g3
Ntp59
Rp60
(dp61
g7
(dp62
g9
V1997-98 E-X2001 Essential Credentials Future #48 Larry Johnson/33
p63
sg11
I33
sg12
VE-X2001 Essential Credentials Future
p64
sg14
(lp65
Vhttp://www.beckett.com/basketball/1997-98/e-x2001-essential-credentials-future/48-larry-johnson33-3144634
p66
asg17
g18
sg19
(lp67
Vhttp://img.beckett.com/images/no-image.jpg
p68
asg22
V#48
p69
sg24
V1997-98
p70
sg26
g27
sg28
(lp71
VLarry Johnson
p72
assbag1
(g2
g3
Ntp73
Rp74
(dp75
g7
(dp76
g9
V1997-98 E-X2001 Essential Credentials Now #21 Patrick Ewing/21
p77
sg11
I21
sg12
VE-X2001 Essential Credentials Now
p78
sg14
(lp79
Vhttp://www.beckett.com/basketball/1997-98/e-x2001-essential-credentials-now/21-patrick-ewing21-3144694
p80
asg17
g18
sg19
(lp81
Vhttp://img.beckett.com/images/no-image.jpg
p82
asg22
V#21
p83
sg24
V1997-98
p84
sg26
g27
sg28
(lp85
VPatrick Ewing
p86
assbag1
(g2
g3
Ntp87
Rp88
(dp89
g7
(dp90
g9
V1997-98 E-X2001 Essential Credentials Now #26 John Starks/26
p91
sg11
I26
sg12
VE-X2001 Essential Credentials Now
p92
sg14
(lp93
Vhttp://www.beckett.com/basketball/1997-98/e-x2001-essential-credentials-now/26-john-starks26-3144699
p94
asg17
g18
sg19
(lp95
Vhttp://img.beckett.com/images/no-image.jpg
p96
asg22
V#26
p97
sg24
V1997-98
p98
sg26
g27
sg28
(lp99
VJohn Starks
p100
assbag1
(g2
g3
Ntp101
Rp102
(dp103
g7
(dp104
g9
V1997-98 E-X2001 Essential Credentials Now #48 Larry Johnson/48
p105
sg11
I48
sg12
VE-X2001 Essential Credentials Now
p106
sg14
(lp107
Vhttp://www.beckett.com/basketball/1997-98/e-x2001-essential-credentials-now/48-larry-johnson48-3144721
p108
asg17
g18
sg19
(lp109
Vhttp://img.beckett.com/images/no-image.jpg
p110
asg22
V#48
p111
sg24
V1997-98
p112
sg26
g27
sg28
(lp113
VLarry Johnson
p114
assbag1
(g2
g3
Ntp115
Rp116
(dp117
g7
(dp118
g9
V1997-98 Finest Embossed Refractors #124 Patrick Ewing S
p119
sg11
I263
sg12
VFinest Embossed Refractors
p120
sg14
(lp121
Vhttp://www.beckett.com/basketball/1997-98/finest-embossed-refractors/124-patrick-ewing-s-3145332
p122
asg17
g18
sg19
(lp123
Vhttp://img.beckett.com/images/no-image.jpg
p124
asg22
V#124
p125
sg24
V1997-98
p126
sg26
g27
sg28
(lp127
VPatrick Ewing
p128
assbag1
(g2
g3
Ntp129
Rp130
(dp131
g7
(dp132
g9
V1997-98 Finest Embossed Refractors #139 Larry Johnson S
p133
sg11
I263
sg12
VFinest Embossed Refractors
p134
sg14
(lp135
Vhttp://www.beckett.com/basketball/1997-98/finest-embossed-refractors/139-larry-johnson-s-3145347
p136
asg17
g18
sg19
(lp137
Vhttp://img.beckett.com/images/no-image.jpg
p138
asg22
V#139
p139
sg24
V1997-98
p140
sg26
g27
sg28
(lp141
VLarry Johnson
p142
assbag1
(g2
g3
Ntp143
Rp144
(dp145
g7
(dp146
g9
V1997-98 Finest Embossed Refractors #315 Patrick Ewing G
p147
sg11
I74
sg12
VFinest Embossed Refractors
p148
sg14
(lp149
Vhttp://www.beckett.com/basketball/1997-98/finest-embossed-refractors/315-patrick-ewing-g-3145423
p150
asg17
g18
sg19
(lp151
Vhttp://img.beckett.com/images/no-image.jpg
p152
asg22
V#315
p153
sg24
V1997-98
p154
sg26
g27
sg28
(lp155
VPatrick Ewing
p156
assbag1
(g2
g3
Ntp157
Rp158
(dp159
g7
(dp160
g9
V1997-98 Finest Refractors #124 Patrick Ewing S
p161
sg11
I1090
sg12
VFinest Refractors
p162
sg14
(lp163
Vhttp://www.beckett.com/basketball/1997-98/finest-refractors/124-patrick-ewing-s-3145590
p164
asg17
g18
sg19
(lp165
Vhttp://img.beckett.com/images/items_stock/185226/3145435/3145590/front.jpg
p166
asg22
V#124
p167
sg24
V1997-98
p168
sg26
g27
sg28
(lp169
VPatrick Ewing
p170
assbag1
(g2
g3
Ntp171
Rp172
(dp173
g7
(dp174
g9
V1997-98 Finest Refractors #139 Larry Johnson S
p175
sg11
I1090
sg12
VFinest Refractors
p176
sg14
(lp177
Vhttp://www.beckett.com/basketball/1997-98/finest-refractors/139-larry-johnson-s-3145605
p178
asg17
g18
sg19
(lp179
Vhttp://img.beckett.com/images/items_stock/185226/3145435/3145605/front.jpg
p180
asg22
V#139
p181
sg24
V1997-98
p182
sg26
g27
sg28
(lp183
VLarry Johnson
p184
assbag1
(g2
g3
Ntp185
Rp186
(dp187
g7
(dp188
g9
V1997-98 Finest Refractors #315 Patrick Ewing G
p189
sg11
I289
sg12
VFinest Refractors
p190
sg14
(lp191
Vhttp://www.beckett.com/basketball/1997-98/finest-refractors/315-patrick-ewing-g-3145781
p192
asg17
g18
sg19
(lp193
Vhttp://img.beckett.com/images/items_stock/185226/3145435/3145781/front.jpg
p194
asg22
V#315
p195
sg24
V1997-98
p196
sg26
g27
sg28
(lp197
VPatrick Ewing
p198
assbag1
(g2
g3
Ntp199
Rp200
(dp201
g7
(dp202
g9
V1997-98 Flair Showcase Row 0 #48 Patrick Ewing
p203
sg11
I1000
sg12
VFlair Showcase Row 0
p204
sg14
(lp205
Vhttp://www.beckett.com/basketball/1997-98/flair-showcase-row-0/48-patrick-ewing-3146146
p206
asg17
g18
sg19
(lp207
Vhttp://img.beckett.com/images/items_stock/185226/3146075/3146146/front.jpg
p208
asg22
V#48
p209
sg24
V1997-98
p210
sg26
g27
sg28
(lp211
VPatrick Ewing
p212
assbag1
(g2
g3
Ntp213
Rp214
(dp215
g7
(dp216
g9
V1997-98 Flair Showcase Row 0 #67 Allan Houston
p217
sg11
I2000
sg12
VFlair Showcase Row 0
p218
sg14
(lp219
Vhttp://www.beckett.com/basketball/1997-98/flair-showcase-row-0/67-allan-houston-3146165
p220
asg17
g18
sg19
(lp221
Vhttp://img.beckett.com/images/items_stock/185226/3146075/3146165/front.jpg
p222
asg22
V#67
p223
sg24
V1997-98
p224
sg26
g27
sg28
(lp225
VAllan Houston
p226
assbag1
(g2
g3
Ntp227
Rp228
(dp229
g7
(dp230
g9
V1997-98 Flair Showcase Row 0 #75 Larry Johnson
p231
sg11
I2000
sg12
VFlair Showcase Row 0
p232
sg14
(lp233
Vhttp://www.beckett.com/basketball/1997-98/flair-showcase-row-0/75-larry-johnson-3146173
p234
asg17
g18
sg19
(lp235
Vhttp://img.beckett.com/images/items_stock/185226/3146075/3146173/front.jpg
p236
asg22
V#75
p237
sg24
V1997-98
p238
sg26
g27
sg28
(lp239
VLarry Johnson
p240
assbag1
(g2
g3
Ntp241
Rp242
(dp243
g7
(dp244
g9
V1997-98 Flair Showcase Legacy Collection Row 3 #48 Patrick Ewing
p245
sg11
I100
sg12
VFlair Showcase Legacy Collection Row 3
p246
sg14
(lp247
Vhttp://www.beckett.com/basketball/1997-98/flair-showcase-legacy-collection-row-3/48-patrick-ewing-3148606
p248
asg17
g18
sg19
(lp249
Vhttp://img.beckett.com/images/no-image.jpg
p250
asg22
V#48
p251
sg24
V1997-98
p252
sg26
g27
sg28
(lp253
VPatrick Ewing
p254
assbag1
(g2
g3
Ntp255
Rp256
(dp257
g7
(dp258
g9
V1997-98 Flair Showcase Legacy Collection Row 3 #67 Allan Houston
p259
sg11
I100
sg12
VFlair Showcase Legacy Collection Row 3
p260
sg14
(lp261
Vhttp://www.beckett.com/basketball/1997-98/flair-showcase-legacy-collection-row-3/67-allan-houston-3148625
p262
asg17
g18
sg19
(lp263
Vhttp://img.beckett.com/images/no-image.jpg
p264
asg22
V#67
p265
sg24
V1997-98
p266
sg26
g27
sg28
(lp267
VAllan Houston
p268
assbag1
(g2
g3
Ntp269
Rp270
(dp271
g7
(dp272
g9
V1997-98 Flair Showcase Legacy Collection Row 3 #75 Larry Johnson
p273
sg11
I100
sg12
VFlair Showcase Legacy Collection Row 3
p274
sg14
(lp275
Vhttp://www.beckett.com/basketball/1997-98/flair-showcase-legacy-collection-row-3/75-larry-johnson-3148633
p276
asg17
g18
sg19
(lp277
Vhttp://img.beckett.com/images/no-image.jpg
p278
asg22
V#75
p279
sg24
V1997-98
p280
sg26
g27
sg28
(lp281
VLarry Johnson
p282
assbag1
(g2
g3
Ntp283
Rp284
(dp285
g7
(dp286
g9
V1997-98 Metal Universe Precious Metal Gems #26 Patrick Ewing
p287
sg11
I90
sg12
VMetal Universe Precious Metal Gems
p288
sg14
(lp289
Vhttp://www.beckett.com/basketball/1997-98/metal-universe-precious-metal-gems/26-patrick-ewing-3142618
p290
asg17
g18
sg19
(lp291
Vhttp://img.beckett.com/images/no-image.jpg
p292
asg22
V#26
p293
sg24
V1997-98
p294
sg26
g27
sg28
(lp295
VPatrick Ewing
p296
assbag1
(g2
g3
Ntp297
Rp298
(dp299
g7
(dp300
g9
V1997-98 Metal Universe Precious Metal Gems #27 Allan Houston
p301
sg11
I90
sg12
VMetal Universe Precious Metal Gems
p302
sg14
(lp303
Vhttp://www.beckett.com/basketball/1997-98/metal-universe-precious-metal-gems/27-allan-houston-3142619
p304
asg17
g18
sg19
(lp305
Vhttp://img.beckett.com/images/no-image.jpg
p306
asg22
V#27
p307
sg24
V1997-98
p308
sg26
g27
sg28
(lp309
VAllan Houston
p310
assbag1
(g2
g3
Ntp311
Rp312
(dp313
g7
(dp314
g9
V1997-98 Metal Universe Precious Metal Gems #82 Chris Childs
p315
sg11
I90
sg12
VMetal Universe Precious Metal Gems
p316
sg14
(lp317
Vhttp://www.beckett.com/basketball/1997-98/metal-universe-precious-metal-gems/82-chris-childs-3142674
p318
asg17
g18
sg19
(lp319
Vhttp://img.beckett.com/images/no-image.jpg
p320
asg22
V#82
p321
sg24
V1997-98
p322
sg26
g27
sg28
(lp323
VChris Childs
p324
assbag1
(g2
g3
Ntp325
Rp326
(dp327
g7
(dp328
g9
V1997-98 Metal Universe Precious Metal Gems #88 Larry Johnson
p329
sg11
I90
sg12
VMetal Universe Precious Metal Gems
p330
sg14
(lp331
Vhttp://www.beckett.com/basketball/1997-98/metal-universe-precious-metal-gems/88-larry-johnson-3142680
p332
asg17
g18
sg19
(lp333
Vhttp://img.beckett.com/images/no-image.jpg
p334
asg22
V#88
p335
sg24
V1997-98
p336
sg26
g27
sg28
(lp337
VLarry Johnson
p338
assbag1
(g2
g3
Ntp339
Rp340
(dp341
g7
(dp342
g9
V1997-98 Metal Universe Precious Metal Gems #118 John Starks
p343
sg11
I90
sg12
VMetal Universe Precious Metal Gems
p344
sg14
(lp345
Vhttp://www.beckett.com/basketball/1997-98/metal-universe-precious-metal-gems/118-john-starks-3142710
p346
asg17
g18
sg19
(lp347
Vhttp://img.beckett.com/images/no-image.jpg
p348
asg22
V#118
p349
sg24
V1997-98
p350
sg26
g27
sg28
(lp351
VJohn Starks
p352
assbag1
(g2
g3
Ntp353
Rp354
(dp355
g7
(dp356
g9
V1997-98 Metal Universe Championship Precious Metal Gems #91 Patrick Ewing
p357
sg11
I50
sg12
VMetal Universe Championship Precious Metal Gems
p358
sg14
(lp359
Vhttp://www.beckett.com/basketball/1997-98/metal-universe-championship-precious-metal-gems/91-patrick-ewing-3140766
p360
asg17
g18
sg19
(lp361
Vhttp://img.beckett.com/images/no-image.jpg
p362
asg22
V#91
p363
sg24
V1997-98
p364
sg26
g27
sg28
(lp365
VPatrick Ewing
p366
assbag1
(g2
g3
Ntp367
Rp368
(dp369
g7
(dp370
g9
V1997-98 Metal Universe Championship Precious Metal Gems #98 Larry Johnson
p371
sg11
I50
sg12
VMetal Universe Championship Precious Metal Gems
p372
sg14
(lp373
Vhttp://www.beckett.com/basketball/1997-98/metal-universe-championship-precious-metal-gems/98-larry-johnson-3140773
p374
asg17
g18
sg19
(lp375
Vhttp://img.beckett.com/images/no-image.jpg
p376
asg22
V#98
p377
sg24
V1997-98
p378
sg26
g27
sg28
(lp379
VLarry Johnson
p380
assbag1
(g2
g3
Ntp381
Rp382
(dp383
g7
(dp384
g9
V1997-98 SkyBox Premium Star Rubies #37 Patrick Ewing
p385
sg11
I50
sg12
VSkyBox Premium Star Rubies
p386
sg14
(lp387
Vhttp://www.beckett.com/basketball/1997-98/skybox-premium-star-rubies/37-patrick-ewing-3141208
p388
asg17
g18
sg19
(lp389
Vhttp://img.beckett.com/images/no-image.jpg
p390
asg22
V#37
p391
sg24
V1997-98
p392
sg26
g27
sg28
(lp393
VPatrick Ewing
p394
assbag1
(g2
g3
Ntp395
Rp396
(dp397
g7
(dp398
g9
V1997-98 SkyBox Premium Star Rubies #51 Larry Johnson
p399
sg11
I50
sg12
VSkyBox Premium Star Rubies
p400
sg14
(lp401
Vhttp://www.beckett.com/basketball/1997-98/skybox-premium-star-rubies/51-larry-johnson-3141222
p402
asg17
g18
sg19
(lp403
Vhttp://img.beckett.com/images/no-image.jpg
p404
asg22
V#51
p405
sg24
V1997-98
p406
sg26
g27
sg28
(lp407
VLarry Johnson
p408
assbag1
(g2
g3
Ntp409
Rp410
(dp411
g7
(dp412
g9
V1997-98 SkyBox Premium Star Rubies #55 John Starks
p413
sg11
I50
sg12
VSkyBox Premium Star Rubies
p414
sg14
(lp415
Vhttp://www.beckett.com/basketball/1997-98/skybox-premium-star-rubies/55-john-starks-3141226
p416
asg17
g18
sg19
(lp417
Vhttp://img.beckett.com/images/no-image.jpg
p418
asg22
V#55
p419
sg24
V1997-98
p420
sg26
g27
sg28
(lp421
VJohn Starks
p422
assbag1
(g2
g3
Ntp423
Rp424
(dp425
g7
(dp426
g9
V1997-98 SkyBox Premium Star Rubies #65 Allan Houston
p427
sg11
I50
sg12
VSkyBox Premium Star Rubies
p428
sg14
(lp429
Vhttp://www.beckett.com/basketball/1997-98/skybox-premium-star-rubies/65-allan-houston-3141236
p430
asg17
g18
sg19
(lp431
Vhttp://img.beckett.com/images/no-image.jpg
p432
asg22
V#65
p433
sg24
V1997-98
p434
sg26
g27
sg28
(lp435
VAllan Houston
p436
assbag1
(g2
g3
Ntp437
Rp438
(dp439
g7
(dp440
g9
V1997-98 SkyBox Premium Star Rubies #93 Chris Childs
p441
sg11
I50
sg12
VSkyBox Premium Star Rubies
p442
sg14
(lp443
Vhttp://www.beckett.com/basketball/1997-98/skybox-premium-star-rubies/93-chris-childs-3141264
p444
asg17
g18
sg19
(lp445
Vhttp://img.beckett.com/images/no-image.jpg
p446
asg22
V#93
p447
sg24
V1997-98
p448
sg26
g27
sg28
(lp449
VChris Childs
p450
assbag1
(g2
g3
Ntp451
Rp452
(dp453
g7
(dp454
g9
V1997-98 SkyBox Premium Star Rubies #138 Buck Williams
p455
sg11
I50
sg12
VSkyBox Premium Star Rubies
p456
sg14
(lp457
Vhttp://www.beckett.com/basketball/1997-98/skybox-premium-star-rubies/138-buck-williams-3141307
p458
asg17
g18
sg19
(lp459
Vhttp://img.beckett.com/images/no-image.jpg
p460
asg22
V#138
p461
sg24
V1997-98
p462
sg26
g27
sg28
(lp463
VBuck Williams
p464
assbag1
(g2
g3
Ntp465
Rp466
(dp467
g7
(dp468
g9
V1997-98 SkyBox Premium Star Rubies #181 Chris Dudley
p469
sg11
I50
sg12
VSkyBox Premium Star Rubies
p470
sg14
(lp471
Vhttp://www.beckett.com/basketball/1997-98/skybox-premium-star-rubies/181-chris-dudley-3141350
p472
asg17
g18
sg19
(lp473
Vhttp://img.beckett.com/images/no-image.jpg
p474
asg22
V#181
p475
sg24
V1997-98
p476
sg26
g27
sg28
(lp477
VChris Dudley
p478
assbag1
(g2
g3
Ntp479
Rp480
(dp481
g7
(dp482
g9
V1997-98 SkyBox Premium Star Rubies #199 Charlie Ward
p483
sg11
I50
sg12
VSkyBox Premium Star Rubies
p484
sg14
(lp485
Vhttp://www.beckett.com/basketball/1997-98/skybox-premium-star-rubies/199-charlie-ward-3141368
p486
asg17
g18
sg19
(lp487
Vhttp://img.beckett.com/images/no-image.jpg
p488
asg22
V#199
p489
sg24
V1997-98
p490
sg26
g27
sg28
(lp491
VCharlie Ward
p492
assbag1
(g2
g3
Ntp493
Rp494
(dp495
g7
(dp496
g9
V1997-98 SkyBox Premium Autographics Century Marks #50 Allan Houston
p497
sg11
I100
sg12
VSkyBox Premium Autographics Century Marks
p498
sg14
(lp499
Vhttp://www.beckett.com/basketball/1997-98/skybox-premium-autographics-century-marks/50-allan-houston-3141632
p500
asg17
g18
sg19
(lp501
Vhttp://img.beckett.com/images/no-image.jpg
p502
asg22
V#50
p503
sS'autograph'
p504
I1
sg24
V1997-98
p505
sg26
g27
sg28
(lp506
VAllan Houston
p507
assbag1
(g2
g3
Ntp508
Rp509
(dp510
g7
(dp511
g9
V1997-98 SkyBox Premium Autographics Century Marks #58 Larry Johnson
p512
sg11
I100
sg12
VSkyBox Premium Autographics Century Marks
p513
sg14
(lp514
Vhttp://www.beckett.com/basketball/1997-98/skybox-premium-autographics-century-marks/58-larry-johnson-3141640
p515
asg17
g18
sg19
(lp516
Vhttp://img.beckett.com/images/no-image.jpg
p517
asg22
V#58
p518
sg504
I1
sg24
V1997-98
p519
sg26
g27
sg28
(lp520
VLarry Johnson
p521
assbag1
(g2
g3
Ntp522
Rp523
(dp524
g7
(dp525
g9
V1997-98 SkyBox Premium Autographics Century Marks #99 John Starks
p526
sg11
I100
sg12
VSkyBox Premium Autographics Century Marks
p527
sg14
(lp528
Vhttp://www.beckett.com/basketball/1997-98/skybox-premium-autographics-century-marks/99-john-starks-3141681
p529
asg17
g18
sg19
(lp530
Vhttp://img.beckett.com/images/no-image.jpg
p531
asg22
V#99
p532
sg504
I1
sg24
V1997-98
p533
sg26
g27
sg28
(lp534
VJohn Starks
p535
assbag1
(g2
g3
Ntp536
Rp537
(dp538
g7
(dp539
g9
V1997-98 SPx Grand Finale #28 Patrick Ewing
p540
sg11
I50
sg12
VSPx Grand Finale
p541
sg14
(lp542
Vhttp://www.beckett.com/basketball/1997-98/spx-grand-finale/28-patrick-ewing-3137712
p543
asg17
g18
sg19
(lp544
Vhttp://img.beckett.com/images/no-image.jpg
p545
asg22
V#28
p546
sg24
V1997-98
p547
sg26
g27
sg28
(lp548
VPatrick Ewing
p549
assbag1
(g2
g3
Ntp550
Rp551
(dp552
g7
(dp553
g9
V1997-98 Stadium Club One Of A Kind #8 Allan Houston
p554
sg11
I150
sg12
VStadium Club One Of A Kind
p555
sg14
(lp556
Vhttp://www.beckett.com/basketball/1997-98/stadium-club-one-of-a-kind/8-allan-houston-3138307
p557
asg17
g18
sg19
(lp558
Vhttp://img.beckett.com/images/no-image.jpg
p559
asg22
V#8
p560
sg24
V1997-98
p561
sg26
g27
sg28
(lp562
VAllan Houston
p563
assbag1
(g2
g3
Ntp564
Rp565
(dp566
g7
(dp567
g9
V1997-98 Stadium Club One Of A Kind #55 Charles Oakley
p568
sg11
I150
sg12
VStadium Club One Of A Kind
p569
sg14
(lp570
Vhttp://www.beckett.com/basketball/1997-98/stadium-club-one-of-a-kind/55-charles-oakley-3138354
p571
asg17
g18
sg19
(lp572
Vhttp://img.beckett.com/images/items_stock/185226/3138288/3138354/front.jpg
p573
asg22
V#55
p574
sg24
V1997-98
p575
sg26
g27
sg28
(lp576
VCharles Oakley
p577
assbag1
(g2
g3
Ntp578
Rp579
(dp580
g7
(dp581
g9
V1997-98 Stadium Club One Of A Kind #72 Charlie Ward
p582
sg11
I150
sg12
VStadium Club One Of A Kind
p583
sg14
(lp584
Vhttp://www.beckett.com/basketball/1997-98/stadium-club-one-of-a-kind/72-charlie-ward-3138371
p585
asg17
g18
sg19
(lp586
Vhttp://img.beckett.com/images/items_stock/185226/3138288/3138371/front.jpg
p587
asg22
V#72
p588
sg24
V1997-98
p589
sg26
g27
sg28
(lp590
VCharlie Ward
p591
assbag1
(g2
g3
Ntp592
Rp593
(dp594
g7
(dp595
g9
V1997-98 Stadium Club One Of A Kind #87 Patrick Ewing
p596
sg11
I150
sg12
VStadium Club One Of A Kind
p597
sg14
(lp598
Vhttp://www.beckett.com/basketball/1997-98/stadium-club-one-of-a-kind/87-patrick-ewing-3138386
p599
asg17
g18
sg19
(lp600
Vhttp://img.beckett.com/images/items_stock/185226/3138288/3138386/front.jpg
p601
asg22
V#87
p602
sg24
V1997-98
p603
sg26
g27
sg28
(lp604
VPatrick Ewing
p605
assbag1
(g2
g3
Ntp606
Rp607
(dp608
g7
(dp609
g9
V1997-98 Stadium Club One Of A Kind #127 Larry Johnson
p610
sg11
I150
sg12
VStadium Club One Of A Kind
p611
sg14
(lp612
Vhttp://www.beckett.com/basketball/1997-98/stadium-club-one-of-a-kind/127-larry-johnson-3138426
p613
asg17
g18
sg19
(lp614
Vhttp://img.beckett.com/images/items_stock/185226/3138288/3138426/front.jpg
p615
asg22
V#127
p616
sg24
V1997-98
p617
sg26
g27
sg28
(lp618
VLarry Johnson
p619
assbag1
(g2
g3
Ntp620
Rp621
(dp622
g7
(dp623
g9
V1997-98 Stadium Club One Of A Kind #140 John Starks
p624
sg11
I150
sg12
VStadium Club One Of A Kind
p625
sg14
(lp626
Vhttp://www.beckett.com/basketball/1997-98/stadium-club-one-of-a-kind/140-john-starks-3138439
p627
asg17
g18
sg19
(lp628
Vhttp://img.beckett.com/images/items_stock/185226/3138288/3138439/front.jpg
p629
asg22
V#140
p630
sg24
V1997-98
p631
sg26
g27
sg28
(lp632
VJohn Starks
p633
assbag1
(g2
g3
Ntp634
Rp635
(dp636
g7
(dp637
g9
V1997-98 Stadium Club One Of A Kind #144 Buck Williams
p638
sg11
I150
sg12
VStadium Club One Of A Kind
p639
sg14
(lp640
Vhttp://www.beckett.com/basketball/1997-98/stadium-club-one-of-a-kind/144-buck-williams-3138443
p641
asg17
g18
sg19
(lp642
Vhttp://img.beckett.com/images/items_stock/185226/3138288/3138443/front.jpg
p643
asg22
V#144
p644
sg24
V1997-98
p645
sg26
g27
sg28
(lp646
VBuck Williams
p647
assbag1
(g2
g3
Ntp648
Rp649
(dp650
g7
(dp651
g9
V1997-98 Stadium Club One Of A Kind #167 Chris Childs
p652
sg11
I150
sg12
VStadium Club One Of A Kind
p653
sg14
(lp654
Vhttp://www.beckett.com/basketball/1997-98/stadium-club-one-of-a-kind/167-chris-childs-3138466
p655
asg17
g18
sg19
(lp656
Vhttp://img.beckett.com/images/items_stock/185226/3138288/3138466/front.jpg
p657
asg22
V#167
p658
sg24
V1997-98
p659
sg26
g27
sg28
(lp660
VChris Childs
p661
assbag1
(g2
g3
Ntp662
Rp663
(dp664
g7
(dp665
g9
V1997-98 Stadium Club Printing Plates #8 Allan Houston Black
p666
sg11
I1
sg12
VStadium Club Printing Plates
p667
sg14
(lp668
Vhttp://www.beckett.com/basketball/1997-98/stadium-club-printing-plates/8-allan-houston-black-3138573
p669
asg17
g18
sg19
(lp670
Vhttp://img.beckett.com/images/no-image.jpg
p671
asg22
V#8
p672
sg24
V1997-98
p673
sg26
g27
sg28
(lp674
VAllan Houston
p675
assbag1
(g2
g3
Ntp676
Rp677
(dp678
g7
(dp679
g9
V1997-98 Stadium Club Printing Plates #8A Allan Houston Cyan
p680
sg11
I1
sg12
VStadium Club Printing Plates
p681
sg14
(lp682
Vhttp://www.beckett.com/basketball/1997-98/stadium-club-printing-plates/8a-allan-houston-cyan-3138574
p683
asg17
g18
sg19
(lp684
Vhttp://img.beckett.com/images/no-image.jpg
p685
asg22
V#8A
p686
sg24
V1997-98
p687
sg26
g27
sg28
(lp688
g675
assbag1
(g2
g3
Ntp689
Rp690
(dp691
g7
(dp692
g9
V1997-98 Stadium Club Printing Plates #8B Allan Houston Magenta
p693
sg11
I1
sg12
VStadium Club Printing Plates
p694
sg14
(lp695
Vhttp://www.beckett.com/basketball/1997-98/stadium-club-printing-plates/8b-allan-houston-magenta-3138575
p696
asg17
g18
sg19
(lp697
Vhttp://img.beckett.com/images/no-image.jpg
p698
asg22
V#8B
p699
sg24
V1997-98
p700
sg26
g27
sg28
(lp701
g675
assbag1
(g2
g3
Ntp702
Rp703
(dp704
g7
(dp705
g9
V1997-98 Stadium Club Printing Plates #8C Allan Houston Yellow
p706
sg11
I1
sg12
VStadium Club Printing Plates
p707
sg14
(lp708
Vhttp://www.beckett.com/basketball/1997-98/stadium-club-printing-plates/8c-allan-houston-yellow-3138576
p709
asg17
g18
sg19
(lp710
Vhttp://img.beckett.com/images/no-image.jpg
p711
asg22
V#8C
p712
sg24
V1997-98
p713
sg26
g27
sg28
(lp714
g675
assbag1
(g2
g3
Ntp715
Rp716
(dp717
g7
(dp718
g9
V1997-98 Stadium Club Printing Plates #55 Charles Oakley Black
p719
sg11
I1
sg12
VStadium Club Printing Plates
p720
sg14
(lp721
Vhttp://www.beckett.com/basketball/1997-98/stadium-club-printing-plates/55-charles-oakley-black-3138761
p722
asg17
g18
sg19
(lp723
Vhttp://img.beckett.com/images/no-image.jpg
p724
asg22
V#55
p725
sg24
V1997-98
p726
sg26
g27
sg28
(lp727
VCharles Oakley
p728
assbag1
(g2
g3
Ntp729
Rp730
(dp731
g7
(dp732
g9
V1997-98 Stadium Club Printing Plates #55A Charles Oakley Cyan
p733
sg11
I1
sg12
VStadium Club Printing Plates
p734
sg14
(lp735
Vhttp://www.beckett.com/basketball/1997-98/stadium-club-printing-plates/55a-charles-oakley-cyan-3138762
p736
asg17
g18
sg19
(lp737
Vhttp://img.beckett.com/images/no-image.jpg
p738
asg22
V#55A
p739
sg24
V1997-98
p740
sg26
g27
sg28
(lp741
g728
assbag1
(g2
g3
Ntp742
Rp743
(dp744
g7
(dp745
g9
V1997-98 Stadium Club Printing Plates #55B Charles Oakley Magenta
p746
sg11
I1
sg12
VStadium Club Printing Plates
p747
sg14
(lp748
Vhttp://www.beckett.com/basketball/1997-98/stadium-club-printing-plates/55b-charles-oakley-magenta-3138763
p749
asg17
g18
sg19
(lp750
Vhttp://img.beckett.com/images/no-image.jpg
p751
asg22
V#55B
p752
sg24
V1997-98
p753
sg26
g27
sg28
(lp754
g728
assbag1
(g2
g3
Ntp755
Rp756
(dp757
g7
(dp758
g9
V1997-98 Stadium Club Printing Plates #55C Charles Oakley Yellow
p759
sg11
I1
sg12
VStadium Club Printing Plates
p760
sg14
(lp761
Vhttp://www.beckett.com/basketball/1997-98/stadium-club-printing-plates/55c-charles-oakley-yellow-3138764
p762
asg17
g18
sg19
(lp763
Vhttp://img.beckett.com/images/no-image.jpg
p764
asg22
V#55C
p765
sg24
V1997-98
p766
sg26
g27
sg28
(lp767
g728
assbag1
(g2
g3
Ntp768
Rp769
(dp770
g7
(dp771
g9
V1997-98 Stadium Club Printing Plates #72 Charlie Ward Black
p772
sg11
I1
sg12
VStadium Club Printing Plates
p773
sg14
(lp774
Vhttp://www.beckett.com/basketball/1997-98/stadium-club-printing-plates/72-charlie-ward-black-3138829
p775
asg17
g18
sg19
(lp776
Vhttp://img.beckett.com/images/no-image.jpg
p777
asg22
V#72
p778
sg24
V1997-98
p779
sg26
g27
sg28
(lp780
VCharlie Ward
p781
assbag1
(g2
g3
Ntp782
Rp783
(dp784
g7
(dp785
g9
V1997-98 Stadium Club Printing Plates #72A Charlie Ward Cyan
p786
sg11
I1
sg12
VStadium Club Printing Plates
p787
sg14
(lp788
Vhttp://www.beckett.com/basketball/1997-98/stadium-club-printing-plates/72a-charlie-ward-cyan-3138830
p789
asg17
g18
sg19
(lp790
Vhttp://img.beckett.com/images/no-image.jpg
p791
asg22
V#72A
p792
sg24
V1997-98
p793
sg26
g27
sg28
(lp794
g781
assbag1
(g2
g3
Ntp795
Rp796
(dp797
g7
(dp798
g9
V1997-98 Stadium Club Printing Plates #72B Charlie Ward Magenta
p799
sg11
I1
sg12
VStadium Club Printing Plates
p800
sg14
(lp801
Vhttp://www.beckett.com/basketball/1997-98/stadium-club-printing-plates/72b-charlie-ward-magenta-3138831
p802
asg17
g18
sg19
(lp803
Vhttp://img.beckett.com/images/no-image.jpg
p804
asg22
V#72B
p805
sg24
V1997-98
p806
sg26
g27
sg28
(lp807
g781
assbag1
(g2
g3
Ntp808
Rp809
(dp810
g7
(dp811
g9
V1997-98 Stadium Club Printing Plates #72C Charlie Ward Yellow
p812
sg11
I1
sg12
VStadium Club Printing Plates
p813
sg14
(lp814
Vhttp://www.beckett.com/basketball/1997-98/stadium-club-printing-plates/72c-charlie-ward-yellow-3138832
p815
asg17
g18
sg19
(lp816
Vhttp://img.beckett.com/images/no-image.jpg
p817
asg22
V#72C
p818
sg24
V1997-98
p819
sg26
g27
sg28
(lp820
g781
assbag1
(g2
g3
Ntp821
Rp822
(dp823
g7
(dp824
g9
V1997-98 Stadium Club Printing Plates #87 Patrick Ewing Black
p825
sg11
I1
sg12
VStadium Club Printing Plates
p826
sg14
(lp827
Vhttp://www.beckett.com/basketball/1997-98/stadium-club-printing-plates/87-patrick-ewing-black-3138889
p828
asg17
g18
sg19
(lp829
Vhttp://img.beckett.com/images/no-image.jpg
p830
asg22
V#87
p831
sg24
V1997-98
p832
sg26
g27
sg28
(lp833
VPatrick Ewing
p834
assbag1
(g2
g3
Ntp835
Rp836
(dp837
g7
(dp838
g9
V1997-98 Stadium Club Printing Plates #87A Patrick Ewing Cyan
p839
sg11
I1
sg12
VStadium Club Printing Plates
p840
sg14
(lp841
Vhttp://www.beckett.com/basketball/1997-98/stadium-club-printing-plates/87a-patrick-ewing-cyan-3138890
p842
asg17
g18
sg19
(lp843
Vhttp://img.beckett.com/images/no-image.jpg
p844
asg22
V#87A
p845
sg24
V1997-98
p846
sg26
g27
sg28
(lp847
g834
assbag1
(g2
g3
Ntp848
Rp849
(dp850
g7
(dp851
g9
V1997-98 Stadium Club Printing Plates #87B Patrick Ewing Magenta
p852
sg11
I1
sg12
VStadium Club Printing Plates
p853
sg14
(lp854
Vhttp://www.beckett.com/basketball/1997-98/stadium-club-printing-plates/87b-patrick-ewing-magenta-3138891
p855
asg17
g18
sg19
(lp856
Vhttp://img.beckett.com/images/no-image.jpg
p857
asg22
V#87B
p858
sg24
V1997-98
p859
sg26
g27
sg28
(lp860
g834
assbag1
(g2
g3
Ntp861
Rp862
(dp863
g7
(dp864
g9
V1997-98 Stadium Club Printing Plates #87C Patrick Ewing Yellow
p865
sg11
I1
sg12
VStadium Club Printing Plates
p866
sg14
(lp867
Vhttp://www.beckett.com/basketball/1997-98/stadium-club-printing-plates/87c-patrick-ewing-yellow-3138892
p868
asg17
g18
sg19
(lp869
Vhttp://img.beckett.com/images/no-image.jpg
p870
asg22
V#87C
p871
sg24
V1997-98
p872
sg26
g27
sg28
(lp873
g834
assbag1
(g2
g3
Ntp874
Rp875
(dp876
g7
(dp877
g9
V1997-98 Stadium Club Printing Plates #127 Larry Johnson Black
p878
sg11
I1
sg12
VStadium Club Printing Plates
p879
sg14
(lp880
Vhttp://www.beckett.com/basketball/1997-98/stadium-club-printing-plates/127-larry-johnson-black-3139049
p881
asg17
g18
sg19
(lp882
Vhttp://img.beckett.com/images/no-image.jpg
p883
asg22
V#127
p884
sg24
V1997-98
p885
sg26
g27
sg28
(lp886
VLarry Johnson
p887
assbag1
(g2
g3
Ntp888
Rp889
(dp890
g7
(dp891
g9
V1997-98 Stadium Club Printing Plates #127A Larry Johnson Cyan
p892
sg11
I1
sg12
VStadium Club Printing Plates
p893
sg14
(lp894
Vhttp://www.beckett.com/basketball/1997-98/stadium-club-printing-plates/127a-larry-johnson-cyan-3139050
p895
asg17
g18
sg19
(lp896
Vhttp://img.beckett.com/images/no-image.jpg
p897
asg22
V#127A
p898
sg24
V1997-98
p899
sg26
g27
sg28
(lp900
g887
assbag1
(g2
g3
Ntp901
Rp902
(dp903
g7
(dp904
g9
V1997-98 Stadium Club Printing Plates #127B Larry Johnson Magneta
p905
sg11
I1
sg12
VStadium Club Printing Plates
p906
sg14
(lp907
Vhttp://www.beckett.com/basketball/1997-98/stadium-club-printing-plates/127b-larry-johnson-magneta-3139051
p908
asg17
g18
sg19
(lp909
Vhttp://img.beckett.com/images/no-image.jpg
p910
asg22
V#127B
p911
sg24
V1997-98
p912
sg26
g27
sg28
(lp913
g887
assbag1
(g2
g3
Ntp914
Rp915
(dp916
g7
(dp917
g9
V1997-98 Stadium Club Printing Plates #127C Larry Johnson Yellow
p918
sg11
I1
sg12
VStadium Club Printing Plates
p919
sg14
(lp920
Vhttp://www.beckett.com/basketball/1997-98/stadium-club-printing-plates/127c-larry-johnson-yellow-3139052
p921
asg17
g18
sg19
(lp922
Vhttp://img.beckett.com/images/no-image.jpg
p923
asg22
V#127C
p924
sg24
V1997-98
p925
sg26
g27
sg28
(lp926
g887
assbag1
(g2
g3
Ntp927
Rp928
(dp929
g7
(dp930
g9
V1997-98 Stadium Club Printing Plates #140 John Starks Black
p931
sg11
I1
sg12
VStadium Club Printing Plates
p932
sg14
(lp933
Vhttp://www.beckett.com/basketball/1997-98/stadium-club-printing-plates/140-john-starks-black-3139101
p934
asg17
g18
sg19
(lp935
Vhttp://img.beckett.com/images/no-image.jpg
p936
asg22
V#140
p937
sg24
V1997-98
p938
sg26
g27
sg28
(lp939
VJohn Starks
p940
assbag1
(g2
g3
Ntp941
Rp942
(dp943
g7
(dp944
g9
V1997-98 Stadium Club Printing Plates #140A John Starks Cyan
p945
sg11
I1
sg12
VStadium Club Printing Plates
p946
sg14
(lp947
Vhttp://www.beckett.com/basketball/1997-98/stadium-club-printing-plates/140a-john-starks-cyan-3139102
p948
asg17
g18
sg19
(lp949
Vhttp://img.beckett.com/images/no-image.jpg
p950
asg22
V#140A
p951
sg24
V1997-98
p952
sg26
g27
sg28
(lp953
g940
assbag1
(g2
g3
Ntp954
Rp955
(dp956
g7
(dp957
g9
V1997-98 Stadium Club Printing Plates #140B John Starks Magenta
p958
sg11
I1
sg12
VStadium Club Printing Plates
p959
sg14
(lp960
Vhttp://www.beckett.com/basketball/1997-98/stadium-club-printing-plates/140b-john-starks-magenta-3139103
p961
asg17
g18
sg19
(lp962
Vhttp://img.beckett.com/images/no-image.jpg
p963
asg22
V#140B
p964
sg24
V1997-98
p965
sg26
g27
sg28
(lp966
g940
assbag1
(g2
g3
Ntp967
Rp968
(dp969
g7
(dp970
g9
V1997-98 Stadium Club Printing Plates #140C John Starks Yellow
p971
sg11
I1
sg12
VStadium Club Printing Plates
p972
sg14
(lp973
Vhttp://www.beckett.com/basketball/1997-98/stadium-club-printing-plates/140c-john-starks-yellow-3139104
p974
asg17
g18
sg19
(lp975
Vhttp://img.beckett.com/images/no-image.jpg
p976
asg22
V#140C
p977
sg24
V1997-98
p978
sg26
g27
sg28
(lp979
g940
assbag1
(g2
g3
Ntp980
Rp981
(dp982
g7
(dp983
g9
V1997-98 Stadium Club Printing Plates #144 Buck Williams Black
p984
sg11
I1
sg12
VStadium Club Printing Plates
p985
sg14
(lp986
Vhttp://www.beckett.com/basketball/1997-98/stadium-club-printing-plates/144-buck-williams-black-3139117
p987
asg17
g18
sg19
(lp988
Vhttp://img.beckett.com/images/no-image.jpg
p989
asg22
V#144
p990
sg24
V1997-98
p991
sg26
g27
sg28
(lp992
VBuck Williams
p993
assbag1
(g2
g3
Ntp994
Rp995
(dp996
g7
(dp997
g9
V1997-98 Stadium Club Printing Plates #144A Buck Williams Cyan
p998
sg11
I1
sg12
VStadium Club Printing Plates
p999
sg14
(lp1000
Vhttp://www.beckett.com/basketball/1997-98/stadium-club-printing-plates/144a-buck-williams-cyan-3139118
p1001
asg17
g18
sg19
(lp1002
Vhttp://img.beckett.com/images/no-image.jpg
p1003
asg22
V#144A
p1004
sg24
V1997-98
p1005
sg26
g27
sg28
(lp1006
g993
assbag1
(g2
g3
Ntp1007
Rp1008
(dp1009
g7
(dp1010
g9
V1997-98 Stadium Club Printing Plates #144B Buck Williams Magenta
p1011
sg11
I1
sg12
VStadium Club Printing Plates
p1012
sg14
(lp1013
Vhttp://www.beckett.com/basketball/1997-98/stadium-club-printing-plates/144b-buck-williams-magenta-3139119
p1014
asg17
g18
sg19
(lp1015
Vhttp://img.beckett.com/images/no-image.jpg
p1016
asg22
V#144B
p1017
sg24
V1997-98
p1018
sg26
g27
sg28
(lp1019
g993
assbag1
(g2
g3
Ntp1020
Rp1021
(dp1022
g7
(dp1023
g9
V1997-98 Stadium Club Printing Plates #144C Buck Williams Yellow
p1024
sg11
I1
sg12
VStadium Club Printing Plates
p1025
sg14
(lp1026
Vhttp://www.beckett.com/basketball/1997-98/stadium-club-printing-plates/144c-buck-williams-yellow-3139120
p1027
asg17
g18
sg19
(lp1028
Vhttp://img.beckett.com/images/no-image.jpg
p1029
asg22
V#144C
p1030
sg24
V1997-98
p1031
sg26
g27
sg28
(lp1032
g993
assbag1
(g2
g3
Ntp1033
Rp1034
(dp1035
g7
(dp1036
g9
V1997-98 Stadium Club Printing Plates #167 Chris Childs Black
p1037
sg11
I1
sg12
VStadium Club Printing Plates
p1038
sg14
(lp1039
Vhttp://www.beckett.com/basketball/1997-98/stadium-club-printing-plates/167-chris-childs-black-3139209
p1040
asg17
g18
sg19
(lp1041
Vhttp://img.beckett.com/images/no-image.jpg
p1042
asg22
V#167
p1043
sg24
V1997-98
p1044
sg26
g27
sg28
(lp1045
VChris Childs
p1046
assbag1
(g2
g3
Ntp1047
Rp1048
(dp1049
g7
(dp1050
g9
V1997-98 Stadium Club Printing Plates #167A Chris Childs Cyan
p1051
sg11
I1
sg12
VStadium Club Printing Plates
p1052
sg14
(lp1053
Vhttp://www.beckett.com/basketball/1997-98/stadium-club-printing-plates/167a-chris-childs-cyan-3139210
p1054
asg17
g18
sg19
(lp1055
Vhttp://img.beckett.com/images/no-image.jpg
p1056
asg22
V#167A
p1057
sg24
V1997-98
p1058
sg26
g27
sg28
(lp1059
g1046
assbag1
(g2
g3
Ntp1060
Rp1061
(dp1062
g7
(dp1063
g9
V1997-98 Stadium Club Printing Plates #167B Chris Childs Magenta
p1064
sg11
I1
sg12
VStadium Club Printing Plates
p1065
sg14
(lp1066
Vhttp://www.beckett.com/basketball/1997-98/stadium-club-printing-plates/167b-chris-childs-magenta-3139211
p1067
asg17
g18
sg19
(lp1068
Vhttp://img.beckett.com/images/no-image.jpg
p1069
asg22
V#167B
p1070
sg24
V1997-98
p1071
sg26
g27
sg28
(lp1072
g1046
assbag1
(g2
g3
Ntp1073
Rp1074
(dp1075
g7
(dp1076
g9
V1997-98 Stadium Club Printing Plates #167C Chris Childs Yellow
p1077
sg11
I1
sg12
VStadium Club Printing Plates
p1078
sg14
(lp1079
Vhttp://www.beckett.com/basketball/1997-98/stadium-club-printing-plates/167c-chris-childs-yellow-3139212
p1080
asg17
g18
sg19
(lp1081
Vhttp://img.beckett.com/images/no-image.jpg
p1082
asg22
V#167C
p1083
sg24
V1997-98
p1084
sg26
g27
sg28
(lp1085
g1046
assbag1
(g2
g3
Ntp1086
Rp1087
(dp1088
g7
(dp1089
g9
V1997-98 Ultra Masterpieces #41 Larry Johnson
p1090
sg11
I1
sg12
VUltra Masterpieces
p1091
sg14
(lp1092
Vhttp://www.beckett.com/basketball/1997-98/ultra-masterpieces/41-larry-johnson-3135771
p1093
asg17
g18
sg19
(lp1094
Vhttp://img.beckett.com/images/no-image.jpg
p1095
asg22
V#41
p1096
sg24
V1997-98
p1097
sg26
g27
sg28
(lp1098
VLarry Johnson
p1099
assbag1
(g2
g3
Ntp1100
Rp1101
(dp1102
g7
(dp1103
g9
V1997-98 Ultra Masterpieces #62 Chris Childs
p1104
sg11
I1
sg12
VUltra Masterpieces
p1105
sg14
(lp1106
Vhttp://www.beckett.com/basketball/1997-98/ultra-masterpieces/62-chris-childs-3135792
p1107
asg17
g18
sg19
(lp1108
Vhttp://img.beckett.com/images/no-image.jpg
p1109
asg22
V#62
p1110
sg24
V1997-98
p1111
sg26
g27
sg28
(lp1112
VChris Childs
p1113
assbag1
(g2
g3
Ntp1114
Rp1115
(dp1116
g7
(dp1117
g9
V1997-98 Ultra Masterpieces #63 Patrick Ewing
p1118
sg11
I1
sg12
VUltra Masterpieces
p1119
sg14
(lp1120
Vhttp://www.beckett.com/basketball/1997-98/ultra-masterpieces/63-patrick-ewing-3135793
p1121
asg17
g18
sg19
(lp1122
Vhttp://img.beckett.com/images/no-image.jpg
p1123
asg22
V#63
p1124
sg24
V1997-98
p1125
sg26
g27
sg28
(lp1126
VPatrick Ewing
p1127
assbag1
(g2
g3
Ntp1128
Rp1129
(dp1130
g7
(dp1131
g9
V1997-98 Ultra Masterpieces #64 Allan Houston
p1132
sg11
I1
sg12
VUltra Masterpieces
p1133
sg14
(lp1134
Vhttp://www.beckett.com/basketball/1997-98/ultra-masterpieces/64-allan-houston-3135794
p1135
asg17
g18
sg19
(lp1136
Vhttp://img.beckett.com/images/no-image.jpg
p1137
asg22
V#64
p1138
sg24
V1997-98
p1139
sg26
g27
sg28
(lp1140
VAllan Houston
p1141
assbag1
(g2
g3
Ntp1142
Rp1143
(dp1144
g7
(dp1145
g9
V1997-98 Ultra Masterpieces #96 John Starks
p1146
sg11
I1
sg12
VUltra Masterpieces
p1147
sg14
(lp1148
Vhttp://www.beckett.com/basketball/1997-98/ultra-masterpieces/96-john-starks-3135826
p1149
asg17
g18
sg19
(lp1150
Vhttp://img.beckett.com/images/no-image.jpg
p1151
asg22
V#96
p1152
sg24
V1997-98
p1153
sg26
g27
sg28
(lp1154
VJohn Starks
p1155
assbag1
(g2
g3
Ntp1156
Rp1157
(dp1158
g7
(dp1159
g9
V1997-98 Ultra Masterpieces #182 Chris Dudley
p1160
sg11
I1
sg12
VUltra Masterpieces
p1161
sg14
(lp1162
Vhttp://www.beckett.com/basketball/1997-98/ultra-masterpieces/182-chris-dudley-3135910
p1163
asg17
g18
sg19
(lp1164
Vhttp://img.beckett.com/images/no-image.jpg
p1165
asg22
V#182
p1166
sg24
V1997-98
p1167
sg26
g27
sg28
(lp1168
VChris Dudley
p1169
assbag1
(g2
g3
Ntp1170
Rp1171
(dp1172
g7
(dp1173
g9
V1997-98 Ultra Masterpieces #237 Charlie Ward
p1174
sg11
I1
sg12
VUltra Masterpieces
p1175
sg14
(lp1176
Vhttp://www.beckett.com/basketball/1997-98/ultra-masterpieces/237-charlie-ward-3135965
p1177
asg17
g18
sg19
(lp1178
Vhttp://img.beckett.com/images/no-image.jpg
p1179
asg22
V#237
p1180
sg24
V1997-98
p1181
sg26
g27
sg28
(lp1182
VCharlie Ward
p1183
assbag1
(g2
g3
Ntp1184
Rp1185
(dp1186
g7
(dp1187
g9
V1997-98 Ultra Platinum Medallion #41 Larry Johnson
p1188
sg11
I100
sg12
VUltra Platinum Medallion
p1189
sg14
(lp1190
Vhttp://www.beckett.com/basketball/1997-98/ultra-platinum-medallion/41-larry-johnson-3136055
p1191
asg17
g18
sg19
(lp1192
Vhttp://img.beckett.com/images/no-image.jpg
p1193
asg22
V#41
p1194
sg24
V1997-98
p1195
sg26
g27
sg28
(lp1196
VLarry Johnson
p1197
assbag1
(g2
g3
Ntp1198
Rp1199
(dp1200
g7
(dp1201
g9
V1997-98 Ultra Platinum Medallion #62 Chris Childs
p1202
sg11
I100
sg12
VUltra Platinum Medallion
p1203
sg14
(lp1204
Vhttp://www.beckett.com/basketball/1997-98/ultra-platinum-medallion/62-chris-childs-3136076
p1205
asg17
g18
sg19
(lp1206
Vhttp://img.beckett.com/images/no-image.jpg
p1207
asg22
V#62
p1208
sg24
V1997-98
p1209
sg26
g27
sg28
(lp1210
VChris Childs
p1211
assbag1
(g2
g3
Ntp1212
Rp1213
(dp1214
g7
(dp1215
g9
V1997-98 Ultra Platinum Medallion #63 Patrick Ewing
p1216
sg11
I100
sg12
VUltra Platinum Medallion
p1217
sg14
(lp1218
Vhttp://www.beckett.com/basketball/1997-98/ultra-platinum-medallion/63-patrick-ewing-3136077
p1219
asg17
g18
sg19
(lp1220
Vhttp://img.beckett.com/images/no-image.jpg
p1221
asg22
V#63
p1222
sg24
V1997-98
p1223
sg26
g27
sg28
(lp1224
VPatrick Ewing
p1225
assbag1
(g2
g3
Ntp1226
Rp1227
(dp1228
g7
(dp1229
g9
V1997-98 Ultra Platinum Medallion #64 Allan Houston
p1230
sg11
I100
sg12
VUltra Platinum Medallion
p1231
sg14
(lp1232
Vhttp://www.beckett.com/basketball/1997-98/ultra-platinum-medallion/64-allan-houston-3136078
p1233
asg17
g18
sg19
(lp1234
Vhttp://img.beckett.com/images/no-image.jpg
p1235
asg22
V#64
p1236
sg24
V1997-98
p1237
sg26
g27
sg28
(lp1238
VAllan Houston
p1239
assbag1
(g2
g3
Ntp1240
Rp1241
(dp1242
g7
(dp1243
g9
V1997-98 Ultra Platinum Medallion #96 John Starks
p1244
sg11
I100
sg12
VUltra Platinum Medallion
p1245
sg14
(lp1246
Vhttp://www.beckett.com/basketball/1997-98/ultra-platinum-medallion/96-john-starks-3136110
p1247
asg17
g18
sg19
(lp1248
Vhttp://img.beckett.com/images/no-image.jpg
p1249
asg22
V#96
p1250
sg24
V1997-98
p1251
sg26
g27
sg28
(lp1252
VJohn Starks
p1253
assbag1
(g2
g3
Ntp1254
Rp1255
(dp1256
g7
(dp1257
g9
V1997-98 Ultra Platinum Medallion #182 Chris Dudley
p1258
sg11
I100
sg12
VUltra Platinum Medallion
p1259
sg14
(lp1260
Vhttp://www.beckett.com/basketball/1997-98/ultra-platinum-medallion/182-chris-dudley-3136194
p1261
asg17
g18
sg19
(lp1262
Vhttp://img.beckett.com/images/no-image.jpg
p1263
asg22
V#182
p1264
sg24
V1997-98
p1265
sg26
g27
sg28
(lp1266
VChris Dudley
p1267
assbag1
(g2
g3
Ntp1268
Rp1269
(dp1270
g7
(dp1271
g9
V1997-98 Ultra Platinum Medallion #237 Charlie Ward
p1272
sg11
I100
sg12
VUltra Platinum Medallion
p1273
sg14
(lp1274
Vhttp://www.beckett.com/basketball/1997-98/ultra-platinum-medallion/237-charlie-ward-3136249
p1275
asg17
g18
sg19
(lp1276
Vhttp://img.beckett.com/images/no-image.jpg
p1277
asg22
V#237
p1278
sg24
V1997-98
p1279
sg26
g27
sg28
(lp1280
VCharlie Ward
p1281
assbag1
(g2
g3
Ntp1282
Rp1283
(dp1284
g7
(dp1285
g9
V1997-98 Z-Force Rave #26 Patrick Ewing
p1286
sg11
I399
sg12
VZ-Force Rave
p1287
sg14
(lp1288
Vhttp://www.beckett.com/basketball/1997-98/z-force-rave/26-patrick-ewing-3133050
p1289
asg17
g18
sg19
(lp1290
Vhttp://img.beckett.com/images/no-image.jpg
p1291
asg22
V#26
p1292
sg24
V1997-98
p1293
sg26
g27
sg28
(lp1294
VPatrick Ewing
p1295
assbag1
(g2
g3
Ntp1296
Rp1297
(dp1298
g7
(dp1299
g9
V1997-98 Z-Force Rave #81 Chris Childs
p1300
sg11
I399
sg12
VZ-Force Rave
p1301
sg14
(lp1302
Vhttp://www.beckett.com/basketball/1997-98/z-force-rave/81-chris-childs-3133105
p1303
asg17
g18
sg19
(lp1304
Vhttp://img.beckett.com/images/items_stock/185226/3133012/3133105/front.jpg
p1305
asg22
V#81
p1306
sg24
V1997-98
p1307
sg26
g27
sg28
(lp1308
VChris Childs
p1309
assbag1
(g2
g3
Ntp1310
Rp1311
(dp1312
g7
(dp1313
g9
V1997-98 Z-Force Rave #98 Allan Houston
p1314
sg11
I399
sg12
VZ-Force Rave
p1315
sg14
(lp1316
Vhttp://www.beckett.com/basketball/1997-98/z-force-rave/98-allan-houston-3133122
p1317
asg17
g18
sg19
(lp1318
Vhttp://img.beckett.com/images/no-image.jpg
p1319
asg22
V#98
p1320
sg24
V1997-98
p1321
sg26
g27
sg28
(lp1322
VAllan Houston
p1323
assbag1
(g2
g3
Ntp1324
Rp1325
(dp1326
g7
(dp1327
g9
V1997-98 Z-Force Rave #162 Larry Johnson
p1328
sg11
I399
sg12
VZ-Force Rave
p1329
sg14
(lp1330
Vhttp://www.beckett.com/basketball/1997-98/z-force-rave/162-larry-johnson-3133184
p1331
asg17
g18
sg19
(lp1332
Vhttp://img.beckett.com/images/no-image.jpg
p1333
asg22
V#162
p1334
sg24
V1997-98
p1335
sg26
g27
sg28
(lp1336
VLarry Johnson
p1337
assbag1
(g2
g3
Ntp1338
Rp1339
(dp1340
g7
(dp1341
g9
V1997-98 Z-Force Rave #178 John Starks
p1342
sg11
I399
sg12
VZ-Force Rave
p1343
sg14
(lp1344
Vhttp://www.beckett.com/basketball/1997-98/z-force-rave/178-john-starks-3133201
p1345
asg17
g18
sg19
(lp1346
Vhttp://img.beckett.com/images/no-image.jpg
p1347
asg22
V#178
p1348
sg24
V1997-98
p1349
sg26
g27
sg28
(lp1350
VJohn Starks
p1351
assbag1
(g2
g3
Ntp1352
Rp1353
(dp1354
g7
(dp1355
g9
V1997-98 Z-Force Super Rave #162 Larry Johnson
p1356
sg11
I50
sg12
VZ-Force Super Rave
p1357
sg14
(lp1358
Vhttp://www.beckett.com/basketball/1997-98/z-force-super-rave/162-larry-johnson-3133296
p1359
asg17
g18
sg19
(lp1360
Vhttp://img.beckett.com/images/no-image.jpg
p1361
asg22
V#162
p1362
sg24
V1997-98
p1363
sg26
g27
sg28
(lp1364
VLarry Johnson
p1365
assbag1
(g2
g3
Ntp1366
Rp1367
(dp1368
g7
(dp1369
g9
V1997-98 Z-Force Super Rave #178 John Starks
p1370
sg11
I50
sg12
VZ-Force Super Rave
p1371
sg14
(lp1372
Vhttp://www.beckett.com/basketball/1997-98/z-force-super-rave/178-john-starks-3133313
p1373
asg17
g18
sg19
(lp1374
Vhttp://img.beckett.com/images/no-image.jpg
p1375
asg22
V#178
p1376
sg24
V1997-98
p1377
sg26
g27
sg28
(lp1378
VJohn Starks
p1379
assbag1
(g2
g3
Ntp1380
Rp1381
(dp1382
g7
(dp1383
g9
V1997-98 Upper Deck Great Eight #G4 Patrick Ewing
p1384
sg11
I800
sg12
VUpper Deck Great Eight
p1385
sg14
(lp1386
Vhttp://www.beckett.com/basketball/1997-98/upper-deck-great-eight/g4-patrick-ewing-3132410
p1387
asg17
g18
sg19
(lp1388
Vhttp://img.beckett.com/images/no-image.jpg
p1389
asg22
V#G4
p1390
sg24
V1997-98
p1391
sg26
g27
sg28
(lp1392
VPatrick Ewing
p1393
assbag1
(g2
g3
Ntp1394
Rp1395
(dp1396
g7
(dp1397
g9
V1997-98 Upper Deck High Dimensions #D15 Larry Johnson
p1398
sg11
I2000
sg12
VUpper Deck High Dimensions
p1399
sg14
(lp1400
Vhttp://www.beckett.com/basketball/1997-98/upper-deck-high-dimensions/d15-larry-johnson-3132437
p1401
asg17
g18
sg19
(lp1402
Vhttp://img.beckett.com/images/no-image.jpg
p1403
asg22
V#D15
p1404
sg24
V1997-98
p1405
sg26
g27
sg28
(lp1406
VLarry Johnson
p1407
assbag1
(g2
g3
Ntp1408
Rp1409
(dp1410
g7
(dp1411
g9
V1997-98 Metal Universe Precious Metal Gems Emerald #26 Patrick Ewing
p1412
sg11
I10
sg12
VMetal Universe Precious Metal Gems Emerald
p1413
sg14
(lp1414
Vhttp://www.beckett.com/basketball/1997-98/metal-universe-precious-metal-gems-emerald/26-patrick-ewing-7055475
p1415
asg17
g18
sg19
(lp1416
Vhttp://img.beckett.com/images/no-image.jpg
p1417
asg22
V#26
p1418
sg24
V1997-98
p1419
sg26
g27
sg28
(lp1420
VPatrick Ewing
p1421
assbag1
(g2
g3
Ntp1422
Rp1423
(dp1424
g7
(dp1425
g9
V1997-98 Metal Universe Precious Metal Gems Emerald #27 Allan Houston
p1426
sg11
I10
sg12
VMetal Universe Precious Metal Gems Emerald
p1427
sg14
(lp1428
Vhttp://www.beckett.com/basketball/1997-98/metal-universe-precious-metal-gems-emerald/27-allan-houston-7055476
p1429
asg17
g18
sg19
(lp1430
Vhttp://img.beckett.com/images/no-image.jpg
p1431
asg22
V#27
p1432
sg24
V1997-98
p1433
sg26
g27
sg28
(lp1434
VAllan Houston
p1435
assbag1
(g2
g3
Ntp1436
Rp1437
(dp1438
g7
(dp1439
g9
V1997-98 Metal Universe Precious Metal Gems Emerald #82 Chris Childs
p1440
sg11
I10
sg12
VMetal Universe Precious Metal Gems Emerald
p1441
sg14
(lp1442
Vhttp://www.beckett.com/basketball/1997-98/metal-universe-precious-metal-gems-emerald/82-chris-childs-7055531
p1443
asg17
g18
sg19
(lp1444
Vhttp://img.beckett.com/images/no-image.jpg
p1445
asg22
V#82
p1446
sg24
V1997-98
p1447
sg26
g27
sg28
(lp1448
VChris Childs
p1449
assbag1
(g2
g3
Ntp1450
Rp1451
(dp1452
g7
(dp1453
g9
V1997-98 Metal Universe Precious Metal Gems Emerald #88 Larry Johnson
p1454
sg11
I10
sg12
VMetal Universe Precious Metal Gems Emerald
p1455
sg14
(lp1456
Vhttp://www.beckett.com/basketball/1997-98/metal-universe-precious-metal-gems-emerald/88-larry-johnson-7055537
p1457
asg17
g18
sg19
(lp1458
Vhttp://img.beckett.com/images/no-image.jpg
p1459
asg22
V#88
p1460
sg24
V1997-98
p1461
sg26
g27
sg28
(lp1462
VLarry Johnson
p1463
assbag1
(g2
g3
Ntp1464
Rp1465
(dp1466
g7
(dp1467
g9
V1997-98 Metal Universe Precious Metal Gems Emerald #118 John Starks
p1468
sg11
I10
sg12
VMetal Universe Precious Metal Gems Emerald
p1469
sg14
(lp1470
Vhttp://www.beckett.com/basketball/1997-98/metal-universe-precious-metal-gems-emerald/118-john-starks-7055567
p1471
asg17
g18
sg19
(lp1472
Vhttp://img.beckett.com/images/no-image.jpg
p1473
asg22
V#118
p1474
sg24
V1997-98
p1475
sg26
g27
sg28
(lp1476
VJohn Starks
p1477
assbag1
(g2
g3
Ntp1478
Rp1479
(dp1480
g7
(dp1481
g9
V1997-98 SP Authentic Profiles 3 #P33 Patrick Ewing
p1482
sg11
I100
sg12
VSP Authentic Profiles 3
p1483
sg14
(lp1484
Vhttp://www.beckett.com/basketball/1997-98/sp-authentic-profiles-3/p33-patrick-ewing-3140314
p1485
asg17
g18
sg19
(lp1486
Vhttp://img.beckett.com/images/no-image.jpg
p1487
asg22
V#P33
p1488
sg24
V1997-98
p1489
sg26
g27
sg28
(lp1490
VPatrick Ewing
p1491
assbag1
(g2
g3
Ntp1492
Rp1493
(dp1494
g7
(dp1495
g9
V1997-98 Upper Deck Diamond Dimensions #D15 Larry Johnson
p1496
sg11
I100
sg12
VUpper Deck Diamond Dimensions
p1497
sg14
(lp1498
Vhttp://www.beckett.com/basketball/1997-98/upper-deck-diamond-dimensions/d15-larry-johnson-3132475
p1499
asg17
g18
sg19
(lp1500
Vhttp://img.beckett.com/images/no-image.jpg
p1501
asg22
V#D15
p1502
sg24
V1997-98
p1503
sg26
g27
sg28
(lp1504
VLarry Johnson
p1505
assba.