(lp0
Naccopy_reg
_reconstructor
p1
(ctutorial.items
BeckettItem
p2
c__builtin__
object
p3
Ntp4
Rp5
(dp6
S'_values'
p7
(dp8
S'originalItemDescription'
p9
V1997 Bleachers/Fleer Gold #3 Patrick Ewing 1986-87
p10
sS'serialNumber'
p11
I10000
sS'setName'
p12
VBleachers/Fleer Gold
p13
sS'beckettLink'
p14
(lp15
Vhttp://www.beckett.com/basketball/1997/bleachersfleer-gold/3-patrick-ewing-1986-87-3129459
p16
asS'team'
p17
S'New York Knicks'
p18
sS'imageLink'
p19
(lp20
Vhttp://img.beckett.com/images/no-image.jpg
p21
asS'cardNumber'
p22
V#3
p23
sS'year'
p24
V1997
p25
sS'sport'
p26
S'Basketball'
p27
sS'playerNames'
p28
(lp29
VPatrick Ewing
p30
assbag1
(g2
g3
Ntp31
Rp32
(dp33
g7
(dp34
g9
V1997-98 E-X2001 Essential Credentials Future #21 Patrick Ewing/60
p35
sg11
I60
sg12
VE-X2001 Essential Credentials Future
p36
sg14
(lp37
Vhttp://www.beckett.com/basketball/1997-98/e-x2001-essential-credentials-future/21-patrick-ewing60-3144607
p38
asg17
g18
sg19
(lp39
Vhttp://img.beckett.com/images/no-image.jpg
p40
asg22
V#21
p41
sg24
V1997-98
p42
sg26
g27
sg28
(lp43
VPatrick Ewing
p44
assbag1
(g2
g3
Ntp45
Rp46
(dp47
g7
(dp48
g9
V1997-98 E-X2001 Essential Credentials Future #26 John Starks/55
p49
sg11
I55
sg12
VE-X2001 Essential Credentials Future
p50
sg14
(lp51
Vhttp://www.beckett.com/basketball/1997-98/e-x2001-essential-credentials-future/26-john-starks55-3144612
p52
asg17
g18
sg19
(lp53
Vhttp://img.beckett.com/images/no-image.jpg
p54
asg22
V#26
p55
sg24
V1997-98
p56
sg26
g27
sg28
(lp57
VJohn Starks
p58
assbag1
(g2
g3
Ntp59
Rp60
(dp61
g7
(dp62
g9
V1997-98 E-X2001 Essential Credentials Future #48 Larry Johnson/33
p63
sg11
I33
sg12
VE-X2001 Essential Credentials Future
p64
sg14
(lp65
Vhttp://www.beckett.com/basketball/1997-98/e-x2001-essential-credentials-future/48-larry-johnson33-3144634
p66
asg17
g18
sg19
(lp67
Vhttp://img.beckett.com/images/no-image.jpg
p68
asg22
V#48
p69
sg24
V1997-98
p70
sg26
g27
sg28
(lp71
VLarry Johnson
p72
assbag1
(g2
g3
Ntp73
Rp74
(dp75
g7
(dp76
g9
V1997-98 E-X2001 Essential Credentials Now #21 Patrick Ewing/21
p77
sg11
I21
sg12
VE-X2001 Essential Credentials Now
p78
sg14
(lp79
Vhttp://www.beckett.com/basketball/1997-98/e-x2001-essential-credentials-now/21-patrick-ewing21-3144694
p80
asg17
g18
sg19
(lp81
Vhttp://img.beckett.com/images/no-image.jpg
p82
asg22
V#21
p83
sg24
V1997-98
p84
sg26
g27
sg28
(lp85
VPatrick Ewing
p86
assbag1
(g2
g3
Ntp87
Rp88
(dp89
g7
(dp90
g9
V1997-98 E-X2001 Essential Credentials Now #26 John Starks/26
p91
sg11
I26
sg12
VE-X2001 Essential Credentials Now
p92
sg14
(lp93
Vhttp://www.beckett.com/basketball/1997-98/e-x2001-essential-credentials-now/26-john-starks26-3144699
p94
asg17
g18
sg19
(lp95
Vhttp://img.beckett.com/images/no-image.jpg
p96
asg22
V#26
p97
sg24
V1997-98
p98
sg26
g27
sg28
(lp99
VJohn Starks
p100
assbag1
(g2
g3
Ntp101
Rp102
(dp103
g7
(dp104
g9
V1997-98 E-X2001 Essential Credentials Now #48 Larry Johnson/48
p105
sg11
I48
sg12
VE-X2001 Essential Credentials Now
p106
sg14
(lp107
Vhttp://www.beckett.com/basketball/1997-98/e-x2001-essential-credentials-now/48-larry-johnson48-3144721
p108
asg17
g18
sg19
(lp109
Vhttp://img.beckett.com/images/no-image.jpg
p110
asg22
V#48
p111
sg24
V1997-98
p112
sg26
g27
sg28
(lp113
VLarry Johnson
p114
assbag1
(g2
g3
Ntp115
Rp116
(dp117
g7
(dp118
g9
V1997-98 Finest Embossed Refractors #124 Patrick Ewing S
p119
sg11
I263
sg12
VFinest Embossed Refractors
p120
sg14
(lp121
Vhttp://www.beckett.com/basketball/1997-98/finest-embossed-refractors/124-patrick-ewing-s-3145332
p122
asg17
g18
sg19
(lp123
Vhttp://img.beckett.com/images/no-image.jpg
p124
asg22
V#124
p125
sg24
V1997-98
p126
sS'subsetName'
p127
VS
p128
sg26
g27
sg28
(lp129
VPatrick Ewing
p130
assbag1
(g2
g3
Ntp131
Rp132
(dp133
g7
(dp134
g9
V1997-98 Finest Embossed Refractors #139 Larry Johnson S
p135
sg11
I263
sg12
VFinest Embossed Refractors
p136
sg14
(lp137
Vhttp://www.beckett.com/basketball/1997-98/finest-embossed-refractors/139-larry-johnson-s-3145347
p138
asg17
g18
sg19
(lp139
Vhttp://img.beckett.com/images/no-image.jpg
p140
asg22
V#139
p141
sg24
V1997-98
p142
sg127
g128
sg26
g27
sg28
(lp143
VLarry Johnson
p144
assbag1
(g2
g3
Ntp145
Rp146
(dp147
g7
(dp148
g9
V1997-98 Finest Embossed Refractors #315 Patrick Ewing G
p149
sg11
I74
sg12
VFinest Embossed Refractors
p150
sg14
(lp151
Vhttp://www.beckett.com/basketball/1997-98/finest-embossed-refractors/315-patrick-ewing-g-3145423
p152
asg17
g18
sg19
(lp153
Vhttp://img.beckett.com/images/no-image.jpg
p154
asg22
V#315
p155
sg24
V1997-98
p156
sg127
VG
p157
sg26
g27
sg28
(lp158
VPatrick Ewing
p159
assbag1
(g2
g3
Ntp160
Rp161
(dp162
g7
(dp163
g9
V1997-98 Finest Refractors #124 Patrick Ewing S
p164
sg11
I1090
sg12
VFinest Refractors
p165
sg14
(lp166
Vhttp://www.beckett.com/basketball/1997-98/finest-refractors/124-patrick-ewing-s-3145590
p167
asg17
g18
sg19
(lp168
Vhttp://img.beckett.com/images/items_stock/185226/3145435/3145590/front.jpg
p169
asg22
V#124
p170
sg24
V1997-98
p171
sg127
g128
sg26
g27
sg28
(lp172
VPatrick Ewing
p173
assbag1
(g2
g3
Ntp174
Rp175
(dp176
g7
(dp177
g9
V1997-98 Finest Refractors #139 Larry Johnson S
p178
sg11
I1090
sg12
VFinest Refractors
p179
sg14
(lp180
Vhttp://www.beckett.com/basketball/1997-98/finest-refractors/139-larry-johnson-s-3145605
p181
asg17
g18
sg19
(lp182
Vhttp://img.beckett.com/images/items_stock/185226/3145435/3145605/front.jpg
p183
asg22
V#139
p184
sg24
V1997-98
p185
sg127
g128
sg26
g27
sg28
(lp186
VLarry Johnson
p187
assbag1
(g2
g3
Ntp188
Rp189
(dp190
g7
(dp191
g9
V1997-98 Finest Refractors #315 Patrick Ewing G
p192
sg11
I289
sg12
VFinest Refractors
p193
sg14
(lp194
Vhttp://www.beckett.com/basketball/1997-98/finest-refractors/315-patrick-ewing-g-3145781
p195
asg17
g18
sg19
(lp196
Vhttp://img.beckett.com/images/items_stock/185226/3145435/3145781/front.jpg
p197
asg22
V#315
p198
sg24
V1997-98
p199
sg127
g157
sg26
g27
sg28
(lp200
VPatrick Ewing
p201
assbag1
(g2
g3
Ntp202
Rp203
(dp204
g7
(dp205
g9
V1997-98 Flair Showcase Row 0 #48 Patrick Ewing
p206
sg11
I1000
sg12
VFlair Showcase Row 0
p207
sg14
(lp208
Vhttp://www.beckett.com/basketball/1997-98/flair-showcase-row-0/48-patrick-ewing-3146146
p209
asg17
g18
sg19
(lp210
Vhttp://img.beckett.com/images/items_stock/185226/3146075/3146146/front.jpg
p211
asg22
V#48
p212
sg24
V1997-98
p213
sg26
g27
sg28
(lp214
VPatrick Ewing
p215
assbag1
(g2
g3
Ntp216
Rp217
(dp218
g7
(dp219
g9
V1997-98 Flair Showcase Row 0 #67 Allan Houston
p220
sg11
I2000
sg12
VFlair Showcase Row 0
p221
sg14
(lp222
Vhttp://www.beckett.com/basketball/1997-98/flair-showcase-row-0/67-allan-houston-3146165
p223
asg17
g18
sg19
(lp224
Vhttp://img.beckett.com/images/items_stock/185226/3146075/3146165/front.jpg
p225
asg22
V#67
p226
sg24
V1997-98
p227
sg26
g27
sg28
(lp228
VAllan Houston
p229
assbag1
(g2
g3
Ntp230
Rp231
(dp232
g7
(dp233
g9
V1997-98 Flair Showcase Row 0 #75 Larry Johnson
p234
sg11
I2000
sg12
VFlair Showcase Row 0
p235
sg14
(lp236
Vhttp://www.beckett.com/basketball/1997-98/flair-showcase-row-0/75-larry-johnson-3146173
p237
asg17
g18
sg19
(lp238
Vhttp://img.beckett.com/images/items_stock/185226/3146075/3146173/front.jpg
p239
asg22
V#75
p240
sg24
V1997-98
p241
sg26
g27
sg28
(lp242
VLarry Johnson
p243
assbag1
(g2
g3
Ntp244
Rp245
(dp246
g7
(dp247
g9
V1997-98 Flair Showcase Legacy Collection Row 3 #48 Patrick Ewing
p248
sg11
I100
sg12
VFlair Showcase Legacy Collection Row 3
p249
sg14
(lp250
Vhttp://www.beckett.com/basketball/1997-98/flair-showcase-legacy-collection-row-3/48-patrick-ewing-3148606
p251
asg17
g18
sg19
(lp252
Vhttp://img.beckett.com/images/no-image.jpg
p253
asg22
V#48
p254
sg24
V1997-98
p255
sg26
g27
sg28
(lp256
VPatrick Ewing
p257
assbag1
(g2
g3
Ntp258
Rp259
(dp260
g7
(dp261
g9
V1997-98 Flair Showcase Legacy Collection Row 3 #67 Allan Houston
p262
sg11
I100
sg12
VFlair Showcase Legacy Collection Row 3
p263
sg14
(lp264
Vhttp://www.beckett.com/basketball/1997-98/flair-showcase-legacy-collection-row-3/67-allan-houston-3148625
p265
asg17
g18
sg19
(lp266
Vhttp://img.beckett.com/images/no-image.jpg
p267
asg22
V#67
p268
sg24
V1997-98
p269
sg26
g27
sg28
(lp270
VAllan Houston
p271
assbag1
(g2
g3
Ntp272
Rp273
(dp274
g7
(dp275
g9
V1997-98 Flair Showcase Legacy Collection Row 3 #75 Larry Johnson
p276
sg11
I100
sg12
VFlair Showcase Legacy Collection Row 3
p277
sg14
(lp278
Vhttp://www.beckett.com/basketball/1997-98/flair-showcase-legacy-collection-row-3/75-larry-johnson-3148633
p279
asg17
g18
sg19
(lp280
Vhttp://img.beckett.com/images/no-image.jpg
p281
asg22
V#75
p282
sg24
V1997-98
p283
sg26
g27
sg28
(lp284
VLarry Johnson
p285
assbag1
(g2
g3
Ntp286
Rp287
(dp288
g7
(dp289
g9
V1997-98 Metal Universe Precious Metal Gems #26 Patrick Ewing
p290
sg11
I90
sg12
VMetal Universe Precious Metal Gems
p291
sg14
(lp292
Vhttp://www.beckett.com/basketball/1997-98/metal-universe-precious-metal-gems/26-patrick-ewing-3142618
p293
asg17
g18
sg19
(lp294
Vhttp://img.beckett.com/images/no-image.jpg
p295
asg22
V#26
p296
sg24
V1997-98
p297
sg26
g27
sg28
(lp298
VPatrick Ewing
p299
assbag1
(g2
g3
Ntp300
Rp301
(dp302
g7
(dp303
g9
V1997-98 Metal Universe Precious Metal Gems #27 Allan Houston
p304
sg11
I90
sg12
VMetal Universe Precious Metal Gems
p305
sg14
(lp306
Vhttp://www.beckett.com/basketball/1997-98/metal-universe-precious-metal-gems/27-allan-houston-3142619
p307
asg17
g18
sg19
(lp308
Vhttp://img.beckett.com/images/no-image.jpg
p309
asg22
V#27
p310
sg24
V1997-98
p311
sg26
g27
sg28
(lp312
VAllan Houston
p313
assbag1
(g2
g3
Ntp314
Rp315
(dp316
g7
(dp317
g9
V1997-98 Metal Universe Precious Metal Gems #82 Chris Childs
p318
sg11
I90
sg12
VMetal Universe Precious Metal Gems
p319
sg14
(lp320
Vhttp://www.beckett.com/basketball/1997-98/metal-universe-precious-metal-gems/82-chris-childs-3142674
p321
asg17
g18
sg19
(lp322
Vhttp://img.beckett.com/images/no-image.jpg
p323
asg22
V#82
p324
sg24
V1997-98
p325
sg26
g27
sg28
(lp326
VChris Childs
p327
assbag1
(g2
g3
Ntp328
Rp329
(dp330
g7
(dp331
g9
V1997-98 Metal Universe Precious Metal Gems #88 Larry Johnson
p332
sg11
I90
sg12
VMetal Universe Precious Metal Gems
p333
sg14
(lp334
Vhttp://www.beckett.com/basketball/1997-98/metal-universe-precious-metal-gems/88-larry-johnson-3142680
p335
asg17
g18
sg19
(lp336
Vhttp://img.beckett.com/images/no-image.jpg
p337
asg22
V#88
p338
sg24
V1997-98
p339
sg26
g27
sg28
(lp340
VLarry Johnson
p341
assbag1
(g2
g3
Ntp342
Rp343
(dp344
g7
(dp345
g9
V1997-98 Metal Universe Precious Metal Gems #118 John Starks
p346
sg11
I90
sg12
VMetal Universe Precious Metal Gems
p347
sg14
(lp348
Vhttp://www.beckett.com/basketball/1997-98/metal-universe-precious-metal-gems/118-john-starks-3142710
p349
asg17
g18
sg19
(lp350
Vhttp://img.beckett.com/images/no-image.jpg
p351
asg22
V#118
p352
sg24
V1997-98
p353
sg26
g27
sg28
(lp354
VJohn Starks
p355
assbag1
(g2
g3
Ntp356
Rp357
(dp358
g7
(dp359
g9
V1997-98 Metal Universe Championship Precious Metal Gems #91 Patrick Ewing
p360
sg11
I50
sg12
VMetal Universe Championship Precious Metal Gems
p361
sg14
(lp362
Vhttp://www.beckett.com/basketball/1997-98/metal-universe-championship-precious-metal-gems/91-patrick-ewing-3140766
p363
asg17
g18
sg19
(lp364
Vhttp://img.beckett.com/images/no-image.jpg
p365
asg22
V#91
p366
sg24
V1997-98
p367
sg26
g27
sg28
(lp368
VPatrick Ewing
p369
assbag1
(g2
g3
Ntp370
Rp371
(dp372
g7
(dp373
g9
V1997-98 Metal Universe Championship Precious Metal Gems #98 Larry Johnson
p374
sg11
I50
sg12
VMetal Universe Championship Precious Metal Gems
p375
sg14
(lp376
Vhttp://www.beckett.com/basketball/1997-98/metal-universe-championship-precious-metal-gems/98-larry-johnson-3140773
p377
asg17
g18
sg19
(lp378
Vhttp://img.beckett.com/images/no-image.jpg
p379
asg22
V#98
p380
sg24
V1997-98
p381
sg26
g27
sg28
(lp382
VLarry Johnson
p383
assbag1
(g2
g3
Ntp384
Rp385
(dp386
g7
(dp387
g9
V1997-98 SkyBox Premium Star Rubies #37 Patrick Ewing
p388
sg11
I50
sg12
VSkyBox Premium Star Rubies
p389
sg14
(lp390
Vhttp://www.beckett.com/basketball/1997-98/skybox-premium-star-rubies/37-patrick-ewing-3141208
p391
asg17
g18
sg19
(lp392
Vhttp://img.beckett.com/images/no-image.jpg
p393
asg22
V#37
p394
sg24
V1997-98
p395
sg26
g27
sg28
(lp396
VPatrick Ewing
p397
assbag1
(g2
g3
Ntp398
Rp399
(dp400
g7
(dp401
g9
V1997-98 SkyBox Premium Star Rubies #51 Larry Johnson
p402
sg11
I50
sg12
VSkyBox Premium Star Rubies
p403
sg14
(lp404
Vhttp://www.beckett.com/basketball/1997-98/skybox-premium-star-rubies/51-larry-johnson-3141222
p405
asg17
g18
sg19
(lp406
Vhttp://img.beckett.com/images/no-image.jpg
p407
asg22
V#51
p408
sg24
V1997-98
p409
sg26
g27
sg28
(lp410
VLarry Johnson
p411
assbag1
(g2
g3
Ntp412
Rp413
(dp414
g7
(dp415
g9
V1997-98 SkyBox Premium Star Rubies #55 John Starks
p416
sg11
I50
sg12
VSkyBox Premium Star Rubies
p417
sg14
(lp418
Vhttp://www.beckett.com/basketball/1997-98/skybox-premium-star-rubies/55-john-starks-3141226
p419
asg17
g18
sg19
(lp420
Vhttp://img.beckett.com/images/no-image.jpg
p421
asg22
V#55
p422
sg24
V1997-98
p423
sg26
g27
sg28
(lp424
VJohn Starks
p425
assbag1
(g2
g3
Ntp426
Rp427
(dp428
g7
(dp429
g9
V1997-98 SkyBox Premium Star Rubies #65 Allan Houston
p430
sg11
I50
sg12
VSkyBox Premium Star Rubies
p431
sg14
(lp432
Vhttp://www.beckett.com/basketball/1997-98/skybox-premium-star-rubies/65-allan-houston-3141236
p433
asg17
g18
sg19
(lp434
Vhttp://img.beckett.com/images/no-image.jpg
p435
asg22
V#65
p436
sg24
V1997-98
p437
sg26
g27
sg28
(lp438
VAllan Houston
p439
assbag1
(g2
g3
Ntp440
Rp441
(dp442
g7
(dp443
g9
V1997-98 SkyBox Premium Star Rubies #93 Chris Childs
p444
sg11
I50
sg12
VSkyBox Premium Star Rubies
p445
sg14
(lp446
Vhttp://www.beckett.com/basketball/1997-98/skybox-premium-star-rubies/93-chris-childs-3141264
p447
asg17
g18
sg19
(lp448
Vhttp://img.beckett.com/images/no-image.jpg
p449
asg22
V#93
p450
sg24
V1997-98
p451
sg26
g27
sg28
(lp452
VChris Childs
p453
assbag1
(g2
g3
Ntp454
Rp455
(dp456
g7
(dp457
g9
V1997-98 SkyBox Premium Star Rubies #138 Buck Williams
p458
sg11
I50
sg12
VSkyBox Premium Star Rubies
p459
sg14
(lp460
Vhttp://www.beckett.com/basketball/1997-98/skybox-premium-star-rubies/138-buck-williams-3141307
p461
asg17
g18
sg19
(lp462
Vhttp://img.beckett.com/images/no-image.jpg
p463
asg22
V#138
p464
sg24
V1997-98
p465
sg26
g27
sg28
(lp466
VBuck Williams
p467
assbag1
(g2
g3
Ntp468
Rp469
(dp470
g7
(dp471
g9
V1997-98 SkyBox Premium Star Rubies #181 Chris Dudley
p472
sg11
I50
sg12
VSkyBox Premium Star Rubies
p473
sg14
(lp474
Vhttp://www.beckett.com/basketball/1997-98/skybox-premium-star-rubies/181-chris-dudley-3141350
p475
asg17
g18
sg19
(lp476
Vhttp://img.beckett.com/images/no-image.jpg
p477
asg22
V#181
p478
sg24
V1997-98
p479
sg26
g27
sg28
(lp480
VChris Dudley
p481
assbag1
(g2
g3
Ntp482
Rp483
(dp484
g7
(dp485
g9
V1997-98 SkyBox Premium Star Rubies #199 Charlie Ward
p486
sg11
I50
sg12
VSkyBox Premium Star Rubies
p487
sg14
(lp488
Vhttp://www.beckett.com/basketball/1997-98/skybox-premium-star-rubies/199-charlie-ward-3141368
p489
asg17
g18
sg19
(lp490
Vhttp://img.beckett.com/images/no-image.jpg
p491
asg22
V#199
p492
sg24
V1997-98
p493
sg26
g27
sg28
(lp494
VCharlie Ward
p495
assbag1
(g2
g3
Ntp496
Rp497
(dp498
g7
(dp499
g9
V1997-98 SkyBox Premium Autographics Century Marks #50 Allan Houston
p500
sg11
I100
sg12
VSkyBox Premium Autographics Century Marks
p501
sg14
(lp502
Vhttp://www.beckett.com/basketball/1997-98/skybox-premium-autographics-century-marks/50-allan-houston-3141632
p503
asg17
g18
sg19
(lp504
Vhttp://img.beckett.com/images/no-image.jpg
p505
asg22
V#50
p506
sS'autograph'
p507
I1
sg24
V1997-98
p508
sg26
g27
sg28
(lp509
VAllan Houston
p510
assbag1
(g2
g3
Ntp511
Rp512
(dp513
g7
(dp514
g9
V1997-98 SkyBox Premium Autographics Century Marks #58 Larry Johnson
p515
sg11
I100
sg12
VSkyBox Premium Autographics Century Marks
p516
sg14
(lp517
Vhttp://www.beckett.com/basketball/1997-98/skybox-premium-autographics-century-marks/58-larry-johnson-3141640
p518
asg17
g18
sg19
(lp519
Vhttp://img.beckett.com/images/no-image.jpg
p520
asg22
V#58
p521
sg507
I1
sg24
V1997-98
p522
sg26
g27
sg28
(lp523
VLarry Johnson
p524
assbag1
(g2
g3
Ntp525
Rp526
(dp527
g7
(dp528
g9
V1997-98 SkyBox Premium Autographics Century Marks #99 John Starks
p529
sg11
I100
sg12
VSkyBox Premium Autographics Century Marks
p530
sg14
(lp531
Vhttp://www.beckett.com/basketball/1997-98/skybox-premium-autographics-century-marks/99-john-starks-3141681
p532
asg17
g18
sg19
(lp533
Vhttp://img.beckett.com/images/no-image.jpg
p534
asg22
V#99
p535
sg507
I1
sg24
V1997-98
p536
sg26
g27
sg28
(lp537
VJohn Starks
p538
assbag1
(g2
g3
Ntp539
Rp540
(dp541
g7
(dp542
g9
V1997-98 SPx Grand Finale #28 Patrick Ewing
p543
sg11
I50
sg12
VSPx Grand Finale
p544
sg14
(lp545
Vhttp://www.beckett.com/basketball/1997-98/spx-grand-finale/28-patrick-ewing-3137712
p546
asg17
g18
sg19
(lp547
Vhttp://img.beckett.com/images/no-image.jpg
p548
asg22
V#28
p549
sg24
V1997-98
p550
sg26
g27
sg28
(lp551
VPatrick Ewing
p552
assbag1
(g2
g3
Ntp553
Rp554
(dp555
g7
(dp556
g9
V1997-98 Stadium Club One Of A Kind #8 Allan Houston
p557
sg11
I150
sg12
VStadium Club One Of A Kind
p558
sg14
(lp559
Vhttp://www.beckett.com/basketball/1997-98/stadium-club-one-of-a-kind/8-allan-houston-3138307
p560
asg17
g18
sg19
(lp561
Vhttp://img.beckett.com/images/no-image.jpg
p562
asg22
V#8
p563
sg24
V1997-98
p564
sg26
g27
sg28
(lp565
VAllan Houston
p566
assbag1
(g2
g3
Ntp567
Rp568
(dp569
g7
(dp570
g9
V1997-98 Stadium Club One Of A Kind #55 Charles Oakley
p571
sg11
I150
sg12
VStadium Club One Of A Kind
p572
sg14
(lp573
Vhttp://www.beckett.com/basketball/1997-98/stadium-club-one-of-a-kind/55-charles-oakley-3138354
p574
asg17
g18
sg19
(lp575
Vhttp://img.beckett.com/images/items_stock/185226/3138288/3138354/front.jpg
p576
asg22
V#55
p577
sg24
V1997-98
p578
sg26
g27
sg28
(lp579
VCharles Oakley
p580
assbag1
(g2
g3
Ntp581
Rp582
(dp583
g7
(dp584
g9
V1997-98 Stadium Club One Of A Kind #72 Charlie Ward
p585
sg11
I150
sg12
VStadium Club One Of A Kind
p586
sg14
(lp587
Vhttp://www.beckett.com/basketball/1997-98/stadium-club-one-of-a-kind/72-charlie-ward-3138371
p588
asg17
g18
sg19
(lp589
Vhttp://img.beckett.com/images/items_stock/185226/3138288/3138371/front.jpg
p590
asg22
V#72
p591
sg24
V1997-98
p592
sg26
g27
sg28
(lp593
VCharlie Ward
p594
assbag1
(g2
g3
Ntp595
Rp596
(dp597
g7
(dp598
g9
V1997-98 Stadium Club One Of A Kind #87 Patrick Ewing
p599
sg11
I150
sg12
VStadium Club One Of A Kind
p600
sg14
(lp601
Vhttp://www.beckett.com/basketball/1997-98/stadium-club-one-of-a-kind/87-patrick-ewing-3138386
p602
asg17
g18
sg19
(lp603
Vhttp://img.beckett.com/images/items_stock/185226/3138288/3138386/front.jpg
p604
asg22
V#87
p605
sg24
V1997-98
p606
sg26
g27
sg28
(lp607
VPatrick Ewing
p608
assbag1
(g2
g3
Ntp609
Rp610
(dp611
g7
(dp612
g9
V1997-98 Stadium Club One Of A Kind #127 Larry Johnson
p613
sg11
I150
sg12
VStadium Club One Of A Kind
p614
sg14
(lp615
Vhttp://www.beckett.com/basketball/1997-98/stadium-club-one-of-a-kind/127-larry-johnson-3138426
p616
asg17
g18
sg19
(lp617
Vhttp://img.beckett.com/images/items_stock/185226/3138288/3138426/front.jpg
p618
asg22
V#127
p619
sg24
V1997-98
p620
sg26
g27
sg28
(lp621
VLarry Johnson
p622
assbag1
(g2
g3
Ntp623
Rp624
(dp625
g7
(dp626
g9
V1997-98 Stadium Club One Of A Kind #140 John Starks
p627
sg11
I150
sg12
VStadium Club One Of A Kind
p628
sg14
(lp629
Vhttp://www.beckett.com/basketball/1997-98/stadium-club-one-of-a-kind/140-john-starks-3138439
p630
asg17
g18
sg19
(lp631
Vhttp://img.beckett.com/images/items_stock/185226/3138288/3138439/front.jpg
p632
asg22
V#140
p633
sg24
V1997-98
p634
sg26
g27
sg28
(lp635
VJohn Starks
p636
assbag1
(g2
g3
Ntp637
Rp638
(dp639
g7
(dp640
g9
V1997-98 Stadium Club One Of A Kind #144 Buck Williams
p641
sg11
I150
sg12
VStadium Club One Of A Kind
p642
sg14
(lp643
Vhttp://www.beckett.com/basketball/1997-98/stadium-club-one-of-a-kind/144-buck-williams-3138443
p644
asg17
g18
sg19
(lp645
Vhttp://img.beckett.com/images/items_stock/185226/3138288/3138443/front.jpg
p646
asg22
V#144
p647
sg24
V1997-98
p648
sg26
g27
sg28
(lp649
VBuck Williams
p650
assbag1
(g2
g3
Ntp651
Rp652
(dp653
g7
(dp654
g9
V1997-98 Stadium Club One Of A Kind #167 Chris Childs
p655
sg11
I150
sg12
VStadium Club One Of A Kind
p656
sg14
(lp657
Vhttp://www.beckett.com/basketball/1997-98/stadium-club-one-of-a-kind/167-chris-childs-3138466
p658
asg17
g18
sg19
(lp659
Vhttp://img.beckett.com/images/items_stock/185226/3138288/3138466/front.jpg
p660
asg22
V#167
p661
sg24
V1997-98
p662
sg26
g27
sg28
(lp663
VChris Childs
p664
assbag1
(g2
g3
Ntp665
Rp666
(dp667
g7
(dp668
g9
V1997-98 Stadium Club Printing Plates #8 Allan Houston Black
p669
sg11
I1
sg12
VStadium Club Printing Plates
p670
sg14
(lp671
Vhttp://www.beckett.com/basketball/1997-98/stadium-club-printing-plates/8-allan-houston-black-3138573
p672
asg17
g18
sg19
(lp673
Vhttp://img.beckett.com/images/no-image.jpg
p674
asg22
V#8
p675
sg24
V1997-98
p676
sg26
g27
sg28
(lp677
VAllan Houston Black
p678
assbag1
(g2
g3
Ntp679
Rp680
(dp681
g7
(dp682
g9
V1997-98 Stadium Club Printing Plates #8A Allan Houston Cyan
p683
sg11
I1
sg12
VStadium Club Printing Plates
p684
sg14
(lp685
Vhttp://www.beckett.com/basketball/1997-98/stadium-club-printing-plates/8a-allan-houston-cyan-3138574
p686
asg17
g18
sg19
(lp687
Vhttp://img.beckett.com/images/no-image.jpg
p688
asg22
V#8A
p689
sg24
V1997-98
p690
sg26
g27
sg28
(lp691
VAllan Houston Cyan
p692
assbag1
(g2
g3
Ntp693
Rp694
(dp695
g7
(dp696
g9
V1997-98 Stadium Club Printing Plates #8B Allan Houston Magenta
p697
sg11
I1
sg12
VStadium Club Printing Plates
p698
sg14
(lp699
Vhttp://www.beckett.com/basketball/1997-98/stadium-club-printing-plates/8b-allan-houston-magenta-3138575
p700
asg17
g18
sg19
(lp701
Vhttp://img.beckett.com/images/no-image.jpg
p702
asg22
V#8B
p703
sg24
V1997-98
p704
sg26
g27
sg28
(lp705
VAllan Houston Magenta
p706
assbag1
(g2
g3
Ntp707
Rp708
(dp709
g7
(dp710
g9
V1997-98 Stadium Club Printing Plates #8C Allan Houston Yellow
p711
sg11
I1
sg12
VStadium Club Printing Plates
p712
sg14
(lp713
Vhttp://www.beckett.com/basketball/1997-98/stadium-club-printing-plates/8c-allan-houston-yellow-3138576
p714
asg17
g18
sg19
(lp715
Vhttp://img.beckett.com/images/no-image.jpg
p716
asg22
V#8C
p717
sg24
V1997-98
p718
sg26
g27
sg28
(lp719
VAllan Houston Yellow
p720
assbag1
(g2
g3
Ntp721
Rp722
(dp723
g7
(dp724
g9
V1997-98 Stadium Club Printing Plates #55 Charles Oakley Black
p725
sg11
I1
sg12
VStadium Club Printing Plates
p726
sg14
(lp727
Vhttp://www.beckett.com/basketball/1997-98/stadium-club-printing-plates/55-charles-oakley-black-3138761
p728
asg17
g18
sg19
(lp729
Vhttp://img.beckett.com/images/no-image.jpg
p730
asg22
V#55
p731
sg24
V1997-98
p732
sg26
g27
sg28
(lp733
VCharles Oakley Black
p734
assbag1
(g2
g3
Ntp735
Rp736
(dp737
g7
(dp738
g9
V1997-98 Stadium Club Printing Plates #55A Charles Oakley Cyan
p739
sg11
I1
sg12
VStadium Club Printing Plates
p740
sg14
(lp741
Vhttp://www.beckett.com/basketball/1997-98/stadium-club-printing-plates/55a-charles-oakley-cyan-3138762
p742
asg17
g18
sg19
(lp743
Vhttp://img.beckett.com/images/no-image.jpg
p744
asg22
V#55A
p745
sg24
V1997-98
p746
sg26
g27
sg28
(lp747
VCharles Oakley Cyan
p748
assbag1
(g2
g3
Ntp749
Rp750
(dp751
g7
(dp752
g9
V1997-98 Stadium Club Printing Plates #55B Charles Oakley Magenta
p753
sg11
I1
sg12
VStadium Club Printing Plates
p754
sg14
(lp755
Vhttp://www.beckett.com/basketball/1997-98/stadium-club-printing-plates/55b-charles-oakley-magenta-3138763
p756
asg17
g18
sg19
(lp757
Vhttp://img.beckett.com/images/no-image.jpg
p758
asg22
V#55B
p759
sg24
V1997-98
p760
sg26
g27
sg28
(lp761
VCharles Oakley Magenta
p762
assbag1
(g2
g3
Ntp763
Rp764
(dp765
g7
(dp766
g9
V1997-98 Stadium Club Printing Plates #55C Charles Oakley Yellow
p767
sg11
I1
sg12
VStadium Club Printing Plates
p768
sg14
(lp769
Vhttp://www.beckett.com/basketball/1997-98/stadium-club-printing-plates/55c-charles-oakley-yellow-3138764
p770
asg17
g18
sg19
(lp771
Vhttp://img.beckett.com/images/no-image.jpg
p772
asg22
V#55C
p773
sg24
V1997-98
p774
sg26
g27
sg28
(lp775
VCharles Oakley Yellow
p776
assbag1
(g2
g3
Ntp777
Rp778
(dp779
g7
(dp780
g9
V1997-98 Stadium Club Printing Plates #72 Charlie Ward Black
p781
sg11
I1
sg12
VStadium Club Printing Plates
p782
sg14
(lp783
Vhttp://www.beckett.com/basketball/1997-98/stadium-club-printing-plates/72-charlie-ward-black-3138829
p784
asg17
g18
sg19
(lp785
Vhttp://img.beckett.com/images/no-image.jpg
p786
asg22
V#72
p787
sg24
V1997-98
p788
sg26
g27
sg28
(lp789
VCharlie Ward Black
p790
assbag1
(g2
g3
Ntp791
Rp792
(dp793
g7
(dp794
g9
V1997-98 Stadium Club Printing Plates #72A Charlie Ward Cyan
p795
sg11
I1
sg12
VStadium Club Printing Plates
p796
sg14
(lp797
Vhttp://www.beckett.com/basketball/1997-98/stadium-club-printing-plates/72a-charlie-ward-cyan-3138830
p798
asg17
g18
sg19
(lp799
Vhttp://img.beckett.com/images/no-image.jpg
p800
asg22
V#72A
p801
sg24
V1997-98
p802
sg26
g27
sg28
(lp803
VCharlie Ward Cyan
p804
assbag1
(g2
g3
Ntp805
Rp806
(dp807
g7
(dp808
g9
V1997-98 Stadium Club Printing Plates #72B Charlie Ward Magenta
p809
sg11
I1
sg12
VStadium Club Printing Plates
p810
sg14
(lp811
Vhttp://www.beckett.com/basketball/1997-98/stadium-club-printing-plates/72b-charlie-ward-magenta-3138831
p812
asg17
g18
sg19
(lp813
Vhttp://img.beckett.com/images/no-image.jpg
p814
asg22
V#72B
p815
sg24
V1997-98
p816
sg26
g27
sg28
(lp817
VCharlie Ward Magenta
p818
assbag1
(g2
g3
Ntp819
Rp820
(dp821
g7
(dp822
g9
V1997-98 Stadium Club Printing Plates #72C Charlie Ward Yellow
p823
sg11
I1
sg12
VStadium Club Printing Plates
p824
sg14
(lp825
Vhttp://www.beckett.com/basketball/1997-98/stadium-club-printing-plates/72c-charlie-ward-yellow-3138832
p826
asg17
g18
sg19
(lp827
Vhttp://img.beckett.com/images/no-image.jpg
p828
asg22
V#72C
p829
sg24
V1997-98
p830
sg26
g27
sg28
(lp831
VCharlie Ward Yellow
p832
assbag1
(g2
g3
Ntp833
Rp834
(dp835
g7
(dp836
g9
V1997-98 Stadium Club Printing Plates #87 Patrick Ewing Black
p837
sg11
I1
sg12
VStadium Club Printing Plates
p838
sg14
(lp839
Vhttp://www.beckett.com/basketball/1997-98/stadium-club-printing-plates/87-patrick-ewing-black-3138889
p840
asg17
g18
sg19
(lp841
Vhttp://img.beckett.com/images/no-image.jpg
p842
asg22
V#87
p843
sg24
V1997-98
p844
sg26
g27
sg28
(lp845
VPatrick Ewing Black
p846
assbag1
(g2
g3
Ntp847
Rp848
(dp849
g7
(dp850
g9
V1997-98 Stadium Club Printing Plates #87A Patrick Ewing Cyan
p851
sg11
I1
sg12
VStadium Club Printing Plates
p852
sg14
(lp853
Vhttp://www.beckett.com/basketball/1997-98/stadium-club-printing-plates/87a-patrick-ewing-cyan-3138890
p854
asg17
g18
sg19
(lp855
Vhttp://img.beckett.com/images/no-image.jpg
p856
asg22
V#87A
p857
sg24
V1997-98
p858
sg26
g27
sg28
(lp859
VPatrick Ewing Cyan
p860
assbag1
(g2
g3
Ntp861
Rp862
(dp863
g7
(dp864
g9
V1997-98 Stadium Club Printing Plates #87B Patrick Ewing Magenta
p865
sg11
I1
sg12
VStadium Club Printing Plates
p866
sg14
(lp867
Vhttp://www.beckett.com/basketball/1997-98/stadium-club-printing-plates/87b-patrick-ewing-magenta-3138891
p868
asg17
g18
sg19
(lp869
Vhttp://img.beckett.com/images/no-image.jpg
p870
asg22
V#87B
p871
sg24
V1997-98
p872
sg26
g27
sg28
(lp873
VPatrick Ewing Magenta
p874
assbag1
(g2
g3
Ntp875
Rp876
(dp877
g7
(dp878
g9
V1997-98 Stadium Club Printing Plates #87C Patrick Ewing Yellow
p879
sg11
I1
sg12
VStadium Club Printing Plates
p880
sg14
(lp881
Vhttp://www.beckett.com/basketball/1997-98/stadium-club-printing-plates/87c-patrick-ewing-yellow-3138892
p882
asg17
g18
sg19
(lp883
Vhttp://img.beckett.com/images/no-image.jpg
p884
asg22
V#87C
p885
sg24
V1997-98
p886
sg26
g27
sg28
(lp887
VPatrick Ewing Yellow
p888
assbag1
(g2
g3
Ntp889
Rp890
(dp891
g7
(dp892
g9
V1997-98 Stadium Club Printing Plates #127 Larry Johnson Black
p893
sg11
I1
sg12
VStadium Club Printing Plates
p894
sg14
(lp895
Vhttp://www.beckett.com/basketball/1997-98/stadium-club-printing-plates/127-larry-johnson-black-3139049
p896
asg17
g18
sg19
(lp897
Vhttp://img.beckett.com/images/no-image.jpg
p898
asg22
V#127
p899
sg24
V1997-98
p900
sg26
g27
sg28
(lp901
VLarry Johnson Black
p902
assbag1
(g2
g3
Ntp903
Rp904
(dp905
g7
(dp906
g9
V1997-98 Stadium Club Printing Plates #127A Larry Johnson Cyan
p907
sg11
I1
sg12
VStadium Club Printing Plates
p908
sg14
(lp909
Vhttp://www.beckett.com/basketball/1997-98/stadium-club-printing-plates/127a-larry-johnson-cyan-3139050
p910
asg17
g18
sg19
(lp911
Vhttp://img.beckett.com/images/no-image.jpg
p912
asg22
V#127A
p913
sg24
V1997-98
p914
sg26
g27
sg28
(lp915
VLarry Johnson Cyan
p916
assbag1
(g2
g3
Ntp917
Rp918
(dp919
g7
(dp920
g9
V1997-98 Stadium Club Printing Plates #127B Larry Johnson Magneta
p921
sg11
I1
sg12
VStadium Club Printing Plates
p922
sg14
(lp923
Vhttp://www.beckett.com/basketball/1997-98/stadium-club-printing-plates/127b-larry-johnson-magneta-3139051
p924
asg17
g18
sg19
(lp925
Vhttp://img.beckett.com/images/no-image.jpg
p926
asg22
V#127B
p927
sg24
V1997-98
p928
sg26
g27
sg28
(lp929
VLarry Johnson Magneta
p930
assbag1
(g2
g3
Ntp931
Rp932
(dp933
g7
(dp934
g9
V1997-98 Stadium Club Printing Plates #127C Larry Johnson Yellow
p935
sg11
I1
sg12
VStadium Club Printing Plates
p936
sg14
(lp937
Vhttp://www.beckett.com/basketball/1997-98/stadium-club-printing-plates/127c-larry-johnson-yellow-3139052
p938
asg17
g18
sg19
(lp939
Vhttp://img.beckett.com/images/no-image.jpg
p940
asg22
V#127C
p941
sg24
V1997-98
p942
sg26
g27
sg28
(lp943
VLarry Johnson Yellow
p944
assbag1
(g2
g3
Ntp945
Rp946
(dp947
g7
(dp948
g9
V1997-98 Stadium Club Printing Plates #140 John Starks Black
p949
sg11
I1
sg12
VStadium Club Printing Plates
p950
sg14
(lp951
Vhttp://www.beckett.com/basketball/1997-98/stadium-club-printing-plates/140-john-starks-black-3139101
p952
asg17
g18
sg19
(lp953
Vhttp://img.beckett.com/images/no-image.jpg
p954
asg22
V#140
p955
sg24
V1997-98
p956
sg26
g27
sg28
(lp957
VJohn Starks Black
p958
assbag1
(g2
g3
Ntp959
Rp960
(dp961
g7
(dp962
g9
V1997-98 Stadium Club Printing Plates #140A John Starks Cyan
p963
sg11
I1
sg12
VStadium Club Printing Plates
p964
sg14
(lp965
Vhttp://www.beckett.com/basketball/1997-98/stadium-club-printing-plates/140a-john-starks-cyan-3139102
p966
asg17
g18
sg19
(lp967
Vhttp://img.beckett.com/images/no-image.jpg
p968
asg22
V#140A
p969
sg24
V1997-98
p970
sg26
g27
sg28
(lp971
VJohn Starks Cyan
p972
assbag1
(g2
g3
Ntp973
Rp974
(dp975
g7
(dp976
g9
V1997-98 Stadium Club Printing Plates #140B John Starks Magenta
p977
sg11
I1
sg12
VStadium Club Printing Plates
p978
sg14
(lp979
Vhttp://www.beckett.com/basketball/1997-98/stadium-club-printing-plates/140b-john-starks-magenta-3139103
p980
asg17
g18
sg19
(lp981
Vhttp://img.beckett.com/images/no-image.jpg
p982
asg22
V#140B
p983
sg24
V1997-98
p984
sg26
g27
sg28
(lp985
VJohn Starks Magenta
p986
assbag1
(g2
g3
Ntp987
Rp988
(dp989
g7
(dp990
g9
V1997-98 Stadium Club Printing Plates #140C John Starks Yellow
p991
sg11
I1
sg12
VStadium Club Printing Plates
p992
sg14
(lp993
Vhttp://www.beckett.com/basketball/1997-98/stadium-club-printing-plates/140c-john-starks-yellow-3139104
p994
asg17
g18
sg19
(lp995
Vhttp://img.beckett.com/images/no-image.jpg
p996
asg22
V#140C
p997
sg24
V1997-98
p998
sg26
g27
sg28
(lp999
VJohn Starks Yellow
p1000
assbag1
(g2
g3
Ntp1001
Rp1002
(dp1003
g7
(dp1004
g9
V1997-98 Stadium Club Printing Plates #144 Buck Williams Black
p1005
sg11
I1
sg12
VStadium Club Printing Plates
p1006
sg14
(lp1007
Vhttp://www.beckett.com/basketball/1997-98/stadium-club-printing-plates/144-buck-williams-black-3139117
p1008
asg17
g18
sg19
(lp1009
Vhttp://img.beckett.com/images/no-image.jpg
p1010
asg22
V#144
p1011
sg24
V1997-98
p1012
sg26
g27
sg28
(lp1013
VBuck Williams Black
p1014
assbag1
(g2
g3
Ntp1015
Rp1016
(dp1017
g7
(dp1018
g9
V1997-98 Stadium Club Printing Plates #144A Buck Williams Cyan
p1019
sg11
I1
sg12
VStadium Club Printing Plates
p1020
sg14
(lp1021
Vhttp://www.beckett.com/basketball/1997-98/stadium-club-printing-plates/144a-buck-williams-cyan-3139118
p1022
asg17
g18
sg19
(lp1023
Vhttp://img.beckett.com/images/no-image.jpg
p1024
asg22
V#144A
p1025
sg24
V1997-98
p1026
sg26
g27
sg28
(lp1027
VBuck Williams Cyan
p1028
assbag1
(g2
g3
Ntp1029
Rp1030
(dp1031
g7
(dp1032
g9
V1997-98 Stadium Club Printing Plates #144B Buck Williams Magenta
p1033
sg11
I1
sg12
VStadium Club Printing Plates
p1034
sg14
(lp1035
Vhttp://www.beckett.com/basketball/1997-98/stadium-club-printing-plates/144b-buck-williams-magenta-3139119
p1036
asg17
g18
sg19
(lp1037
Vhttp://img.beckett.com/images/no-image.jpg
p1038
asg22
V#144B
p1039
sg24
V1997-98
p1040
sg26
g27
sg28
(lp1041
VBuck Williams Magenta
p1042
assbag1
(g2
g3
Ntp1043
Rp1044
(dp1045
g7
(dp1046
g9
V1997-98 Stadium Club Printing Plates #144C Buck Williams Yellow
p1047
sg11
I1
sg12
VStadium Club Printing Plates
p1048
sg14
(lp1049
Vhttp://www.beckett.com/basketball/1997-98/stadium-club-printing-plates/144c-buck-williams-yellow-3139120
p1050
asg17
g18
sg19
(lp1051
Vhttp://img.beckett.com/images/no-image.jpg
p1052
asg22
V#144C
p1053
sg24
V1997-98
p1054
sg26
g27
sg28
(lp1055
VBuck Williams Yellow
p1056
assbag1
(g2
g3
Ntp1057
Rp1058
(dp1059
g7
(dp1060
g9
V1997-98 Stadium Club Printing Plates #167 Chris Childs Black
p1061
sg11
I1
sg12
VStadium Club Printing Plates
p1062
sg14
(lp1063
Vhttp://www.beckett.com/basketball/1997-98/stadium-club-printing-plates/167-chris-childs-black-3139209
p1064
asg17
g18
sg19
(lp1065
Vhttp://img.beckett.com/images/no-image.jpg
p1066
asg22
V#167
p1067
sg24
V1997-98
p1068
sg26
g27
sg28
(lp1069
VChris Childs Black
p1070
assbag1
(g2
g3
Ntp1071
Rp1072
(dp1073
g7
(dp1074
g9
V1997-98 Stadium Club Printing Plates #167A Chris Childs Cyan
p1075
sg11
I1
sg12
VStadium Club Printing Plates
p1076
sg14
(lp1077
Vhttp://www.beckett.com/basketball/1997-98/stadium-club-printing-plates/167a-chris-childs-cyan-3139210
p1078
asg17
g18
sg19
(lp1079
Vhttp://img.beckett.com/images/no-image.jpg
p1080
asg22
V#167A
p1081
sg24
V1997-98
p1082
sg26
g27
sg28
(lp1083
VChris Childs Cyan
p1084
assbag1
(g2
g3
Ntp1085
Rp1086
(dp1087
g7
(dp1088
g9
V1997-98 Stadium Club Printing Plates #167B Chris Childs Magenta
p1089
sg11
I1
sg12
VStadium Club Printing Plates
p1090
sg14
(lp1091
Vhttp://www.beckett.com/basketball/1997-98/stadium-club-printing-plates/167b-chris-childs-magenta-3139211
p1092
asg17
g18
sg19
(lp1093
Vhttp://img.beckett.com/images/no-image.jpg
p1094
asg22
V#167B
p1095
sg24
V1997-98
p1096
sg26
g27
sg28
(lp1097
VChris Childs Magenta
p1098
assbag1
(g2
g3
Ntp1099
Rp1100
(dp1101
g7
(dp1102
g9
V1997-98 Stadium Club Printing Plates #167C Chris Childs Yellow
p1103
sg11
I1
sg12
VStadium Club Printing Plates
p1104
sg14
(lp1105
Vhttp://www.beckett.com/basketball/1997-98/stadium-club-printing-plates/167c-chris-childs-yellow-3139212
p1106
asg17
g18
sg19
(lp1107
Vhttp://img.beckett.com/images/no-image.jpg
p1108
asg22
V#167C
p1109
sg24
V1997-98
p1110
sg26
g27
sg28
(lp1111
VChris Childs Yellow
p1112
assbag1
(g2
g3
Ntp1113
Rp1114
(dp1115
g7
(dp1116
g9
V1997-98 Ultra Masterpieces #41 Larry Johnson
p1117
sg11
I1
sg12
VUltra Masterpieces
p1118
sg14
(lp1119
Vhttp://www.beckett.com/basketball/1997-98/ultra-masterpieces/41-larry-johnson-3135771
p1120
asg17
g18
sg19
(lp1121
Vhttp://img.beckett.com/images/no-image.jpg
p1122
asg22
V#41
p1123
sg24
V1997-98
p1124
sg26
g27
sg28
(lp1125
VLarry Johnson
p1126
assbag1
(g2
g3
Ntp1127
Rp1128
(dp1129
g7
(dp1130
g9
V1997-98 Ultra Masterpieces #62 Chris Childs
p1131
sg11
I1
sg12
VUltra Masterpieces
p1132
sg14
(lp1133
Vhttp://www.beckett.com/basketball/1997-98/ultra-masterpieces/62-chris-childs-3135792
p1134
asg17
g18
sg19
(lp1135
Vhttp://img.beckett.com/images/no-image.jpg
p1136
asg22
V#62
p1137
sg24
V1997-98
p1138
sg26
g27
sg28
(lp1139
VChris Childs
p1140
assbag1
(g2
g3
Ntp1141
Rp1142
(dp1143
g7
(dp1144
g9
V1997-98 Ultra Masterpieces #63 Patrick Ewing
p1145
sg11
I1
sg12
VUltra Masterpieces
p1146
sg14
(lp1147
Vhttp://www.beckett.com/basketball/1997-98/ultra-masterpieces/63-patrick-ewing-3135793
p1148
asg17
g18
sg19
(lp1149
Vhttp://img.beckett.com/images/no-image.jpg
p1150
asg22
V#63
p1151
sg24
V1997-98
p1152
sg26
g27
sg28
(lp1153
VPatrick Ewing
p1154
assbag1
(g2
g3
Ntp1155
Rp1156
(dp1157
g7
(dp1158
g9
V1997-98 Ultra Masterpieces #64 Allan Houston
p1159
sg11
I1
sg12
VUltra Masterpieces
p1160
sg14
(lp1161
Vhttp://www.beckett.com/basketball/1997-98/ultra-masterpieces/64-allan-houston-3135794
p1162
asg17
g18
sg19
(lp1163
Vhttp://img.beckett.com/images/no-image.jpg
p1164
asg22
V#64
p1165
sg24
V1997-98
p1166
sg26
g27
sg28
(lp1167
VAllan Houston
p1168
assbag1
(g2
g3
Ntp1169
Rp1170
(dp1171
g7
(dp1172
g9
V1997-98 Ultra Masterpieces #96 John Starks
p1173
sg11
I1
sg12
VUltra Masterpieces
p1174
sg14
(lp1175
Vhttp://www.beckett.com/basketball/1997-98/ultra-masterpieces/96-john-starks-3135826
p1176
asg17
g18
sg19
(lp1177
Vhttp://img.beckett.com/images/no-image.jpg
p1178
asg22
V#96
p1179
sg24
V1997-98
p1180
sg26
g27
sg28
(lp1181
VJohn Starks
p1182
assbag1
(g2
g3
Ntp1183
Rp1184
(dp1185
g7
(dp1186
g9
V1997-98 Ultra Masterpieces #182 Chris Dudley
p1187
sg11
I1
sg12
VUltra Masterpieces
p1188
sg14
(lp1189
Vhttp://www.beckett.com/basketball/1997-98/ultra-masterpieces/182-chris-dudley-3135910
p1190
asg17
g18
sg19
(lp1191
Vhttp://img.beckett.com/images/no-image.jpg
p1192
asg22
V#182
p1193
sg24
V1997-98
p1194
sg26
g27
sg28
(lp1195
VChris Dudley
p1196
assbag1
(g2
g3
Ntp1197
Rp1198
(dp1199
g7
(dp1200
g9
V1997-98 Ultra Masterpieces #237 Charlie Ward
p1201
sg11
I1
sg12
VUltra Masterpieces
p1202
sg14
(lp1203
Vhttp://www.beckett.com/basketball/1997-98/ultra-masterpieces/237-charlie-ward-3135965
p1204
asg17
g18
sg19
(lp1205
Vhttp://img.beckett.com/images/no-image.jpg
p1206
asg22
V#237
p1207
sg24
V1997-98
p1208
sg26
g27
sg28
(lp1209
VCharlie Ward
p1210
assbag1
(g2
g3
Ntp1211
Rp1212
(dp1213
g7
(dp1214
g9
V1997-98 Ultra Platinum Medallion #41 Larry Johnson
p1215
sg11
I100
sg12
VUltra Platinum Medallion
p1216
sg14
(lp1217
Vhttp://www.beckett.com/basketball/1997-98/ultra-platinum-medallion/41-larry-johnson-3136055
p1218
asg17
g18
sg19
(lp1219
Vhttp://img.beckett.com/images/no-image.jpg
p1220
asg22
V#41
p1221
sg24
V1997-98
p1222
sg26
g27
sg28
(lp1223
VLarry Johnson
p1224
assbag1
(g2
g3
Ntp1225
Rp1226
(dp1227
g7
(dp1228
g9
V1997-98 Ultra Platinum Medallion #62 Chris Childs
p1229
sg11
I100
sg12
VUltra Platinum Medallion
p1230
sg14
(lp1231
Vhttp://www.beckett.com/basketball/1997-98/ultra-platinum-medallion/62-chris-childs-3136076
p1232
asg17
g18
sg19
(lp1233
Vhttp://img.beckett.com/images/no-image.jpg
p1234
asg22
V#62
p1235
sg24
V1997-98
p1236
sg26
g27
sg28
(lp1237
VChris Childs
p1238
assbag1
(g2
g3
Ntp1239
Rp1240
(dp1241
g7
(dp1242
g9
V1997-98 Ultra Platinum Medallion #63 Patrick Ewing
p1243
sg11
I100
sg12
VUltra Platinum Medallion
p1244
sg14
(lp1245
Vhttp://www.beckett.com/basketball/1997-98/ultra-platinum-medallion/63-patrick-ewing-3136077
p1246
asg17
g18
sg19
(lp1247
Vhttp://img.beckett.com/images/no-image.jpg
p1248
asg22
V#63
p1249
sg24
V1997-98
p1250
sg26
g27
sg28
(lp1251
VPatrick Ewing
p1252
assbag1
(g2
g3
Ntp1253
Rp1254
(dp1255
g7
(dp1256
g9
V1997-98 Ultra Platinum Medallion #64 Allan Houston
p1257
sg11
I100
sg12
VUltra Platinum Medallion
p1258
sg14
(lp1259
Vhttp://www.beckett.com/basketball/1997-98/ultra-platinum-medallion/64-allan-houston-3136078
p1260
asg17
g18
sg19
(lp1261
Vhttp://img.beckett.com/images/no-image.jpg
p1262
asg22
V#64
p1263
sg24
V1997-98
p1264
sg26
g27
sg28
(lp1265
VAllan Houston
p1266
assbag1
(g2
g3
Ntp1267
Rp1268
(dp1269
g7
(dp1270
g9
V1997-98 Ultra Platinum Medallion #96 John Starks
p1271
sg11
I100
sg12
VUltra Platinum Medallion
p1272
sg14
(lp1273
Vhttp://www.beckett.com/basketball/1997-98/ultra-platinum-medallion/96-john-starks-3136110
p1274
asg17
g18
sg19
(lp1275
Vhttp://img.beckett.com/images/no-image.jpg
p1276
asg22
V#96
p1277
sg24
V1997-98
p1278
sg26
g27
sg28
(lp1279
VJohn Starks
p1280
assbag1
(g2
g3
Ntp1281
Rp1282
(dp1283
g7
(dp1284
g9
V1997-98 Ultra Platinum Medallion #182 Chris Dudley
p1285
sg11
I100
sg12
VUltra Platinum Medallion
p1286
sg14
(lp1287
Vhttp://www.beckett.com/basketball/1997-98/ultra-platinum-medallion/182-chris-dudley-3136194
p1288
asg17
g18
sg19
(lp1289
Vhttp://img.beckett.com/images/no-image.jpg
p1290
asg22
V#182
p1291
sg24
V1997-98
p1292
sg26
g27
sg28
(lp1293
VChris Dudley
p1294
assbag1
(g2
g3
Ntp1295
Rp1296
(dp1297
g7
(dp1298
g9
V1997-98 Ultra Platinum Medallion #237 Charlie Ward
p1299
sg11
I100
sg12
VUltra Platinum Medallion
p1300
sg14
(lp1301
Vhttp://www.beckett.com/basketball/1997-98/ultra-platinum-medallion/237-charlie-ward-3136249
p1302
asg17
g18
sg19
(lp1303
Vhttp://img.beckett.com/images/no-image.jpg
p1304
asg22
V#237
p1305
sg24
V1997-98
p1306
sg26
g27
sg28
(lp1307
VCharlie Ward
p1308
assbag1
(g2
g3
Ntp1309
Rp1310
(dp1311
g7
(dp1312
g9
V1997-98 Z-Force Rave #26 Patrick Ewing
p1313
sg11
I399
sg12
VZ-Force Rave
p1314
sg14
(lp1315
Vhttp://www.beckett.com/basketball/1997-98/z-force-rave/26-patrick-ewing-3133050
p1316
asg17
g18
sg19
(lp1317
Vhttp://img.beckett.com/images/no-image.jpg
p1318
asg22
V#26
p1319
sg24
V1997-98
p1320
sg26
g27
sg28
(lp1321
VPatrick Ewing
p1322
assbag1
(g2
g3
Ntp1323
Rp1324
(dp1325
g7
(dp1326
g9
V1997-98 Z-Force Rave #81 Chris Childs
p1327
sg11
I399
sg12
VZ-Force Rave
p1328
sg14
(lp1329
Vhttp://www.beckett.com/basketball/1997-98/z-force-rave/81-chris-childs-3133105
p1330
asg17
g18
sg19
(lp1331
Vhttp://img.beckett.com/images/items_stock/185226/3133012/3133105/front.jpg
p1332
asg22
V#81
p1333
sg24
V1997-98
p1334
sg26
g27
sg28
(lp1335
VChris Childs
p1336
assbag1
(g2
g3
Ntp1337
Rp1338
(dp1339
g7
(dp1340
g9
V1997-98 Z-Force Rave #98 Allan Houston
p1341
sg11
I399
sg12
VZ-Force Rave
p1342
sg14
(lp1343
Vhttp://www.beckett.com/basketball/1997-98/z-force-rave/98-allan-houston-3133122
p1344
asg17
g18
sg19
(lp1345
Vhttp://img.beckett.com/images/no-image.jpg
p1346
asg22
V#98
p1347
sg24
V1997-98
p1348
sg26
g27
sg28
(lp1349
VAllan Houston
p1350
assbag1
(g2
g3
Ntp1351
Rp1352
(dp1353
g7
(dp1354
g9
V1997-98 Z-Force Rave #162 Larry Johnson
p1355
sg11
I399
sg12
VZ-Force Rave
p1356
sg14
(lp1357
Vhttp://www.beckett.com/basketball/1997-98/z-force-rave/162-larry-johnson-3133184
p1358
asg17
g18
sg19
(lp1359
Vhttp://img.beckett.com/images/no-image.jpg
p1360
asg22
V#162
p1361
sg24
V1997-98
p1362
sg26
g27
sg28
(lp1363
VLarry Johnson
p1364
assbag1
(g2
g3
Ntp1365
Rp1366
(dp1367
g7
(dp1368
g9
V1997-98 Z-Force Rave #178 John Starks
p1369
sg11
I399
sg12
VZ-Force Rave
p1370
sg14
(lp1371
Vhttp://www.beckett.com/basketball/1997-98/z-force-rave/178-john-starks-3133201
p1372
asg17
g18
sg19
(lp1373
Vhttp://img.beckett.com/images/no-image.jpg
p1374
asg22
V#178
p1375
sg24
V1997-98
p1376
sg26
g27
sg28
(lp1377
VJohn Starks
p1378
assbag1
(g2
g3
Ntp1379
Rp1380
(dp1381
g7
(dp1382
g9
V1997-98 Z-Force Super Rave #162 Larry Johnson
p1383
sg11
I50
sg12
VZ-Force Super Rave
p1384
sg14
(lp1385
Vhttp://www.beckett.com/basketball/1997-98/z-force-super-rave/162-larry-johnson-3133296
p1386
asg17
g18
sg19
(lp1387
Vhttp://img.beckett.com/images/no-image.jpg
p1388
asg22
V#162
p1389
sg24
V1997-98
p1390
sg26
g27
sg28
(lp1391
VLarry Johnson
p1392
assbag1
(g2
g3
Ntp1393
Rp1394
(dp1395
g7
(dp1396
g9
V1997-98 Z-Force Super Rave #178 John Starks
p1397
sg11
I50
sg12
VZ-Force Super Rave
p1398
sg14
(lp1399
Vhttp://www.beckett.com/basketball/1997-98/z-force-super-rave/178-john-starks-3133313
p1400
asg17
g18
sg19
(lp1401
Vhttp://img.beckett.com/images/no-image.jpg
p1402
asg22
V#178
p1403
sg24
V1997-98
p1404
sg26
g27
sg28
(lp1405
VJohn Starks
p1406
assbag1
(g2
g3
Ntp1407
Rp1408
(dp1409
g7
(dp1410
g9
V1997-98 Upper Deck Great Eight #G4 Patrick Ewing
p1411
sg11
I800
sg12
VUpper Deck Great Eight
p1412
sg14
(lp1413
Vhttp://www.beckett.com/basketball/1997-98/upper-deck-great-eight/g4-patrick-ewing-3132410
p1414
asg17
g18
sg19
(lp1415
Vhttp://img.beckett.com/images/no-image.jpg
p1416
asg22
V#G4
p1417
sg24
V1997-98
p1418
sg26
g27
sg28
(lp1419
VPatrick Ewing
p1420
assbag1
(g2
g3
Ntp1421
Rp1422
(dp1423
g7
(dp1424
g9
V1997-98 Upper Deck High Dimensions #D15 Larry Johnson
p1425
sg11
I2000
sg12
VUpper Deck High Dimensions
p1426
sg14
(lp1427
Vhttp://www.beckett.com/basketball/1997-98/upper-deck-high-dimensions/d15-larry-johnson-3132437
p1428
asg17
g18
sg19
(lp1429
Vhttp://img.beckett.com/images/no-image.jpg
p1430
asg22
V#D15
p1431
sg24
V1997-98
p1432
sg26
g27
sg28
(lp1433
VLarry Johnson
p1434
assbag1
(g2
g3
Ntp1435
Rp1436
(dp1437
g7
(dp1438
g9
V1997-98 Metal Universe Precious Metal Gems Emerald #26 Patrick Ewing
p1439
sg11
I10
sg12
VMetal Universe Precious Metal Gems Emerald
p1440
sg14
(lp1441
Vhttp://www.beckett.com/basketball/1997-98/metal-universe-precious-metal-gems-emerald/26-patrick-ewing-7055475
p1442
asg17
g18
sg19
(lp1443
Vhttp://img.beckett.com/images/no-image.jpg
p1444
asg22
V#26
p1445
sg24
V1997-98
p1446
sg26
g27
sg28
(lp1447
VPatrick Ewing
p1448
assbag1
(g2
g3
Ntp1449
Rp1450
(dp1451
g7
(dp1452
g9
V1997-98 Metal Universe Precious Metal Gems Emerald #27 Allan Houston
p1453
sg11
I10
sg12
VMetal Universe Precious Metal Gems Emerald
p1454
sg14
(lp1455
Vhttp://www.beckett.com/basketball/1997-98/metal-universe-precious-metal-gems-emerald/27-allan-houston-7055476
p1456
asg17
g18
sg19
(lp1457
Vhttp://img.beckett.com/images/no-image.jpg
p1458
asg22
V#27
p1459
sg24
V1997-98
p1460
sg26
g27
sg28
(lp1461
VAllan Houston
p1462
assbag1
(g2
g3
Ntp1463
Rp1464
(dp1465
g7
(dp1466
g9
V1997-98 Metal Universe Precious Metal Gems Emerald #82 Chris Childs
p1467
sg11
I10
sg12
VMetal Universe Precious Metal Gems Emerald
p1468
sg14
(lp1469
Vhttp://www.beckett.com/basketball/1997-98/metal-universe-precious-metal-gems-emerald/82-chris-childs-7055531
p1470
asg17
g18
sg19
(lp1471
Vhttp://img.beckett.com/images/no-image.jpg
p1472
asg22
V#82
p1473
sg24
V1997-98
p1474
sg26
g27
sg28
(lp1475
VChris Childs
p1476
assbag1
(g2
g3
Ntp1477
Rp1478
(dp1479
g7
(dp1480
g9
V1997-98 Metal Universe Precious Metal Gems Emerald #88 Larry Johnson
p1481
sg11
I10
sg12
VMetal Universe Precious Metal Gems Emerald
p1482
sg14
(lp1483
Vhttp://www.beckett.com/basketball/1997-98/metal-universe-precious-metal-gems-emerald/88-larry-johnson-7055537
p1484
asg17
g18
sg19
(lp1485
Vhttp://img.beckett.com/images/no-image.jpg
p1486
asg22
V#88
p1487
sg24
V1997-98
p1488
sg26
g27
sg28
(lp1489
VLarry Johnson
p1490
assbag1
(g2
g3
Ntp1491
Rp1492
(dp1493
g7
(dp1494
g9
V1997-98 Metal Universe Precious Metal Gems Emerald #118 John Starks
p1495
sg11
I10
sg12
VMetal Universe Precious Metal Gems Emerald
p1496
sg14
(lp1497
Vhttp://www.beckett.com/basketball/1997-98/metal-universe-precious-metal-gems-emerald/118-john-starks-7055567
p1498
asg17
g18
sg19
(lp1499
Vhttp://img.beckett.com/images/no-image.jpg
p1500
asg22
V#118
p1501
sg24
V1997-98
p1502
sg26
g27
sg28
(lp1503
VJohn Starks
p1504
assbag1
(g2
g3
Ntp1505
Rp1506
(dp1507
g7
(dp1508
g9
V1997-98 SP Authentic Profiles 3 #P33 Patrick Ewing
p1509
sg11
I100
sg12
VSP Authentic Profiles 3
p1510
sg14
(lp1511
Vhttp://www.beckett.com/basketball/1997-98/sp-authentic-profiles-3/p33-patrick-ewing-3140314
p1512
asg17
g18
sg19
(lp1513
Vhttp://img.beckett.com/images/no-image.jpg
p1514
asg22
V#P33
p1515
sg24
V1997-98
p1516
sg26
g27
sg28
(lp1517
VPatrick Ewing
p1518
assbag1
(g2
g3
Ntp1519
Rp1520
(dp1521
g7
(dp1522
g9
V1997-98 Upper Deck Diamond Dimensions #D15 Larry Johnson
p1523
sg11
I100
sg12
VUpper Deck Diamond Dimensions
p1524
sg14
(lp1525
Vhttp://www.beckett.com/basketball/1997-98/upper-deck-diamond-dimensions/d15-larry-johnson-3132475
p1526
asg17
g18
sg19
(lp1527
Vhttp://img.beckett.com/images/no-image.jpg
p1528
asg22
V#D15
p1529
sg24
V1997-98
p1530
sg26
g27
sg28
(lp1531
VLarry Johnson
p1532
assba.