(lp0
Naccopy_reg
_reconstructor
p1
(ctutorial.items
BeckettItem
p2
c__builtin__
object
p3
Ntp4
Rp5
(dp6
S'_values'
p7
(dp8
S'originalItemDescription'
p9
V1997-98 E-X2001 Essential Credentials Future #22 Kerry Kittles/59
p10
sS'serialNumber'
p11
I59
sS'setName'
p12
VE-X2001 Essential Credentials Future
p13
sS'beckettLink'
p14
(lp15
Vhttp://www.beckett.com/basketball/1997-98/e-x2001-essential-credentials-future/22-kerry-kittles59-3144608
p16
asS'team'
p17
S'New Jersey Nets'
p18
sS'imageLink'
p19
(lp20
Vhttp://img.beckett.com/images/no-image.jpg
p21
asS'cardNumber'
p22
V#22
p23
sS'year'
p24
V1997-98
p25
sS'sport'
p26
S'Basketball'
p27
sS'playerNames'
p28
(lp29
VKerry Kittles
p30
assbag1
(g2
g3
Ntp31
Rp32
(dp33
g7
(dp34
g9
V1997-98 E-X2001 Essential Credentials Future #41 Sam Cassell/40
p35
sg11
I40
sg12
VE-X2001 Essential Credentials Future
p36
sg14
(lp37
Vhttp://www.beckett.com/basketball/1997-98/e-x2001-essential-credentials-future/41-sam-cassell40-3144627
p38
asg17
g18
sg19
(lp39
Vhttp://img.beckett.com/images/no-image.jpg
p40
asg22
V#41
p41
sg24
V1997-98
p42
sg26
g27
sg28
(lp43
VSam Cassell
p44
assbag1
(g2
g3
Ntp45
Rp46
(dp47
g7
(dp48
g9
V1997-98 E-X2001 Essential Credentials Now #22 Kerry Kittles/22
p49
sg11
I22
sg12
VE-X2001 Essential Credentials Now
p50
sg14
(lp51
Vhttp://www.beckett.com/basketball/1997-98/e-x2001-essential-credentials-now/22-kerry-kittles22-3144695
p52
asg17
g18
sg19
(lp53
Vhttp://img.beckett.com/images/no-image.jpg
p54
asg22
V#22
p55
sg24
V1997-98
p56
sg26
g27
sg28
(lp57
VKerry Kittles
p58
assbag1
(g2
g3
Ntp59
Rp60
(dp61
g7
(dp62
g9
V1997-98 E-X2001 Essential Credentials Now #41 Sam Cassell/41
p63
sg11
I41
sg12
VE-X2001 Essential Credentials Now
p64
sg14
(lp65
Vhttp://www.beckett.com/basketball/1997-98/e-x2001-essential-credentials-now/41-sam-cassell41-3144714
p66
asg17
g18
sg19
(lp67
Vhttp://img.beckett.com/images/no-image.jpg
p68
asg22
V#41
p69
sg24
V1997-98
p70
sg26
g27
sg28
(lp71
VSam Cassell
p72
assbag1
(g2
g3
Ntp73
Rp74
(dp75
g7
(dp76
g9
V1997-98 Finest Embossed Refractors #147 Jayson Williams S
p77
sg11
I263
sg12
VFinest Embossed Refractors
p78
sg14
(lp79
Vhttp://www.beckett.com/basketball/1997-98/finest-embossed-refractors/147-jayson-williams-s-3145355
p80
asg17
g18
sg19
(lp81
Vhttp://img.beckett.com/images/no-image.jpg
p82
asg22
V#147
p83
sg24
V1997-98
p84
sS'subsetName'
p85
VS
p86
sg26
g27
sg28
(lp87
VJayson Williams
p88
assbag1
(g2
g3
Ntp89
Rp90
(dp91
g7
(dp92
g9
V1997-98 Finest Embossed Refractors #163 Kerry Kittles G
p93
sg11
I74
sg12
VFinest Embossed Refractors
p94
sg14
(lp95
Vhttp://www.beckett.com/basketball/1997-98/finest-embossed-refractors/163-kerry-kittles-g-3145371
p96
asg17
g18
sg19
(lp97
Vhttp://img.beckett.com/images/no-image.jpg
p98
asg22
V#163
p99
sg24
V1997-98
p100
sg85
VG
p101
sg26
g27
sg28
(lp102
VKerry Kittles
p103
assbag1
(g2
g3
Ntp104
Rp105
(dp106
g7
(dp107
g9
V1997-98 Finest Embossed Refractors #298 Kerry Kittles S
p108
sg11
I263
sg12
VFinest Embossed Refractors
p109
sg14
(lp110
Vhttp://www.beckett.com/basketball/1997-98/finest-embossed-refractors/298-kerry-kittles-s-3145406
p111
asg17
g18
sg19
(lp112
Vhttp://img.beckett.com/images/no-image.jpg
p113
asg22
V#298
p114
sg24
V1997-98
p115
sg85
g86
sg26
g27
sg28
(lp116
VKerry Kittles
p117
assbag1
(g2
g3
Ntp118
Rp119
(dp120
g7
(dp121
g9
V1997-98 Finest Refractors #147 Jayson Williams S
p122
sg11
I1090
sg12
VFinest Refractors
p123
sg14
(lp124
Vhttp://www.beckett.com/basketball/1997-98/finest-refractors/147-jayson-williams-s-3145613
p125
asg17
g18
sg19
(lp126
Vhttp://img.beckett.com/images/items_stock/185226/3145435/3145613/front.jpg
p127
asg22
V#147
p128
sg24
V1997-98
p129
sg85
g86
sg26
g27
sg28
(lp130
VJayson Williams
p131
assbag1
(g2
g3
Ntp132
Rp133
(dp134
g7
(dp135
g9
V1997-98 Finest Refractors #163 Kerry Kittles G
p136
sg11
I289
sg12
VFinest Refractors
p137
sg14
(lp138
Vhttp://www.beckett.com/basketball/1997-98/finest-refractors/163-kerry-kittles-g-3145629
p139
asg17
g18
sg19
(lp140
Vhttp://img.beckett.com/images/items_stock/185226/3145435/3145629/front.jpg
p141
asg22
V#163
p142
sg24
V1997-98
p143
sg85
g101
sg26
g27
sg28
(lp144
VKerry Kittles
p145
assbag1
(g2
g3
Ntp146
Rp147
(dp148
g7
(dp149
g9
V1997-98 Finest Refractors #298 Kerry Kittles S
p150
sg11
I1090
sg12
VFinest Refractors
p151
sg14
(lp152
Vhttp://www.beckett.com/basketball/1997-98/finest-refractors/298-kerry-kittles-s-3145764
p153
asg17
g18
sg19
(lp154
Vhttp://img.beckett.com/images/items_stock/185226/3145435/3145764/front.jpg
p155
asg22
V#298
p156
sg24
V1997-98
p157
sg85
g86
sg26
g27
sg28
(lp158
VKerry Kittles
p159
assbag1
(g2
g3
Ntp160
Rp161
(dp162
g7
(dp163
g9
V1997-98 Flair Showcase Row 0 #17 Kerry Kittles
p164
sg11
I250
sg12
VFlair Showcase Row 0
p165
sg14
(lp166
Vhttp://www.beckett.com/basketball/1997-98/flair-showcase-row-0/17-kerry-kittles-3146115
p167
asg17
g18
sg19
(lp168
Vhttp://img.beckett.com/images/no-image.jpg
p169
asg22
V#17
p170
sg24
V1997-98
p171
sg26
g27
sg28
(lp172
VKerry Kittles
p173
assbag1
(g2
g3
Ntp174
Rp175
(dp176
g7
(dp177
g9
V1997-98 Flair Showcase Legacy Collection Row 3 #17 Kerry Kittles
p178
sg11
I100
sg12
VFlair Showcase Legacy Collection Row 3
p179
sg14
(lp180
Vhttp://www.beckett.com/basketball/1997-98/flair-showcase-legacy-collection-row-3/17-kerry-kittles-3148575
p181
asg17
g18
sg19
(lp182
Vhttp://img.beckett.com/images/no-image.jpg
p183
asg22
V#17
p184
sg24
V1997-98
p185
sg26
g27
sg28
(lp186
VKerry Kittles
p187
assbag1
(g2
g3
Ntp188
Rp189
(dp190
g7
(dp191
g9
V1997-98 Metal Universe Precious Metal Gems #47 Kerry Kittles
p192
sg11
I90
sg12
VMetal Universe Precious Metal Gems
p193
sg14
(lp194
Vhttp://www.beckett.com/basketball/1997-98/metal-universe-precious-metal-gems/47-kerry-kittles-3142639
p195
asg17
g18
sg19
(lp196
Vhttp://img.beckett.com/images/no-image.jpg
p197
asg22
V#47
p198
sg24
V1997-98
p199
sg26
g27
sg28
(lp200
VKerry Kittles
p201
assbag1
(g2
g3
Ntp202
Rp203
(dp204
g7
(dp205
g9
V1997-98 Metal Universe Championship Precious Metal Gems #58 Sam Cassell
p206
sg11
I50
sg12
VMetal Universe Championship Precious Metal Gems
p207
sg14
(lp208
Vhttp://www.beckett.com/basketball/1997-98/metal-universe-championship-precious-metal-gems/58-sam-cassell-3140733
p209
asg17
g18
sg19
(lp210
Vhttp://img.beckett.com/images/no-image.jpg
p211
asg22
V#58
p212
sg24
V1997-98
p213
sg26
g27
sg28
(lp214
VSam Cassell
p215
assbag1
(g2
g3
Ntp216
Rp217
(dp218
g7
(dp219
g9
V1997-98 Metal Universe Championship Precious Metal Gems #83 Kerry Kittles
p220
sg11
I50
sg12
VMetal Universe Championship Precious Metal Gems
p221
sg14
(lp222
Vhttp://www.beckett.com/basketball/1997-98/metal-universe-championship-precious-metal-gems/83-kerry-kittles-3140758
p223
asg17
g18
sg19
(lp224
Vhttp://img.beckett.com/images/no-image.jpg
p225
asg22
V#83
p226
sg24
V1997-98
p227
sg26
g27
sg28
(lp228
VKerry Kittles
p229
assbag1
(g2
g3
Ntp230
Rp231
(dp232
g7
(dp233
g9
V1997-98 SkyBox Premium Star Rubies #123 Kerry Kittles
p234
sg11
I50
sg12
VSkyBox Premium Star Rubies
p235
sg14
(lp236
Vhttp://www.beckett.com/basketball/1997-98/skybox-premium-star-rubies/123-kerry-kittles-3141294
p237
asg17
g18
sg19
(lp238
Vhttp://img.beckett.com/images/no-image.jpg
p239
asg22
V#123
p240
sg24
V1997-98
p241
sg26
g27
sg28
(lp242
VKerry Kittles
p243
assbag1
(g2
g3
Ntp244
Rp245
(dp246
g7
(dp247
g9
V1997-98 SkyBox Premium Star Rubies #144 Chris Gatling
p248
sg11
I50
sg12
VSkyBox Premium Star Rubies
p249
sg14
(lp250
Vhttp://www.beckett.com/basketball/1997-98/skybox-premium-star-rubies/144-chris-gatling-3141313
p251
asg17
g18
sg19
(lp252
Vhttp://img.beckett.com/images/no-image.jpg
p253
asg22
V#144
p254
sg24
V1997-98
p255
sg26
g27
sg28
(lp256
VChris Gatling
p257
assbag1
(g2
g3
Ntp258
Rp259
(dp260
g7
(dp261
g9
V1997-98 SkyBox Premium Star Rubies #151 Jayson Williams
p262
sg11
I50
sg12
VSkyBox Premium Star Rubies
p263
sg14
(lp264
Vhttp://www.beckett.com/basketball/1997-98/skybox-premium-star-rubies/151-jayson-williams-3141320
p265
asg17
g18
sg19
(lp266
Vhttp://img.beckett.com/images/no-image.jpg
p267
asg22
V#151
p268
sg24
V1997-98
p269
sg26
g27
sg28
(lp270
VJayson Williams
p271
assbag1
(g2
g3
Ntp272
Rp273
(dp274
g7
(dp275
g9
V1997-98 SkyBox Premium Star Rubies #159 Sam Cassell
p276
sg11
I50
sg12
VSkyBox Premium Star Rubies
p277
sg14
(lp278
Vhttp://www.beckett.com/basketball/1997-98/skybox-premium-star-rubies/159-sam-cassell-3141328
p279
asg17
g18
sg19
(lp280
Vhttp://img.beckett.com/images/no-image.jpg
p281
asg22
V#159
p282
sg24
V1997-98
p283
sg26
g27
sg28
(lp284
VSam Cassell
p285
assbag1
(g2
g3
Ntp286
Rp287
(dp288
g7
(dp289
g9
V1997-98 SkyBox Premium Autographics Century Marks #41 Chris Gatling
p290
sg11
I100
sg12
VSkyBox Premium Autographics Century Marks
p291
sg14
(lp292
Vhttp://www.beckett.com/basketball/1997-98/skybox-premium-autographics-century-marks/41-chris-gatling-3141623
p293
asg17
g18
sg19
(lp294
Vhttp://img.beckett.com/images/no-image.jpg
p295
asg22
V#41
p296
sS'autograph'
p297
I1
sg24
V1997-98
p298
sg26
g27
sg28
(lp299
VChris Gatling
p300
assbag1
(g2
g3
Ntp301
Rp302
(dp303
g7
(dp304
g9
V1997-98 SkyBox Premium Autographics Century Marks #62 Kerry Kittles
p305
sg11
I100
sg12
VSkyBox Premium Autographics Century Marks
p306
sg14
(lp307
Vhttp://www.beckett.com/basketball/1997-98/skybox-premium-autographics-century-marks/62-kerry-kittles-3141644
p308
asg17
g18
sg19
(lp309
Vhttp://img.beckett.com/images/no-image.jpg
p310
asg22
V#62
p311
sg297
I1
sg24
V1997-98
p312
sg26
g27
sg28
(lp313
VKerry Kittles
p314
assbag1
(g2
g3
Ntp315
Rp316
(dp317
g7
(dp318
g9
V1997-98 Stadium Club One Of A Kind #53 Kerry Kittles
p319
sg11
I150
sg12
VStadium Club One Of A Kind
p320
sg14
(lp321
Vhttp://www.beckett.com/basketball/1997-98/stadium-club-one-of-a-kind/53-kerry-kittles-3138352
p322
asg17
g18
sg19
(lp323
Vhttp://img.beckett.com/images/items_stock/185226/3138288/3138352/front.jpg
p324
asg22
V#53
p325
sg24
V1997-98
p326
sg26
g27
sg28
(lp327
VKerry Kittles
p328
assbag1
(g2
g3
Ntp329
Rp330
(dp331
g7
(dp332
g9
V1997-98 Stadium Club One Of A Kind #54 Kerry Kittles
p333
sg11
I150
sg12
VStadium Club One Of A Kind
p334
sg14
(lp335
Vhttp://www.beckett.com/basketball/1997-98/stadium-club-one-of-a-kind/54-kerry-kittles-3138353
p336
asg17
g18
sg19
(lp337
Vhttp://img.beckett.com/images/items_stock/185226/3138288/3138353/front.jpg
p338
asg22
V#54
p339
sg24
V1997-98
p340
sg26
g27
sg28
(lp341
VKerry Kittles
p342
assbag1
(g2
g3
Ntp343
Rp344
(dp345
g7
(dp346
g9
V1997-98 Stadium Club One Of A Kind #162 Sam Cassell
p347
sg11
I150
sg12
VStadium Club One Of A Kind
p348
sg14
(lp349
Vhttp://www.beckett.com/basketball/1997-98/stadium-club-one-of-a-kind/162-sam-cassell-3138461
p350
asg17
g18
sg19
(lp351
Vhttp://img.beckett.com/images/no-image.jpg
p352
asg22
V#162
p353
sg24
V1997-98
p354
sg26
g27
sg28
(lp355
VSam Cassell
p356
assbag1
(g2
g3
Ntp357
Rp358
(dp359
g7
(dp360
g9
V1997-98 Stadium Club One Of A Kind #165 Sam Cassell
p361
sg11
I150
sg12
VStadium Club One Of A Kind
p362
sg14
(lp363
Vhttp://www.beckett.com/basketball/1997-98/stadium-club-one-of-a-kind/165-sam-cassell-3138464
p364
asg17
g18
sg19
(lp365
Vhttp://img.beckett.com/images/items_stock/185226/3138288/3138464/front.jpg
p366
asg22
V#165
p367
sg24
V1997-98
p368
sg26
g27
sg28
(lp369
VSam Cassell
p370
assbag1
(g2
g3
Ntp371
Rp372
(dp373
g7
(dp374
g9
V1997-98 Stadium Club One Of A Kind #180 Jayson Williams
p375
sg11
I150
sg12
VStadium Club One Of A Kind
p376
sg14
(lp377
Vhttp://www.beckett.com/basketball/1997-98/stadium-club-one-of-a-kind/180-jayson-williams-3138479
p378
asg17
g18
sg19
(lp379
Vhttp://img.beckett.com/images/no-image.jpg
p380
asg22
V#180
p381
sg24
V1997-98
p382
sg26
g27
sg28
(lp383
VJayson Williams
p384
assbag1
(g2
g3
Ntp385
Rp386
(dp387
g7
(dp388
g9
V1997-98 Stadium Club Printing Plates #53 Kerry Kittles Black
p389
sg11
I1
sg12
VStadium Club Printing Plates
p390
sg14
(lp391
Vhttp://www.beckett.com/basketball/1997-98/stadium-club-printing-plates/53-kerry-kittles-black-3138753
p392
asg17
g18
sg19
(lp393
Vhttp://img.beckett.com/images/no-image.jpg
p394
asg22
V#53
p395
sg24
V1997-98
p396
sg26
g27
sg28
(lp397
VKerry Kittles Black
p398
assbag1
(g2
g3
Ntp399
Rp400
(dp401
g7
(dp402
g9
V1997-98 Stadium Club Printing Plates #53A Kerry Kittles Cyan
p403
sg11
I1
sg12
VStadium Club Printing Plates
p404
sg14
(lp405
Vhttp://www.beckett.com/basketball/1997-98/stadium-club-printing-plates/53a-kerry-kittles-cyan-3138754
p406
asg17
g18
sg19
(lp407
Vhttp://img.beckett.com/images/no-image.jpg
p408
asg22
V#53A
p409
sg24
V1997-98
p410
sg26
g27
sg28
(lp411
VKerry Kittles Cyan
p412
assbag1
(g2
g3
Ntp413
Rp414
(dp415
g7
(dp416
g9
V1997-98 Stadium Club Printing Plates #53B Kerry Kittles Magenta
p417
sg11
I1
sg12
VStadium Club Printing Plates
p418
sg14
(lp419
Vhttp://www.beckett.com/basketball/1997-98/stadium-club-printing-plates/53b-kerry-kittles-magenta-3138755
p420
asg17
g18
sg19
(lp421
Vhttp://img.beckett.com/images/no-image.jpg
p422
asg22
V#53B
p423
sg24
V1997-98
p424
sg26
g27
sg28
(lp425
VKerry Kittles Magenta
p426
assbag1
(g2
g3
Ntp427
Rp428
(dp429
g7
(dp430
g9
V1997-98 Stadium Club Printing Plates #53C Kerry Kittles Yellow
p431
sg11
I1
sg12
VStadium Club Printing Plates
p432
sg14
(lp433
Vhttp://www.beckett.com/basketball/1997-98/stadium-club-printing-plates/53c-kerry-kittles-yellow-3138756
p434
asg17
g18
sg19
(lp435
Vhttp://img.beckett.com/images/no-image.jpg
p436
asg22
V#53C
p437
sg24
V1997-98
p438
sg26
g27
sg28
(lp439
VKerry Kittles Yellow
p440
assbag1
(g2
g3
Ntp441
Rp442
(dp443
g7
(dp444
g9
V1997-98 Stadium Club Printing Plates #54 Kerry Kittles Black
p445
sg11
I1
sg12
VStadium Club Printing Plates
p446
sg14
(lp447
Vhttp://www.beckett.com/basketball/1997-98/stadium-club-printing-plates/54-kerry-kittles-black-3138757
p448
asg17
g18
sg19
(lp449
Vhttp://img.beckett.com/images/no-image.jpg
p450
asg22
V#54
p451
sg24
V1997-98
p452
sg26
g27
sg28
(lp453
VKerry Kittles Black
p454
assbag1
(g2
g3
Ntp455
Rp456
(dp457
g7
(dp458
g9
V1997-98 Stadium Club Printing Plates #54A Kerry Kittles Cyan
p459
sg11
I1
sg12
VStadium Club Printing Plates
p460
sg14
(lp461
Vhttp://www.beckett.com/basketball/1997-98/stadium-club-printing-plates/54a-kerry-kittles-cyan-3138758
p462
asg17
g18
sg19
(lp463
Vhttp://img.beckett.com/images/no-image.jpg
p464
asg22
V#54A
p465
sg24
V1997-98
p466
sg26
g27
sg28
(lp467
VKerry Kittles Cyan
p468
assbag1
(g2
g3
Ntp469
Rp470
(dp471
g7
(dp472
g9
V1997-98 Stadium Club Printing Plates #54B Kerry Kittles Magenta
p473
sg11
I1
sg12
VStadium Club Printing Plates
p474
sg14
(lp475
Vhttp://www.beckett.com/basketball/1997-98/stadium-club-printing-plates/54b-kerry-kittles-magenta-3138759
p476
asg17
g18
sg19
(lp477
Vhttp://img.beckett.com/images/no-image.jpg
p478
asg22
V#54B
p479
sg24
V1997-98
p480
sg26
g27
sg28
(lp481
VKerry Kittles Magenta
p482
assbag1
(g2
g3
Ntp483
Rp484
(dp485
g7
(dp486
g9
V1997-98 Stadium Club Printing Plates #54C Kerry Kittles Yellow
p487
sg11
I1
sg12
VStadium Club Printing Plates
p488
sg14
(lp489
Vhttp://www.beckett.com/basketball/1997-98/stadium-club-printing-plates/54c-kerry-kittles-yellow-3138760
p490
asg17
g18
sg19
(lp491
Vhttp://img.beckett.com/images/no-image.jpg
p492
asg22
V#54C
p493
sg24
V1997-98
p494
sg26
g27
sg28
(lp495
VKerry Kittles Yellow
p496
assbag1
(g2
g3
Ntp497
Rp498
(dp499
g7
(dp500
g9
V1997-98 Stadium Club Printing Plates #162 Sam Cassell Black
p501
sg11
I1
sg12
VStadium Club Printing Plates
p502
sg14
(lp503
Vhttp://www.beckett.com/basketball/1997-98/stadium-club-printing-plates/162-sam-cassell-black-3139189
p504
asg17
g18
sg19
(lp505
Vhttp://img.beckett.com/images/no-image.jpg
p506
asg22
V#162
p507
sg24
V1997-98
p508
sg26
g27
sg28
(lp509
VSam Cassell Black
p510
assbag1
(g2
g3
Ntp511
Rp512
(dp513
g7
(dp514
g9
V1997-98 Stadium Club Printing Plates #162A Sam Cassell Cyan
p515
sg11
I1
sg12
VStadium Club Printing Plates
p516
sg14
(lp517
Vhttp://www.beckett.com/basketball/1997-98/stadium-club-printing-plates/162a-sam-cassell-cyan-3139190
p518
asg17
g18
sg19
(lp519
Vhttp://img.beckett.com/images/no-image.jpg
p520
asg22
V#162A
p521
sg24
V1997-98
p522
sg26
g27
sg28
(lp523
VSam Cassell Cyan
p524
assbag1
(g2
g3
Ntp525
Rp526
(dp527
g7
(dp528
g9
V1997-98 Stadium Club Printing Plates #162B Sam Cassell Magenta
p529
sg11
I1
sg12
VStadium Club Printing Plates
p530
sg14
(lp531
Vhttp://www.beckett.com/basketball/1997-98/stadium-club-printing-plates/162b-sam-cassell-magenta-3139191
p532
asg17
g18
sg19
(lp533
Vhttp://img.beckett.com/images/no-image.jpg
p534
asg22
V#162B
p535
sg24
V1997-98
p536
sg26
g27
sg28
(lp537
VSam Cassell Magenta
p538
assbag1
(g2
g3
Ntp539
Rp540
(dp541
g7
(dp542
g9
V1997-98 Stadium Club Printing Plates #162C Sam Cassell Yellow
p543
sg11
I1
sg12
VStadium Club Printing Plates
p544
sg14
(lp545
Vhttp://www.beckett.com/basketball/1997-98/stadium-club-printing-plates/162c-sam-cassell-yellow-3139192
p546
asg17
g18
sg19
(lp547
Vhttp://img.beckett.com/images/no-image.jpg
p548
asg22
V#162C
p549
sg24
V1997-98
p550
sg26
g27
sg28
(lp551
VSam Cassell Yellow
p552
assbag1
(g2
g3
Ntp553
Rp554
(dp555
g7
(dp556
g9
V1997-98 Stadium Club Printing Plates #165 Sam Cassell Black
p557
sg11
I1
sg12
VStadium Club Printing Plates
p558
sg14
(lp559
Vhttp://www.beckett.com/basketball/1997-98/stadium-club-printing-plates/165-sam-cassell-black-3139201
p560
asg17
g18
sg19
(lp561
Vhttp://img.beckett.com/images/no-image.jpg
p562
asg22
V#165
p563
sg24
V1997-98
p564
sg26
g27
sg28
(lp565
VSam Cassell Black
p566
assbag1
(g2
g3
Ntp567
Rp568
(dp569
g7
(dp570
g9
V1997-98 Stadium Club Printing Plates #165A Sam Cassell Cyan
p571
sg11
I1
sg12
VStadium Club Printing Plates
p572
sg14
(lp573
Vhttp://www.beckett.com/basketball/1997-98/stadium-club-printing-plates/165a-sam-cassell-cyan-3139202
p574
asg17
g18
sg19
(lp575
Vhttp://img.beckett.com/images/no-image.jpg
p576
asg22
V#165A
p577
sg24
V1997-98
p578
sg26
g27
sg28
(lp579
VSam Cassell Cyan
p580
assbag1
(g2
g3
Ntp581
Rp582
(dp583
g7
(dp584
g9
V1997-98 Stadium Club Printing Plates #165B Sam Cassell Magenta
p585
sg11
I1
sg12
VStadium Club Printing Plates
p586
sg14
(lp587
Vhttp://www.beckett.com/basketball/1997-98/stadium-club-printing-plates/165b-sam-cassell-magenta-3139203
p588
asg17
g18
sg19
(lp589
Vhttp://img.beckett.com/images/no-image.jpg
p590
asg22
V#165B
p591
sg24
V1997-98
p592
sg26
g27
sg28
(lp593
VSam Cassell Magenta
p594
assbag1
(g2
g3
Ntp595
Rp596
(dp597
g7
(dp598
g9
V1997-98 Stadium Club Printing Plates #165C Sam Cassell Yellow
p599
sg11
I1
sg12
VStadium Club Printing Plates
p600
sg14
(lp601
Vhttp://www.beckett.com/basketball/1997-98/stadium-club-printing-plates/165c-sam-cassell-yellow-3139204
p602
asg17
g18
sg19
(lp603
Vhttp://img.beckett.com/images/no-image.jpg
p604
asg22
V#165C
p605
sg24
V1997-98
p606
sg26
g27
sg28
(lp607
VSam Cassell Yellow
p608
assbag1
(g2
g3
Ntp609
Rp610
(dp611
g7
(dp612
g9
V1997-98 Stadium Club Printing Plates #180 Jayson Williams Black
p613
sg11
I1
sg12
VStadium Club Printing Plates
p614
sg14
(lp615
Vhttp://www.beckett.com/basketball/1997-98/stadium-club-printing-plates/180-jayson-williams-black-3139261
p616
asg17
g18
sg19
(lp617
Vhttp://img.beckett.com/images/no-image.jpg
p618
asg22
V#180
p619
sg24
V1997-98
p620
sg26
g27
sg28
(lp621
VJayson Williams Black
p622
assbag1
(g2
g3
Ntp623
Rp624
(dp625
g7
(dp626
g9
V1997-98 Stadium Club Printing Plates #180A Jayson Williams Cyan
p627
sg11
I1
sg12
VStadium Club Printing Plates
p628
sg14
(lp629
Vhttp://www.beckett.com/basketball/1997-98/stadium-club-printing-plates/180a-jayson-williams-cyan-3139262
p630
asg17
g18
sg19
(lp631
Vhttp://img.beckett.com/images/no-image.jpg
p632
asg22
V#180A
p633
sg24
V1997-98
p634
sg26
g27
sg28
(lp635
VJayson Williams Cyan
p636
assbag1
(g2
g3
Ntp637
Rp638
(dp639
g7
(dp640
g9
V1997-98 Stadium Club Printing Plates #180B Jayson Williams Magenta
p641
sg11
I1
sg12
VStadium Club Printing Plates
p642
sg14
(lp643
Vhttp://www.beckett.com/basketball/1997-98/stadium-club-printing-plates/180b-jayson-williams-magenta-3139263
p644
asg17
g18
sg19
(lp645
Vhttp://img.beckett.com/images/no-image.jpg
p646
asg22
V#180B
p647
sg24
V1997-98
p648
sg26
g27
sg28
(lp649
VJayson Williams Magenta
p650
assbag1
(g2
g3
Ntp651
Rp652
(dp653
g7
(dp654
g9
V1997-98 Stadium Club Printing Plates #180C Jayson Williams Yellow
p655
sg11
I1
sg12
VStadium Club Printing Plates
p656
sg14
(lp657
Vhttp://www.beckett.com/basketball/1997-98/stadium-club-printing-plates/180c-jayson-williams-yellow-3139264
p658
asg17
g18
sg19
(lp659
Vhttp://img.beckett.com/images/no-image.jpg
p660
asg22
V#180C
p661
sg24
V1997-98
p662
sg26
g27
sg28
(lp663
VJayson Williams Yellow
p664
assbag1
(g2
g3
Ntp665
Rp666
(dp667
g7
(dp668
g9
V1997-98 Ultra Masterpieces #61 Kerry Kittles
p669
sg11
I1
sg12
VUltra Masterpieces
p670
sg14
(lp671
Vhttp://www.beckett.com/basketball/1997-98/ultra-masterpieces/61-kerry-kittles-3135791
p672
asg17
g18
sg19
(lp673
Vhttp://img.beckett.com/images/no-image.jpg
p674
asg22
V#61
p675
sg24
V1997-98
p676
sg26
g27
sg28
(lp677
VKerry Kittles
p678
assbag1
(g2
g3
Ntp679
Rp680
(dp681
g7
(dp682
g9
V1997-98 Ultra Masterpieces #68 Jayson Williams
p683
sg11
I1
sg12
VUltra Masterpieces
p684
sg14
(lp685
Vhttp://www.beckett.com/basketball/1997-98/ultra-masterpieces/68-jayson-williams-3135798
p686
asg17
g18
sg19
(lp687
Vhttp://img.beckett.com/images/no-image.jpg
p688
asg22
V#68
p689
sg24
V1997-98
p690
sg26
g27
sg28
(lp691
VJayson Williams
p692
assbag1
(g2
g3
Ntp693
Rp694
(dp695
g7
(dp696
g9
V1997-98 Ultra Masterpieces #100 Chris Gatling
p697
sg11
I1
sg12
VUltra Masterpieces
p698
sg14
(lp699
Vhttp://www.beckett.com/basketball/1997-98/ultra-masterpieces/100-chris-gatling-3135830
p700
asg17
g18
sg19
(lp701
Vhttp://img.beckett.com/images/no-image.jpg
p702
asg22
V#100
p703
sg24
V1997-98
p704
sg26
g27
sg28
(lp705
VChris Gatling
p706
assbag1
(g2
g3
Ntp707
Rp708
(dp709
g7
(dp710
g9
V1997-98 Ultra Masterpieces #190 Sam Cassell
p711
sg11
I1
sg12
VUltra Masterpieces
p712
sg14
(lp713
Vhttp://www.beckett.com/basketball/1997-98/ultra-masterpieces/190-sam-cassell-3135918
p714
asg17
g18
sg19
(lp715
Vhttp://img.beckett.com/images/no-image.jpg
p716
asg22
V#190
p717
sg24
V1997-98
p718
sg26
g27
sg28
(lp719
VSam Cassell
p720
assbag1
(g2
g3
Ntp721
Rp722
(dp723
g7
(dp724
g9
V1997-98 Ultra Masterpieces #194 David Benoit
p725
sg11
I1
sg12
VUltra Masterpieces
p726
sg14
(lp727
Vhttp://www.beckett.com/basketball/1997-98/ultra-masterpieces/194-david-benoit-3135922
p728
asg17
g18
sg19
(lp729
Vhttp://img.beckett.com/images/no-image.jpg
p730
asg22
V#194
p731
sg24
V1997-98
p732
sg26
g27
sg28
(lp733
VDavid Benoit
p734
assbag1
(g2
g3
Ntp735
Rp736
(dp737
g7
(dp738
g9
V1997-98 Ultra Masterpieces #261 Kerry Kittles GRE
p739
sg11
I1
sg12
VUltra Masterpieces
p740
sg14
(lp741
Vhttp://www.beckett.com/basketball/1997-98/ultra-masterpieces/261-kerry-kittles-gre-3135989
p742
asg17
g18
sg19
(lp743
Vhttp://img.beckett.com/images/no-image.jpg
p744
asg22
V#261
p745
sg24
V1997-98
p746
sg85
VGRE
p747
sg26
g27
sg28
(lp748
VKerry Kittles
p749
assbag1
(g2
g3
Ntp750
Rp751
(dp752
g7
(dp753
g9
V1997-98 Ultra Platinum Medallion #61 Kerry Kittles
p754
sg11
I100
sg12
VUltra Platinum Medallion
p755
sg14
(lp756
Vhttp://www.beckett.com/basketball/1997-98/ultra-platinum-medallion/61-kerry-kittles-3136075
p757
asg17
g18
sg19
(lp758
Vhttp://img.beckett.com/images/no-image.jpg
p759
asg22
V#61
p760
sg24
V1997-98
p761
sg26
g27
sg28
(lp762
VKerry Kittles
p763
assbag1
(g2
g3
Ntp764
Rp765
(dp766
g7
(dp767
g9
V1997-98 Ultra Platinum Medallion #68 Jayson Williams
p768
sg11
I100
sg12
VUltra Platinum Medallion
p769
sg14
(lp770
Vhttp://www.beckett.com/basketball/1997-98/ultra-platinum-medallion/68-jayson-williams-3136082
p771
asg17
g18
sg19
(lp772
Vhttp://img.beckett.com/images/no-image.jpg
p773
asg22
V#68
p774
sg24
V1997-98
p775
sg26
g27
sg28
(lp776
VJayson Williams
p777
assbag1
(g2
g3
Ntp778
Rp779
(dp780
g7
(dp781
g9
V1997-98 Ultra Platinum Medallion #100 Chris Gatling
p782
sg11
I100
sg12
VUltra Platinum Medallion
p783
sg14
(lp784
Vhttp://www.beckett.com/basketball/1997-98/ultra-platinum-medallion/100-chris-gatling-3136114
p785
asg17
g18
sg19
(lp786
Vhttp://img.beckett.com/images/no-image.jpg
p787
asg22
V#100
p788
sg24
V1997-98
p789
sg26
g27
sg28
(lp790
VChris Gatling
p791
assbag1
(g2
g3
Ntp792
Rp793
(dp794
g7
(dp795
g9
V1997-98 Ultra Platinum Medallion #190 Sam Cassell
p796
sg11
I100
sg12
VUltra Platinum Medallion
p797
sg14
(lp798
Vhttp://www.beckett.com/basketball/1997-98/ultra-platinum-medallion/190-sam-cassell-3136202
p799
asg17
g18
sg19
(lp800
Vhttp://img.beckett.com/images/no-image.jpg
p801
asg22
V#190
p802
sg24
V1997-98
p803
sg26
g27
sg28
(lp804
VSam Cassell
p805
assbag1
(g2
g3
Ntp806
Rp807
(dp808
g7
(dp809
g9
V1997-98 Ultra Platinum Medallion #194 David Benoit
p810
sg11
I100
sg12
VUltra Platinum Medallion
p811
sg14
(lp812
Vhttp://www.beckett.com/basketball/1997-98/ultra-platinum-medallion/194-david-benoit-3136206
p813
asg17
g18
sg19
(lp814
Vhttp://img.beckett.com/images/no-image.jpg
p815
asg22
V#194
p816
sg24
V1997-98
p817
sg26
g27
sg28
(lp818
VDavid Benoit
p819
assbag1
(g2
g3
Ntp820
Rp821
(dp822
g7
(dp823
g9
V1997-98 Ultra Platinum Medallion #261 Kerry Kittles GRE
p824
sg11
I100
sg12
VUltra Platinum Medallion
p825
sg14
(lp826
Vhttp://www.beckett.com/basketball/1997-98/ultra-platinum-medallion/261-kerry-kittles-gre-3136273
p827
asg17
g18
sg19
(lp828
Vhttp://img.beckett.com/images/no-image.jpg
p829
asg22
V#261
p830
sg24
V1997-98
p831
sg85
VGRE
p832
sg26
g27
sg28
(lp833
VKerry Kittles
p834
assbag1
(g2
g3
Ntp835
Rp836
(dp837
g7
(dp838
g9
V1997-98 Z-Force Rave #30 Kerry Kittles
p839
sg11
I399
sg12
VZ-Force Rave
p840
sg14
(lp841
Vhttp://www.beckett.com/basketball/1997-98/z-force-rave/30-kerry-kittles-3133054
p842
asg17
g18
sg19
(lp843
Vhttp://img.beckett.com/images/no-image.jpg
p844
asg22
V#30
p845
sg24
V1997-98
p846
sg26
g27
sg28
(lp847
VKerry Kittles
p848
assbag1
(g2
g3
Ntp849
Rp850
(dp851
g7
(dp852
g9
V1997-98 Z-Force Rave #104 Sam Cassell
p853
sg11
I399
sg12
VZ-Force Rave
p854
sg14
(lp855
Vhttp://www.beckett.com/basketball/1997-98/z-force-rave/104-sam-cassell-3133128
p856
asg17
g18
sg19
(lp857
Vhttp://img.beckett.com/images/items_stock/185226/3133012/3133128/front.jpg
p858
asg22
V#104
p859
sg24
V1997-98
p860
sg26
g27
sg28
(lp861
VSam Cassell
p862
assbag1
(g2
g3
Ntp863
Rp864
(dp865
g7
(dp866
g9
V1997-98 Z-Force Rave #132 Chris Gatling
p867
sg11
I399
sg12
VZ-Force Rave
p868
sg14
(lp869
Vhttp://www.beckett.com/basketball/1997-98/z-force-rave/132-chris-gatling-3133154
p870
asg17
g18
sg19
(lp871
Vhttp://img.beckett.com/images/no-image.jpg
p872
asg22
V#132
p873
sg24
V1997-98
p874
sg26
g27
sg28
(lp875
VChris Gatling
p876
assbag1
(g2
g3
Ntp877
Rp878
(dp879
g7
(dp880
g9
V1997-98 Z-Force Rave #154 Jayson Williams
p881
sg11
I399
sg12
VZ-Force Rave
p882
sg14
(lp883
Vhttp://www.beckett.com/basketball/1997-98/z-force-rave/154-jayson-williams-3133176
p884
asg17
g18
sg19
(lp885
Vhttp://img.beckett.com/images/items_stock/185226/3133012/3133176/front.jpg
p886
asg22
V#154
p887
sg24
V1997-98
p888
sg26
g27
sg28
(lp889
VJayson Williams
p890
assbag1
(g2
g3
Ntp891
Rp892
(dp893
g7
(dp894
g9
V1997-98 Z-Force Rave #167 Sam Cassell
p895
sg11
I399
sg12
VZ-Force Rave
p896
sg14
(lp897
Vhttp://www.beckett.com/basketball/1997-98/z-force-rave/167-sam-cassell-3133189
p898
asg17
g18
sg19
(lp899
Vhttp://img.beckett.com/images/items_stock/185226/3133012/3133189/front.jpg
p900
asg22
V#167
p901
sg24
V1997-98
p902
sg26
g27
sg28
(lp903
VSam Cassell
p904
assbag1
(g2
g3
Ntp905
Rp906
(dp907
g7
(dp908
g9
V1997-98 Z-Force Rave #174 Kerry Kittles
p909
sg11
I399
sg12
VZ-Force Rave
p910
sg14
(lp911
Vhttp://www.beckett.com/basketball/1997-98/z-force-rave/174-kerry-kittles-3133197
p912
asg17
g18
sg19
(lp913
Vhttp://img.beckett.com/images/no-image.jpg
p914
asg22
V#174
p915
sg24
V1997-98
p916
sg26
g27
sg28
(lp917
VKerry Kittles
p918
assbag1
(g2
g3
Ntp919
Rp920
(dp921
g7
(dp922
g9
V1997-98 Z-Force Super Rave #132 Chris Gatling
p923
sg11
I50
sg12
VZ-Force Super Rave
p924
sg14
(lp925
Vhttp://www.beckett.com/basketball/1997-98/z-force-super-rave/132-chris-gatling-3133266
p926
asg17
g18
sg19
(lp927
Vhttp://img.beckett.com/images/no-image.jpg
p928
asg22
V#132
p929
sg24
V1997-98
p930
sg26
g27
sg28
(lp931
VChris Gatling
p932
assbag1
(g2
g3
Ntp933
Rp934
(dp935
g7
(dp936
g9
V1997-98 Z-Force Super Rave #154 Jayson Williams
p937
sg11
I50
sg12
VZ-Force Super Rave
p938
sg14
(lp939
Vhttp://www.beckett.com/basketball/1997-98/z-force-super-rave/154-jayson-williams-3133288
p940
asg17
g18
sg19
(lp941
Vhttp://img.beckett.com/images/no-image.jpg
p942
asg22
V#154
p943
sg24
V1997-98
p944
sg26
g27
sg28
(lp945
VJayson Williams
p946
assbag1
(g2
g3
Ntp947
Rp948
(dp949
g7
(dp950
g9
V1997-98 Z-Force Super Rave #167 Sam Cassell
p951
sg11
I50
sg12
VZ-Force Super Rave
p952
sg14
(lp953
Vhttp://www.beckett.com/basketball/1997-98/z-force-super-rave/167-sam-cassell-3133301
p954
asg17
g18
sg19
(lp955
Vhttp://img.beckett.com/images/no-image.jpg
p956
asg22
V#167
p957
sg24
V1997-98
p958
sg26
g27
sg28
(lp959
VSam Cassell
p960
assbag1
(g2
g3
Ntp961
Rp962
(dp963
g7
(dp964
g9
V1997-98 Z-Force Super Rave #174 Kerry Kittles
p965
sg11
I50
sg12
VZ-Force Super Rave
p966
sg14
(lp967
Vhttp://www.beckett.com/basketball/1997-98/z-force-super-rave/174-kerry-kittles-3133309
p968
asg17
g18
sg19
(lp969
Vhttp://img.beckett.com/images/no-image.jpg
p970
asg22
V#174
p971
sg24
V1997-98
p972
sg26
g27
sg28
(lp973
VKerry Kittles
p974
assbag1
(g2
g3
Ntp975
Rp976
(dp977
g7
(dp978
g9
V1997-98 Upper Deck High Dimensions #D10 Kerry Kittles
p979
sg11
I2000
sg12
VUpper Deck High Dimensions
p980
sg14
(lp981
Vhttp://www.beckett.com/basketball/1997-98/upper-deck-high-dimensions/d10-kerry-kittles-3132432
p982
asg17
g18
sg19
(lp983
Vhttp://img.beckett.com/images/no-image.jpg
p984
asg22
V#D10
p985
sg24
V1997-98
p986
sg26
g27
sg28
(lp987
VKerry Kittles
p988
assbag1
(g2
g3
Ntp989
Rp990
(dp991
g7
(dp992
g9
V1997-98 Hoops High Voltage 500 #HV9 Kerry Kittles
p993
sg11
I500
sg12
VHoops High Voltage 500
p994
sg14
(lp995
Vhttp://www.beckett.com/basketball/1997-98/hoops-high-voltage-500/hv9-kerry-kittles-3142298
p996
asg17
g18
sg19
(lp997
Vhttp://img.beckett.com/images/no-image.jpg
p998
asg22
V#HV9
p999
sg24
V1997-98
p1000
sg26
g27
sg28
(lp1001
VKerry Kittles
p1002
assbag1
(g2
g3
Ntp1003
Rp1004
(dp1005
g7
(dp1006
g9
V1997-98 Metal Universe Precious Metal Gems Emerald #47 Kerry Kittles
p1007
sg11
I10
sg12
VMetal Universe Precious Metal Gems Emerald
p1008
sg14
(lp1009
Vhttp://www.beckett.com/basketball/1997-98/metal-universe-precious-metal-gems-emerald/47-kerry-kittles-7055496
p1010
asg17
g18
sg19
(lp1011
Vhttp://img.beckett.com/images/no-image.jpg
p1012
asg22
V#47
p1013
sg24
V1997-98
p1014
sg26
g27
sg28
(lp1015
VKerry Kittles
p1016
assbag1
(g2
g3
Ntp1017
Rp1018
(dp1019
g7
(dp1020
g9
V1997-98 Upper Deck Diamond Dimensions #D10 Kerry Kittles
p1021
sg11
I100
sg12
VUpper Deck Diamond Dimensions
p1022
sg14
(lp1023
Vhttp://www.beckett.com/basketball/1997-98/upper-deck-diamond-dimensions/d10-kerry-kittles-3132470
p1024
asg17
g18
sg19
(lp1025
Vhttp://img.beckett.com/images/no-image.jpg
p1026
asg22
V#D10
p1027
sg24
V1997-98
p1028
sg26
g27
sg28
(lp1029
VKerry Kittles
p1030
assba.