(lp0
Naccopy_reg
_reconstructor
p1
(ctutorial.items
BeckettItem
p2
c__builtin__
object
p3
Ntp4
Rp5
(dp6
S'_values'
p7
(dp8
S'originalItemDescription'
p9
V1997-98 E-X2001 Essential Credentials Future #3 Allen Iverson/78
p10
sS'serialNumber'
p11
I78
sS'setName'
p12
VE-X2001 Essential Credentials Future
p13
sS'beckettLink'
p14
(lp15
Vhttp://www.beckett.com/basketball/1997-98/e-x2001-essential-credentials-future/3-allen-iverson78-3144589
p16
asS'team'
p17
S'Philadelphia 76ers'
p18
sS'imageLink'
p19
(lp20
Vhttp://img.beckett.com/images/no-image.jpg
p21
asS'cardNumber'
p22
V#3
p23
sS'year'
p24
V1997-98
p25
sS'sport'
p26
S'Basketball'
p27
sS'playerNames'
p28
(lp29
VAllen Iverson
p30
assbag1
(g2
g3
Ntp31
Rp32
(dp33
g7
(dp34
g9
V1997-98 E-X2001 Essential Credentials Now #3 Allen Iverson/3
p35
sg11
I3
sg12
VE-X2001 Essential Credentials Now
p36
sg14
(lp37
Vhttp://www.beckett.com/basketball/1997-98/e-x2001-essential-credentials-now/3-allen-iverson3-3144676
p38
asg17
g18
sg19
(lp39
Vhttp://img.beckett.com/images/no-image.jpg
p40
asg22
V#3
p41
sg24
V1997-98
p42
sg26
g27
sg28
(lp43
VAllen Iverson
p44
assbag1
(g2
g3
Ntp45
Rp46
(dp47
g7
(dp48
g9
V1997-98 Finest Embossed Refractors #143 Allen Iverson S
p49
sg11
I263
sg12
VFinest Embossed Refractors
p50
sg14
(lp51
Vhttp://www.beckett.com/basketball/1997-98/finest-embossed-refractors/143-allen-iverson-s-3145351
p52
asg17
g18
sg19
(lp53
Vhttp://img.beckett.com/images/no-image.jpg
p54
asg22
V#143
p55
sg24
V1997-98
p56
sS'subsetName'
p57
VS
p58
sg26
g27
sg28
(lp59
VAllen Iverson
p60
assbag1
(g2
g3
Ntp61
Rp62
(dp63
g7
(dp64
g9
V1997-98 Finest Embossed Refractors #320 Allen Iverson G
p65
sg11
I74
sg12
VFinest Embossed Refractors
p66
sg14
(lp67
Vhttp://www.beckett.com/basketball/1997-98/finest-embossed-refractors/320-allen-iverson-g-3145428
p68
asg17
g18
sg19
(lp69
Vhttp://img.beckett.com/images/no-image.jpg
p70
asg22
V#320
p71
sg24
V1997-98
p72
sg57
VG
p73
sg26
g27
sg28
(lp74
VAllen Iverson
p75
assbag1
(g2
g3
Ntp76
Rp77
(dp78
g7
(dp79
g9
V1997-98 Finest Refractors #143 Allen Iverson S
p80
sg11
I1090
sg12
VFinest Refractors
p81
sg14
(lp82
Vhttp://www.beckett.com/basketball/1997-98/finest-refractors/143-allen-iverson-s-3145609
p83
asg17
g18
sg19
(lp84
Vhttp://img.beckett.com/images/items_stock/185226/3145435/3145609/front.jpg
p85
asg22
V#143
p86
sg24
V1997-98
p87
sg57
g58
sg26
g27
sg28
(lp88
VAllen Iverson
p89
assbag1
(g2
g3
Ntp90
Rp91
(dp92
g7
(dp93
g9
V1997-98 Finest Refractors #320 Allen Iverson G
p94
sg11
I289
sg12
VFinest Refractors
p95
sg14
(lp96
Vhttp://www.beckett.com/basketball/1997-98/finest-refractors/320-allen-iverson-g-3145786
p97
asg17
g18
sg19
(lp98
Vhttp://img.beckett.com/images/items_stock/185226/3145435/3145786/front.jpg
p99
asg22
V#320
p100
sg24
V1997-98
p101
sg57
g73
sg26
g27
sg28
(lp102
VAllen Iverson
p103
assbag1
(g2
g3
Ntp104
Rp105
(dp106
g7
(dp107
g9
V1997-98 Flair Showcase Row 0 #3 Allen Iverson
p108
sg11
I250
sg12
VFlair Showcase Row 0
p109
sg14
(lp110
Vhttp://www.beckett.com/basketball/1997-98/flair-showcase-row-0/3-allen-iverson-3146101
p111
asg17
g18
sg19
(lp112
Vhttp://img.beckett.com/images/no-image.jpg
p113
asg22
V#3
p114
sg24
V1997-98
p115
sg26
g27
sg28
(lp116
VAllen Iverson
p117
assbag1
(g2
g3
Ntp118
Rp119
(dp120
g7
(dp121
g9
V1997-98 Flair Showcase Legacy Collection Row 3 #3 Allen Iverson
p122
sg11
I100
sg12
VFlair Showcase Legacy Collection Row 3
p123
sg14
(lp124
Vhttp://www.beckett.com/basketball/1997-98/flair-showcase-legacy-collection-row-3/3-allen-iverson-3148561
p125
asg17
g18
sg19
(lp126
Vhttp://img.beckett.com/images/no-image.jpg
p127
asg22
V#3
p128
sg24
V1997-98
p129
sg26
g27
sg28
(lp130
VAllen Iverson
p131
assbag1
(g2
g3
Ntp132
Rp133
(dp134
g7
(dp135
g9
V1997-98 Metal Universe Precious Metal Gems #20 Allen Iverson
p136
sg11
I90
sg12
VMetal Universe Precious Metal Gems
p137
sg14
(lp138
Vhttp://www.beckett.com/basketball/1997-98/metal-universe-precious-metal-gems/20-allen-iverson-3142611
p139
asg17
g18
sg19
(lp140
Vhttp://img.beckett.com/images/no-image.jpg
p141
asg22
V#20
p142
sg24
V1997-98
p143
sg26
g27
sg28
(lp144
VAllen Iverson
p145
assbag1
(g2
g3
Ntp146
Rp147
(dp148
g7
(dp149
g9
V1997-98 Metal Universe Precious Metal Gems #38 Derrick Coleman
p150
sg11
I90
sg12
VMetal Universe Precious Metal Gems
p151
sg14
(lp152
Vhttp://www.beckett.com/basketball/1997-98/metal-universe-precious-metal-gems/38-derrick-coleman-3142630
p153
asg17
g18
sg19
(lp154
Vhttp://img.beckett.com/images/no-image.jpg
p155
asg22
V#38
p156
sg24
V1997-98
p157
sg26
g27
sg28
(lp158
VDerrick Coleman
p159
assbag1
(g2
g3
Ntp160
Rp161
(dp162
g7
(dp163
g9
V1997-98 Metal Universe Championship Precious Metal Gems #26 Allen Iverson
p164
sg11
I50
sg12
VMetal Universe Championship Precious Metal Gems
p165
sg14
(lp166
Vhttp://www.beckett.com/basketball/1997-98/metal-universe-championship-precious-metal-gems/26-allen-iverson-3140701
p167
asg17
g18
sg19
(lp168
Vhttp://img.beckett.com/images/no-image.jpg
p169
asg22
V#26
p170
sg24
V1997-98
p171
sg26
g27
sg28
(lp172
VAllen Iverson
p173
assbag1
(g2
g3
Ntp174
Rp175
(dp176
g7
(dp177
g9
V1997-98 SkyBox Premium Star Rubies #7 Derrick Coleman
p178
sg11
I50
sg12
VSkyBox Premium Star Rubies
p179
sg14
(lp180
Vhttp://www.beckett.com/basketball/1997-98/skybox-premium-star-rubies/7-derrick-coleman-3141178
p181
asg17
g18
sg19
(lp182
Vhttp://img.beckett.com/images/no-image.jpg
p183
asg22
V#7
p184
sg24
V1997-98
p185
sg26
g27
sg28
(lp186
VDerrick Coleman
p187
assbag1
(g2
g3
Ntp188
Rp189
(dp190
g7
(dp191
g9
V1997-98 SkyBox Premium Star Rubies #100 Allen Iverson
p192
sg11
I50
sg12
VSkyBox Premium Star Rubies
p193
sg14
(lp194
Vhttp://www.beckett.com/basketball/1997-98/skybox-premium-star-rubies/100-allen-iverson-3141271
p195
asg17
g18
sg19
(lp196
Vhttp://img.beckett.com/images/no-image.jpg
p197
asg22
V#100
p198
sg24
V1997-98
p199
sg26
g27
sg28
(lp200
VAllen Iverson
p201
assbag1
(g2
g3
Ntp202
Rp203
(dp204
g7
(dp205
g9
V1997-98 SkyBox Premium Star Rubies #212 Anthony Parker
p206
sg11
I50
sg12
VSkyBox Premium Star Rubies
p207
sg14
(lp208
Vhttp://www.beckett.com/basketball/1997-98/skybox-premium-star-rubies/212-anthony-parker-3141381
p209
asg17
g18
sg19
(lp210
Vhttp://img.beckett.com/images/no-image.jpg
p211
asg22
V#212
p212
sg24
V1997-98
p213
sg26
g27
sg28
(lp214
VAnthony Parker
p215
assbag1
(g2
g3
Ntp216
Rp217
(dp218
g7
(dp219
g9
V1997-98 SkyBox Premium Star Rubies #233 Allen Iverson TS
p220
sg11
I50
sg12
VSkyBox Premium Star Rubies
p221
sg14
(lp222
Vhttp://www.beckett.com/basketball/1997-98/skybox-premium-star-rubies/233-allen-iverson-ts-3141402
p223
asg17
g18
sg19
(lp224
Vhttp://img.beckett.com/images/no-image.jpg
p225
asg22
V#233
p226
sg24
V1997-98
p227
sg57
VTS
p228
sg26
g27
sg28
(lp229
VAllen Iverson
p230
assbag1
(g2
g3
Ntp231
Rp232
(dp233
g7
(dp234
g9
V1997-98 SkyBox Premium Autographics Century Marks #25 Derrick Coleman
p235
sg11
I100
sg12
VSkyBox Premium Autographics Century Marks
p236
sg14
(lp237
Vhttp://www.beckett.com/basketball/1997-98/skybox-premium-autographics-century-marks/25-derrick-coleman-3141607
p238
asg17
g18
sg19
(lp239
Vhttp://img.beckett.com/images/no-image.jpg
p240
asg22
V#25
p241
sS'autograph'
p242
I1
sg24
V1997-98
p243
sg26
g27
sg28
(lp244
VDerrick Coleman
p245
assbag1
(g2
g3
Ntp246
Rp247
(dp248
g7
(dp249
g9
V1997-98 SkyBox Premium Autographics Century Marks #29 Mark Davis
p250
sg11
I100
sg12
VSkyBox Premium Autographics Century Marks
p251
sg14
(lp252
Vhttp://www.beckett.com/basketball/1997-98/skybox-premium-autographics-century-marks/29-mark-davis-3141611
p253
asg17
g18
sg19
(lp254
Vhttp://img.beckett.com/images/no-image.jpg
p255
asg22
V#29
p256
sg242
I1
sg24
V1997-98
p257
sg26
g27
sg28
(lp258
VMark Davis
p259
assbag1
(g2
g3
Ntp260
Rp261
(dp262
g7
(dp263
g9
V1997-98 SkyBox Premium Autographics Century Marks #80 Anthony Parker
p264
sg11
I100
sg12
VSkyBox Premium Autographics Century Marks
p265
sg14
(lp266
Vhttp://www.beckett.com/basketball/1997-98/skybox-premium-autographics-century-marks/80-anthony-parker-3141662
p267
asg17
g18
sg19
(lp268
Vhttp://img.beckett.com/images/no-image.jpg
p269
asg22
V#80
p270
sg242
I1
sg24
V1997-98
p271
sg26
g27
sg28
(lp272
VAnthony Parker
p273
assbag1
(g2
g3
Ntp274
Rp275
(dp276
g7
(dp277
g9
V1997-98 SkyBox Premium Autographics Century Marks #117 Scott Williams
p278
sg11
I100
sg12
VSkyBox Premium Autographics Century Marks
p279
sg14
(lp280
Vhttp://www.beckett.com/basketball/1997-98/skybox-premium-autographics-century-marks/117-scott-williams-3141699
p281
asg17
g18
sg19
(lp282
Vhttp://img.beckett.com/images/no-image.jpg
p283
asg22
V#117
p284
sg242
I1
sg24
V1997-98
p285
sg26
g27
sg28
(lp286
VScott Williams
p287
assbag1
(g2
g3
Ntp288
Rp289
(dp290
g7
(dp291
g9
V1997-98 SPx Grand Finale #30 Allen Iverson
p292
sg11
I50
sg12
VSPx Grand Finale
p293
sg14
(lp294
Vhttp://www.beckett.com/basketball/1997-98/spx-grand-finale/30-allen-iverson-3137714
p295
asg17
g18
sg19
(lp296
Vhttp://img.beckett.com/images/no-image.jpg
p297
asg22
V#30
p298
sg24
V1997-98
p299
sg26
g27
sg28
(lp300
VAllen Iverson
p301
assbag1
(g2
g3
Ntp302
Rp303
(dp304
g7
(dp305
g9
V1997-98 Stadium Club One Of A Kind #36 Derrick Coleman
p306
sg11
I150
sg12
VStadium Club One Of A Kind
p307
sg14
(lp308
Vhttp://www.beckett.com/basketball/1997-98/stadium-club-one-of-a-kind/36-derrick-coleman-3138335
p309
asg17
g18
sg19
(lp310
Vhttp://img.beckett.com/images/no-image.jpg
p311
asg22
V#36
p312
sg24
V1997-98
p313
sg26
g27
sg28
(lp314
VDerrick Coleman
p315
assbag1
(g2
g3
Ntp316
Rp317
(dp318
g7
(dp319
g9
V1997-98 Stadium Club One Of A Kind #59 Mark Davis
p320
sg11
I150
sg12
VStadium Club One Of A Kind
p321
sg14
(lp322
Vhttp://www.beckett.com/basketball/1997-98/stadium-club-one-of-a-kind/59-mark-davis-3138358
p323
asg17
g18
sg19
(lp324
Vhttp://img.beckett.com/images/items_stock/185226/3138288/3138358/front.jpg
p325
asg22
V#59
p326
sg24
V1997-98
p327
sg26
g27
sg28
(lp328
VMark Davis
p329
assbag1
(g2
g3
Ntp330
Rp331
(dp332
g7
(dp333
g9
V1997-98 Stadium Club One Of A Kind #85 Rex Walters
p334
sg11
I150
sg12
VStadium Club One Of A Kind
p335
sg14
(lp336
Vhttp://www.beckett.com/basketball/1997-98/stadium-club-one-of-a-kind/85-rex-walters-3138384
p337
asg17
g18
sg19
(lp338
Vhttp://img.beckett.com/images/no-image.jpg
p339
asg22
V#85
p340
sg24
V1997-98
p341
sg26
g27
sg28
(lp342
VRex Walters
p343
assbag1
(g2
g3
Ntp344
Rp345
(dp346
g7
(dp347
g9
V1997-98 Stadium Club One Of A Kind #125 Allen Iverson
p348
sg11
I150
sg12
VStadium Club One Of A Kind
p349
sg14
(lp350
Vhttp://www.beckett.com/basketball/1997-98/stadium-club-one-of-a-kind/125-allen-iverson-3138424
p351
asg17
g18
sg19
(lp352
Vhttp://img.beckett.com/images/no-image.jpg
p353
asg22
V#125
p354
sg24
V1997-98
p355
sg26
g27
sg28
(lp356
VAllen Iverson
p357
assbag1
(g2
g3
Ntp358
Rp359
(dp360
g7
(dp361
g9
V1997-98 Stadium Club One Of A Kind #126 Allen Iverson
p362
sg11
I150
sg12
VStadium Club One Of A Kind
p363
sg14
(lp364
Vhttp://www.beckett.com/basketball/1997-98/stadium-club-one-of-a-kind/126-allen-iverson-3138425
p365
asg17
g18
sg19
(lp366
Vhttp://img.beckett.com/images/items_stock/185226/3138288/3138425/front.jpg
p367
asg22
V#126
p368
sg24
V1997-98
p369
sg26
g27
sg28
(lp370
VAllen Iverson
p371
assbag1
(g2
g3
Ntp372
Rp373
(dp374
g7
(dp375
g9
V1997-98 Stadium Club One Of A Kind #237 Anthony Parker
p376
sg11
I150
sg12
VStadium Club One Of A Kind
p377
sg14
(lp378
Vhttp://www.beckett.com/basketball/1997-98/stadium-club-one-of-a-kind/237-anthony-parker-3138536
p379
asg17
g18
sg19
(lp380
Vhttp://img.beckett.com/images/no-image.jpg
p381
asg22
V#237
p382
sg24
V1997-98
p383
sg26
g27
sg28
(lp384
VAnthony Parker
p385
assbag1
(g2
g3
Ntp386
Rp387
(dp388
g7
(dp389
g9
V1997-98 Stadium Club Printing Plates #36 Derrick Coleman Black
p390
sg11
I1
sg12
VStadium Club Printing Plates
p391
sg14
(lp392
Vhttp://www.beckett.com/basketball/1997-98/stadium-club-printing-plates/36-derrick-coleman-black-3138685
p393
asg17
g18
sg19
(lp394
Vhttp://img.beckett.com/images/no-image.jpg
p395
asg22
V#36
p396
sg24
V1997-98
p397
sg26
g27
sg28
(lp398
VDerrick Coleman Black
p399
assbag1
(g2
g3
Ntp400
Rp401
(dp402
g7
(dp403
g9
V1997-98 Stadium Club Printing Plates #36A Derrick Coleman Cyan
p404
sg11
I1
sg12
VStadium Club Printing Plates
p405
sg14
(lp406
Vhttp://www.beckett.com/basketball/1997-98/stadium-club-printing-plates/36a-derrick-coleman-cyan-3138686
p407
asg17
g18
sg19
(lp408
Vhttp://img.beckett.com/images/no-image.jpg
p409
asg22
V#36A
p410
sg24
V1997-98
p411
sg26
g27
sg28
(lp412
VDerrick Coleman Cyan
p413
assbag1
(g2
g3
Ntp414
Rp415
(dp416
g7
(dp417
g9
V1997-98 Stadium Club Printing Plates #36B Derrick Coleman Magenta
p418
sg11
I1
sg12
VStadium Club Printing Plates
p419
sg14
(lp420
Vhttp://www.beckett.com/basketball/1997-98/stadium-club-printing-plates/36b-derrick-coleman-magenta-3138687
p421
asg17
g18
sg19
(lp422
Vhttp://img.beckett.com/images/no-image.jpg
p423
asg22
V#36B
p424
sg24
V1997-98
p425
sg26
g27
sg28
(lp426
VDerrick Coleman Magenta
p427
assbag1
(g2
g3
Ntp428
Rp429
(dp430
g7
(dp431
g9
V1997-98 Stadium Club Printing Plates #36C Derrick Coleman Yellow
p432
sg11
I1
sg12
VStadium Club Printing Plates
p433
sg14
(lp434
Vhttp://www.beckett.com/basketball/1997-98/stadium-club-printing-plates/36c-derrick-coleman-yellow-3138688
p435
asg17
g18
sg19
(lp436
Vhttp://img.beckett.com/images/no-image.jpg
p437
asg22
V#36C
p438
sg24
V1997-98
p439
sg26
g27
sg28
(lp440
VDerrick Coleman Yellow
p441
assbag1
(g2
g3
Ntp442
Rp443
(dp444
g7
(dp445
g9
V1997-98 Stadium Club Printing Plates #59 Mark Davis Black
p446
sg11
I1
sg12
VStadium Club Printing Plates
p447
sg14
(lp448
Vhttp://www.beckett.com/basketball/1997-98/stadium-club-printing-plates/59-mark-davis-black-3138777
p449
asg17
g18
sg19
(lp450
Vhttp://img.beckett.com/images/no-image.jpg
p451
asg22
V#59
p452
sg24
V1997-98
p453
sg26
g27
sg28
(lp454
VMark Davis Black
p455
assbag1
(g2
g3
Ntp456
Rp457
(dp458
g7
(dp459
g9
V1997-98 Stadium Club Printing Plates #59A Mark Davis Cyan
p460
sg11
I1
sg12
VStadium Club Printing Plates
p461
sg14
(lp462
Vhttp://www.beckett.com/basketball/1997-98/stadium-club-printing-plates/59a-mark-davis-cyan-3138778
p463
asg17
g18
sg19
(lp464
Vhttp://img.beckett.com/images/no-image.jpg
p465
asg22
V#59A
p466
sg24
V1997-98
p467
sg26
g27
sg28
(lp468
VMark Davis Cyan
p469
assbag1
(g2
g3
Ntp470
Rp471
(dp472
g7
(dp473
g9
V1997-98 Stadium Club Printing Plates #59B Mark Davis Magenta
p474
sg11
I1
sg12
VStadium Club Printing Plates
p475
sg14
(lp476
Vhttp://www.beckett.com/basketball/1997-98/stadium-club-printing-plates/59b-mark-davis-magenta-3138779
p477
asg17
g18
sg19
(lp478
Vhttp://img.beckett.com/images/no-image.jpg
p479
asg22
V#59B
p480
sg24
V1997-98
p481
sg26
g27
sg28
(lp482
VMark Davis Magenta
p483
assbag1
(g2
g3
Ntp484
Rp485
(dp486
g7
(dp487
g9
V1997-98 Stadium Club Printing Plates #59C Mark Davis Yellow
p488
sg11
I1
sg12
VStadium Club Printing Plates
p489
sg14
(lp490
Vhttp://www.beckett.com/basketball/1997-98/stadium-club-printing-plates/59c-mark-davis-yellow-3138780
p491
asg17
g18
sg19
(lp492
Vhttp://img.beckett.com/images/no-image.jpg
p493
asg22
V#59C
p494
sg24
V1997-98
p495
sg26
g27
sg28
(lp496
VMark Davis Yellow
p497
assbag1
(g2
g3
Ntp498
Rp499
(dp500
g7
(dp501
g9
V1997-98 Stadium Club Printing Plates #85 Rex Walters Black
p502
sg11
I1
sg12
VStadium Club Printing Plates
p503
sg14
(lp504
Vhttp://www.beckett.com/basketball/1997-98/stadium-club-printing-plates/85-rex-walters-black-3138881
p505
asg17
g18
sg19
(lp506
Vhttp://img.beckett.com/images/no-image.jpg
p507
asg22
V#85
p508
sg24
V1997-98
p509
sg26
g27
sg28
(lp510
VRex Walters Black
p511
assbag1
(g2
g3
Ntp512
Rp513
(dp514
g7
(dp515
g9
V1997-98 Stadium Club Printing Plates #85A Rex Walters Cyan
p516
sg11
I1
sg12
VStadium Club Printing Plates
p517
sg14
(lp518
Vhttp://www.beckett.com/basketball/1997-98/stadium-club-printing-plates/85a-rex-walters-cyan-3138882
p519
asg17
g18
sg19
(lp520
Vhttp://img.beckett.com/images/no-image.jpg
p521
asg22
V#85A
p522
sg24
V1997-98
p523
sg26
g27
sg28
(lp524
VRex Walters Cyan
p525
assbag1
(g2
g3
Ntp526
Rp527
(dp528
g7
(dp529
g9
V1997-98 Stadium Club Printing Plates #85B Rex Walters Magenta
p530
sg11
I1
sg12
VStadium Club Printing Plates
p531
sg14
(lp532
Vhttp://www.beckett.com/basketball/1997-98/stadium-club-printing-plates/85b-rex-walters-magenta-3138883
p533
asg17
g18
sg19
(lp534
Vhttp://img.beckett.com/images/no-image.jpg
p535
asg22
V#85B
p536
sg24
V1997-98
p537
sg26
g27
sg28
(lp538
VRex Walters Magenta
p539
assbag1
(g2
g3
Ntp540
Rp541
(dp542
g7
(dp543
g9
V1997-98 Stadium Club Printing Plates #85C Rex Walters Yellow
p544
sg11
I1
sg12
VStadium Club Printing Plates
p545
sg14
(lp546
Vhttp://www.beckett.com/basketball/1997-98/stadium-club-printing-plates/85c-rex-walters-yellow-3138884
p547
asg17
g18
sg19
(lp548
Vhttp://img.beckett.com/images/no-image.jpg
p549
asg22
V#85C
p550
sg24
V1997-98
p551
sg26
g27
sg28
(lp552
VRex Walters Yellow
p553
assbag1
(g2
g3
Ntp554
Rp555
(dp556
g7
(dp557
g9
V1997-98 Stadium Club Printing Plates #125 Allen Iverson Black
p558
sg11
I1
sg12
VStadium Club Printing Plates
p559
sg14
(lp560
Vhttp://www.beckett.com/basketball/1997-98/stadium-club-printing-plates/125-allen-iverson-black-3139041
p561
asg17
g18
sg19
(lp562
Vhttp://img.beckett.com/images/no-image.jpg
p563
asg22
V#125
p564
sg24
V1997-98
p565
sg26
g27
sg28
(lp566
VAllen Iverson Black
p567
assbag1
(g2
g3
Ntp568
Rp569
(dp570
g7
(dp571
g9
V1997-98 Stadium Club Printing Plates #125A Allen Iverson Cyan
p572
sg11
I1
sg12
VStadium Club Printing Plates
p573
sg14
(lp574
Vhttp://www.beckett.com/basketball/1997-98/stadium-club-printing-plates/125a-allen-iverson-cyan-3139042
p575
asg17
g18
sg19
(lp576
Vhttp://img.beckett.com/images/no-image.jpg
p577
asg22
V#125A
p578
sg24
V1997-98
p579
sg26
g27
sg28
(lp580
VAllen Iverson Cyan
p581
assbag1
(g2
g3
Ntp582
Rp583
(dp584
g7
(dp585
g9
V1997-98 Stadium Club Printing Plates #125B Allen Iverson Magenta
p586
sg11
I1
sg12
VStadium Club Printing Plates
p587
sg14
(lp588
Vhttp://www.beckett.com/basketball/1997-98/stadium-club-printing-plates/125b-allen-iverson-magenta-3139043
p589
asg17
g18
sg19
(lp590
Vhttp://img.beckett.com/images/no-image.jpg
p591
asg22
V#125B
p592
sg24
V1997-98
p593
sg26
g27
sg28
(lp594
VAllen Iverson Magenta
p595
assbag1
(g2
g3
Ntp596
Rp597
(dp598
g7
(dp599
g9
V1997-98 Stadium Club Printing Plates #125C Allen Iverson Yellow
p600
sg11
I1
sg12
VStadium Club Printing Plates
p601
sg14
(lp602
Vhttp://www.beckett.com/basketball/1997-98/stadium-club-printing-plates/125c-allen-iverson-yellow-3139044
p603
asg17
g18
sg19
(lp604
Vhttp://img.beckett.com/images/no-image.jpg
p605
asg22
V#125C
p606
sg24
V1997-98
p607
sg26
g27
sg28
(lp608
VAllen Iverson Yellow
p609
assbag1
(g2
g3
Ntp610
Rp611
(dp612
g7
(dp613
g9
V1997-98 Stadium Club Printing Plates #126 Allen Iverson Black
p614
sg11
I1
sg12
VStadium Club Printing Plates
p615
sg14
(lp616
Vhttp://www.beckett.com/basketball/1997-98/stadium-club-printing-plates/126-allen-iverson-black-3139045
p617
asg17
g18
sg19
(lp618
Vhttp://img.beckett.com/images/no-image.jpg
p619
asg22
V#126
p620
sg24
V1997-98
p621
sg26
g27
sg28
(lp622
VAllen Iverson Black
p623
assbag1
(g2
g3
Ntp624
Rp625
(dp626
g7
(dp627
g9
V1997-98 Stadium Club Printing Plates #126A Allen Iverson Cyan
p628
sg11
I1
sg12
VStadium Club Printing Plates
p629
sg14
(lp630
Vhttp://www.beckett.com/basketball/1997-98/stadium-club-printing-plates/126a-allen-iverson-cyan-3139046
p631
asg17
g18
sg19
(lp632
Vhttp://img.beckett.com/images/no-image.jpg
p633
asg22
V#126A
p634
sg24
V1997-98
p635
sg26
g27
sg28
(lp636
VAllen Iverson Cyan
p637
assbag1
(g2
g3
Ntp638
Rp639
(dp640
g7
(dp641
g9
V1997-98 Stadium Club Printing Plates #126B Allen Iverson Magenta
p642
sg11
I1
sg12
VStadium Club Printing Plates
p643
sg14
(lp644
Vhttp://www.beckett.com/basketball/1997-98/stadium-club-printing-plates/126b-allen-iverson-magenta-3139047
p645
asg17
g18
sg19
(lp646
Vhttp://img.beckett.com/images/no-image.jpg
p647
asg22
V#126B
p648
sg24
V1997-98
p649
sg26
g27
sg28
(lp650
VAllen Iverson Magenta
p651
assbag1
(g2
g3
Ntp652
Rp653
(dp654
g7
(dp655
g9
V1997-98 Stadium Club Printing Plates #126C Allen Iverson Yellow
p656
sg11
I1
sg12
VStadium Club Printing Plates
p657
sg14
(lp658
Vhttp://www.beckett.com/basketball/1997-98/stadium-club-printing-plates/126c-allen-iverson-yellow-3139048
p659
asg17
g18
sg19
(lp660
Vhttp://img.beckett.com/images/no-image.jpg
p661
asg22
V#126C
p662
sg24
V1997-98
p663
sg26
g27
sg28
(lp664
VAllen Iverson Yellow
p665
assbag1
(g2
g3
Ntp666
Rp667
(dp668
g7
(dp669
g9
V1997-98 Stadium Club Printing Plates #237 Anthony Parker Black
p670
sg11
I1
sg12
VStadium Club Printing Plates
p671
sg14
(lp672
Vhttp://www.beckett.com/basketball/1997-98/stadium-club-printing-plates/237-anthony-parker-black-3139489
p673
asg17
g18
sg19
(lp674
Vhttp://img.beckett.com/images/no-image.jpg
p675
asg22
V#237
p676
sg24
V1997-98
p677
sg26
g27
sg28
(lp678
VAnthony Parker Black
p679
assbag1
(g2
g3
Ntp680
Rp681
(dp682
g7
(dp683
g9
V1997-98 Stadium Club Printing Plates #237A Anthony Parker Cyan
p684
sg11
I1
sg12
VStadium Club Printing Plates
p685
sg14
(lp686
Vhttp://www.beckett.com/basketball/1997-98/stadium-club-printing-plates/237a-anthony-parker-cyan-3139490
p687
asg17
g18
sg19
(lp688
Vhttp://img.beckett.com/images/no-image.jpg
p689
asg22
V#237A
p690
sg24
V1997-98
p691
sg26
g27
sg28
(lp692
VAnthony Parker Cyan
p693
assbag1
(g2
g3
Ntp694
Rp695
(dp696
g7
(dp697
g9
V1997-98 Stadium Club Printing Plates #237B Anthony Parker Magenta
p698
sg11
I1
sg12
VStadium Club Printing Plates
p699
sg14
(lp700
Vhttp://www.beckett.com/basketball/1997-98/stadium-club-printing-plates/237b-anthony-parker-magenta-3139491
p701
asg17
g18
sg19
(lp702
Vhttp://img.beckett.com/images/no-image.jpg
p703
asg22
V#237B
p704
sg24
V1997-98
p705
sg26
g27
sg28
(lp706
VAnthony Parker Magenta
p707
assbag1
(g2
g3
Ntp708
Rp709
(dp710
g7
(dp711
g9
V1997-98 Stadium Club Printing Plates #237C Anthony Parker Yellow
p712
sg11
I1
sg12
VStadium Club Printing Plates
p713
sg14
(lp714
Vhttp://www.beckett.com/basketball/1997-98/stadium-club-printing-plates/237c-anthony-parker-yellow-3139492
p715
asg17
g18
sg19
(lp716
Vhttp://img.beckett.com/images/no-image.jpg
p717
asg22
V#237C
p718
sg24
V1997-98
p719
sg26
g27
sg28
(lp720
VAnthony Parker Yellow
p721
assbag1
(g2
g3
Ntp722
Rp723
(dp724
g7
(dp725
g9
V1997-98 Ultra Masterpieces #18 Derrick Coleman
p726
sg11
I1
sg12
VUltra Masterpieces
p727
sg14
(lp728
Vhttp://www.beckett.com/basketball/1997-98/ultra-masterpieces/18-derrick-coleman-3135748
p729
asg17
g18
sg19
(lp730
Vhttp://img.beckett.com/images/no-image.jpg
p731
asg22
V#18
p732
sg24
V1997-98
p733
sg26
g27
sg28
(lp734
VDerrick Coleman
p735
assbag1
(g2
g3
Ntp736
Rp737
(dp738
g7
(dp739
g9
V1997-98 Ultra Masterpieces #107 Allen Iverson
p740
sg11
I1
sg12
VUltra Masterpieces
p741
sg14
(lp742
Vhttp://www.beckett.com/basketball/1997-98/ultra-masterpieces/107-allen-iverson-3135837
p743
asg17
g18
sg19
(lp744
Vhttp://img.beckett.com/images/no-image.jpg
p745
asg22
V#107
p746
sg24
V1997-98
p747
sg26
g27
sg28
(lp748
VAllen Iverson
p749
assbag1
(g2
g3
Ntp750
Rp751
(dp752
g7
(dp753
g9
V1997-98 Ultra Masterpieces #140 Anthony Parker
p754
sg11
I1
sg12
VUltra Masterpieces
p755
sg14
(lp756
Vhttp://www.beckett.com/basketball/1997-98/ultra-masterpieces/140-anthony-parker-3135870
p757
asg17
g18
sg19
(lp758
Vhttp://img.beckett.com/images/no-image.jpg
p759
asg22
V#140
p760
sg24
V1997-98
p761
sg26
g27
sg28
(lp762
VAnthony Parker
p763
assbag1
(g2
g3
Ntp764
Rp765
(dp766
g7
(dp767
g9
V1997-98 Ultra Masterpieces #258 Allen Iverson GRE
p768
sg11
I1
sg12
VUltra Masterpieces
p769
sg14
(lp770
Vhttp://www.beckett.com/basketball/1997-98/ultra-masterpieces/258-allen-iverson-gre-3135986
p771
asg17
g18
sg19
(lp772
Vhttp://img.beckett.com/images/no-image.jpg
p773
asg22
V#258
p774
sg24
V1997-98
p775
sg57
VGRE
p776
sg26
g27
sg28
(lp777
VAllen Iverson
p778
assbag1
(g2
g3
Ntp779
Rp780
(dp781
g7
(dp782
g9
V1997-98 Ultra Platinum Medallion #18 Derrick Coleman
p783
sg11
I100
sg12
VUltra Platinum Medallion
p784
sg14
(lp785
Vhttp://www.beckett.com/basketball/1997-98/ultra-platinum-medallion/18-derrick-coleman-3136032
p786
asg17
g18
sg19
(lp787
Vhttp://img.beckett.com/images/no-image.jpg
p788
asg22
V#18
p789
sg24
V1997-98
p790
sg26
g27
sg28
(lp791
VDerrick Coleman
p792
assbag1
(g2
g3
Ntp793
Rp794
(dp795
g7
(dp796
g9
V1997-98 Ultra Platinum Medallion #107 Allen Iverson
p797
sg11
I100
sg12
VUltra Platinum Medallion
p798
sg14
(lp799
Vhttp://www.beckett.com/basketball/1997-98/ultra-platinum-medallion/107-allen-iverson-3136121
p800
asg17
g18
sg19
(lp801
Vhttp://img.beckett.com/images/no-image.jpg
p802
asg22
V#107
p803
sg24
V1997-98
p804
sg26
g27
sg28
(lp805
VAllen Iverson
p806
assbag1
(g2
g3
Ntp807
Rp808
(dp809
g7
(dp810
g9
V1997-98 Ultra Platinum Medallion #140 Anthony Parker
p811
sg11
I100
sg12
VUltra Platinum Medallion
p812
sg14
(lp813
Vhttp://www.beckett.com/basketball/1997-98/ultra-platinum-medallion/140-anthony-parker-3136154
p814
asg17
g18
sg19
(lp815
Vhttp://img.beckett.com/images/no-image.jpg
p816
asg22
V#140
p817
sg24
V1997-98
p818
sg26
g27
sg28
(lp819
VAnthony Parker
p820
assbag1
(g2
g3
Ntp821
Rp822
(dp823
g7
(dp824
g9
V1997-98 Ultra Platinum Medallion #258 Allen Iverson GRE
p825
sg11
I100
sg12
VUltra Platinum Medallion
p826
sg14
(lp827
Vhttp://www.beckett.com/basketball/1997-98/ultra-platinum-medallion/258-allen-iverson-gre-3136270
p828
asg17
g18
sg19
(lp829
Vhttp://img.beckett.com/images/no-image.jpg
p830
asg22
V#258
p831
sg24
V1997-98
p832
sg57
VGRE
p833
sg26
g27
sg28
(lp834
VAllen Iverson
p835
assbag1
(g2
g3
Ntp836
Rp837
(dp838
g7
(dp839
g9
V1997-98 Z-Force Rave #44 Derrick Coleman
p840
sg11
I399
sg12
VZ-Force Rave
p841
sg14
(lp842
Vhttp://www.beckett.com/basketball/1997-98/z-force-rave/44-derrick-coleman-3133068
p843
asg17
g18
sg19
(lp844
Vhttp://img.beckett.com/images/no-image.jpg
p845
asg22
V#44
p846
sg24
V1997-98
p847
sg26
g27
sg28
(lp848
VDerrick Coleman
p849
assbag1
(g2
g3
Ntp850
Rp851
(dp852
g7
(dp853
g9
V1997-98 Z-Force Rave #100 Allen Iverson
p854
sg11
I399
sg12
VZ-Force Rave
p855
sg14
(lp856
Vhttp://www.beckett.com/basketball/1997-98/z-force-rave/100-allen-iverson-3133124
p857
asg17
g18
sg19
(lp858
Vhttp://img.beckett.com/images/no-image.jpg
p859
asg22
V#100
p860
sg24
V1997-98
p861
sg26
g27
sg28
(lp862
VAllen Iverson
p863
assbag1
(g2
g3
Ntp864
Rp865
(dp866
g7
(dp867
g9
V1997-98 Z-Force Rave #138 Derrick Coleman
p868
sg11
I399
sg12
VZ-Force Rave
p869
sg14
(lp870
Vhttp://www.beckett.com/basketball/1997-98/z-force-rave/138-derrick-coleman-3133160
p871
asg17
g18
sg19
(lp872
Vhttp://img.beckett.com/images/no-image.jpg
p873
asg22
V#138
p874
sg24
V1997-98
p875
sg26
g27
sg28
(lp876
VDerrick Coleman
p877
assbag1
(g2
g3
Ntp878
Rp879
(dp880
g7
(dp881
g9
V1997-98 Z-Force Rave #150 Allen Iverson
p882
sg11
I399
sg12
VZ-Force Rave
p883
sg14
(lp884
Vhttp://www.beckett.com/basketball/1997-98/z-force-rave/150-allen-iverson-3133172
p885
asg17
g18
sg19
(lp886
Vhttp://img.beckett.com/images/items_stock/185226/3133012/3133172/front.jpg
p887
asg22
V#150
p888
sg24
V1997-98
p889
sg26
g27
sg28
(lp890
VAllen Iverson
p891
assbag1
(g2
g3
Ntp892
Rp893
(dp894
g7
(dp895
g9
V1997-98 Z-Force Super Rave #138 Derrick Coleman
p896
sg11
I50
sg12
VZ-Force Super Rave
p897
sg14
(lp898
Vhttp://www.beckett.com/basketball/1997-98/z-force-super-rave/138-derrick-coleman-3133272
p899
asg17
g18
sg19
(lp900
Vhttp://img.beckett.com/images/no-image.jpg
p901
asg22
V#138
p902
sg24
V1997-98
p903
sg26
g27
sg28
(lp904
VDerrick Coleman
p905
assbag1
(g2
g3
Ntp906
Rp907
(dp908
g7
(dp909
g9
V1997-98 Z-Force Super Rave #150 Allen Iverson
p910
sg11
I50
sg12
VZ-Force Super Rave
p911
sg14
(lp912
Vhttp://www.beckett.com/basketball/1997-98/z-force-super-rave/150-allen-iverson-3133284
p913
asg17
g18
sg19
(lp914
Vhttp://img.beckett.com/images/no-image.jpg
p915
asg22
V#150
p916
sg24
V1997-98
p917
sg26
g27
sg28
(lp918
VAllen Iverson
p919
assbag1
(g2
g3
Ntp920
Rp921
(dp922
g7
(dp923
g9
V1997-98 Upper Deck High Dimensions #D27 Allen Iverson
p924
sg11
I2000
sg12
VUpper Deck High Dimensions
p925
sg14
(lp926
Vhttp://www.beckett.com/basketball/1997-98/upper-deck-high-dimensions/d27-allen-iverson-3132449
p927
asg17
g18
sg19
(lp928
Vhttp://img.beckett.com/images/no-image.jpg
p929
asg22
V#D27
p930
sg24
V1997-98
p931
sg26
g27
sg28
(lp932
VAllen Iverson
p933
assbag1
(g2
g3
Ntp934
Rp935
(dp936
g7
(dp937
g9
V1997-98 Hoops High Voltage 500 #HV8 Allen Iverson
p938
sg11
I500
sg12
VHoops High Voltage 500
p939
sg14
(lp940
Vhttp://www.beckett.com/basketball/1997-98/hoops-high-voltage-500/hv8-allen-iverson-3142297
p941
asg17
g18
sg19
(lp942
Vhttp://img.beckett.com/images/no-image.jpg
p943
asg22
V#HV8
p944
sg24
V1997-98
p945
sg26
g27
sg28
(lp946
VAllen Iverson
p947
assbag1
(g2
g3
Ntp948
Rp949
(dp950
g7
(dp951
g9
V1997-98 Metal Universe Precious Metal Gems Emerald #20 Allen Iverson
p952
sg11
I10
sg12
VMetal Universe Precious Metal Gems Emerald
p953
sg14
(lp954
Vhttp://www.beckett.com/basketball/1997-98/metal-universe-precious-metal-gems-emerald/20-allen-iverson-7055468
p955
asg17
g18
sg19
(lp956
Vhttp://img.beckett.com/images/no-image.jpg
p957
asg22
V#20
p958
sg24
V1997-98
p959
sg26
g27
sg28
(lp960
VAllen Iverson
p961
assbag1
(g2
g3
Ntp962
Rp963
(dp964
g7
(dp965
g9
V1997-98 Metal Universe Precious Metal Gems Emerald #38 Derrick Coleman
p966
sg11
I10
sg12
VMetal Universe Precious Metal Gems Emerald
p967
sg14
(lp968
Vhttp://www.beckett.com/basketball/1997-98/metal-universe-precious-metal-gems-emerald/38-derrick-coleman-7055487
p969
asg17
g18
sg19
(lp970
Vhttp://img.beckett.com/images/no-image.jpg
p971
asg22
V#38
p972
sg24
V1997-98
p973
sg26
g27
sg28
(lp974
VDerrick Coleman
p975
assbag1
(g2
g3
Ntp976
Rp977
(dp978
g7
(dp979
g9
V1997-98 SP Authentic Profiles 3 #P5 Allen Iverson
p980
sg11
I100
sg12
VSP Authentic Profiles 3
p981
sg14
(lp982
Vhttp://www.beckett.com/basketball/1997-98/sp-authentic-profiles-3/p5-allen-iverson-3140286
p983
asg17
g18
sg19
(lp984
Vhttp://img.beckett.com/images/no-image.jpg
p985
asg22
V#P5
p986
sg24
V1997-98
p987
sg26
g27
sg28
(lp988
VAllen Iverson
p989
assbag1
(g2
g3
Ntp990
Rp991
(dp992
g7
(dp993
g9
V1997-98 Upper Deck Diamond Dimensions #D27 Allen Iverson
p994
sg11
I100
sg12
VUpper Deck Diamond Dimensions
p995
sg14
(lp996
Vhttp://www.beckett.com/basketball/1997-98/upper-deck-diamond-dimensions/d27-allen-iverson-3132487
p997
asg17
g18
sg19
(lp998
Vhttp://img.beckett.com/images/no-image.jpg
p999
asg22
V#D27
p1000
sg24
V1997-98
p1001
sg26
g27
sg28
(lp1002
VAllen Iverson
p1003
assba.