(lp0
Naccopy_reg
_reconstructor
p1
(ctutorial.items
BeckettItem
p2
c__builtin__
object
p3
Ntp4
Rp5
(dp6
S'_values'
p7
(dp8
S'originalItemDescription'
p9
V1997-98 E-X2001 Essential Credentials Future #3 Allen Iverson/78
p10
sS'serialNumber'
p11
I78
sS'setName'
p12
VE-X2001 Essential Credentials Future
p13
sS'beckettLink'
p14
(lp15
Vhttp://www.beckett.com/basketball/1997-98/e-x2001-essential-credentials-future/3-allen-iverson78-3144589
p16
asS'team'
p17
S'Philadelphia 76ers'
p18
sS'imageLink'
p19
(lp20
Vhttp://img.beckett.com/images/no-image.jpg
p21
asS'cardNumber'
p22
V#3
p23
sS'year'
p24
V1997-98
p25
sS'sport'
p26
S'Basketball'
p27
sS'playerNames'
p28
(lp29
VAllen Iverson
p30
assbag1
(g2
g3
Ntp31
Rp32
(dp33
g7
(dp34
g9
V1997-98 E-X2001 Essential Credentials Now #3 Allen Iverson/3
p35
sg11
I3
sg12
VE-X2001 Essential Credentials Now
p36
sg14
(lp37
Vhttp://www.beckett.com/basketball/1997-98/e-x2001-essential-credentials-now/3-allen-iverson3-3144676
p38
asg17
g18
sg19
(lp39
Vhttp://img.beckett.com/images/no-image.jpg
p40
asg22
V#3
p41
sg24
V1997-98
p42
sg26
g27
sg28
(lp43
VAllen Iverson
p44
assbag1
(g2
g3
Ntp45
Rp46
(dp47
g7
(dp48
g9
V1997-98 Finest Embossed Refractors #143 Allen Iverson S
p49
sg11
I263
sg12
VFinest Embossed Refractors
p50
sg14
(lp51
Vhttp://www.beckett.com/basketball/1997-98/finest-embossed-refractors/143-allen-iverson-s-3145351
p52
asg17
g18
sg19
(lp53
Vhttp://img.beckett.com/images/no-image.jpg
p54
asg22
V#143
p55
sg24
V1997-98
p56
sg26
g27
sg28
(lp57
VAllen Iverson
p58
assbag1
(g2
g3
Ntp59
Rp60
(dp61
g7
(dp62
g9
V1997-98 Finest Embossed Refractors #320 Allen Iverson G
p63
sg11
I74
sg12
VFinest Embossed Refractors
p64
sg14
(lp65
Vhttp://www.beckett.com/basketball/1997-98/finest-embossed-refractors/320-allen-iverson-g-3145428
p66
asg17
g18
sg19
(lp67
Vhttp://img.beckett.com/images/no-image.jpg
p68
asg22
V#320
p69
sg24
V1997-98
p70
sg26
g27
sg28
(lp71
VAllen Iverson
p72
assbag1
(g2
g3
Ntp73
Rp74
(dp75
g7
(dp76
g9
V1997-98 Finest Refractors #143 Allen Iverson S
p77
sg11
I1090
sg12
VFinest Refractors
p78
sg14
(lp79
Vhttp://www.beckett.com/basketball/1997-98/finest-refractors/143-allen-iverson-s-3145609
p80
asg17
g18
sg19
(lp81
Vhttp://img.beckett.com/images/items_stock/185226/3145435/3145609/front.jpg
p82
asg22
V#143
p83
sg24
V1997-98
p84
sg26
g27
sg28
(lp85
VAllen Iverson
p86
assbag1
(g2
g3
Ntp87
Rp88
(dp89
g7
(dp90
g9
V1997-98 Finest Refractors #320 Allen Iverson G
p91
sg11
I289
sg12
VFinest Refractors
p92
sg14
(lp93
Vhttp://www.beckett.com/basketball/1997-98/finest-refractors/320-allen-iverson-g-3145786
p94
asg17
g18
sg19
(lp95
Vhttp://img.beckett.com/images/items_stock/185226/3145435/3145786/front.jpg
p96
asg22
V#320
p97
sg24
V1997-98
p98
sg26
g27
sg28
(lp99
VAllen Iverson
p100
assbag1
(g2
g3
Ntp101
Rp102
(dp103
g7
(dp104
g9
V1997-98 Flair Showcase Row 0 #3 Allen Iverson
p105
sg11
I250
sg12
VFlair Showcase Row 0
p106
sg14
(lp107
Vhttp://www.beckett.com/basketball/1997-98/flair-showcase-row-0/3-allen-iverson-3146101
p108
asg17
g18
sg19
(lp109
Vhttp://img.beckett.com/images/no-image.jpg
p110
asg22
V#3
p111
sg24
V1997-98
p112
sg26
g27
sg28
(lp113
VAllen Iverson
p114
assbag1
(g2
g3
Ntp115
Rp116
(dp117
g7
(dp118
g9
V1997-98 Flair Showcase Legacy Collection Row 3 #3 Allen Iverson
p119
sg11
I100
sg12
VFlair Showcase Legacy Collection Row 3
p120
sg14
(lp121
Vhttp://www.beckett.com/basketball/1997-98/flair-showcase-legacy-collection-row-3/3-allen-iverson-3148561
p122
asg17
g18
sg19
(lp123
Vhttp://img.beckett.com/images/no-image.jpg
p124
asg22
V#3
p125
sg24
V1997-98
p126
sg26
g27
sg28
(lp127
VAllen Iverson
p128
assbag1
(g2
g3
Ntp129
Rp130
(dp131
g7
(dp132
g9
V1997-98 Metal Universe Precious Metal Gems #20 Allen Iverson
p133
sg11
I90
sg12
VMetal Universe Precious Metal Gems
p134
sg14
(lp135
Vhttp://www.beckett.com/basketball/1997-98/metal-universe-precious-metal-gems/20-allen-iverson-3142611
p136
asg17
g18
sg19
(lp137
Vhttp://img.beckett.com/images/no-image.jpg
p138
asg22
V#20
p139
sg24
V1997-98
p140
sg26
g27
sg28
(lp141
VAllen Iverson
p142
assbag1
(g2
g3
Ntp143
Rp144
(dp145
g7
(dp146
g9
V1997-98 Metal Universe Precious Metal Gems #38 Derrick Coleman
p147
sg11
I90
sg12
VMetal Universe Precious Metal Gems
p148
sg14
(lp149
Vhttp://www.beckett.com/basketball/1997-98/metal-universe-precious-metal-gems/38-derrick-coleman-3142630
p150
asg17
g18
sg19
(lp151
Vhttp://img.beckett.com/images/no-image.jpg
p152
asg22
V#38
p153
sg24
V1997-98
p154
sg26
g27
sg28
(lp155
VDerrick Coleman
p156
assbag1
(g2
g3
Ntp157
Rp158
(dp159
g7
(dp160
g9
V1997-98 Metal Universe Championship Precious Metal Gems #26 Allen Iverson
p161
sg11
I50
sg12
VMetal Universe Championship Precious Metal Gems
p162
sg14
(lp163
Vhttp://www.beckett.com/basketball/1997-98/metal-universe-championship-precious-metal-gems/26-allen-iverson-3140701
p164
asg17
g18
sg19
(lp165
Vhttp://img.beckett.com/images/no-image.jpg
p166
asg22
V#26
p167
sg24
V1997-98
p168
sg26
g27
sg28
(lp169
VAllen Iverson
p170
assbag1
(g2
g3
Ntp171
Rp172
(dp173
g7
(dp174
g9
V1997-98 SkyBox Premium Star Rubies #7 Derrick Coleman
p175
sg11
I50
sg12
VSkyBox Premium Star Rubies
p176
sg14
(lp177
Vhttp://www.beckett.com/basketball/1997-98/skybox-premium-star-rubies/7-derrick-coleman-3141178
p178
asg17
g18
sg19
(lp179
Vhttp://img.beckett.com/images/no-image.jpg
p180
asg22
V#7
p181
sg24
V1997-98
p182
sg26
g27
sg28
(lp183
VDerrick Coleman
p184
assbag1
(g2
g3
Ntp185
Rp186
(dp187
g7
(dp188
g9
V1997-98 SkyBox Premium Star Rubies #100 Allen Iverson
p189
sg11
I50
sg12
VSkyBox Premium Star Rubies
p190
sg14
(lp191
Vhttp://www.beckett.com/basketball/1997-98/skybox-premium-star-rubies/100-allen-iverson-3141271
p192
asg17
g18
sg19
(lp193
Vhttp://img.beckett.com/images/no-image.jpg
p194
asg22
V#100
p195
sg24
V1997-98
p196
sg26
g27
sg28
(lp197
VAllen Iverson
p198
assbag1
(g2
g3
Ntp199
Rp200
(dp201
g7
(dp202
g9
V1997-98 SkyBox Premium Star Rubies #212 Anthony Parker
p203
sg11
I50
sg12
VSkyBox Premium Star Rubies
p204
sg14
(lp205
Vhttp://www.beckett.com/basketball/1997-98/skybox-premium-star-rubies/212-anthony-parker-3141381
p206
asg17
g18
sg19
(lp207
Vhttp://img.beckett.com/images/no-image.jpg
p208
asg22
V#212
p209
sg24
V1997-98
p210
sg26
g27
sg28
(lp211
VAnthony Parker
p212
assbag1
(g2
g3
Ntp213
Rp214
(dp215
g7
(dp216
g9
V1997-98 SkyBox Premium Star Rubies #233 Allen Iverson TS
p217
sg11
I50
sg12
VSkyBox Premium Star Rubies
p218
sg14
(lp219
Vhttp://www.beckett.com/basketball/1997-98/skybox-premium-star-rubies/233-allen-iverson-ts-3141402
p220
asg17
g18
sg19
(lp221
Vhttp://img.beckett.com/images/no-image.jpg
p222
asg22
V#233
p223
sg24
V1997-98
p224
sS'subsetName'
p225
VTS
p226
sg26
g27
sg28
(lp227
VAllen Iverson
p228
assbag1
(g2
g3
Ntp229
Rp230
(dp231
g7
(dp232
g9
V1997-98 SkyBox Premium Autographics Century Marks #25 Derrick Coleman
p233
sg11
I100
sg12
VSkyBox Premium Autographics Century Marks
p234
sg14
(lp235
Vhttp://www.beckett.com/basketball/1997-98/skybox-premium-autographics-century-marks/25-derrick-coleman-3141607
p236
asg17
g18
sg19
(lp237
Vhttp://img.beckett.com/images/no-image.jpg
p238
asg22
V#25
p239
sS'autograph'
p240
I1
sg24
V1997-98
p241
sg26
g27
sg28
(lp242
VDerrick Coleman
p243
assbag1
(g2
g3
Ntp244
Rp245
(dp246
g7
(dp247
g9
V1997-98 SkyBox Premium Autographics Century Marks #29 Mark Davis
p248
sg11
I100
sg12
VSkyBox Premium Autographics Century Marks
p249
sg14
(lp250
Vhttp://www.beckett.com/basketball/1997-98/skybox-premium-autographics-century-marks/29-mark-davis-3141611
p251
asg17
g18
sg19
(lp252
Vhttp://img.beckett.com/images/no-image.jpg
p253
asg22
V#29
p254
sg240
I1
sg24
V1997-98
p255
sg26
g27
sg28
(lp256
VMark Davis
p257
assbag1
(g2
g3
Ntp258
Rp259
(dp260
g7
(dp261
g9
V1997-98 SkyBox Premium Autographics Century Marks #80 Anthony Parker
p262
sg11
I100
sg12
VSkyBox Premium Autographics Century Marks
p263
sg14
(lp264
Vhttp://www.beckett.com/basketball/1997-98/skybox-premium-autographics-century-marks/80-anthony-parker-3141662
p265
asg17
g18
sg19
(lp266
Vhttp://img.beckett.com/images/no-image.jpg
p267
asg22
V#80
p268
sg240
I1
sg24
V1997-98
p269
sg26
g27
sg28
(lp270
VAnthony Parker
p271
assbag1
(g2
g3
Ntp272
Rp273
(dp274
g7
(dp275
g9
V1997-98 SkyBox Premium Autographics Century Marks #117 Scott Williams
p276
sg11
I100
sg12
VSkyBox Premium Autographics Century Marks
p277
sg14
(lp278
Vhttp://www.beckett.com/basketball/1997-98/skybox-premium-autographics-century-marks/117-scott-williams-3141699
p279
asg17
g18
sg19
(lp280
Vhttp://img.beckett.com/images/no-image.jpg
p281
asg22
V#117
p282
sg240
I1
sg24
V1997-98
p283
sg26
g27
sg28
(lp284
VScott Williams
p285
assbag1
(g2
g3
Ntp286
Rp287
(dp288
g7
(dp289
g9
V1997-98 SPx Grand Finale #30 Allen Iverson
p290
sg11
I50
sg12
VSPx Grand Finale
p291
sg14
(lp292
Vhttp://www.beckett.com/basketball/1997-98/spx-grand-finale/30-allen-iverson-3137714
p293
asg17
g18
sg19
(lp294
Vhttp://img.beckett.com/images/no-image.jpg
p295
asg22
V#30
p296
sg24
V1997-98
p297
sg26
g27
sg28
(lp298
VAllen Iverson
p299
assbag1
(g2
g3
Ntp300
Rp301
(dp302
g7
(dp303
g9
V1997-98 Stadium Club One Of A Kind #36 Derrick Coleman
p304
sg11
I150
sg12
VStadium Club One Of A Kind
p305
sg14
(lp306
Vhttp://www.beckett.com/basketball/1997-98/stadium-club-one-of-a-kind/36-derrick-coleman-3138335
p307
asg17
g18
sg19
(lp308
Vhttp://img.beckett.com/images/no-image.jpg
p309
asg22
V#36
p310
sg24
V1997-98
p311
sg26
g27
sg28
(lp312
VDerrick Coleman
p313
assbag1
(g2
g3
Ntp314
Rp315
(dp316
g7
(dp317
g9
V1997-98 Stadium Club One Of A Kind #59 Mark Davis
p318
sg11
I150
sg12
VStadium Club One Of A Kind
p319
sg14
(lp320
Vhttp://www.beckett.com/basketball/1997-98/stadium-club-one-of-a-kind/59-mark-davis-3138358
p321
asg17
g18
sg19
(lp322
Vhttp://img.beckett.com/images/items_stock/185226/3138288/3138358/front.jpg
p323
asg22
V#59
p324
sg24
V1997-98
p325
sg26
g27
sg28
(lp326
VMark Davis
p327
assbag1
(g2
g3
Ntp328
Rp329
(dp330
g7
(dp331
g9
V1997-98 Stadium Club One Of A Kind #85 Rex Walters
p332
sg11
I150
sg12
VStadium Club One Of A Kind
p333
sg14
(lp334
Vhttp://www.beckett.com/basketball/1997-98/stadium-club-one-of-a-kind/85-rex-walters-3138384
p335
asg17
g18
sg19
(lp336
Vhttp://img.beckett.com/images/no-image.jpg
p337
asg22
V#85
p338
sg24
V1997-98
p339
sg26
g27
sg28
(lp340
VRex Walters
p341
assbag1
(g2
g3
Ntp342
Rp343
(dp344
g7
(dp345
g9
V1997-98 Stadium Club One Of A Kind #125 Allen Iverson
p346
sg11
I150
sg12
VStadium Club One Of A Kind
p347
sg14
(lp348
Vhttp://www.beckett.com/basketball/1997-98/stadium-club-one-of-a-kind/125-allen-iverson-3138424
p349
asg17
g18
sg19
(lp350
Vhttp://img.beckett.com/images/no-image.jpg
p351
asg22
V#125
p352
sg24
V1997-98
p353
sg26
g27
sg28
(lp354
VAllen Iverson
p355
assbag1
(g2
g3
Ntp356
Rp357
(dp358
g7
(dp359
g9
V1997-98 Stadium Club One Of A Kind #126 Allen Iverson
p360
sg11
I150
sg12
VStadium Club One Of A Kind
p361
sg14
(lp362
Vhttp://www.beckett.com/basketball/1997-98/stadium-club-one-of-a-kind/126-allen-iverson-3138425
p363
asg17
g18
sg19
(lp364
Vhttp://img.beckett.com/images/items_stock/185226/3138288/3138425/front.jpg
p365
asg22
V#126
p366
sg24
V1997-98
p367
sg26
g27
sg28
(lp368
VAllen Iverson
p369
assbag1
(g2
g3
Ntp370
Rp371
(dp372
g7
(dp373
g9
V1997-98 Stadium Club One Of A Kind #237 Anthony Parker
p374
sg11
I150
sg12
VStadium Club One Of A Kind
p375
sg14
(lp376
Vhttp://www.beckett.com/basketball/1997-98/stadium-club-one-of-a-kind/237-anthony-parker-3138536
p377
asg17
g18
sg19
(lp378
Vhttp://img.beckett.com/images/no-image.jpg
p379
asg22
V#237
p380
sg24
V1997-98
p381
sg26
g27
sg28
(lp382
VAnthony Parker
p383
assbag1
(g2
g3
Ntp384
Rp385
(dp386
g7
(dp387
g9
V1997-98 Stadium Club Printing Plates #36 Derrick Coleman Black
p388
sg11
I1
sg12
VStadium Club Printing Plates
p389
sg14
(lp390
Vhttp://www.beckett.com/basketball/1997-98/stadium-club-printing-plates/36-derrick-coleman-black-3138685
p391
asg17
g18
sg19
(lp392
Vhttp://img.beckett.com/images/no-image.jpg
p393
asg22
V#36
p394
sg24
V1997-98
p395
sg26
g27
sg28
(lp396
VDerrick Coleman
p397
assbag1
(g2
g3
Ntp398
Rp399
(dp400
g7
(dp401
g9
V1997-98 Stadium Club Printing Plates #36A Derrick Coleman Cyan
p402
sg11
I1
sg12
VStadium Club Printing Plates
p403
sg14
(lp404
Vhttp://www.beckett.com/basketball/1997-98/stadium-club-printing-plates/36a-derrick-coleman-cyan-3138686
p405
asg17
g18
sg19
(lp406
Vhttp://img.beckett.com/images/no-image.jpg
p407
asg22
V#36A
p408
sg24
V1997-98
p409
sg26
g27
sg28
(lp410
g397
assbag1
(g2
g3
Ntp411
Rp412
(dp413
g7
(dp414
g9
V1997-98 Stadium Club Printing Plates #36B Derrick Coleman Magenta
p415
sg11
I1
sg12
VStadium Club Printing Plates
p416
sg14
(lp417
Vhttp://www.beckett.com/basketball/1997-98/stadium-club-printing-plates/36b-derrick-coleman-magenta-3138687
p418
asg17
g18
sg19
(lp419
Vhttp://img.beckett.com/images/no-image.jpg
p420
asg22
V#36B
p421
sg24
V1997-98
p422
sg26
g27
sg28
(lp423
g397
assbag1
(g2
g3
Ntp424
Rp425
(dp426
g7
(dp427
g9
V1997-98 Stadium Club Printing Plates #36C Derrick Coleman Yellow
p428
sg11
I1
sg12
VStadium Club Printing Plates
p429
sg14
(lp430
Vhttp://www.beckett.com/basketball/1997-98/stadium-club-printing-plates/36c-derrick-coleman-yellow-3138688
p431
asg17
g18
sg19
(lp432
Vhttp://img.beckett.com/images/no-image.jpg
p433
asg22
V#36C
p434
sg24
V1997-98
p435
sg26
g27
sg28
(lp436
g397
assbag1
(g2
g3
Ntp437
Rp438
(dp439
g7
(dp440
g9
V1997-98 Stadium Club Printing Plates #59 Mark Davis Black
p441
sg11
I1
sg12
VStadium Club Printing Plates
p442
sg14
(lp443
Vhttp://www.beckett.com/basketball/1997-98/stadium-club-printing-plates/59-mark-davis-black-3138777
p444
asg17
g18
sg19
(lp445
Vhttp://img.beckett.com/images/no-image.jpg
p446
asg22
V#59
p447
sg24
V1997-98
p448
sg26
g27
sg28
(lp449
VMark Davis
p450
assbag1
(g2
g3
Ntp451
Rp452
(dp453
g7
(dp454
g9
V1997-98 Stadium Club Printing Plates #59A Mark Davis Cyan
p455
sg11
I1
sg12
VStadium Club Printing Plates
p456
sg14
(lp457
Vhttp://www.beckett.com/basketball/1997-98/stadium-club-printing-plates/59a-mark-davis-cyan-3138778
p458
asg17
g18
sg19
(lp459
Vhttp://img.beckett.com/images/no-image.jpg
p460
asg22
V#59A
p461
sg24
V1997-98
p462
sg26
g27
sg28
(lp463
g450
assbag1
(g2
g3
Ntp464
Rp465
(dp466
g7
(dp467
g9
V1997-98 Stadium Club Printing Plates #59B Mark Davis Magenta
p468
sg11
I1
sg12
VStadium Club Printing Plates
p469
sg14
(lp470
Vhttp://www.beckett.com/basketball/1997-98/stadium-club-printing-plates/59b-mark-davis-magenta-3138779
p471
asg17
g18
sg19
(lp472
Vhttp://img.beckett.com/images/no-image.jpg
p473
asg22
V#59B
p474
sg24
V1997-98
p475
sg26
g27
sg28
(lp476
g450
assbag1
(g2
g3
Ntp477
Rp478
(dp479
g7
(dp480
g9
V1997-98 Stadium Club Printing Plates #59C Mark Davis Yellow
p481
sg11
I1
sg12
VStadium Club Printing Plates
p482
sg14
(lp483
Vhttp://www.beckett.com/basketball/1997-98/stadium-club-printing-plates/59c-mark-davis-yellow-3138780
p484
asg17
g18
sg19
(lp485
Vhttp://img.beckett.com/images/no-image.jpg
p486
asg22
V#59C
p487
sg24
V1997-98
p488
sg26
g27
sg28
(lp489
g450
assbag1
(g2
g3
Ntp490
Rp491
(dp492
g7
(dp493
g9
V1997-98 Stadium Club Printing Plates #85 Rex Walters Black
p494
sg11
I1
sg12
VStadium Club Printing Plates
p495
sg14
(lp496
Vhttp://www.beckett.com/basketball/1997-98/stadium-club-printing-plates/85-rex-walters-black-3138881
p497
asg17
g18
sg19
(lp498
Vhttp://img.beckett.com/images/no-image.jpg
p499
asg22
V#85
p500
sg24
V1997-98
p501
sg26
g27
sg28
(lp502
VRex Walters
p503
assbag1
(g2
g3
Ntp504
Rp505
(dp506
g7
(dp507
g9
V1997-98 Stadium Club Printing Plates #85A Rex Walters Cyan
p508
sg11
I1
sg12
VStadium Club Printing Plates
p509
sg14
(lp510
Vhttp://www.beckett.com/basketball/1997-98/stadium-club-printing-plates/85a-rex-walters-cyan-3138882
p511
asg17
g18
sg19
(lp512
Vhttp://img.beckett.com/images/no-image.jpg
p513
asg22
V#85A
p514
sg24
V1997-98
p515
sg26
g27
sg28
(lp516
g503
assbag1
(g2
g3
Ntp517
Rp518
(dp519
g7
(dp520
g9
V1997-98 Stadium Club Printing Plates #85B Rex Walters Magenta
p521
sg11
I1
sg12
VStadium Club Printing Plates
p522
sg14
(lp523
Vhttp://www.beckett.com/basketball/1997-98/stadium-club-printing-plates/85b-rex-walters-magenta-3138883
p524
asg17
g18
sg19
(lp525
Vhttp://img.beckett.com/images/no-image.jpg
p526
asg22
V#85B
p527
sg24
V1997-98
p528
sg26
g27
sg28
(lp529
g503
assbag1
(g2
g3
Ntp530
Rp531
(dp532
g7
(dp533
g9
V1997-98 Stadium Club Printing Plates #85C Rex Walters Yellow
p534
sg11
I1
sg12
VStadium Club Printing Plates
p535
sg14
(lp536
Vhttp://www.beckett.com/basketball/1997-98/stadium-club-printing-plates/85c-rex-walters-yellow-3138884
p537
asg17
g18
sg19
(lp538
Vhttp://img.beckett.com/images/no-image.jpg
p539
asg22
V#85C
p540
sg24
V1997-98
p541
sg26
g27
sg28
(lp542
g503
assbag1
(g2
g3
Ntp543
Rp544
(dp545
g7
(dp546
g9
V1997-98 Stadium Club Printing Plates #125 Allen Iverson Black
p547
sg11
I1
sg12
VStadium Club Printing Plates
p548
sg14
(lp549
Vhttp://www.beckett.com/basketball/1997-98/stadium-club-printing-plates/125-allen-iverson-black-3139041
p550
asg17
g18
sg19
(lp551
Vhttp://img.beckett.com/images/no-image.jpg
p552
asg22
V#125
p553
sg24
V1997-98
p554
sg26
g27
sg28
(lp555
VAllen Iverson
p556
assbag1
(g2
g3
Ntp557
Rp558
(dp559
g7
(dp560
g9
V1997-98 Stadium Club Printing Plates #125A Allen Iverson Cyan
p561
sg11
I1
sg12
VStadium Club Printing Plates
p562
sg14
(lp563
Vhttp://www.beckett.com/basketball/1997-98/stadium-club-printing-plates/125a-allen-iverson-cyan-3139042
p564
asg17
g18
sg19
(lp565
Vhttp://img.beckett.com/images/no-image.jpg
p566
asg22
V#125A
p567
sg24
V1997-98
p568
sg26
g27
sg28
(lp569
g556
assbag1
(g2
g3
Ntp570
Rp571
(dp572
g7
(dp573
g9
V1997-98 Stadium Club Printing Plates #125B Allen Iverson Magenta
p574
sg11
I1
sg12
VStadium Club Printing Plates
p575
sg14
(lp576
Vhttp://www.beckett.com/basketball/1997-98/stadium-club-printing-plates/125b-allen-iverson-magenta-3139043
p577
asg17
g18
sg19
(lp578
Vhttp://img.beckett.com/images/no-image.jpg
p579
asg22
V#125B
p580
sg24
V1997-98
p581
sg26
g27
sg28
(lp582
g556
assbag1
(g2
g3
Ntp583
Rp584
(dp585
g7
(dp586
g9
V1997-98 Stadium Club Printing Plates #125C Allen Iverson Yellow
p587
sg11
I1
sg12
VStadium Club Printing Plates
p588
sg14
(lp589
Vhttp://www.beckett.com/basketball/1997-98/stadium-club-printing-plates/125c-allen-iverson-yellow-3139044
p590
asg17
g18
sg19
(lp591
Vhttp://img.beckett.com/images/no-image.jpg
p592
asg22
V#125C
p593
sg24
V1997-98
p594
sg26
g27
sg28
(lp595
g556
assbag1
(g2
g3
Ntp596
Rp597
(dp598
g7
(dp599
g9
V1997-98 Stadium Club Printing Plates #126 Allen Iverson Black
p600
sg11
I1
sg12
VStadium Club Printing Plates
p601
sg14
(lp602
Vhttp://www.beckett.com/basketball/1997-98/stadium-club-printing-plates/126-allen-iverson-black-3139045
p603
asg17
g18
sg19
(lp604
Vhttp://img.beckett.com/images/no-image.jpg
p605
asg22
V#126
p606
sg24
V1997-98
p607
sg26
g27
sg28
(lp608
g556
assbag1
(g2
g3
Ntp609
Rp610
(dp611
g7
(dp612
g9
V1997-98 Stadium Club Printing Plates #126A Allen Iverson Cyan
p613
sg11
I1
sg12
VStadium Club Printing Plates
p614
sg14
(lp615
Vhttp://www.beckett.com/basketball/1997-98/stadium-club-printing-plates/126a-allen-iverson-cyan-3139046
p616
asg17
g18
sg19
(lp617
Vhttp://img.beckett.com/images/no-image.jpg
p618
asg22
V#126A
p619
sg24
V1997-98
p620
sg26
g27
sg28
(lp621
g556
assbag1
(g2
g3
Ntp622
Rp623
(dp624
g7
(dp625
g9
V1997-98 Stadium Club Printing Plates #126B Allen Iverson Magenta
p626
sg11
I1
sg12
VStadium Club Printing Plates
p627
sg14
(lp628
Vhttp://www.beckett.com/basketball/1997-98/stadium-club-printing-plates/126b-allen-iverson-magenta-3139047
p629
asg17
g18
sg19
(lp630
Vhttp://img.beckett.com/images/no-image.jpg
p631
asg22
V#126B
p632
sg24
V1997-98
p633
sg26
g27
sg28
(lp634
g556
assbag1
(g2
g3
Ntp635
Rp636
(dp637
g7
(dp638
g9
V1997-98 Stadium Club Printing Plates #126C Allen Iverson Yellow
p639
sg11
I1
sg12
VStadium Club Printing Plates
p640
sg14
(lp641
Vhttp://www.beckett.com/basketball/1997-98/stadium-club-printing-plates/126c-allen-iverson-yellow-3139048
p642
asg17
g18
sg19
(lp643
Vhttp://img.beckett.com/images/no-image.jpg
p644
asg22
V#126C
p645
sg24
V1997-98
p646
sg26
g27
sg28
(lp647
g556
assbag1
(g2
g3
Ntp648
Rp649
(dp650
g7
(dp651
g9
V1997-98 Stadium Club Printing Plates #237 Anthony Parker Black
p652
sg11
I1
sg12
VStadium Club Printing Plates
p653
sg14
(lp654
Vhttp://www.beckett.com/basketball/1997-98/stadium-club-printing-plates/237-anthony-parker-black-3139489
p655
asg17
g18
sg19
(lp656
Vhttp://img.beckett.com/images/no-image.jpg
p657
asg22
V#237
p658
sg24
V1997-98
p659
sg26
g27
sg28
(lp660
VAnthony Parker
p661
assbag1
(g2
g3
Ntp662
Rp663
(dp664
g7
(dp665
g9
V1997-98 Stadium Club Printing Plates #237A Anthony Parker Cyan
p666
sg11
I1
sg12
VStadium Club Printing Plates
p667
sg14
(lp668
Vhttp://www.beckett.com/basketball/1997-98/stadium-club-printing-plates/237a-anthony-parker-cyan-3139490
p669
asg17
g18
sg19
(lp670
Vhttp://img.beckett.com/images/no-image.jpg
p671
asg22
V#237A
p672
sg24
V1997-98
p673
sg26
g27
sg28
(lp674
g661
assbag1
(g2
g3
Ntp675
Rp676
(dp677
g7
(dp678
g9
V1997-98 Stadium Club Printing Plates #237B Anthony Parker Magenta
p679
sg11
I1
sg12
VStadium Club Printing Plates
p680
sg14
(lp681
Vhttp://www.beckett.com/basketball/1997-98/stadium-club-printing-plates/237b-anthony-parker-magenta-3139491
p682
asg17
g18
sg19
(lp683
Vhttp://img.beckett.com/images/no-image.jpg
p684
asg22
V#237B
p685
sg24
V1997-98
p686
sg26
g27
sg28
(lp687
g661
assbag1
(g2
g3
Ntp688
Rp689
(dp690
g7
(dp691
g9
V1997-98 Stadium Club Printing Plates #237C Anthony Parker Yellow
p692
sg11
I1
sg12
VStadium Club Printing Plates
p693
sg14
(lp694
Vhttp://www.beckett.com/basketball/1997-98/stadium-club-printing-plates/237c-anthony-parker-yellow-3139492
p695
asg17
g18
sg19
(lp696
Vhttp://img.beckett.com/images/no-image.jpg
p697
asg22
V#237C
p698
sg24
V1997-98
p699
sg26
g27
sg28
(lp700
g661
assbag1
(g2
g3
Ntp701
Rp702
(dp703
g7
(dp704
g9
V1997-98 Ultra Masterpieces #18 Derrick Coleman
p705
sg11
I1
sg12
VUltra Masterpieces
p706
sg14
(lp707
Vhttp://www.beckett.com/basketball/1997-98/ultra-masterpieces/18-derrick-coleman-3135748
p708
asg17
g18
sg19
(lp709
Vhttp://img.beckett.com/images/no-image.jpg
p710
asg22
V#18
p711
sg24
V1997-98
p712
sg26
g27
sg28
(lp713
VDerrick Coleman
p714
assbag1
(g2
g3
Ntp715
Rp716
(dp717
g7
(dp718
g9
V1997-98 Ultra Masterpieces #107 Allen Iverson
p719
sg11
I1
sg12
VUltra Masterpieces
p720
sg14
(lp721
Vhttp://www.beckett.com/basketball/1997-98/ultra-masterpieces/107-allen-iverson-3135837
p722
asg17
g18
sg19
(lp723
Vhttp://img.beckett.com/images/no-image.jpg
p724
asg22
V#107
p725
sg24
V1997-98
p726
sg26
g27
sg28
(lp727
VAllen Iverson
p728
assbag1
(g2
g3
Ntp729
Rp730
(dp731
g7
(dp732
g9
V1997-98 Ultra Masterpieces #140 Anthony Parker
p733
sg11
I1
sg12
VUltra Masterpieces
p734
sg14
(lp735
Vhttp://www.beckett.com/basketball/1997-98/ultra-masterpieces/140-anthony-parker-3135870
p736
asg17
g18
sg19
(lp737
Vhttp://img.beckett.com/images/no-image.jpg
p738
asg22
V#140
p739
sg24
V1997-98
p740
sg26
g27
sg28
(lp741
VAnthony Parker
p742
assbag1
(g2
g3
Ntp743
Rp744
(dp745
g7
(dp746
g9
V1997-98 Ultra Masterpieces #258 Allen Iverson GRE
p747
sg11
I1
sg12
VUltra Masterpieces
p748
sg14
(lp749
Vhttp://www.beckett.com/basketball/1997-98/ultra-masterpieces/258-allen-iverson-gre-3135986
p750
asg17
g18
sg19
(lp751
Vhttp://img.beckett.com/images/no-image.jpg
p752
asg22
V#258
p753
sg24
V1997-98
p754
sg225
VGRE
p755
sg26
g27
sg28
(lp756
VAllen Iverson
p757
assbag1
(g2
g3
Ntp758
Rp759
(dp760
g7
(dp761
g9
V1997-98 Ultra Platinum Medallion #18 Derrick Coleman
p762
sg11
I100
sg12
VUltra Platinum Medallion
p763
sg14
(lp764
Vhttp://www.beckett.com/basketball/1997-98/ultra-platinum-medallion/18-derrick-coleman-3136032
p765
asg17
g18
sg19
(lp766
Vhttp://img.beckett.com/images/no-image.jpg
p767
asg22
V#18
p768
sg24
V1997-98
p769
sg26
g27
sg28
(lp770
VDerrick Coleman
p771
assbag1
(g2
g3
Ntp772
Rp773
(dp774
g7
(dp775
g9
V1997-98 Ultra Platinum Medallion #107 Allen Iverson
p776
sg11
I100
sg12
VUltra Platinum Medallion
p777
sg14
(lp778
Vhttp://www.beckett.com/basketball/1997-98/ultra-platinum-medallion/107-allen-iverson-3136121
p779
asg17
g18
sg19
(lp780
Vhttp://img.beckett.com/images/no-image.jpg
p781
asg22
V#107
p782
sg24
V1997-98
p783
sg26
g27
sg28
(lp784
VAllen Iverson
p785
assbag1
(g2
g3
Ntp786
Rp787
(dp788
g7
(dp789
g9
V1997-98 Ultra Platinum Medallion #140 Anthony Parker
p790
sg11
I100
sg12
VUltra Platinum Medallion
p791
sg14
(lp792
Vhttp://www.beckett.com/basketball/1997-98/ultra-platinum-medallion/140-anthony-parker-3136154
p793
asg17
g18
sg19
(lp794
Vhttp://img.beckett.com/images/no-image.jpg
p795
asg22
V#140
p796
sg24
V1997-98
p797
sg26
g27
sg28
(lp798
VAnthony Parker
p799
assbag1
(g2
g3
Ntp800
Rp801
(dp802
g7
(dp803
g9
V1997-98 Ultra Platinum Medallion #258 Allen Iverson GRE
p804
sg11
I100
sg12
VUltra Platinum Medallion
p805
sg14
(lp806
Vhttp://www.beckett.com/basketball/1997-98/ultra-platinum-medallion/258-allen-iverson-gre-3136270
p807
asg17
g18
sg19
(lp808
Vhttp://img.beckett.com/images/no-image.jpg
p809
asg22
V#258
p810
sg24
V1997-98
p811
sg225
VGRE
p812
sg26
g27
sg28
(lp813
VAllen Iverson
p814
assbag1
(g2
g3
Ntp815
Rp816
(dp817
g7
(dp818
g9
V1997-98 Z-Force Rave #44 Derrick Coleman
p819
sg11
I399
sg12
VZ-Force Rave
p820
sg14
(lp821
Vhttp://www.beckett.com/basketball/1997-98/z-force-rave/44-derrick-coleman-3133068
p822
asg17
g18
sg19
(lp823
Vhttp://img.beckett.com/images/no-image.jpg
p824
asg22
V#44
p825
sg24
V1997-98
p826
sg26
g27
sg28
(lp827
VDerrick Coleman
p828
assbag1
(g2
g3
Ntp829
Rp830
(dp831
g7
(dp832
g9
V1997-98 Z-Force Rave #100 Allen Iverson
p833
sg11
I399
sg12
VZ-Force Rave
p834
sg14
(lp835
Vhttp://www.beckett.com/basketball/1997-98/z-force-rave/100-allen-iverson-3133124
p836
asg17
g18
sg19
(lp837
Vhttp://img.beckett.com/images/no-image.jpg
p838
asg22
V#100
p839
sg24
V1997-98
p840
sg26
g27
sg28
(lp841
VAllen Iverson
p842
assbag1
(g2
g3
Ntp843
Rp844
(dp845
g7
(dp846
g9
V1997-98 Z-Force Rave #138 Derrick Coleman
p847
sg11
I399
sg12
VZ-Force Rave
p848
sg14
(lp849
Vhttp://www.beckett.com/basketball/1997-98/z-force-rave/138-derrick-coleman-3133160
p850
asg17
g18
sg19
(lp851
Vhttp://img.beckett.com/images/no-image.jpg
p852
asg22
V#138
p853
sg24
V1997-98
p854
sg26
g27
sg28
(lp855
VDerrick Coleman
p856
assbag1
(g2
g3
Ntp857
Rp858
(dp859
g7
(dp860
g9
V1997-98 Z-Force Rave #150 Allen Iverson
p861
sg11
I399
sg12
VZ-Force Rave
p862
sg14
(lp863
Vhttp://www.beckett.com/basketball/1997-98/z-force-rave/150-allen-iverson-3133172
p864
asg17
g18
sg19
(lp865
Vhttp://img.beckett.com/images/items_stock/185226/3133012/3133172/front.jpg
p866
asg22
V#150
p867
sg24
V1997-98
p868
sg26
g27
sg28
(lp869
VAllen Iverson
p870
assbag1
(g2
g3
Ntp871
Rp872
(dp873
g7
(dp874
g9
V1997-98 Z-Force Super Rave #138 Derrick Coleman
p875
sg11
I50
sg12
VZ-Force Super Rave
p876
sg14
(lp877
Vhttp://www.beckett.com/basketball/1997-98/z-force-super-rave/138-derrick-coleman-3133272
p878
asg17
g18
sg19
(lp879
Vhttp://img.beckett.com/images/no-image.jpg
p880
asg22
V#138
p881
sg24
V1997-98
p882
sg26
g27
sg28
(lp883
VDerrick Coleman
p884
assbag1
(g2
g3
Ntp885
Rp886
(dp887
g7
(dp888
g9
V1997-98 Z-Force Super Rave #150 Allen Iverson
p889
sg11
I50
sg12
VZ-Force Super Rave
p890
sg14
(lp891
Vhttp://www.beckett.com/basketball/1997-98/z-force-super-rave/150-allen-iverson-3133284
p892
asg17
g18
sg19
(lp893
Vhttp://img.beckett.com/images/no-image.jpg
p894
asg22
V#150
p895
sg24
V1997-98
p896
sg26
g27
sg28
(lp897
VAllen Iverson
p898
assbag1
(g2
g3
Ntp899
Rp900
(dp901
g7
(dp902
g9
V1997-98 Upper Deck High Dimensions #D27 Allen Iverson
p903
sg11
I2000
sg12
VUpper Deck High Dimensions
p904
sg14
(lp905
Vhttp://www.beckett.com/basketball/1997-98/upper-deck-high-dimensions/d27-allen-iverson-3132449
p906
asg17
g18
sg19
(lp907
Vhttp://img.beckett.com/images/no-image.jpg
p908
asg22
V#D27
p909
sg24
V1997-98
p910
sg26
g27
sg28
(lp911
VAllen Iverson
p912
assbag1
(g2
g3
Ntp913
Rp914
(dp915
g7
(dp916
g9
V1997-98 Hoops High Voltage 500 #HV8 Allen Iverson
p917
sg11
I500
sg12
VHoops High Voltage 500
p918
sg14
(lp919
Vhttp://www.beckett.com/basketball/1997-98/hoops-high-voltage-500/hv8-allen-iverson-3142297
p920
asg17
g18
sg19
(lp921
Vhttp://img.beckett.com/images/no-image.jpg
p922
asg22
V#HV8
p923
sg24
V1997-98
p924
sg26
g27
sg28
(lp925
VAllen Iverson
p926
assbag1
(g2
g3
Ntp927
Rp928
(dp929
g7
(dp930
g9
V1997-98 Metal Universe Precious Metal Gems Emerald #20 Allen Iverson
p931
sg11
I10
sg12
VMetal Universe Precious Metal Gems Emerald
p932
sg14
(lp933
Vhttp://www.beckett.com/basketball/1997-98/metal-universe-precious-metal-gems-emerald/20-allen-iverson-7055468
p934
asg17
g18
sg19
(lp935
Vhttp://img.beckett.com/images/no-image.jpg
p936
asg22
V#20
p937
sg24
V1997-98
p938
sg26
g27
sg28
(lp939
VAllen Iverson
p940
assbag1
(g2
g3
Ntp941
Rp942
(dp943
g7
(dp944
g9
V1997-98 Metal Universe Precious Metal Gems Emerald #38 Derrick Coleman
p945
sg11
I10
sg12
VMetal Universe Precious Metal Gems Emerald
p946
sg14
(lp947
Vhttp://www.beckett.com/basketball/1997-98/metal-universe-precious-metal-gems-emerald/38-derrick-coleman-7055487
p948
asg17
g18
sg19
(lp949
Vhttp://img.beckett.com/images/no-image.jpg
p950
asg22
V#38
p951
sg24
V1997-98
p952
sg26
g27
sg28
(lp953
VDerrick Coleman
p954
assbag1
(g2
g3
Ntp955
Rp956
(dp957
g7
(dp958
g9
V1997-98 SP Authentic Profiles 3 #P5 Allen Iverson
p959
sg11
I100
sg12
VSP Authentic Profiles 3
p960
sg14
(lp961
Vhttp://www.beckett.com/basketball/1997-98/sp-authentic-profiles-3/p5-allen-iverson-3140286
p962
asg17
g18
sg19
(lp963
Vhttp://img.beckett.com/images/no-image.jpg
p964
asg22
V#P5
p965
sg24
V1997-98
p966
sg26
g27
sg28
(lp967
VAllen Iverson
p968
assbag1
(g2
g3
Ntp969
Rp970
(dp971
g7
(dp972
g9
V1997-98 Upper Deck Diamond Dimensions #D27 Allen Iverson
p973
sg11
I100
sg12
VUpper Deck Diamond Dimensions
p974
sg14
(lp975
Vhttp://www.beckett.com/basketball/1997-98/upper-deck-diamond-dimensions/d27-allen-iverson-3132487
p976
asg17
g18
sg19
(lp977
Vhttp://img.beckett.com/images/no-image.jpg
p978
asg22
V#D27
p979
sg24
V1997-98
p980
sg26
g27
sg28
(lp981
VAllen Iverson
p982
assba.