(lp0
Naccopy_reg
_reconstructor
p1
(ctutorial.items
BeckettItem
p2
c__builtin__
object
p3
Ntp4
Rp5
(dp6
S'_values'
p7
(dp8
S'originalItemDescription'
p9
V1997 SPx ProMotion Autographs #2 Damon Stoudamire
p10
sS'serialNumber'
p11
I100
sS'setName'
p12
VSPx ProMotion Autographs
p13
sS'beckettLink'
p14
(lp15
Vhttp://www.beckett.com/basketball/1997/spx-promotion-autographs/2-damon-stoudamire-3128612
p16
asS'team'
p17
S'Toronto Raptors'
p18
sS'imageLink'
p19
(lp20
Vhttp://img.beckett.com/images/no-image.jpg
p21
asS'cardNumber'
p22
V#2
p23
sS'autograph'
p24
I1
sS'year'
p25
V1997
p26
sS'sport'
p27
S'Basketball'
p28
sS'playerNames'
p29
(lp30
VDamon Stoudamire
p31
assbag1
(g2
g3
Ntp32
Rp33
(dp34
g7
(dp35
g9
V1997-98 E-X2001 Essential Credentials Future #10 Marcus Camby/71
p36
sg11
I71
sg12
VE-X2001 Essential Credentials Future
p37
sg14
(lp38
Vhttp://www.beckett.com/basketball/1997-98/e-x2001-essential-credentials-future/10-marcus-camby71-3144596
p39
asg17
g18
sg19
(lp40
Vhttp://img.beckett.com/images/no-image.jpg
p41
asg22
V#10
p42
sg25
V1997-98
p43
sg27
g28
sg29
(lp44
VMarcus Camby
p45
assbag1
(g2
g3
Ntp46
Rp47
(dp48
g7
(dp49
g9
V1997-98 E-X2001 Essential Credentials Future #79 Tracy McGrady/2
p50
sg11
I2
sg12
VE-X2001 Essential Credentials Future
p51
sg14
(lp52
Vhttp://www.beckett.com/basketball/1997-98/e-x2001-essential-credentials-future/79-tracy-mcgrady2-3144665
p53
asg17
g18
sg19
(lp54
Vhttp://img.beckett.com/images/no-image.jpg
p55
asg22
V#79
p56
sg25
V1997-98
p57
sg27
g28
sg29
(lp58
VTracy McGrady
p59
assbag1
(g2
g3
Ntp60
Rp61
(dp62
g7
(dp63
g9
V1997-98 E-X2001 Essential Credentials Now #10 Marcus Camby/10
p64
sg11
I10
sg12
VE-X2001 Essential Credentials Now
p65
sg14
(lp66
Vhttp://www.beckett.com/basketball/1997-98/e-x2001-essential-credentials-now/10-marcus-camby10-3144683
p67
asg17
g18
sg19
(lp68
Vhttp://img.beckett.com/images/no-image.jpg
p69
asg22
V#10
p70
sg25
V1997-98
p71
sg27
g28
sg29
(lp72
VMarcus Camby
p73
assbag1
(g2
g3
Ntp74
Rp75
(dp76
g7
(dp77
g9
V1997-98 E-X2001 Essential Credentials Now #79 Tracy McGrady/79
p78
sg11
I79
sg12
VE-X2001 Essential Credentials Now
p79
sg14
(lp80
Vhttp://www.beckett.com/basketball/1997-98/e-x2001-essential-credentials-now/79-tracy-mcgrady79-3144752
p81
asg17
g18
sg19
(lp82
Vhttp://img.beckett.com/images/no-image.jpg
p83
asg22
V#79
p84
sg25
V1997-98
p85
sg27
g28
sg29
(lp86
VTracy McGrady
p87
assbag1
(g2
g3
Ntp88
Rp89
(dp90
g7
(dp91
g9
V1997-98 Finest Embossed Refractors #159 Marcus Camby G
p92
sg11
I74
sg12
VFinest Embossed Refractors
p93
sg14
(lp94
Vhttp://www.beckett.com/basketball/1997-98/finest-embossed-refractors/159-marcus-camby-g-3145367
p95
asg17
g18
sg19
(lp96
Vhttp://img.beckett.com/images/no-image.jpg
p97
asg22
V#159
p98
sg25
V1997-98
p99
sS'subsetName'
p100
VG
p101
sg27
g28
sg29
(lp102
VMarcus Camby
p103
assbag1
(g2
g3
Ntp104
Rp105
(dp106
g7
(dp107
g9
V1997-98 Finest Embossed Refractors #294 Tracy McGrady S
p108
sg11
I263
sg12
VFinest Embossed Refractors
p109
sg14
(lp110
Vhttp://www.beckett.com/basketball/1997-98/finest-embossed-refractors/294-tracy-mcgrady-s-3145402
p111
asg17
g18
sg19
(lp112
Vhttp://img.beckett.com/images/no-image.jpg
p113
asg22
V#294
p114
sg25
V1997-98
p115
sg100
VS
p116
sg27
g28
sg29
(lp117
VTracy McGrady
p118
assbag1
(g2
g3
Ntp119
Rp120
(dp121
g7
(dp122
g9
V1997-98 Finest Embossed Refractors #296 Marcus Camby S
p123
sg11
I263
sg12
VFinest Embossed Refractors
p124
sg14
(lp125
Vhttp://www.beckett.com/basketball/1997-98/finest-embossed-refractors/296-marcus-camby-s-3145404
p126
asg17
g18
sg19
(lp127
Vhttp://img.beckett.com/images/no-image.jpg
p128
asg22
V#296
p129
sg25
V1997-98
p130
sg100
g116
sg27
g28
sg29
(lp131
VMarcus Camby
p132
assbag1
(g2
g3
Ntp133
Rp134
(dp135
g7
(dp136
g9
V1997-98 Finest Embossed Refractors #316 Tracy McGrady G
p137
sg11
I74
sg12
VFinest Embossed Refractors
p138
sg14
(lp139
Vhttp://www.beckett.com/basketball/1997-98/finest-embossed-refractors/316-tracy-mcgrady-g-3145424
p140
asg17
g18
sg19
(lp141
Vhttp://img.beckett.com/images/no-image.jpg
p142
asg22
V#316
p143
sg25
V1997-98
p144
sg100
g101
sg27
g28
sg29
(lp145
VTracy Mcrady
p146
assbag1
(g2
g3
Ntp147
Rp148
(dp149
g7
(dp150
g9
V1997-98 Finest Refractors #159 Marcus Camby G
p151
sg11
I289
sg12
VFinest Refractors
p152
sg14
(lp153
Vhttp://www.beckett.com/basketball/1997-98/finest-refractors/159-marcus-camby-g-3145625
p154
asg17
g18
sg19
(lp155
Vhttp://img.beckett.com/images/items_stock/185226/3145435/3145625/front.jpg
p156
asg22
V#159
p157
sg25
V1997-98
p158
sg100
g101
sg27
g28
sg29
(lp159
VMarcus Camby
p160
assbag1
(g2
g3
Ntp161
Rp162
(dp163
g7
(dp164
g9
V1997-98 Finest Refractors #294 Tracy McGrady S
p165
sg11
I1090
sg12
VFinest Refractors
p166
sg14
(lp167
Vhttp://www.beckett.com/basketball/1997-98/finest-refractors/294-tracy-mcgrady-s-3145760
p168
asg17
g18
sg19
(lp169
Vhttp://img.beckett.com/images/no-image.jpg
p170
asg22
V#294
p171
sg25
V1997-98
p172
sg100
g116
sg27
g28
sg29
(lp173
VTracy McGrady
p174
assbag1
(g2
g3
Ntp175
Rp176
(dp177
g7
(dp178
g9
V1997-98 Finest Refractors #296 Marcus Camby S
p179
sg11
I1090
sg12
VFinest Refractors
p180
sg14
(lp181
Vhttp://www.beckett.com/basketball/1997-98/finest-refractors/296-marcus-camby-s-3145762
p182
asg17
g18
sg19
(lp183
Vhttp://img.beckett.com/images/items_stock/185226/3145435/3145762/front.jpg
p184
asg22
V#296
p185
sg25
V1997-98
p186
sg100
g116
sg27
g28
sg29
(lp187
VMarcus Camby
p188
assbag1
(g2
g3
Ntp189
Rp190
(dp191
g7
(dp192
g9
V1997-98 Finest Refractors #316 Tracy McGrady G
p193
sg11
I289
sg12
VFinest Refractors
p194
sg14
(lp195
Vhttp://www.beckett.com/basketball/1997-98/finest-refractors/316-tracy-mcgrady-g-3145782
p196
asg17
g18
sg19
(lp197
Vhttp://img.beckett.com/images/items_stock/185226/3145435/3145782/front.jpg
p198
asg22
V#316
p199
sg25
V1997-98
p200
sg100
g101
sg27
g28
sg29
(lp201
VTracy Mcrady
p202
assbag1
(g2
g3
Ntp203
Rp204
(dp205
g7
(dp206
g9
V1997-98 Flair Showcase Row 0 #19 Marcus Camby
p207
sg11
I250
sg12
VFlair Showcase Row 0
p208
sg14
(lp209
Vhttp://www.beckett.com/basketball/1997-98/flair-showcase-row-0/19-marcus-camby-3146117
p210
asg17
g18
sg19
(lp211
Vhttp://img.beckett.com/images/no-image.jpg
p212
asg22
V#19
p213
sg25
V1997-98
p214
sg27
g28
sg29
(lp215
VMarcus Camby
p216
assbag1
(g2
g3
Ntp217
Rp218
(dp219
g7
(dp220
g9
V1997-98 Flair Showcase Row 0 #21 Tracy McGrady
p221
sg11
I500
sg12
VFlair Showcase Row 0
p222
sg14
(lp223
Vhttp://www.beckett.com/basketball/1997-98/flair-showcase-row-0/21-tracy-mcgrady-3146119
p224
asg17
g18
sg19
(lp225
Vhttp://img.beckett.com/images/no-image.jpg
p226
asg22
V#21
p227
sg25
V1997-98
p228
sg27
g28
sg29
(lp229
VTracy McGrady
p230
assbag1
(g2
g3
Ntp231
Rp232
(dp233
g7
(dp234
g9
V1997-98 Flair Showcase Legacy Collection Row 3 #19 Marcus Camby
p235
sg11
I100
sg12
VFlair Showcase Legacy Collection Row 3
p236
sg14
(lp237
Vhttp://www.beckett.com/basketball/1997-98/flair-showcase-legacy-collection-row-3/19-marcus-camby-3148577
p238
asg17
g18
sg19
(lp239
Vhttp://img.beckett.com/images/no-image.jpg
p240
asg22
V#19
p241
sg25
V1997-98
p242
sg27
g28
sg29
(lp243
VMarcus Camby
p244
assbag1
(g2
g3
Ntp245
Rp246
(dp247
g7
(dp248
g9
V1997-98 Flair Showcase Legacy Collection Row 3 #21 Tracy McGrady
p249
sg11
I100
sg12
VFlair Showcase Legacy Collection Row 3
p250
sg14
(lp251
Vhttp://www.beckett.com/basketball/1997-98/flair-showcase-legacy-collection-row-3/21-tracy-mcgrady-3148579
p252
asg17
g18
sg19
(lp253
Vhttp://img.beckett.com/images/items_stock/185226/3148549/3148579/front.jpg
p254
asg22
V#21
p255
sg25
V1997-98
p256
sg27
g28
sg29
(lp257
VTracy McGrady
p258
assbag1
(g2
g3
Ntp259
Rp260
(dp261
g7
(dp262
g9
V1997-98 Metal Universe Precious Metal Gems #42 Tracy McGrady
p263
sg11
I90
sg12
VMetal Universe Precious Metal Gems
p264
sg14
(lp265
Vhttp://www.beckett.com/basketball/1997-98/metal-universe-precious-metal-gems/42-tracy-mcgrady-3142634
p266
asg17
g18
sg19
(lp267
Vhttp://img.beckett.com/images/no-image.jpg
p268
asg22
V#42
p269
sg25
V1997-98
p270
sg27
g28
sg29
(lp271
VTracy McGrady
p272
assbag1
(g2
g3
Ntp273
Rp274
(dp275
g7
(dp276
g9
V1997-98 Metal Universe Precious Metal Gems #84 Marcus Camby
p277
sg11
I90
sg12
VMetal Universe Precious Metal Gems
p278
sg14
(lp279
Vhttp://www.beckett.com/basketball/1997-98/metal-universe-precious-metal-gems/84-marcus-camby-3142676
p280
asg17
g18
sg19
(lp281
Vhttp://img.beckett.com/images/no-image.jpg
p282
asg22
V#84
p283
sg25
V1997-98
p284
sg27
g28
sg29
(lp285
VMarcus Camby
p286
assbag1
(g2
g3
Ntp287
Rp288
(dp289
g7
(dp290
g9
V1997-98 Metal Universe Championship Precious Metal Gems #36 Tracy McGrady
p291
sg11
I50
sg12
VMetal Universe Championship Precious Metal Gems
p292
sg14
(lp293
Vhttp://www.beckett.com/basketball/1997-98/metal-universe-championship-precious-metal-gems/36-tracy-mcgrady-3140711
p294
asg17
g18
sg19
(lp295
Vhttp://img.beckett.com/images/no-image.jpg
p296
asg22
V#36
p297
sg25
V1997-98
p298
sg27
g28
sg29
(lp299
VTracy McGrady
p300
assbag1
(g2
g3
Ntp301
Rp302
(dp303
g7
(dp304
g9
V1997-98 Metal Universe Championship Precious Metal Gems #48 Marcus Camby
p305
sg11
I50
sg12
VMetal Universe Championship Precious Metal Gems
p306
sg14
(lp307
Vhttp://www.beckett.com/basketball/1997-98/metal-universe-championship-precious-metal-gems/48-marcus-camby-3140723
p308
asg17
g18
sg19
(lp309
Vhttp://img.beckett.com/images/no-image.jpg
p310
asg22
V#48
p311
sg25
V1997-98
p312
sg27
g28
sg29
(lp313
VMarcus Camby
p314
assbag1
(g2
g3
Ntp315
Rp316
(dp317
g7
(dp318
g9
V1997-98 SkyBox Premium Star Rubies #79 Tracy McGrady
p319
sg11
I50
sg12
VSkyBox Premium Star Rubies
p320
sg14
(lp321
Vhttp://www.beckett.com/basketball/1997-98/skybox-premium-star-rubies/79-tracy-mcgrady-3141250
p322
asg17
g18
sg19
(lp323
Vhttp://img.beckett.com/images/no-image.jpg
p324
asg22
V#79
p325
sg25
V1997-98
p326
sg27
g28
sg29
(lp327
VTracy McGrady
p328
assbag1
(g2
g3
Ntp329
Rp330
(dp331
g7
(dp332
g9
V1997-98 SkyBox Premium Star Rubies #88 Marcus Camby
p333
sg11
I50
sg12
VSkyBox Premium Star Rubies
p334
sg14
(lp335
Vhttp://www.beckett.com/basketball/1997-98/skybox-premium-star-rubies/88-marcus-camby-3141259
p336
asg17
g18
sg19
(lp337
Vhttp://img.beckett.com/images/no-image.jpg
p338
asg22
V#88
p339
sg25
V1997-98
p340
sg27
g28
sg29
(lp341
VMarcus Camby
p342
assbag1
(g2
g3
Ntp343
Rp344
(dp345
g7
(dp346
g9
V1997-98 SkyBox Premium Star Rubies #189 Shawn Respert
p347
sg11
I50
sg12
VSkyBox Premium Star Rubies
p348
sg14
(lp349
Vhttp://www.beckett.com/basketball/1997-98/skybox-premium-star-rubies/189-shawn-respert-3141358
p350
asg17
g18
sg19
(lp351
Vhttp://img.beckett.com/images/no-image.jpg
p352
asg22
V#189
p353
sg25
V1997-98
p354
sg27
g28
sg29
(lp355
VShawn Respert
p356
assbag1
(g2
g3
Ntp357
Rp358
(dp359
g7
(dp360
g9
V1997-98 SkyBox Premium Star Rubies #227 Marcus Camby TS
p361
sg11
I50
sg12
VSkyBox Premium Star Rubies
p362
sg14
(lp363
Vhttp://www.beckett.com/basketball/1997-98/skybox-premium-star-rubies/227-marcus-camby-ts-3141396
p364
asg17
g18
sg19
(lp365
Vhttp://img.beckett.com/images/no-image.jpg
p366
asg22
V#227
p367
sg25
V1997-98
p368
sg100
VTS
p369
sg27
g28
sg29
(lp370
VMarcus Camby
p371
assbag1
(g2
g3
Ntp372
Rp373
(dp374
g7
(dp375
g9
V1997-98 SkyBox Premium Autographics Century Marks #17 Marcus Camby
p376
sg11
I100
sg12
VSkyBox Premium Autographics Century Marks
p377
sg14
(lp378
Vhttp://www.beckett.com/basketball/1997-98/skybox-premium-autographics-century-marks/17-marcus-camby-3141599
p379
asg17
g18
sg19
(lp380
Vhttp://img.beckett.com/images/no-image.jpg
p381
asg22
V#17
p382
sg24
I1
sg25
V1997-98
p383
sg27
g28
sg29
(lp384
VMarcus Camby
p385
assbag1
(g2
g3
Ntp386
Rp387
(dp388
g7
(dp389
g9
V1997-98 SkyBox Premium Autographics Century Marks #59 Popeye Jones
p390
sg11
I100
sg12
VSkyBox Premium Autographics Century Marks
p391
sg14
(lp392
Vhttp://www.beckett.com/basketball/1997-98/skybox-premium-autographics-century-marks/59-popeye-jones-3141641
p393
asg17
g18
sg19
(lp394
Vhttp://img.beckett.com/images/no-image.jpg
p395
asg22
V#59
p396
sg24
I1
sg25
V1997-98
p397
sg27
g28
sg29
(lp398
VPopeye Jones
p399
assbag1
(g2
g3
Ntp400
Rp401
(dp402
g7
(dp403
g9
V1997-98 SkyBox Premium Autographics Century Marks #71 Tracy McGrady
p404
sg11
I100
sg12
VSkyBox Premium Autographics Century Marks
p405
sg14
(lp406
Vhttp://www.beckett.com/basketball/1997-98/skybox-premium-autographics-century-marks/71-tracy-mcgrady-3141653
p407
asg17
g18
sg19
(lp408
Vhttp://img.beckett.com/images/no-image.jpg
p409
asg22
V#71
p410
sg24
I1
sg25
V1997-98
p411
sg27
g28
sg29
(lp412
VTracy McGrady
p413
assbag1
(g2
g3
Ntp414
Rp415
(dp416
g7
(dp417
g9
V1997-98 SPx Grand Finale #41 Marcus Camby
p418
sg11
I50
sg12
VSPx Grand Finale
p419
sg14
(lp420
Vhttp://www.beckett.com/basketball/1997-98/spx-grand-finale/41-marcus-camby-3137725
p421
asg17
g18
sg19
(lp422
Vhttp://img.beckett.com/images/no-image.jpg
p423
asg22
V#41
p424
sg25
V1997-98
p425
sg27
g28
sg29
(lp426
VMarcus Camby
p427
assbag1
(g2
g3
Ntp428
Rp429
(dp430
g7
(dp431
g9
V1997-98 SPx Grand Finale #42 Tracy McGrady
p432
sg11
I50
sg12
VSPx Grand Finale
p433
sg14
(lp434
Vhttp://www.beckett.com/basketball/1997-98/spx-grand-finale/42-tracy-mcgrady-3137726
p435
asg17
g18
sg19
(lp436
Vhttp://img.beckett.com/images/no-image.jpg
p437
asg22
V#42
p438
sg25
V1997-98
p439
sg27
g28
sg29
(lp440
VTracy McGrady
p441
assbag1
(g2
g3
Ntp442
Rp443
(dp444
g7
(dp445
g9
V1997-98 Stadium Club One Of A Kind #12 Popeye Jones
p446
sg11
I150
sg12
VStadium Club One Of A Kind
p447
sg14
(lp448
Vhttp://www.beckett.com/basketball/1997-98/stadium-club-one-of-a-kind/12-popeye-jones-3138311
p449
asg17
g18
sg19
(lp450
Vhttp://img.beckett.com/images/items_stock/185226/3138288/3138311/front.jpg
p451
asg22
V#12
p452
sg25
V1997-98
p453
sg27
g28
sg29
(lp454
VPopeye Jones
p455
assbag1
(g2
g3
Ntp456
Rp457
(dp458
g7
(dp459
g9
V1997-98 Stadium Club One Of A Kind #29 Doug Christie
p460
sg11
I150
sg12
VStadium Club One Of A Kind
p461
sg14
(lp462
Vhttp://www.beckett.com/basketball/1997-98/stadium-club-one-of-a-kind/29-doug-christie-3138328
p463
asg17
g18
sg19
(lp464
Vhttp://img.beckett.com/images/no-image.jpg
p465
asg22
V#29
p466
sg25
V1997-98
p467
sg27
g28
sg29
(lp468
VDoug Christie
p469
assbag1
(g2
g3
Ntp470
Rp471
(dp472
g7
(dp473
g9
V1997-98 Stadium Club One Of A Kind #117 Shawn Respert
p474
sg11
I150
sg12
VStadium Club One Of A Kind
p475
sg14
(lp476
Vhttp://www.beckett.com/basketball/1997-98/stadium-club-one-of-a-kind/117-shawn-respert-3138416
p477
asg17
g18
sg19
(lp478
Vhttp://img.beckett.com/images/items_stock/185226/3138288/3138416/front.jpg
p479
asg22
V#117
p480
sg25
V1997-98
p481
sg27
g28
sg29
(lp482
VShawn Respert
p483
assbag1
(g2
g3
Ntp484
Rp485
(dp486
g7
(dp487
g9
V1997-98 Stadium Club One Of A Kind #176 Carlos Rogers
p488
sg11
I150
sg12
VStadium Club One Of A Kind
p489
sg14
(lp490
Vhttp://www.beckett.com/basketball/1997-98/stadium-club-one-of-a-kind/176-carlos-rogers-3138475
p491
asg17
g18
sg19
(lp492
Vhttp://img.beckett.com/images/items_stock/185226/3138288/3138475/front.jpg
p493
asg22
V#176
p494
sg25
V1997-98
p495
sg27
g28
sg29
(lp496
VCarlos Rogers
p497
assbag1
(g2
g3
Ntp498
Rp499
(dp500
g7
(dp501
g9
V1997-98 Stadium Club One Of A Kind #177 Marcus Camby
p502
sg11
I150
sg12
VStadium Club One Of A Kind
p503
sg14
(lp504
Vhttp://www.beckett.com/basketball/1997-98/stadium-club-one-of-a-kind/177-marcus-camby-3138476
p505
asg17
g18
sg19
(lp506
Vhttp://img.beckett.com/images/no-image.jpg
p507
asg22
V#177
p508
sg25
V1997-98
p509
sg27
g28
sg29
(lp510
VMarcus Camby
p511
assbag1
(g2
g3
Ntp512
Rp513
(dp514
g7
(dp515
g9
V1997-98 Stadium Club One Of A Kind #217 Tracy McGrady
p516
sg11
I150
sg12
VStadium Club One Of A Kind
p517
sg14
(lp518
Vhttp://www.beckett.com/basketball/1997-98/stadium-club-one-of-a-kind/217-tracy-mcgrady-3138516
p519
asg17
g18
sg19
(lp520
Vhttp://img.beckett.com/images/items_stock/185226/3138288/3138516/front.jpg
p521
asg22
V#217
p522
sg25
V1997-98
p523
sg27
g28
sg29
(lp524
VTracy McGrady
p525
assbag1
(g2
g3
Ntp526
Rp527
(dp528
g7
(dp529
g9
V1997-98 Stadium Club Printing Plates #12 Popeye Jones Black
p530
sg11
I1
sg12
VStadium Club Printing Plates
p531
sg14
(lp532
Vhttp://www.beckett.com/basketball/1997-98/stadium-club-printing-plates/12-popeye-jones-black-3138589
p533
asg17
g18
sg19
(lp534
Vhttp://img.beckett.com/images/no-image.jpg
p535
asg22
V#12
p536
sg25
V1997-98
p537
sg27
g28
sg29
(lp538
VPopeye Jones Black
p539
assbag1
(g2
g3
Ntp540
Rp541
(dp542
g7
(dp543
g9
V1997-98 Stadium Club Printing Plates #12A Popeye Jones Cyan
p544
sg11
I1
sg12
VStadium Club Printing Plates
p545
sg14
(lp546
Vhttp://www.beckett.com/basketball/1997-98/stadium-club-printing-plates/12a-popeye-jones-cyan-3138590
p547
asg17
g18
sg19
(lp548
Vhttp://img.beckett.com/images/no-image.jpg
p549
asg22
V#12A
p550
sg25
V1997-98
p551
sg27
g28
sg29
(lp552
VPopeye Jones Cyan
p553
assbag1
(g2
g3
Ntp554
Rp555
(dp556
g7
(dp557
g9
V1997-98 Stadium Club Printing Plates #12B Popeye Jones Magenta
p558
sg11
I1
sg12
VStadium Club Printing Plates
p559
sg14
(lp560
Vhttp://www.beckett.com/basketball/1997-98/stadium-club-printing-plates/12b-popeye-jones-magenta-3138591
p561
asg17
g18
sg19
(lp562
Vhttp://img.beckett.com/images/no-image.jpg
p563
asg22
V#12B
p564
sg25
V1997-98
p565
sg27
g28
sg29
(lp566
VPopeye Jones Magenta
p567
assbag1
(g2
g3
Ntp568
Rp569
(dp570
g7
(dp571
g9
V1997-98 Stadium Club Printing Plates #12C Popeye Jones Yellow
p572
sg11
I1
sg12
VStadium Club Printing Plates
p573
sg14
(lp574
Vhttp://www.beckett.com/basketball/1997-98/stadium-club-printing-plates/12c-popeye-jones-yellow-3138592
p575
asg17
g18
sg19
(lp576
Vhttp://img.beckett.com/images/no-image.jpg
p577
asg22
V#12C
p578
sg25
V1997-98
p579
sg27
g28
sg29
(lp580
VPopeye Jones Yellow
p581
assbag1
(g2
g3
Ntp582
Rp583
(dp584
g7
(dp585
g9
V1997-98 Stadium Club Printing Plates #29 Doug Christie Black
p586
sg11
I1
sg12
VStadium Club Printing Plates
p587
sg14
(lp588
Vhttp://www.beckett.com/basketball/1997-98/stadium-club-printing-plates/29-doug-christie-black-3138657
p589
asg17
g18
sg19
(lp590
Vhttp://img.beckett.com/images/no-image.jpg
p591
asg22
V#29
p592
sg25
V1997-98
p593
sg27
g28
sg29
(lp594
VDoug Christie Black
p595
assbag1
(g2
g3
Ntp596
Rp597
(dp598
g7
(dp599
g9
V1997-98 Stadium Club Printing Plates #29A Doug Christie Cyan
p600
sg11
I1
sg12
VStadium Club Printing Plates
p601
sg14
(lp602
Vhttp://www.beckett.com/basketball/1997-98/stadium-club-printing-plates/29a-doug-christie-cyan-3138658
p603
asg17
g18
sg19
(lp604
Vhttp://img.beckett.com/images/no-image.jpg
p605
asg22
V#29A
p606
sg25
V1997-98
p607
sg27
g28
sg29
(lp608
VDoug Christie Cyan
p609
assbag1
(g2
g3
Ntp610
Rp611
(dp612
g7
(dp613
g9
V1997-98 Stadium Club Printing Plates #29B Doug Christie Magenta
p614
sg11
I1
sg12
VStadium Club Printing Plates
p615
sg14
(lp616
Vhttp://www.beckett.com/basketball/1997-98/stadium-club-printing-plates/29b-doug-christie-magenta-3138659
p617
asg17
g18
sg19
(lp618
Vhttp://img.beckett.com/images/no-image.jpg
p619
asg22
V#29B
p620
sg25
V1997-98
p621
sg27
g28
sg29
(lp622
VDoug Christie Magenta
p623
assbag1
(g2
g3
Ntp624
Rp625
(dp626
g7
(dp627
g9
V1997-98 Stadium Club Printing Plates #29C Doug Christie Yellow
p628
sg11
I1
sg12
VStadium Club Printing Plates
p629
sg14
(lp630
Vhttp://www.beckett.com/basketball/1997-98/stadium-club-printing-plates/29c-doug-christie-yellow-3138660
p631
asg17
g18
sg19
(lp632
Vhttp://img.beckett.com/images/no-image.jpg
p633
asg22
V#29C
p634
sg25
V1997-98
p635
sg27
g28
sg29
(lp636
VDoug Christie Yellow
p637
assbag1
(g2
g3
Ntp638
Rp639
(dp640
g7
(dp641
g9
V1997-98 Stadium Club Printing Plates #117 Shawn Respert Black
p642
sg11
I1
sg12
VStadium Club Printing Plates
p643
sg14
(lp644
Vhttp://www.beckett.com/basketball/1997-98/stadium-club-printing-plates/117-shawn-respert-black-3139009
p645
asg17
g18
sg19
(lp646
Vhttp://img.beckett.com/images/no-image.jpg
p647
asg22
V#117
p648
sg25
V1997-98
p649
sg27
g28
sg29
(lp650
VShawn Respert Black
p651
assbag1
(g2
g3
Ntp652
Rp653
(dp654
g7
(dp655
g9
V1997-98 Stadium Club Printing Plates #117A Shawn Respert Cyan
p656
sg11
I1
sg12
VStadium Club Printing Plates
p657
sg14
(lp658
Vhttp://www.beckett.com/basketball/1997-98/stadium-club-printing-plates/117a-shawn-respert-cyan-3139010
p659
asg17
g18
sg19
(lp660
Vhttp://img.beckett.com/images/no-image.jpg
p661
asg22
V#117A
p662
sg25
V1997-98
p663
sg27
g28
sg29
(lp664
VShawn Respert Cyan
p665
assbag1
(g2
g3
Ntp666
Rp667
(dp668
g7
(dp669
g9
V1997-98 Stadium Club Printing Plates #117B Shawn Respert Magenta
p670
sg11
I1
sg12
VStadium Club Printing Plates
p671
sg14
(lp672
Vhttp://www.beckett.com/basketball/1997-98/stadium-club-printing-plates/117b-shawn-respert-magenta-3139011
p673
asg17
g18
sg19
(lp674
Vhttp://img.beckett.com/images/no-image.jpg
p675
asg22
V#117B
p676
sg25
V1997-98
p677
sg27
g28
sg29
(lp678
VShawn Respert Magenta
p679
assbag1
(g2
g3
Ntp680
Rp681
(dp682
g7
(dp683
g9
V1997-98 Stadium Club Printing Plates #117C Shawn Respert Yellow
p684
sg11
I1
sg12
VStadium Club Printing Plates
p685
sg14
(lp686
Vhttp://www.beckett.com/basketball/1997-98/stadium-club-printing-plates/117c-shawn-respert-yellow-3139012
p687
asg17
g18
sg19
(lp688
Vhttp://img.beckett.com/images/no-image.jpg
p689
asg22
V#117C
p690
sg25
V1997-98
p691
sg27
g28
sg29
(lp692
VShawn Respert Yellow
p693
assbag1
(g2
g3
Ntp694
Rp695
(dp696
g7
(dp697
g9
V1997-98 Stadium Club Printing Plates #176 Carlos Rogers Black
p698
sg11
I1
sg12
VStadium Club Printing Plates
p699
sg14
(lp700
Vhttp://www.beckett.com/basketball/1997-98/stadium-club-printing-plates/176-carlos-rogers-black-3139245
p701
asg17
g18
sg19
(lp702
Vhttp://img.beckett.com/images/no-image.jpg
p703
asg22
V#176
p704
sg25
V1997-98
p705
sg27
g28
sg29
(lp706
VCarlos Rogers Black
p707
assbag1
(g2
g3
Ntp708
Rp709
(dp710
g7
(dp711
g9
V1997-98 Stadium Club Printing Plates #176A Carlos Rogers Cyan
p712
sg11
I1
sg12
VStadium Club Printing Plates
p713
sg14
(lp714
Vhttp://www.beckett.com/basketball/1997-98/stadium-club-printing-plates/176a-carlos-rogers-cyan-3139246
p715
asg17
g18
sg19
(lp716
Vhttp://img.beckett.com/images/no-image.jpg
p717
asg22
V#176A
p718
sg25
V1997-98
p719
sg27
g28
sg29
(lp720
VCarlos Rogers Cyan
p721
assbag1
(g2
g3
Ntp722
Rp723
(dp724
g7
(dp725
g9
V1997-98 Stadium Club Printing Plates #176B Carlos Rogers Magenta
p726
sg11
I1
sg12
VStadium Club Printing Plates
p727
sg14
(lp728
Vhttp://www.beckett.com/basketball/1997-98/stadium-club-printing-plates/176b-carlos-rogers-magenta-3139247
p729
asg17
g18
sg19
(lp730
Vhttp://img.beckett.com/images/no-image.jpg
p731
asg22
V#176B
p732
sg25
V1997-98
p733
sg27
g28
sg29
(lp734
VCarlos Rogers Magenta
p735
assbag1
(g2
g3
Ntp736
Rp737
(dp738
g7
(dp739
g9
V1997-98 Stadium Club Printing Plates #176C Carlos Rogers Yellow
p740
sg11
I1
sg12
VStadium Club Printing Plates
p741
sg14
(lp742
Vhttp://www.beckett.com/basketball/1997-98/stadium-club-printing-plates/176c-carlos-rogers-yellow-3139248
p743
asg17
g18
sg19
(lp744
Vhttp://img.beckett.com/images/no-image.jpg
p745
asg22
V#176C
p746
sg25
V1997-98
p747
sg27
g28
sg29
(lp748
VCarlos Rogers Yellow
p749
assbag1
(g2
g3
Ntp750
Rp751
(dp752
g7
(dp753
g9
V1997-98 Stadium Club Printing Plates #177 Marcus Camby Black
p754
sg11
I1
sg12
VStadium Club Printing Plates
p755
sg14
(lp756
Vhttp://www.beckett.com/basketball/1997-98/stadium-club-printing-plates/177-marcus-camby-black-3139249
p757
asg17
g18
sg19
(lp758
Vhttp://img.beckett.com/images/no-image.jpg
p759
asg22
V#177
p760
sg25
V1997-98
p761
sg27
g28
sg29
(lp762
VMarcus Camby Black
p763
assbag1
(g2
g3
Ntp764
Rp765
(dp766
g7
(dp767
g9
V1997-98 Stadium Club Printing Plates #177A Marcus Camby Cyan
p768
sg11
I1
sg12
VStadium Club Printing Plates
p769
sg14
(lp770
Vhttp://www.beckett.com/basketball/1997-98/stadium-club-printing-plates/177a-marcus-camby-cyan-3139250
p771
asg17
g18
sg19
(lp772
Vhttp://img.beckett.com/images/no-image.jpg
p773
asg22
V#177A
p774
sg25
V1997-98
p775
sg27
g28
sg29
(lp776
VMarcus Camby Cyan
p777
assbag1
(g2
g3
Ntp778
Rp779
(dp780
g7
(dp781
g9
V1997-98 Stadium Club Printing Plates #177B Marcus Camby Magenta
p782
sg11
I1
sg12
VStadium Club Printing Plates
p783
sg14
(lp784
Vhttp://www.beckett.com/basketball/1997-98/stadium-club-printing-plates/177b-marcus-camby-magenta-3139251
p785
asg17
g18
sg19
(lp786
Vhttp://img.beckett.com/images/no-image.jpg
p787
asg22
V#177B
p788
sg25
V1997-98
p789
sg27
g28
sg29
(lp790
VMarcus Camby Magenta
p791
assbag1
(g2
g3
Ntp792
Rp793
(dp794
g7
(dp795
g9
V1997-98 Stadium Club Printing Plates #177C Marcus Camby Yellow
p796
sg11
I1
sg12
VStadium Club Printing Plates
p797
sg14
(lp798
Vhttp://www.beckett.com/basketball/1997-98/stadium-club-printing-plates/177c-marcus-camby-yellow-3139252
p799
asg17
g18
sg19
(lp800
Vhttp://img.beckett.com/images/no-image.jpg
p801
asg22
V#177C
p802
sg25
V1997-98
p803
sg27
g28
sg29
(lp804
VMarcus Camby Yellow
p805
assbag1
(g2
g3
Ntp806
Rp807
(dp808
g7
(dp809
g9
V1997-98 Stadium Club Printing Plates #217 Tracy McGrady Black
p810
sg11
I1
sg12
VStadium Club Printing Plates
p811
sg14
(lp812
Vhttp://www.beckett.com/basketball/1997-98/stadium-club-printing-plates/217-tracy-mcgrady-black-3139409
p813
asg17
g18
sg19
(lp814
Vhttp://img.beckett.com/images/no-image.jpg
p815
asg22
V#217
p816
sg25
V1997-98
p817
sg27
g28
sg29
(lp818
VTracy McGrady Black
p819
assbag1
(g2
g3
Ntp820
Rp821
(dp822
g7
(dp823
g9
V1997-98 Stadium Club Printing Plates #217A Tracy McGrady Cyan
p824
sg11
I1
sg12
VStadium Club Printing Plates
p825
sg14
(lp826
Vhttp://www.beckett.com/basketball/1997-98/stadium-club-printing-plates/217a-tracy-mcgrady-cyan-3139410
p827
asg17
g18
sg19
(lp828
Vhttp://img.beckett.com/images/no-image.jpg
p829
asg22
V#217A
p830
sg25
V1997-98
p831
sg27
g28
sg29
(lp832
VTracy McGrady Cyan
p833
assbag1
(g2
g3
Ntp834
Rp835
(dp836
g7
(dp837
g9
V1997-98 Stadium Club Printing Plates #217B Tracy McGrady Magenta
p838
sg11
I1
sg12
VStadium Club Printing Plates
p839
sg14
(lp840
Vhttp://www.beckett.com/basketball/1997-98/stadium-club-printing-plates/217b-tracy-mcgrady-magenta-3139411
p841
asg17
g18
sg19
(lp842
Vhttp://img.beckett.com/images/no-image.jpg
p843
asg22
V#217B
p844
sg25
V1997-98
p845
sg27
g28
sg29
(lp846
VTracy McGrady Magenta
p847
assbag1
(g2
g3
Ntp848
Rp849
(dp850
g7
(dp851
g9
V1997-98 Stadium Club Printing Plates #217C Tracy McGrady Yellow
p852
sg11
I1
sg12
VStadium Club Printing Plates
p853
sg14
(lp854
Vhttp://www.beckett.com/basketball/1997-98/stadium-club-printing-plates/217c-tracy-mcgrady-yellow-3139412
p855
asg17
g18
sg19
(lp856
Vhttp://img.beckett.com/images/no-image.jpg
p857
asg22
V#217C
p858
sg25
V1997-98
p859
sg27
g28
sg29
(lp860
VTracy McGrady Yellow
p861
assbag1
(g2
g3
Ntp862
Rp863
(dp864
g7
(dp865
g9
V1997-98 Ultra Masterpieces #65 Marcus Camby
p866
sg11
I1
sg12
VUltra Masterpieces
p867
sg14
(lp868
Vhttp://www.beckett.com/basketball/1997-98/ultra-masterpieces/65-marcus-camby-3135795
p869
asg17
g18
sg19
(lp870
Vhttp://img.beckett.com/images/no-image.jpg
p871
asg22
V#65
p872
sg25
V1997-98
p873
sg27
g28
sg29
(lp874
VMarcus Camby
p875
assbag1
(g2
g3
Ntp876
Rp877
(dp878
g7
(dp879
g9
V1997-98 Ultra Masterpieces #138 Tracy McGrady
p880
sg11
I1
sg12
VUltra Masterpieces
p881
sg14
(lp882
Vhttp://www.beckett.com/basketball/1997-98/ultra-masterpieces/138-tracy-mcgrady-3135868
p883
asg17
g18
sg19
(lp884
Vhttp://img.beckett.com/images/no-image.jpg
p885
asg22
V#138
p886
sg25
V1997-98
p887
sg27
g28
sg29
(lp888
VTracy McGrady
p889
assbag1
(g2
g3
Ntp890
Rp891
(dp892
g7
(dp893
g9
V1997-98 Ultra Masterpieces #247 Zan Tabak
p894
sg11
I1
sg12
VUltra Masterpieces
p895
sg14
(lp896
Vhttp://www.beckett.com/basketball/1997-98/ultra-masterpieces/247-zan-tabak-3135975
p897
asg17
g18
sg19
(lp898
Vhttp://img.beckett.com/images/no-image.jpg
p899
asg22
V#247
p900
sg25
V1997-98
p901
sg27
g28
sg29
(lp902
VZan Tabak
p903
assbag1
(g2
g3
Ntp904
Rp905
(dp906
g7
(dp907
g9
V1997-98 Ultra Masterpieces #253 Marcus Camby GRE
p908
sg11
I1
sg12
VUltra Masterpieces
p909
sg14
(lp910
Vhttp://www.beckett.com/basketball/1997-98/ultra-masterpieces/253-marcus-camby-gre-3135981
p911
asg17
g18
sg19
(lp912
Vhttp://img.beckett.com/images/no-image.jpg
p913
asg22
V#253
p914
sg25
V1997-98
p915
sg100
VGRE
p916
sg27
g28
sg29
(lp917
VMarcus Camby
p918
assbag1
(g2
g3
Ntp919
Rp920
(dp921
g7
(dp922
g9
V1997-98 Ultra Platinum Medallion #65 Marcus Camby
p923
sg11
I100
sg12
VUltra Platinum Medallion
p924
sg14
(lp925
Vhttp://www.beckett.com/basketball/1997-98/ultra-platinum-medallion/65-marcus-camby-3136079
p926
asg17
g18
sg19
(lp927
Vhttp://img.beckett.com/images/no-image.jpg
p928
asg22
V#65
p929
sg25
V1997-98
p930
sg27
g28
sg29
(lp931
VMarcus Camby
p932
assbag1
(g2
g3
Ntp933
Rp934
(dp935
g7
(dp936
g9
V1997-98 Ultra Platinum Medallion #138 Tracy McGrady
p937
sg11
I100
sg12
VUltra Platinum Medallion
p938
sg14
(lp939
Vhttp://www.beckett.com/basketball/1997-98/ultra-platinum-medallion/138-tracy-mcgrady-3136152
p940
asg17
g18
sg19
(lp941
Vhttp://img.beckett.com/images/no-image.jpg
p942
asg22
V#138
p943
sg25
V1997-98
p944
sg27
g28
sg29
(lp945
VTracy McGrady
p946
assbag1
(g2
g3
Ntp947
Rp948
(dp949
g7
(dp950
g9
V1997-98 Ultra Platinum Medallion #247 Zan Tabak
p951
sg11
I100
sg12
VUltra Platinum Medallion
p952
sg14
(lp953
Vhttp://www.beckett.com/basketball/1997-98/ultra-platinum-medallion/247-zan-tabak-3136259
p954
asg17
g18
sg19
(lp955
Vhttp://img.beckett.com/images/no-image.jpg
p956
asg22
V#247
p957
sg25
V1997-98
p958
sg27
g28
sg29
(lp959
VZan Tabak
p960
assbag1
(g2
g3
Ntp961
Rp962
(dp963
g7
(dp964
g9
V1997-98 Ultra Platinum Medallion #253 Marcus Camby GRE
p965
sg11
I100
sg12
VUltra Platinum Medallion
p966
sg14
(lp967
Vhttp://www.beckett.com/basketball/1997-98/ultra-platinum-medallion/253-marcus-camby-gre-3136265
p968
asg17
g18
sg19
(lp969
Vhttp://img.beckett.com/images/no-image.jpg
p970
asg22
V#253
p971
sg25
V1997-98
p972
sg100
VGRE
p973
sg27
g28
sg29
(lp974
VMarcus Camby
p975
assbag1
(g2
g3
Ntp976
Rp977
(dp978
g7
(dp979
g9
V1997-98 Z-Force Rave #28 Doug Christie
p980
sg11
I399
sg12
VZ-Force Rave
p981
sg14
(lp982
Vhttp://www.beckett.com/basketball/1997-98/z-force-rave/28-doug-christie-3133052
p983
asg17
g18
sg19
(lp984
Vhttp://img.beckett.com/images/items_stock/185226/3133012/3133052/front.jpg
p985
asg22
V#28
p986
sg25
V1997-98
p987
sg27
g28
sg29
(lp988
VDoug Christie
p989
assbag1
(g2
g3
Ntp990
Rp991
(dp992
g7
(dp993
g9
V1997-98 Z-Force Rave #43 Popeye Jones
p994
sg11
I399
sg12
VZ-Force Rave
p995
sg14
(lp996
Vhttp://www.beckett.com/basketball/1997-98/z-force-rave/43-popeye-jones-3133067
p997
asg17
g18
sg19
(lp998
Vhttp://img.beckett.com/images/items_stock/185226/3133012/3133067/front.jpg
p999
asg22
V#43
p1000
sg25
V1997-98
p1001
sg27
g28
sg29
(lp1002
VPopeye Jones
p1003
assbag1
(g2
g3
Ntp1004
Rp1005
(dp1006
g7
(dp1007
g9
V1997-98 Z-Force Rave #107 Marcus Camby
p1008
sg11
I399
sg12
VZ-Force Rave
p1009
sg14
(lp1010
Vhttp://www.beckett.com/basketball/1997-98/z-force-rave/107-marcus-camby-3133131
p1011
asg17
g18
sg19
(lp1012
Vhttp://img.beckett.com/images/items_stock/185226/3133012/3133131/front.jpg
p1013
asg22
V#107
p1014
sg25
V1997-98
p1015
sg27
g28
sg29
(lp1016
VMarcus Camby
p1017
assbag1
(g2
g3
Ntp1018
Rp1019
(dp1020
g7
(dp1021
g9
V1997-98 Z-Force Rave #172B Tracy McGrady
p1022
sg11
I399
sg12
VZ-Force Rave
p1023
sg14
(lp1024
Vhttp://www.beckett.com/basketball/1997-98/z-force-rave/172b-tracy-mcgrady-3133195
p1025
asg17
g18
sg19
(lp1026
Vhttp://img.beckett.com/images/no-image.jpg
p1027
asg22
V#172B
p1028
sg25
V1997-98
p1029
sg27
g28
sg29
(lp1030
VTracy McGrady
p1031
assbag1
(g2
g3
Ntp1032
Rp1033
(dp1034
g7
(dp1035
g9
V1997-98 Z-Force Rave #205 Marcus Camby ZUP
p1036
sg11
I399
sg12
VZ-Force Rave
p1037
sg14
(lp1038
Vhttp://www.beckett.com/basketball/1997-98/z-force-rave/205-marcus-camby-zup-3133228
p1039
asg17
g18
sg19
(lp1040
Vhttp://img.beckett.com/images/no-image.jpg
p1041
asg22
V#205
p1042
sg25
V1997-98
p1043
sg100
VZUP
p1044
sg27
g28
sg29
(lp1045
VMarcus Camby
p1046
assbag1
(g2
g3
Ntp1047
Rp1048
(dp1049
g7
(dp1050
g9
V1997-98 Z-Force Super Rave #172B Tracy McGrady
p1051
sg11
I50
sg12
VZ-Force Super Rave
p1052
sg14
(lp1053
Vhttp://www.beckett.com/basketball/1997-98/z-force-super-rave/172b-tracy-mcgrady-3133307
p1054
asg17
g18
sg19
(lp1055
Vhttp://img.beckett.com/images/no-image.jpg
p1056
asg22
V#172B
p1057
sg25
V1997-98
p1058
sg27
g28
sg29
(lp1059
VTracy McGrady
p1060
assbag1
(g2
g3
Ntp1061
Rp1062
(dp1063
g7
(dp1064
g9
V1997-98 Z-Force Super Rave #205 Marcus Camby ZUP
p1065
sg11
I50
sg12
VZ-Force Super Rave
p1066
sg14
(lp1067
Vhttp://www.beckett.com/basketball/1997-98/z-force-super-rave/205-marcus-camby-zup-3133340
p1068
asg17
g18
sg19
(lp1069
Vhttp://img.beckett.com/images/no-image.jpg
p1070
asg22
V#205
p1071
sg25
V1997-98
p1072
sg100
VZUP
p1073
sg27
g28
sg29
(lp1074
VMarcus Camby
p1075
assbag1
(g2
g3
Ntp1076
Rp1077
(dp1078
g7
(dp1079
g9
V1997-98 Upper Deck High Dimensions #D3 Marcus Camby
p1080
sg11
I2000
sg12
VUpper Deck High Dimensions
p1081
sg14
(lp1082
Vhttp://www.beckett.com/basketball/1997-98/upper-deck-high-dimensions/d3-marcus-camby-3132425
p1083
asg17
g18
sg19
(lp1084
Vhttp://img.beckett.com/images/no-image.jpg
p1085
asg22
V#D3
p1086
sg25
V1997-98
p1087
sg27
g28
sg29
(lp1088
VMarcus Camby
p1089
assbag1
(g2
g3
Ntp1090
Rp1091
(dp1092
g7
(dp1093
g9
V1997-98 Hoops High Voltage 500 #HV7 Marcus Camby
p1094
sg11
I500
sg12
VHoops High Voltage 500
p1095
sg14
(lp1096
Vhttp://www.beckett.com/basketball/1997-98/hoops-high-voltage-500/hv7-marcus-camby-3142296
p1097
asg17
g18
sg19
(lp1098
Vhttp://img.beckett.com/images/no-image.jpg
p1099
asg22
V#HV7
p1100
sg25
V1997-98
p1101
sg27
g28
sg29
(lp1102
VMarcus Camby
p1103
assbag1
(g2
g3
Ntp1104
Rp1105
(dp1106
g7
(dp1107
g9
V1997-98 Metal Universe Precious Metal Gems Emerald #42 Tracy McGrady
p1108
sg11
I10
sg12
VMetal Universe Precious Metal Gems Emerald
p1109
sg14
(lp1110
Vhttp://www.beckett.com/basketball/1997-98/metal-universe-precious-metal-gems-emerald/42-tracy-mcgrady-7055491
p1111
asg17
g18
sg19
(lp1112
Vhttp://img.beckett.com/images/no-image.jpg
p1113
asg22
V#42
p1114
sg25
V1997-98
p1115
sg27
g28
sg29
(lp1116
VTracy McGrady
p1117
assbag1
(g2
g3
Ntp1118
Rp1119
(dp1120
g7
(dp1121
g9
V1997-98 Metal Universe Precious Metal Gems Emerald #84 Marcus Camby
p1122
sg11
I10
sg12
VMetal Universe Precious Metal Gems Emerald
p1123
sg14
(lp1124
Vhttp://www.beckett.com/basketball/1997-98/metal-universe-precious-metal-gems-emerald/84-marcus-camby-7055533
p1125
asg17
g18
sg19
(lp1126
Vhttp://img.beckett.com/images/no-image.jpg
p1127
asg22
V#84
p1128
sg25
V1997-98
p1129
sg27
g28
sg29
(lp1130
VMarcus Camby
p1131
assbag1
(g2
g3
Ntp1132
Rp1133
(dp1134
g7
(dp1135
g9
V1997-98 SP Authentic Profiles 3 #P19 Marcus Camby
p1136
sg11
I100
sg12
VSP Authentic Profiles 3
p1137
sg14
(lp1138
Vhttp://www.beckett.com/basketball/1997-98/sp-authentic-profiles-3/p19-marcus-camby-3140300
p1139
asg17
g18
sg19
(lp1140
Vhttp://img.beckett.com/images/no-image.jpg
p1141
asg22
V#P19
p1142
sg25
V1997-98
p1143
sg27
g28
sg29
(lp1144
VMarcus Camby
p1145
assbag1
(g2
g3
Ntp1146
Rp1147
(dp1148
g7
(dp1149
g9
V1997-98 Upper Deck Diamond Dimensions #D3 Marcus Camby
p1150
sg11
I100
sg12
VUpper Deck Diamond Dimensions
p1151
sg14
(lp1152
Vhttp://www.beckett.com/basketball/1997-98/upper-deck-diamond-dimensions/d3-marcus-camby-3132463
p1153
asg17
g18
sg19
(lp1154
Vhttp://img.beckett.com/images/no-image.jpg
p1155
asg22
V#D3
p1156
sg25
V1997-98
p1157
sg27
g28
sg29
(lp1158
VMarcus Camby
p1159
assba.