(lp0
Naccopy_reg
_reconstructor
p1
(ctutorial.items
BeckettItem
p2
c__builtin__
object
p3
Ntp4
Rp5
(dp6
S'_values'
p7
(dp8
S'originalItemDescription'
p9
V1997 SPx ProMotion Autographs #2 Damon Stoudamire
p10
sS'serialNumber'
p11
I100
sS'setName'
p12
VSPx ProMotion Autographs
p13
sS'beckettLink'
p14
(lp15
Vhttp://www.beckett.com/basketball/1997/spx-promotion-autographs/2-damon-stoudamire-3128612
p16
asS'team'
p17
S'Toronto Raptors'
p18
sS'imageLink'
p19
(lp20
Vhttp://img.beckett.com/images/no-image.jpg
p21
asS'cardNumber'
p22
V#2
p23
sS'autograph'
p24
I1
sS'year'
p25
V1997
p26
sS'sport'
p27
S'Basketball'
p28
sS'playerNames'
p29
(lp30
VDamon Stoudamire
p31
assbag1
(g2
g3
Ntp32
Rp33
(dp34
g7
(dp35
g9
V1997-98 E-X2001 Essential Credentials Future #10 Marcus Camby/71
p36
sg11
I71
sg12
VE-X2001 Essential Credentials Future
p37
sg14
(lp38
Vhttp://www.beckett.com/basketball/1997-98/e-x2001-essential-credentials-future/10-marcus-camby71-3144596
p39
asg17
g18
sg19
(lp40
Vhttp://img.beckett.com/images/no-image.jpg
p41
asg22
V#10
p42
sg25
V1997-98
p43
sg27
g28
sg29
(lp44
VMarcus Camby
p45
assbag1
(g2
g3
Ntp46
Rp47
(dp48
g7
(dp49
g9
V1997-98 E-X2001 Essential Credentials Future #79 Tracy McGrady/2
p50
sg11
I2
sg12
VE-X2001 Essential Credentials Future
p51
sg14
(lp52
Vhttp://www.beckett.com/basketball/1997-98/e-x2001-essential-credentials-future/79-tracy-mcgrady2-3144665
p53
asg17
g18
sg19
(lp54
Vhttp://img.beckett.com/images/no-image.jpg
p55
asg22
V#79
p56
sg25
V1997-98
p57
sg27
g28
sg29
(lp58
VTracy McGrady
p59
assbag1
(g2
g3
Ntp60
Rp61
(dp62
g7
(dp63
g9
V1997-98 E-X2001 Essential Credentials Now #10 Marcus Camby/10
p64
sg11
I10
sg12
VE-X2001 Essential Credentials Now
p65
sg14
(lp66
Vhttp://www.beckett.com/basketball/1997-98/e-x2001-essential-credentials-now/10-marcus-camby10-3144683
p67
asg17
g18
sg19
(lp68
Vhttp://img.beckett.com/images/no-image.jpg
p69
asg22
V#10
p70
sg25
V1997-98
p71
sg27
g28
sg29
(lp72
VMarcus Camby
p73
assbag1
(g2
g3
Ntp74
Rp75
(dp76
g7
(dp77
g9
V1997-98 E-X2001 Essential Credentials Now #79 Tracy McGrady/79
p78
sg11
I79
sg12
VE-X2001 Essential Credentials Now
p79
sg14
(lp80
Vhttp://www.beckett.com/basketball/1997-98/e-x2001-essential-credentials-now/79-tracy-mcgrady79-3144752
p81
asg17
g18
sg19
(lp82
Vhttp://img.beckett.com/images/no-image.jpg
p83
asg22
V#79
p84
sg25
V1997-98
p85
sg27
g28
sg29
(lp86
VTracy McGrady
p87
assbag1
(g2
g3
Ntp88
Rp89
(dp90
g7
(dp91
g9
V1997-98 Finest Embossed Refractors #159 Marcus Camby G
p92
sg11
I74
sg12
VFinest Embossed Refractors
p93
sg14
(lp94
Vhttp://www.beckett.com/basketball/1997-98/finest-embossed-refractors/159-marcus-camby-g-3145367
p95
asg17
g18
sg19
(lp96
Vhttp://img.beckett.com/images/no-image.jpg
p97
asg22
V#159
p98
sg25
V1997-98
p99
sg27
g28
sg29
(lp100
VMarcus Camby
p101
assbag1
(g2
g3
Ntp102
Rp103
(dp104
g7
(dp105
g9
V1997-98 Finest Embossed Refractors #294 Tracy McGrady S
p106
sg11
I263
sg12
VFinest Embossed Refractors
p107
sg14
(lp108
Vhttp://www.beckett.com/basketball/1997-98/finest-embossed-refractors/294-tracy-mcgrady-s-3145402
p109
asg17
g18
sg19
(lp110
Vhttp://img.beckett.com/images/no-image.jpg
p111
asg22
V#294
p112
sg25
V1997-98
p113
sg27
g28
sg29
(lp114
VTracy McGrady
p115
assbag1
(g2
g3
Ntp116
Rp117
(dp118
g7
(dp119
g9
V1997-98 Finest Embossed Refractors #296 Marcus Camby S
p120
sg11
I263
sg12
VFinest Embossed Refractors
p121
sg14
(lp122
Vhttp://www.beckett.com/basketball/1997-98/finest-embossed-refractors/296-marcus-camby-s-3145404
p123
asg17
g18
sg19
(lp124
Vhttp://img.beckett.com/images/no-image.jpg
p125
asg22
V#296
p126
sg25
V1997-98
p127
sg27
g28
sg29
(lp128
VMarcus Camby
p129
assbag1
(g2
g3
Ntp130
Rp131
(dp132
g7
(dp133
g9
V1997-98 Finest Embossed Refractors #316 Tracy McGrady G
p134
sg11
I74
sg12
VFinest Embossed Refractors
p135
sg14
(lp136
Vhttp://www.beckett.com/basketball/1997-98/finest-embossed-refractors/316-tracy-mcgrady-g-3145424
p137
asg17
g18
sg19
(lp138
Vhttp://img.beckett.com/images/no-image.jpg
p139
asg22
V#316
p140
sg25
V1997-98
p141
sg27
g28
sg29
(lp142
VTracy McGrady
p143
assbag1
(g2
g3
Ntp144
Rp145
(dp146
g7
(dp147
g9
V1997-98 Finest Refractors #159 Marcus Camby G
p148
sg11
I289
sg12
VFinest Refractors
p149
sg14
(lp150
Vhttp://www.beckett.com/basketball/1997-98/finest-refractors/159-marcus-camby-g-3145625
p151
asg17
g18
sg19
(lp152
Vhttp://img.beckett.com/images/items_stock/185226/3145435/3145625/front.jpg
p153
asg22
V#159
p154
sg25
V1997-98
p155
sg27
g28
sg29
(lp156
VMarcus Camby
p157
assbag1
(g2
g3
Ntp158
Rp159
(dp160
g7
(dp161
g9
V1997-98 Finest Refractors #294 Tracy McGrady S
p162
sg11
I1090
sg12
VFinest Refractors
p163
sg14
(lp164
Vhttp://www.beckett.com/basketball/1997-98/finest-refractors/294-tracy-mcgrady-s-3145760
p165
asg17
g18
sg19
(lp166
Vhttp://img.beckett.com/images/no-image.jpg
p167
asg22
V#294
p168
sg25
V1997-98
p169
sg27
g28
sg29
(lp170
VTracy McGrady
p171
assbag1
(g2
g3
Ntp172
Rp173
(dp174
g7
(dp175
g9
V1997-98 Finest Refractors #296 Marcus Camby S
p176
sg11
I1090
sg12
VFinest Refractors
p177
sg14
(lp178
Vhttp://www.beckett.com/basketball/1997-98/finest-refractors/296-marcus-camby-s-3145762
p179
asg17
g18
sg19
(lp180
Vhttp://img.beckett.com/images/items_stock/185226/3145435/3145762/front.jpg
p181
asg22
V#296
p182
sg25
V1997-98
p183
sg27
g28
sg29
(lp184
VMarcus Camby
p185
assbag1
(g2
g3
Ntp186
Rp187
(dp188
g7
(dp189
g9
V1997-98 Finest Refractors #316 Tracy McGrady G
p190
sg11
I289
sg12
VFinest Refractors
p191
sg14
(lp192
Vhttp://www.beckett.com/basketball/1997-98/finest-refractors/316-tracy-mcgrady-g-3145782
p193
asg17
g18
sg19
(lp194
Vhttp://img.beckett.com/images/items_stock/185226/3145435/3145782/front.jpg
p195
asg22
V#316
p196
sg25
V1997-98
p197
sg27
g28
sg29
(lp198
VTracy McGrady
p199
assbag1
(g2
g3
Ntp200
Rp201
(dp202
g7
(dp203
g9
V1997-98 Flair Showcase Row 0 #19 Marcus Camby
p204
sg11
I250
sg12
VFlair Showcase Row 0
p205
sg14
(lp206
Vhttp://www.beckett.com/basketball/1997-98/flair-showcase-row-0/19-marcus-camby-3146117
p207
asg17
g18
sg19
(lp208
Vhttp://img.beckett.com/images/no-image.jpg
p209
asg22
V#19
p210
sg25
V1997-98
p211
sg27
g28
sg29
(lp212
VMarcus Camby
p213
assbag1
(g2
g3
Ntp214
Rp215
(dp216
g7
(dp217
g9
V1997-98 Flair Showcase Row 0 #21 Tracy McGrady
p218
sg11
I500
sg12
VFlair Showcase Row 0
p219
sg14
(lp220
Vhttp://www.beckett.com/basketball/1997-98/flair-showcase-row-0/21-tracy-mcgrady-3146119
p221
asg17
g18
sg19
(lp222
Vhttp://img.beckett.com/images/no-image.jpg
p223
asg22
V#21
p224
sg25
V1997-98
p225
sg27
g28
sg29
(lp226
VTracy McGrady
p227
assbag1
(g2
g3
Ntp228
Rp229
(dp230
g7
(dp231
g9
V1997-98 Flair Showcase Legacy Collection Row 3 #19 Marcus Camby
p232
sg11
I100
sg12
VFlair Showcase Legacy Collection Row 3
p233
sg14
(lp234
Vhttp://www.beckett.com/basketball/1997-98/flair-showcase-legacy-collection-row-3/19-marcus-camby-3148577
p235
asg17
g18
sg19
(lp236
Vhttp://img.beckett.com/images/no-image.jpg
p237
asg22
V#19
p238
sg25
V1997-98
p239
sg27
g28
sg29
(lp240
VMarcus Camby
p241
assbag1
(g2
g3
Ntp242
Rp243
(dp244
g7
(dp245
g9
V1997-98 Flair Showcase Legacy Collection Row 3 #21 Tracy McGrady
p246
sg11
I100
sg12
VFlair Showcase Legacy Collection Row 3
p247
sg14
(lp248
Vhttp://www.beckett.com/basketball/1997-98/flair-showcase-legacy-collection-row-3/21-tracy-mcgrady-3148579
p249
asg17
g18
sg19
(lp250
Vhttp://img.beckett.com/images/items_stock/185226/3148549/3148579/front.jpg
p251
asg22
V#21
p252
sg25
V1997-98
p253
sg27
g28
sg29
(lp254
VTracy McGrady
p255
assbag1
(g2
g3
Ntp256
Rp257
(dp258
g7
(dp259
g9
V1997-98 Metal Universe Precious Metal Gems #42 Tracy McGrady
p260
sg11
I90
sg12
VMetal Universe Precious Metal Gems
p261
sg14
(lp262
Vhttp://www.beckett.com/basketball/1997-98/metal-universe-precious-metal-gems/42-tracy-mcgrady-3142634
p263
asg17
g18
sg19
(lp264
Vhttp://img.beckett.com/images/no-image.jpg
p265
asg22
V#42
p266
sg25
V1997-98
p267
sg27
g28
sg29
(lp268
VTracy McGrady
p269
assbag1
(g2
g3
Ntp270
Rp271
(dp272
g7
(dp273
g9
V1997-98 Metal Universe Precious Metal Gems #84 Marcus Camby
p274
sg11
I90
sg12
VMetal Universe Precious Metal Gems
p275
sg14
(lp276
Vhttp://www.beckett.com/basketball/1997-98/metal-universe-precious-metal-gems/84-marcus-camby-3142676
p277
asg17
g18
sg19
(lp278
Vhttp://img.beckett.com/images/no-image.jpg
p279
asg22
V#84
p280
sg25
V1997-98
p281
sg27
g28
sg29
(lp282
VMarcus Camby
p283
assbag1
(g2
g3
Ntp284
Rp285
(dp286
g7
(dp287
g9
V1997-98 Metal Universe Championship Precious Metal Gems #36 Tracy McGrady
p288
sg11
I50
sg12
VMetal Universe Championship Precious Metal Gems
p289
sg14
(lp290
Vhttp://www.beckett.com/basketball/1997-98/metal-universe-championship-precious-metal-gems/36-tracy-mcgrady-3140711
p291
asg17
g18
sg19
(lp292
Vhttp://img.beckett.com/images/no-image.jpg
p293
asg22
V#36
p294
sg25
V1997-98
p295
sg27
g28
sg29
(lp296
VTracy McGrady
p297
assbag1
(g2
g3
Ntp298
Rp299
(dp300
g7
(dp301
g9
V1997-98 Metal Universe Championship Precious Metal Gems #48 Marcus Camby
p302
sg11
I50
sg12
VMetal Universe Championship Precious Metal Gems
p303
sg14
(lp304
Vhttp://www.beckett.com/basketball/1997-98/metal-universe-championship-precious-metal-gems/48-marcus-camby-3140723
p305
asg17
g18
sg19
(lp306
Vhttp://img.beckett.com/images/no-image.jpg
p307
asg22
V#48
p308
sg25
V1997-98
p309
sg27
g28
sg29
(lp310
VMarcus Camby
p311
assbag1
(g2
g3
Ntp312
Rp313
(dp314
g7
(dp315
g9
V1997-98 SkyBox Premium Star Rubies #79 Tracy McGrady
p316
sg11
I50
sg12
VSkyBox Premium Star Rubies
p317
sg14
(lp318
Vhttp://www.beckett.com/basketball/1997-98/skybox-premium-star-rubies/79-tracy-mcgrady-3141250
p319
asg17
g18
sg19
(lp320
Vhttp://img.beckett.com/images/no-image.jpg
p321
asg22
V#79
p322
sg25
V1997-98
p323
sg27
g28
sg29
(lp324
VTracy McGrady
p325
assbag1
(g2
g3
Ntp326
Rp327
(dp328
g7
(dp329
g9
V1997-98 SkyBox Premium Star Rubies #88 Marcus Camby
p330
sg11
I50
sg12
VSkyBox Premium Star Rubies
p331
sg14
(lp332
Vhttp://www.beckett.com/basketball/1997-98/skybox-premium-star-rubies/88-marcus-camby-3141259
p333
asg17
g18
sg19
(lp334
Vhttp://img.beckett.com/images/no-image.jpg
p335
asg22
V#88
p336
sg25
V1997-98
p337
sg27
g28
sg29
(lp338
VMarcus Camby
p339
assbag1
(g2
g3
Ntp340
Rp341
(dp342
g7
(dp343
g9
V1997-98 SkyBox Premium Star Rubies #189 Shawn Respert
p344
sg11
I50
sg12
VSkyBox Premium Star Rubies
p345
sg14
(lp346
Vhttp://www.beckett.com/basketball/1997-98/skybox-premium-star-rubies/189-shawn-respert-3141358
p347
asg17
g18
sg19
(lp348
Vhttp://img.beckett.com/images/no-image.jpg
p349
asg22
V#189
p350
sg25
V1997-98
p351
sg27
g28
sg29
(lp352
VShawn Respert
p353
assbag1
(g2
g3
Ntp354
Rp355
(dp356
g7
(dp357
g9
V1997-98 SkyBox Premium Star Rubies #227 Marcus Camby TS
p358
sg11
I50
sg12
VSkyBox Premium Star Rubies
p359
sg14
(lp360
Vhttp://www.beckett.com/basketball/1997-98/skybox-premium-star-rubies/227-marcus-camby-ts-3141396
p361
asg17
g18
sg19
(lp362
Vhttp://img.beckett.com/images/no-image.jpg
p363
asg22
V#227
p364
sg25
V1997-98
p365
sS'subsetName'
p366
VTS
p367
sg27
g28
sg29
(lp368
VMarcus Camby
p369
assbag1
(g2
g3
Ntp370
Rp371
(dp372
g7
(dp373
g9
V1997-98 SkyBox Premium Autographics Century Marks #17 Marcus Camby
p374
sg11
I100
sg12
VSkyBox Premium Autographics Century Marks
p375
sg14
(lp376
Vhttp://www.beckett.com/basketball/1997-98/skybox-premium-autographics-century-marks/17-marcus-camby-3141599
p377
asg17
g18
sg19
(lp378
Vhttp://img.beckett.com/images/no-image.jpg
p379
asg22
V#17
p380
sg24
I1
sg25
V1997-98
p381
sg27
g28
sg29
(lp382
VMarcus Camby
p383
assbag1
(g2
g3
Ntp384
Rp385
(dp386
g7
(dp387
g9
V1997-98 SkyBox Premium Autographics Century Marks #59 Popeye Jones
p388
sg11
I100
sg12
VSkyBox Premium Autographics Century Marks
p389
sg14
(lp390
Vhttp://www.beckett.com/basketball/1997-98/skybox-premium-autographics-century-marks/59-popeye-jones-3141641
p391
asg17
g18
sg19
(lp392
Vhttp://img.beckett.com/images/no-image.jpg
p393
asg22
V#59
p394
sg24
I1
sg25
V1997-98
p395
sg27
g28
sg29
(lp396
VPopeye Jones
p397
assbag1
(g2
g3
Ntp398
Rp399
(dp400
g7
(dp401
g9
V1997-98 SkyBox Premium Autographics Century Marks #71 Tracy McGrady
p402
sg11
I100
sg12
VSkyBox Premium Autographics Century Marks
p403
sg14
(lp404
Vhttp://www.beckett.com/basketball/1997-98/skybox-premium-autographics-century-marks/71-tracy-mcgrady-3141653
p405
asg17
g18
sg19
(lp406
Vhttp://img.beckett.com/images/no-image.jpg
p407
asg22
V#71
p408
sg24
I1
sg25
V1997-98
p409
sg27
g28
sg29
(lp410
VTracy McGrady
p411
assbag1
(g2
g3
Ntp412
Rp413
(dp414
g7
(dp415
g9
V1997-98 SPx Grand Finale #41 Marcus Camby
p416
sg11
I50
sg12
VSPx Grand Finale
p417
sg14
(lp418
Vhttp://www.beckett.com/basketball/1997-98/spx-grand-finale/41-marcus-camby-3137725
p419
asg17
g18
sg19
(lp420
Vhttp://img.beckett.com/images/no-image.jpg
p421
asg22
V#41
p422
sg25
V1997-98
p423
sg27
g28
sg29
(lp424
VMarcus Camby
p425
assbag1
(g2
g3
Ntp426
Rp427
(dp428
g7
(dp429
g9
V1997-98 SPx Grand Finale #42 Tracy McGrady
p430
sg11
I50
sg12
VSPx Grand Finale
p431
sg14
(lp432
Vhttp://www.beckett.com/basketball/1997-98/spx-grand-finale/42-tracy-mcgrady-3137726
p433
asg17
g18
sg19
(lp434
Vhttp://img.beckett.com/images/no-image.jpg
p435
asg22
V#42
p436
sg25
V1997-98
p437
sg27
g28
sg29
(lp438
VTracy McGrady
p439
assbag1
(g2
g3
Ntp440
Rp441
(dp442
g7
(dp443
g9
V1997-98 Stadium Club One Of A Kind #12 Popeye Jones
p444
sg11
I150
sg12
VStadium Club One Of A Kind
p445
sg14
(lp446
Vhttp://www.beckett.com/basketball/1997-98/stadium-club-one-of-a-kind/12-popeye-jones-3138311
p447
asg17
g18
sg19
(lp448
Vhttp://img.beckett.com/images/items_stock/185226/3138288/3138311/front.jpg
p449
asg22
V#12
p450
sg25
V1997-98
p451
sg27
g28
sg29
(lp452
VPopeye Jones
p453
assbag1
(g2
g3
Ntp454
Rp455
(dp456
g7
(dp457
g9
V1997-98 Stadium Club One Of A Kind #29 Doug Christie
p458
sg11
I150
sg12
VStadium Club One Of A Kind
p459
sg14
(lp460
Vhttp://www.beckett.com/basketball/1997-98/stadium-club-one-of-a-kind/29-doug-christie-3138328
p461
asg17
g18
sg19
(lp462
Vhttp://img.beckett.com/images/no-image.jpg
p463
asg22
V#29
p464
sg25
V1997-98
p465
sg27
g28
sg29
(lp466
VDoug Christie
p467
assbag1
(g2
g3
Ntp468
Rp469
(dp470
g7
(dp471
g9
V1997-98 Stadium Club One Of A Kind #117 Shawn Respert
p472
sg11
I150
sg12
VStadium Club One Of A Kind
p473
sg14
(lp474
Vhttp://www.beckett.com/basketball/1997-98/stadium-club-one-of-a-kind/117-shawn-respert-3138416
p475
asg17
g18
sg19
(lp476
Vhttp://img.beckett.com/images/items_stock/185226/3138288/3138416/front.jpg
p477
asg22
V#117
p478
sg25
V1997-98
p479
sg27
g28
sg29
(lp480
VShawn Respert
p481
assbag1
(g2
g3
Ntp482
Rp483
(dp484
g7
(dp485
g9
V1997-98 Stadium Club One Of A Kind #176 Carlos Rogers
p486
sg11
I150
sg12
VStadium Club One Of A Kind
p487
sg14
(lp488
Vhttp://www.beckett.com/basketball/1997-98/stadium-club-one-of-a-kind/176-carlos-rogers-3138475
p489
asg17
g18
sg19
(lp490
Vhttp://img.beckett.com/images/items_stock/185226/3138288/3138475/front.jpg
p491
asg22
V#176
p492
sg25
V1997-98
p493
sg27
g28
sg29
(lp494
VCarlos Rogers
p495
assbag1
(g2
g3
Ntp496
Rp497
(dp498
g7
(dp499
g9
V1997-98 Stadium Club One Of A Kind #177 Marcus Camby
p500
sg11
I150
sg12
VStadium Club One Of A Kind
p501
sg14
(lp502
Vhttp://www.beckett.com/basketball/1997-98/stadium-club-one-of-a-kind/177-marcus-camby-3138476
p503
asg17
g18
sg19
(lp504
Vhttp://img.beckett.com/images/no-image.jpg
p505
asg22
V#177
p506
sg25
V1997-98
p507
sg27
g28
sg29
(lp508
VMarcus Camby
p509
assbag1
(g2
g3
Ntp510
Rp511
(dp512
g7
(dp513
g9
V1997-98 Stadium Club One Of A Kind #217 Tracy McGrady
p514
sg11
I150
sg12
VStadium Club One Of A Kind
p515
sg14
(lp516
Vhttp://www.beckett.com/basketball/1997-98/stadium-club-one-of-a-kind/217-tracy-mcgrady-3138516
p517
asg17
g18
sg19
(lp518
Vhttp://img.beckett.com/images/items_stock/185226/3138288/3138516/front.jpg
p519
asg22
V#217
p520
sg25
V1997-98
p521
sg27
g28
sg29
(lp522
VTracy McGrady
p523
assbag1
(g2
g3
Ntp524
Rp525
(dp526
g7
(dp527
g9
V1997-98 Stadium Club Printing Plates #12 Popeye Jones Black
p528
sg11
I1
sg12
VStadium Club Printing Plates
p529
sg14
(lp530
Vhttp://www.beckett.com/basketball/1997-98/stadium-club-printing-plates/12-popeye-jones-black-3138589
p531
asg17
g18
sg19
(lp532
Vhttp://img.beckett.com/images/no-image.jpg
p533
asg22
V#12
p534
sg25
V1997-98
p535
sg27
g28
sg29
(lp536
VPopeye Jones
p537
assbag1
(g2
g3
Ntp538
Rp539
(dp540
g7
(dp541
g9
V1997-98 Stadium Club Printing Plates #12A Popeye Jones Cyan
p542
sg11
I1
sg12
VStadium Club Printing Plates
p543
sg14
(lp544
Vhttp://www.beckett.com/basketball/1997-98/stadium-club-printing-plates/12a-popeye-jones-cyan-3138590
p545
asg17
g18
sg19
(lp546
Vhttp://img.beckett.com/images/no-image.jpg
p547
asg22
V#12A
p548
sg25
V1997-98
p549
sg27
g28
sg29
(lp550
g537
assbag1
(g2
g3
Ntp551
Rp552
(dp553
g7
(dp554
g9
V1997-98 Stadium Club Printing Plates #12B Popeye Jones Magenta
p555
sg11
I1
sg12
VStadium Club Printing Plates
p556
sg14
(lp557
Vhttp://www.beckett.com/basketball/1997-98/stadium-club-printing-plates/12b-popeye-jones-magenta-3138591
p558
asg17
g18
sg19
(lp559
Vhttp://img.beckett.com/images/no-image.jpg
p560
asg22
V#12B
p561
sg25
V1997-98
p562
sg27
g28
sg29
(lp563
g537
assbag1
(g2
g3
Ntp564
Rp565
(dp566
g7
(dp567
g9
V1997-98 Stadium Club Printing Plates #12C Popeye Jones Yellow
p568
sg11
I1
sg12
VStadium Club Printing Plates
p569
sg14
(lp570
Vhttp://www.beckett.com/basketball/1997-98/stadium-club-printing-plates/12c-popeye-jones-yellow-3138592
p571
asg17
g18
sg19
(lp572
Vhttp://img.beckett.com/images/no-image.jpg
p573
asg22
V#12C
p574
sg25
V1997-98
p575
sg27
g28
sg29
(lp576
g537
assbag1
(g2
g3
Ntp577
Rp578
(dp579
g7
(dp580
g9
V1997-98 Stadium Club Printing Plates #29 Doug Christie Black
p581
sg11
I1
sg12
VStadium Club Printing Plates
p582
sg14
(lp583
Vhttp://www.beckett.com/basketball/1997-98/stadium-club-printing-plates/29-doug-christie-black-3138657
p584
asg17
g18
sg19
(lp585
Vhttp://img.beckett.com/images/no-image.jpg
p586
asg22
V#29
p587
sg25
V1997-98
p588
sg27
g28
sg29
(lp589
VDoug Christie
p590
assbag1
(g2
g3
Ntp591
Rp592
(dp593
g7
(dp594
g9
V1997-98 Stadium Club Printing Plates #29A Doug Christie Cyan
p595
sg11
I1
sg12
VStadium Club Printing Plates
p596
sg14
(lp597
Vhttp://www.beckett.com/basketball/1997-98/stadium-club-printing-plates/29a-doug-christie-cyan-3138658
p598
asg17
g18
sg19
(lp599
Vhttp://img.beckett.com/images/no-image.jpg
p600
asg22
V#29A
p601
sg25
V1997-98
p602
sg27
g28
sg29
(lp603
g590
assbag1
(g2
g3
Ntp604
Rp605
(dp606
g7
(dp607
g9
V1997-98 Stadium Club Printing Plates #29B Doug Christie Magenta
p608
sg11
I1
sg12
VStadium Club Printing Plates
p609
sg14
(lp610
Vhttp://www.beckett.com/basketball/1997-98/stadium-club-printing-plates/29b-doug-christie-magenta-3138659
p611
asg17
g18
sg19
(lp612
Vhttp://img.beckett.com/images/no-image.jpg
p613
asg22
V#29B
p614
sg25
V1997-98
p615
sg27
g28
sg29
(lp616
g590
assbag1
(g2
g3
Ntp617
Rp618
(dp619
g7
(dp620
g9
V1997-98 Stadium Club Printing Plates #29C Doug Christie Yellow
p621
sg11
I1
sg12
VStadium Club Printing Plates
p622
sg14
(lp623
Vhttp://www.beckett.com/basketball/1997-98/stadium-club-printing-plates/29c-doug-christie-yellow-3138660
p624
asg17
g18
sg19
(lp625
Vhttp://img.beckett.com/images/no-image.jpg
p626
asg22
V#29C
p627
sg25
V1997-98
p628
sg27
g28
sg29
(lp629
g590
assbag1
(g2
g3
Ntp630
Rp631
(dp632
g7
(dp633
g9
V1997-98 Stadium Club Printing Plates #117 Shawn Respert Black
p634
sg11
I1
sg12
VStadium Club Printing Plates
p635
sg14
(lp636
Vhttp://www.beckett.com/basketball/1997-98/stadium-club-printing-plates/117-shawn-respert-black-3139009
p637
asg17
g18
sg19
(lp638
Vhttp://img.beckett.com/images/no-image.jpg
p639
asg22
V#117
p640
sg25
V1997-98
p641
sg27
g28
sg29
(lp642
VShawn Respert
p643
assbag1
(g2
g3
Ntp644
Rp645
(dp646
g7
(dp647
g9
V1997-98 Stadium Club Printing Plates #117A Shawn Respert Cyan
p648
sg11
I1
sg12
VStadium Club Printing Plates
p649
sg14
(lp650
Vhttp://www.beckett.com/basketball/1997-98/stadium-club-printing-plates/117a-shawn-respert-cyan-3139010
p651
asg17
g18
sg19
(lp652
Vhttp://img.beckett.com/images/no-image.jpg
p653
asg22
V#117A
p654
sg25
V1997-98
p655
sg27
g28
sg29
(lp656
g643
assbag1
(g2
g3
Ntp657
Rp658
(dp659
g7
(dp660
g9
V1997-98 Stadium Club Printing Plates #117B Shawn Respert Magenta
p661
sg11
I1
sg12
VStadium Club Printing Plates
p662
sg14
(lp663
Vhttp://www.beckett.com/basketball/1997-98/stadium-club-printing-plates/117b-shawn-respert-magenta-3139011
p664
asg17
g18
sg19
(lp665
Vhttp://img.beckett.com/images/no-image.jpg
p666
asg22
V#117B
p667
sg25
V1997-98
p668
sg27
g28
sg29
(lp669
g643
assbag1
(g2
g3
Ntp670
Rp671
(dp672
g7
(dp673
g9
V1997-98 Stadium Club Printing Plates #117C Shawn Respert Yellow
p674
sg11
I1
sg12
VStadium Club Printing Plates
p675
sg14
(lp676
Vhttp://www.beckett.com/basketball/1997-98/stadium-club-printing-plates/117c-shawn-respert-yellow-3139012
p677
asg17
g18
sg19
(lp678
Vhttp://img.beckett.com/images/no-image.jpg
p679
asg22
V#117C
p680
sg25
V1997-98
p681
sg27
g28
sg29
(lp682
g643
assbag1
(g2
g3
Ntp683
Rp684
(dp685
g7
(dp686
g9
V1997-98 Stadium Club Printing Plates #176 Carlos Rogers Black
p687
sg11
I1
sg12
VStadium Club Printing Plates
p688
sg14
(lp689
Vhttp://www.beckett.com/basketball/1997-98/stadium-club-printing-plates/176-carlos-rogers-black-3139245
p690
asg17
g18
sg19
(lp691
Vhttp://img.beckett.com/images/no-image.jpg
p692
asg22
V#176
p693
sg25
V1997-98
p694
sg27
g28
sg29
(lp695
VCarlos Rogers
p696
assbag1
(g2
g3
Ntp697
Rp698
(dp699
g7
(dp700
g9
V1997-98 Stadium Club Printing Plates #176A Carlos Rogers Cyan
p701
sg11
I1
sg12
VStadium Club Printing Plates
p702
sg14
(lp703
Vhttp://www.beckett.com/basketball/1997-98/stadium-club-printing-plates/176a-carlos-rogers-cyan-3139246
p704
asg17
g18
sg19
(lp705
Vhttp://img.beckett.com/images/no-image.jpg
p706
asg22
V#176A
p707
sg25
V1997-98
p708
sg27
g28
sg29
(lp709
g696
assbag1
(g2
g3
Ntp710
Rp711
(dp712
g7
(dp713
g9
V1997-98 Stadium Club Printing Plates #176B Carlos Rogers Magenta
p714
sg11
I1
sg12
VStadium Club Printing Plates
p715
sg14
(lp716
Vhttp://www.beckett.com/basketball/1997-98/stadium-club-printing-plates/176b-carlos-rogers-magenta-3139247
p717
asg17
g18
sg19
(lp718
Vhttp://img.beckett.com/images/no-image.jpg
p719
asg22
V#176B
p720
sg25
V1997-98
p721
sg27
g28
sg29
(lp722
g696
assbag1
(g2
g3
Ntp723
Rp724
(dp725
g7
(dp726
g9
V1997-98 Stadium Club Printing Plates #176C Carlos Rogers Yellow
p727
sg11
I1
sg12
VStadium Club Printing Plates
p728
sg14
(lp729
Vhttp://www.beckett.com/basketball/1997-98/stadium-club-printing-plates/176c-carlos-rogers-yellow-3139248
p730
asg17
g18
sg19
(lp731
Vhttp://img.beckett.com/images/no-image.jpg
p732
asg22
V#176C
p733
sg25
V1997-98
p734
sg27
g28
sg29
(lp735
g696
assbag1
(g2
g3
Ntp736
Rp737
(dp738
g7
(dp739
g9
V1997-98 Stadium Club Printing Plates #177 Marcus Camby Black
p740
sg11
I1
sg12
VStadium Club Printing Plates
p741
sg14
(lp742
Vhttp://www.beckett.com/basketball/1997-98/stadium-club-printing-plates/177-marcus-camby-black-3139249
p743
asg17
g18
sg19
(lp744
Vhttp://img.beckett.com/images/no-image.jpg
p745
asg22
V#177
p746
sg25
V1997-98
p747
sg27
g28
sg29
(lp748
VMarcus Camby
p749
assbag1
(g2
g3
Ntp750
Rp751
(dp752
g7
(dp753
g9
V1997-98 Stadium Club Printing Plates #177A Marcus Camby Cyan
p754
sg11
I1
sg12
VStadium Club Printing Plates
p755
sg14
(lp756
Vhttp://www.beckett.com/basketball/1997-98/stadium-club-printing-plates/177a-marcus-camby-cyan-3139250
p757
asg17
g18
sg19
(lp758
Vhttp://img.beckett.com/images/no-image.jpg
p759
asg22
V#177A
p760
sg25
V1997-98
p761
sg27
g28
sg29
(lp762
g749
assbag1
(g2
g3
Ntp763
Rp764
(dp765
g7
(dp766
g9
V1997-98 Stadium Club Printing Plates #177B Marcus Camby Magenta
p767
sg11
I1
sg12
VStadium Club Printing Plates
p768
sg14
(lp769
Vhttp://www.beckett.com/basketball/1997-98/stadium-club-printing-plates/177b-marcus-camby-magenta-3139251
p770
asg17
g18
sg19
(lp771
Vhttp://img.beckett.com/images/no-image.jpg
p772
asg22
V#177B
p773
sg25
V1997-98
p774
sg27
g28
sg29
(lp775
g749
assbag1
(g2
g3
Ntp776
Rp777
(dp778
g7
(dp779
g9
V1997-98 Stadium Club Printing Plates #177C Marcus Camby Yellow
p780
sg11
I1
sg12
VStadium Club Printing Plates
p781
sg14
(lp782
Vhttp://www.beckett.com/basketball/1997-98/stadium-club-printing-plates/177c-marcus-camby-yellow-3139252
p783
asg17
g18
sg19
(lp784
Vhttp://img.beckett.com/images/no-image.jpg
p785
asg22
V#177C
p786
sg25
V1997-98
p787
sg27
g28
sg29
(lp788
g749
assbag1
(g2
g3
Ntp789
Rp790
(dp791
g7
(dp792
g9
V1997-98 Stadium Club Printing Plates #217 Tracy McGrady Black
p793
sg11
I1
sg12
VStadium Club Printing Plates
p794
sg14
(lp795
Vhttp://www.beckett.com/basketball/1997-98/stadium-club-printing-plates/217-tracy-mcgrady-black-3139409
p796
asg17
g18
sg19
(lp797
Vhttp://img.beckett.com/images/no-image.jpg
p798
asg22
V#217
p799
sg25
V1997-98
p800
sg27
g28
sg29
(lp801
VTracy McGrady
p802
assbag1
(g2
g3
Ntp803
Rp804
(dp805
g7
(dp806
g9
V1997-98 Stadium Club Printing Plates #217A Tracy McGrady Cyan
p807
sg11
I1
sg12
VStadium Club Printing Plates
p808
sg14
(lp809
Vhttp://www.beckett.com/basketball/1997-98/stadium-club-printing-plates/217a-tracy-mcgrady-cyan-3139410
p810
asg17
g18
sg19
(lp811
Vhttp://img.beckett.com/images/no-image.jpg
p812
asg22
V#217A
p813
sg25
V1997-98
p814
sg27
g28
sg29
(lp815
g802
assbag1
(g2
g3
Ntp816
Rp817
(dp818
g7
(dp819
g9
V1997-98 Stadium Club Printing Plates #217B Tracy McGrady Magenta
p820
sg11
I1
sg12
VStadium Club Printing Plates
p821
sg14
(lp822
Vhttp://www.beckett.com/basketball/1997-98/stadium-club-printing-plates/217b-tracy-mcgrady-magenta-3139411
p823
asg17
g18
sg19
(lp824
Vhttp://img.beckett.com/images/no-image.jpg
p825
asg22
V#217B
p826
sg25
V1997-98
p827
sg27
g28
sg29
(lp828
g802
assbag1
(g2
g3
Ntp829
Rp830
(dp831
g7
(dp832
g9
V1997-98 Stadium Club Printing Plates #217C Tracy McGrady Yellow
p833
sg11
I1
sg12
VStadium Club Printing Plates
p834
sg14
(lp835
Vhttp://www.beckett.com/basketball/1997-98/stadium-club-printing-plates/217c-tracy-mcgrady-yellow-3139412
p836
asg17
g18
sg19
(lp837
Vhttp://img.beckett.com/images/no-image.jpg
p838
asg22
V#217C
p839
sg25
V1997-98
p840
sg27
g28
sg29
(lp841
g802
assbag1
(g2
g3
Ntp842
Rp843
(dp844
g7
(dp845
g9
V1997-98 Ultra Masterpieces #65 Marcus Camby
p846
sg11
I1
sg12
VUltra Masterpieces
p847
sg14
(lp848
Vhttp://www.beckett.com/basketball/1997-98/ultra-masterpieces/65-marcus-camby-3135795
p849
asg17
g18
sg19
(lp850
Vhttp://img.beckett.com/images/no-image.jpg
p851
asg22
V#65
p852
sg25
V1997-98
p853
sg27
g28
sg29
(lp854
VMarcus Camby
p855
assbag1
(g2
g3
Ntp856
Rp857
(dp858
g7
(dp859
g9
V1997-98 Ultra Masterpieces #138 Tracy McGrady
p860
sg11
I1
sg12
VUltra Masterpieces
p861
sg14
(lp862
Vhttp://www.beckett.com/basketball/1997-98/ultra-masterpieces/138-tracy-mcgrady-3135868
p863
asg17
g18
sg19
(lp864
Vhttp://img.beckett.com/images/no-image.jpg
p865
asg22
V#138
p866
sg25
V1997-98
p867
sg27
g28
sg29
(lp868
VTracy McGrady
p869
assbag1
(g2
g3
Ntp870
Rp871
(dp872
g7
(dp873
g9
V1997-98 Ultra Masterpieces #247 Zan Tabak
p874
sg11
I1
sg12
VUltra Masterpieces
p875
sg14
(lp876
Vhttp://www.beckett.com/basketball/1997-98/ultra-masterpieces/247-zan-tabak-3135975
p877
asg17
g18
sg19
(lp878
Vhttp://img.beckett.com/images/no-image.jpg
p879
asg22
V#247
p880
sg25
V1997-98
p881
sg27
g28
sg29
(lp882
VZan Tabak
p883
assbag1
(g2
g3
Ntp884
Rp885
(dp886
g7
(dp887
g9
V1997-98 Ultra Masterpieces #253 Marcus Camby GRE
p888
sg11
I1
sg12
VUltra Masterpieces
p889
sg14
(lp890
Vhttp://www.beckett.com/basketball/1997-98/ultra-masterpieces/253-marcus-camby-gre-3135981
p891
asg17
g18
sg19
(lp892
Vhttp://img.beckett.com/images/no-image.jpg
p893
asg22
V#253
p894
sg25
V1997-98
p895
sg366
VGRE
p896
sg27
g28
sg29
(lp897
VMarcus Camby
p898
assbag1
(g2
g3
Ntp899
Rp900
(dp901
g7
(dp902
g9
V1997-98 Ultra Platinum Medallion #65 Marcus Camby
p903
sg11
I100
sg12
VUltra Platinum Medallion
p904
sg14
(lp905
Vhttp://www.beckett.com/basketball/1997-98/ultra-platinum-medallion/65-marcus-camby-3136079
p906
asg17
g18
sg19
(lp907
Vhttp://img.beckett.com/images/no-image.jpg
p908
asg22
V#65
p909
sg25
V1997-98
p910
sg27
g28
sg29
(lp911
VMarcus Camby
p912
assbag1
(g2
g3
Ntp913
Rp914
(dp915
g7
(dp916
g9
V1997-98 Ultra Platinum Medallion #138 Tracy McGrady
p917
sg11
I100
sg12
VUltra Platinum Medallion
p918
sg14
(lp919
Vhttp://www.beckett.com/basketball/1997-98/ultra-platinum-medallion/138-tracy-mcgrady-3136152
p920
asg17
g18
sg19
(lp921
Vhttp://img.beckett.com/images/no-image.jpg
p922
asg22
V#138
p923
sg25
V1997-98
p924
sg27
g28
sg29
(lp925
VTracy McGrady
p926
assbag1
(g2
g3
Ntp927
Rp928
(dp929
g7
(dp930
g9
V1997-98 Ultra Platinum Medallion #247 Zan Tabak
p931
sg11
I100
sg12
VUltra Platinum Medallion
p932
sg14
(lp933
Vhttp://www.beckett.com/basketball/1997-98/ultra-platinum-medallion/247-zan-tabak-3136259
p934
asg17
g18
sg19
(lp935
Vhttp://img.beckett.com/images/no-image.jpg
p936
asg22
V#247
p937
sg25
V1997-98
p938
sg27
g28
sg29
(lp939
VZan Tabak
p940
assbag1
(g2
g3
Ntp941
Rp942
(dp943
g7
(dp944
g9
V1997-98 Ultra Platinum Medallion #253 Marcus Camby GRE
p945
sg11
I100
sg12
VUltra Platinum Medallion
p946
sg14
(lp947
Vhttp://www.beckett.com/basketball/1997-98/ultra-platinum-medallion/253-marcus-camby-gre-3136265
p948
asg17
g18
sg19
(lp949
Vhttp://img.beckett.com/images/no-image.jpg
p950
asg22
V#253
p951
sg25
V1997-98
p952
sg366
VGRE
p953
sg27
g28
sg29
(lp954
VMarcus Camby
p955
assbag1
(g2
g3
Ntp956
Rp957
(dp958
g7
(dp959
g9
V1997-98 Z-Force Rave #28 Doug Christie
p960
sg11
I399
sg12
VZ-Force Rave
p961
sg14
(lp962
Vhttp://www.beckett.com/basketball/1997-98/z-force-rave/28-doug-christie-3133052
p963
asg17
g18
sg19
(lp964
Vhttp://img.beckett.com/images/items_stock/185226/3133012/3133052/front.jpg
p965
asg22
V#28
p966
sg25
V1997-98
p967
sg27
g28
sg29
(lp968
VDoug Christie
p969
assbag1
(g2
g3
Ntp970
Rp971
(dp972
g7
(dp973
g9
V1997-98 Z-Force Rave #43 Popeye Jones
p974
sg11
I399
sg12
VZ-Force Rave
p975
sg14
(lp976
Vhttp://www.beckett.com/basketball/1997-98/z-force-rave/43-popeye-jones-3133067
p977
asg17
g18
sg19
(lp978
Vhttp://img.beckett.com/images/items_stock/185226/3133012/3133067/front.jpg
p979
asg22
V#43
p980
sg25
V1997-98
p981
sg27
g28
sg29
(lp982
VPopeye Jones
p983
assbag1
(g2
g3
Ntp984
Rp985
(dp986
g7
(dp987
g9
V1997-98 Z-Force Rave #107 Marcus Camby
p988
sg11
I399
sg12
VZ-Force Rave
p989
sg14
(lp990
Vhttp://www.beckett.com/basketball/1997-98/z-force-rave/107-marcus-camby-3133131
p991
asg17
g18
sg19
(lp992
Vhttp://img.beckett.com/images/items_stock/185226/3133012/3133131/front.jpg
p993
asg22
V#107
p994
sg25
V1997-98
p995
sg27
g28
sg29
(lp996
VMarcus Camby
p997
assbag1
(g2
g3
Ntp998
Rp999
(dp1000
g7
(dp1001
g9
V1997-98 Z-Force Rave #172B Tracy McGrady
p1002
sg11
I399
sg12
VZ-Force Rave
p1003
sg14
(lp1004
Vhttp://www.beckett.com/basketball/1997-98/z-force-rave/172b-tracy-mcgrady-3133195
p1005
asg17
g18
sg19
(lp1006
Vhttp://img.beckett.com/images/no-image.jpg
p1007
asg22
V#172B
p1008
sg25
V1997-98
p1009
sg27
g28
sg29
(lp1010
VTracy McGrady
p1011
assbag1
(g2
g3
Ntp1012
Rp1013
(dp1014
g7
(dp1015
g9
V1997-98 Z-Force Rave #205 Marcus Camby ZUP
p1016
sg11
I399
sg12
VZ-Force Rave
p1017
sg14
(lp1018
Vhttp://www.beckett.com/basketball/1997-98/z-force-rave/205-marcus-camby-zup-3133228
p1019
asg17
g18
sg19
(lp1020
Vhttp://img.beckett.com/images/no-image.jpg
p1021
asg22
V#205
p1022
sg25
V1997-98
p1023
sg366
VZUP
p1024
sg27
g28
sg29
(lp1025
VMarcus Camby
p1026
assbag1
(g2
g3
Ntp1027
Rp1028
(dp1029
g7
(dp1030
g9
V1997-98 Z-Force Super Rave #172B Tracy McGrady
p1031
sg11
I50
sg12
VZ-Force Super Rave
p1032
sg14
(lp1033
Vhttp://www.beckett.com/basketball/1997-98/z-force-super-rave/172b-tracy-mcgrady-3133307
p1034
asg17
g18
sg19
(lp1035
Vhttp://img.beckett.com/images/no-image.jpg
p1036
asg22
V#172B
p1037
sg25
V1997-98
p1038
sg27
g28
sg29
(lp1039
VTracy McGrady
p1040
assbag1
(g2
g3
Ntp1041
Rp1042
(dp1043
g7
(dp1044
g9
V1997-98 Z-Force Super Rave #205 Marcus Camby ZUP
p1045
sg11
I50
sg12
VZ-Force Super Rave
p1046
sg14
(lp1047
Vhttp://www.beckett.com/basketball/1997-98/z-force-super-rave/205-marcus-camby-zup-3133340
p1048
asg17
g18
sg19
(lp1049
Vhttp://img.beckett.com/images/no-image.jpg
p1050
asg22
V#205
p1051
sg25
V1997-98
p1052
sg366
VZUP
p1053
sg27
g28
sg29
(lp1054
VMarcus Camby
p1055
assbag1
(g2
g3
Ntp1056
Rp1057
(dp1058
g7
(dp1059
g9
V1997-98 Upper Deck High Dimensions #D3 Marcus Camby
p1060
sg11
I2000
sg12
VUpper Deck High Dimensions
p1061
sg14
(lp1062
Vhttp://www.beckett.com/basketball/1997-98/upper-deck-high-dimensions/d3-marcus-camby-3132425
p1063
asg17
g18
sg19
(lp1064
Vhttp://img.beckett.com/images/no-image.jpg
p1065
asg22
V#D3
p1066
sg25
V1997-98
p1067
sg27
g28
sg29
(lp1068
VMarcus Camby
p1069
assbag1
(g2
g3
Ntp1070
Rp1071
(dp1072
g7
(dp1073
g9
V1997-98 Hoops High Voltage 500 #HV7 Marcus Camby
p1074
sg11
I500
sg12
VHoops High Voltage 500
p1075
sg14
(lp1076
Vhttp://www.beckett.com/basketball/1997-98/hoops-high-voltage-500/hv7-marcus-camby-3142296
p1077
asg17
g18
sg19
(lp1078
Vhttp://img.beckett.com/images/no-image.jpg
p1079
asg22
V#HV7
p1080
sg25
V1997-98
p1081
sg27
g28
sg29
(lp1082
VMarcus Camby
p1083
assbag1
(g2
g3
Ntp1084
Rp1085
(dp1086
g7
(dp1087
g9
V1997-98 Metal Universe Precious Metal Gems Emerald #42 Tracy McGrady
p1088
sg11
I10
sg12
VMetal Universe Precious Metal Gems Emerald
p1089
sg14
(lp1090
Vhttp://www.beckett.com/basketball/1997-98/metal-universe-precious-metal-gems-emerald/42-tracy-mcgrady-7055491
p1091
asg17
g18
sg19
(lp1092
Vhttp://img.beckett.com/images/no-image.jpg
p1093
asg22
V#42
p1094
sg25
V1997-98
p1095
sg27
g28
sg29
(lp1096
VTracy McGrady
p1097
assbag1
(g2
g3
Ntp1098
Rp1099
(dp1100
g7
(dp1101
g9
V1997-98 Metal Universe Precious Metal Gems Emerald #84 Marcus Camby
p1102
sg11
I10
sg12
VMetal Universe Precious Metal Gems Emerald
p1103
sg14
(lp1104
Vhttp://www.beckett.com/basketball/1997-98/metal-universe-precious-metal-gems-emerald/84-marcus-camby-7055533
p1105
asg17
g18
sg19
(lp1106
Vhttp://img.beckett.com/images/no-image.jpg
p1107
asg22
V#84
p1108
sg25
V1997-98
p1109
sg27
g28
sg29
(lp1110
VMarcus Camby
p1111
assbag1
(g2
g3
Ntp1112
Rp1113
(dp1114
g7
(dp1115
g9
V1997-98 SP Authentic Profiles 3 #P19 Marcus Camby
p1116
sg11
I100
sg12
VSP Authentic Profiles 3
p1117
sg14
(lp1118
Vhttp://www.beckett.com/basketball/1997-98/sp-authentic-profiles-3/p19-marcus-camby-3140300
p1119
asg17
g18
sg19
(lp1120
Vhttp://img.beckett.com/images/no-image.jpg
p1121
asg22
V#P19
p1122
sg25
V1997-98
p1123
sg27
g28
sg29
(lp1124
VMarcus Camby
p1125
assbag1
(g2
g3
Ntp1126
Rp1127
(dp1128
g7
(dp1129
g9
V1997-98 Upper Deck Diamond Dimensions #D3 Marcus Camby
p1130
sg11
I100
sg12
VUpper Deck Diamond Dimensions
p1131
sg14
(lp1132
Vhttp://www.beckett.com/basketball/1997-98/upper-deck-diamond-dimensions/d3-marcus-camby-3132463
p1133
asg17
g18
sg19
(lp1134
Vhttp://img.beckett.com/images/no-image.jpg
p1135
asg22
V#D3
p1136
sg25
V1997-98
p1137
sg27
g28
sg29
(lp1138
VMarcus Camby
p1139
assba.