(lp0
Naccopy_reg
_reconstructor
p1
(ctutorial.items
BeckettItem
p2
c__builtin__
object
p3
Ntp4
Rp5
(dp6
S'_values'
p7
(dp8
S'originalItemDescription'
p9
V1997 Bleachers/Fleer Gold #8 Karl Malone 1986-87
p10
sS'serialNumber'
p11
I10000
sS'setName'
p12
VBleachers/Fleer Gold
p13
sS'beckettLink'
p14
(lp15
Vhttp://www.beckett.com/basketball/1997/bleachersfleer-gold/8-karl-malone-1986-87-3129464
p16
asS'team'
p17
S'Utah Jazz'
p18
sS'imageLink'
p19
(lp20
Vhttp://img.beckett.com/images/no-image.jpg
p21
asS'cardNumber'
p22
V#8
p23
sS'year'
p24
V1997
p25
sS'sport'
p26
S'Basketball'
p27
sS'playerNames'
p28
(lp29
VKarl Malone
p30
assbag1
(g2
g3
Ntp31
Rp32
(dp33
g7
(dp34
g9
V1997-98 E-X2001 Essential Credentials Future #19 Karl Malone/62
p35
sg11
I62
sg12
VE-X2001 Essential Credentials Future
p36
sg14
(lp37
Vhttp://www.beckett.com/basketball/1997-98/e-x2001-essential-credentials-future/19-karl-malone62-3144605
p38
asg17
g18
sg19
(lp39
Vhttp://img.beckett.com/images/no-image.jpg
p40
asg22
V#19
p41
sg24
V1997-98
p42
sg26
g27
sg28
(lp43
VKarl Malone
p44
assbag1
(g2
g3
Ntp45
Rp46
(dp47
g7
(dp48
g9
V1997-98 E-X2001 Essential Credentials Future #27 John Stockton/54
p49
sg11
I54
sg12
VE-X2001 Essential Credentials Future
p50
sg14
(lp51
Vhttp://www.beckett.com/basketball/1997-98/e-x2001-essential-credentials-future/27-john-stockton54-3144613
p52
asg17
g18
sg19
(lp53
Vhttp://img.beckett.com/images/no-image.jpg
p54
asg22
V#27
p55
sg24
V1997-98
p56
sg26
g27
sg28
(lp57
VJohn Stockton
p58
assbag1
(g2
g3
Ntp59
Rp60
(dp61
g7
(dp62
g9
V1997-98 E-X2001 Essential Credentials Future #65 Jacque Vaughn/16
p63
sg11
I16
sg12
VE-X2001 Essential Credentials Future
p64
sg14
(lp65
Vhttp://www.beckett.com/basketball/1997-98/e-x2001-essential-credentials-future/65-jacque-vaughn16-3144651
p66
asg17
g18
sg19
(lp67
Vhttp://img.beckett.com/images/no-image.jpg
p68
asg22
V#65
p69
sg24
V1997-98
p70
sg26
g27
sg28
(lp71
VJacque Vaughn
p72
assbag1
(g2
g3
Ntp73
Rp74
(dp75
g7
(dp76
g9
V1997-98 E-X2001 Essential Credentials Now #19 Karl Malone/19
p77
sg11
I19
sg12
VE-X2001 Essential Credentials Now
p78
sg14
(lp79
Vhttp://www.beckett.com/basketball/1997-98/e-x2001-essential-credentials-now/19-karl-malone19-3144692
p80
asg17
g18
sg19
(lp81
Vhttp://img.beckett.com/images/no-image.jpg
p82
asg22
V#19
p83
sg24
V1997-98
p84
sg26
g27
sg28
(lp85
VKarl Malone
p86
assbag1
(g2
g3
Ntp87
Rp88
(dp89
g7
(dp90
g9
V1997-98 E-X2001 Essential Credentials Now #27 John Stockton/27
p91
sg11
I27
sg12
VE-X2001 Essential Credentials Now
p92
sg14
(lp93
Vhttp://www.beckett.com/basketball/1997-98/e-x2001-essential-credentials-now/27-john-stockton27-3144700
p94
asg17
g18
sg19
(lp95
Vhttp://img.beckett.com/images/no-image.jpg
p96
asg22
V#27
p97
sg24
V1997-98
p98
sg26
g27
sg28
(lp99
VJohn Stockton
p100
assbag1
(g2
g3
Ntp101
Rp102
(dp103
g7
(dp104
g9
V1997-98 E-X2001 Essential Credentials Now #65 Jacque Vaughn/65
p105
sg11
I65
sg12
VE-X2001 Essential Credentials Now
p106
sg14
(lp107
Vhttp://www.beckett.com/basketball/1997-98/e-x2001-essential-credentials-now/65-jacque-vaughn65-3144738
p108
asg17
g18
sg19
(lp109
Vhttp://img.beckett.com/images/no-image.jpg
p110
asg22
V#65
p111
sg24
V1997-98
p112
sg26
g27
sg28
(lp113
VJacque Vaughn
p114
assbag1
(g2
g3
Ntp115
Rp116
(dp117
g7
(dp118
g9
V1997-98 Finest Embossed Refractors #127 Karl Malone S
p119
sg11
I263
sg12
VFinest Embossed Refractors
p120
sg14
(lp121
Vhttp://www.beckett.com/basketball/1997-98/finest-embossed-refractors/127-karl-malone-s-3145335
p122
asg17
g18
sg19
(lp123
Vhttp://img.beckett.com/images/no-image.jpg
p124
asg22
V#127
p125
sg24
V1997-98
p126
sg26
g27
sg28
(lp127
VKarl Malone
p128
assbag1
(g2
g3
Ntp129
Rp130
(dp131
g7
(dp132
g9
V1997-98 Finest Embossed Refractors #173 John Stockton G
p133
sg11
I74
sg12
VFinest Embossed Refractors
p134
sg14
(lp135
Vhttp://www.beckett.com/basketball/1997-98/finest-embossed-refractors/173-john-stockton-g-3145381
p136
asg17
g18
sg19
(lp137
Vhttp://img.beckett.com/images/no-image.jpg
p138
asg22
V#173
p139
sg24
V1997-98
p140
sg26
g27
sg28
(lp141
VJohn Stockton
p142
assbag1
(g2
g3
Ntp143
Rp144
(dp145
g7
(dp146
g9
V1997-98 Finest Embossed Refractors #297 John Stockton S
p147
sg11
I263
sg12
VFinest Embossed Refractors
p148
sg14
(lp149
Vhttp://www.beckett.com/basketball/1997-98/finest-embossed-refractors/297-john-stockton-s-3145405
p150
asg17
g18
sg19
(lp151
Vhttp://img.beckett.com/images/no-image.jpg
p152
asg22
V#297
p153
sg24
V1997-98
p154
sg26
g27
sg28
(lp155
VJohn Stockton
p156
assbag1
(g2
g3
Ntp157
Rp158
(dp159
g7
(dp160
g9
V1997-98 Finest Embossed Refractors #321 Karl Malone G
p161
sg11
I74
sg12
VFinest Embossed Refractors
p162
sg14
(lp163
Vhttp://www.beckett.com/basketball/1997-98/finest-embossed-refractors/321-karl-malone-g-3145429
p164
asg17
g18
sg19
(lp165
Vhttp://img.beckett.com/images/no-image.jpg
p166
asg22
V#321
p167
sg24
V1997-98
p168
sg26
g27
sg28
(lp169
VKarl Malone
p170
assbag1
(g2
g3
Ntp171
Rp172
(dp173
g7
(dp174
g9
V1997-98 Finest Refractors #127 Karl Malone S
p175
sg11
I1090
sg12
VFinest Refractors
p176
sg14
(lp177
Vhttp://www.beckett.com/basketball/1997-98/finest-refractors/127-karl-malone-s-3145593
p178
asg17
g18
sg19
(lp179
Vhttp://img.beckett.com/images/items_stock/185226/3145435/3145593/front.jpg
p180
asg22
V#127
p181
sg24
V1997-98
p182
sg26
g27
sg28
(lp183
VKarl Malone
p184
assbag1
(g2
g3
Ntp185
Rp186
(dp187
g7
(dp188
g9
V1997-98 Finest Refractors #173 John Stockton G
p189
sg11
I289
sg12
VFinest Refractors
p190
sg14
(lp191
Vhttp://www.beckett.com/basketball/1997-98/finest-refractors/173-john-stockton-g-3145639
p192
asg17
g18
sg19
(lp193
Vhttp://img.beckett.com/images/items_stock/185226/3145435/3145639/front.jpg
p194
asg22
V#173
p195
sg24
V1997-98
p196
sg26
g27
sg28
(lp197
VJohn Stockton
p198
assbag1
(g2
g3
Ntp199
Rp200
(dp201
g7
(dp202
g9
V1997-98 Finest Refractors #297 John Stockton S
p203
sg11
I1090
sg12
VFinest Refractors
p204
sg14
(lp205
Vhttp://www.beckett.com/basketball/1997-98/finest-refractors/297-john-stockton-s-3145763
p206
asg17
g18
sg19
(lp207
Vhttp://img.beckett.com/images/items_stock/185226/3145435/3145763/front.jpg
p208
asg22
V#297
p209
sg24
V1997-98
p210
sg26
g27
sg28
(lp211
VJohn Stockton
p212
assbag1
(g2
g3
Ntp213
Rp214
(dp215
g7
(dp216
g9
V1997-98 Finest Refractors #321 Karl Malone G
p217
sg11
I289
sg12
VFinest Refractors
p218
sg14
(lp219
Vhttp://www.beckett.com/basketball/1997-98/finest-refractors/321-karl-malone-g-3145787
p220
asg17
g18
sg19
(lp221
Vhttp://img.beckett.com/images/no-image.jpg
p222
asg22
V#321
p223
sg24
V1997-98
p224
sg26
g27
sg28
(lp225
VKarl Malone
p226
assbag1
(g2
g3
Ntp227
Rp228
(dp229
g7
(dp230
g9
V1997-98 Flair Showcase Row 0 #47 John Stockton
p231
sg11
I1000
sg12
VFlair Showcase Row 0
p232
sg14
(lp233
Vhttp://www.beckett.com/basketball/1997-98/flair-showcase-row-0/47-john-stockton-3146145
p234
asg17
g18
sg19
(lp235
Vhttp://img.beckett.com/images/items_stock/185226/3146075/3146145/front.jpg
p236
asg22
V#47
p237
sg24
V1997-98
p238
sg26
g27
sg28
(lp239
VJohn Stockton
p240
assbag1
(g2
g3
Ntp241
Rp242
(dp243
g7
(dp244
g9
V1997-98 Flair Showcase Row 0 #56 Karl Malone
p245
sg11
I1000
sg12
VFlair Showcase Row 0
p246
sg14
(lp247
Vhttp://www.beckett.com/basketball/1997-98/flair-showcase-row-0/56-karl-malone-3146154
p248
asg17
g18
sg19
(lp249
Vhttp://img.beckett.com/images/items_stock/185226/3146075/3146154/front.jpg
p250
asg22
V#56
p251
sg24
V1997-98
p252
sg26
g27
sg28
(lp253
VKarl Malone
p254
assbag1
(g2
g3
Ntp255
Rp256
(dp257
g7
(dp258
g9
V1997-98 Flair Showcase Legacy Collection Row 3 #47 John Stockton
p259
sg11
I100
sg12
VFlair Showcase Legacy Collection Row 3
p260
sg14
(lp261
Vhttp://www.beckett.com/basketball/1997-98/flair-showcase-legacy-collection-row-3/47-john-stockton-3148605
p262
asg17
g18
sg19
(lp263
Vhttp://img.beckett.com/images/no-image.jpg
p264
asg22
V#47
p265
sg24
V1997-98
p266
sg26
g27
sg28
(lp267
VJohn Stockton
p268
assbag1
(g2
g3
Ntp269
Rp270
(dp271
g7
(dp272
g9
V1997-98 Flair Showcase Legacy Collection Row 3 #56 Karl Malone
p273
sg11
I100
sg12
VFlair Showcase Legacy Collection Row 3
p274
sg14
(lp275
Vhttp://www.beckett.com/basketball/1997-98/flair-showcase-legacy-collection-row-3/56-karl-malone-3148614
p276
asg17
g18
sg19
(lp277
Vhttp://img.beckett.com/images/no-image.jpg
p278
asg22
V#56
p279
sg24
V1997-98
p280
sg26
g27
sg28
(lp281
VKarl Malone
p282
assbag1
(g2
g3
Ntp283
Rp284
(dp285
g7
(dp286
g9
V1997-98 Metal Universe Precious Metal Gems #86 Jeff Hornacek
p287
sg11
I90
sg12
VMetal Universe Precious Metal Gems
p288
sg14
(lp289
Vhttp://www.beckett.com/basketball/1997-98/metal-universe-precious-metal-gems/86-jeff-hornacek-3142678
p290
asg17
g18
sg19
(lp291
Vhttp://img.beckett.com/images/no-image.jpg
p292
asg22
V#86
p293
sg24
V1997-98
p294
sg26
g27
sg28
(lp295
VJeff Hornacek
p296
assbag1
(g2
g3
Ntp297
Rp298
(dp299
g7
(dp300
g9
V1997-98 Metal Universe Precious Metal Gems #97 Karl Malone
p301
sg11
I90
sg12
VMetal Universe Precious Metal Gems
p302
sg14
(lp303
Vhttp://www.beckett.com/basketball/1997-98/metal-universe-precious-metal-gems/97-karl-malone-3142689
p304
asg17
g18
sg19
(lp305
Vhttp://img.beckett.com/images/no-image.jpg
p306
asg22
V#97
p307
sg24
V1997-98
p308
sg26
g27
sg28
(lp309
VKarl Malone
p310
assbag1
(g2
g3
Ntp311
Rp312
(dp313
g7
(dp314
g9
V1997-98 Metal Universe Precious Metal Gems #99 Bryon Russell
p315
sg11
I90
sg12
VMetal Universe Precious Metal Gems
p316
sg14
(lp317
Vhttp://www.beckett.com/basketball/1997-98/metal-universe-precious-metal-gems/99-bryon-russell-3142691
p318
asg17
g18
sg19
(lp319
Vhttp://img.beckett.com/images/no-image.jpg
p320
asg22
V#99
p321
sg24
V1997-98
p322
sg26
g27
sg28
(lp323
VBryon Russell
p324
assbag1
(g2
g3
Ntp325
Rp326
(dp327
g7
(dp328
g9
V1997-98 Metal Universe Precious Metal Gems #119 John Stockton
p329
sg11
I90
sg12
VMetal Universe Precious Metal Gems
p330
sg14
(lp331
Vhttp://www.beckett.com/basketball/1997-98/metal-universe-precious-metal-gems/119-john-stockton-3142711
p332
asg17
g18
sg19
(lp333
Vhttp://img.beckett.com/images/no-image.jpg
p334
asg22
V#119
p335
sg24
V1997-98
p336
sg26
g27
sg28
(lp337
VJohn Stockton
p338
assbag1
(g2
g3
Ntp339
Rp340
(dp341
g7
(dp342
g9
V1997-98 Metal Universe Championship Precious Metal Gems #17 John Stockton
p343
sg11
I50
sg12
VMetal Universe Championship Precious Metal Gems
p344
sg14
(lp345
Vhttp://www.beckett.com/basketball/1997-98/metal-universe-championship-precious-metal-gems/17-john-stockton-3140692
p346
asg17
g18
sg19
(lp347
Vhttp://img.beckett.com/images/no-image.jpg
p348
asg22
V#17
p349
sg24
V1997-98
p350
sg26
g27
sg28
(lp351
VJohn Stockton
p352
assbag1
(g2
g3
Ntp353
Rp354
(dp355
g7
(dp356
g9
V1997-98 Metal Universe Championship Precious Metal Gems #69 Jacque Vaughn
p357
sg11
I50
sg12
VMetal Universe Championship Precious Metal Gems
p358
sg14
(lp359
Vhttp://www.beckett.com/basketball/1997-98/metal-universe-championship-precious-metal-gems/69-jacque-vaughn-3140744
p360
asg17
g18
sg19
(lp361
Vhttp://img.beckett.com/images/no-image.jpg
p362
asg22
V#69
p363
sg24
V1997-98
p364
sg26
g27
sg28
(lp365
VJacque Vaughn
p366
assbag1
(g2
g3
Ntp367
Rp368
(dp369
g7
(dp370
g9
V1997-98 Metal Universe Championship Precious Metal Gems #88 Karl Malone
p371
sg11
I50
sg12
VMetal Universe Championship Precious Metal Gems
p372
sg14
(lp373
Vhttp://www.beckett.com/basketball/1997-98/metal-universe-championship-precious-metal-gems/88-karl-malone-3140763
p374
asg17
g18
sg19
(lp375
Vhttp://img.beckett.com/images/no-image.jpg
p376
asg22
V#88
p377
sg24
V1997-98
p378
sg26
g27
sg28
(lp379
VKarl Malone
p380
assbag1
(g2
g3
Ntp381
Rp382
(dp383
g7
(dp384
g9
V1997-98 SkyBox Premium Star Rubies #20 John Stockton
p385
sg11
I50
sg12
VSkyBox Premium Star Rubies
p386
sg14
(lp387
Vhttp://www.beckett.com/basketball/1997-98/skybox-premium-star-rubies/20-john-stockton-3141191
p388
asg17
g18
sg19
(lp389
Vhttp://img.beckett.com/images/no-image.jpg
p390
asg22
V#20
p391
sg24
V1997-98
p392
sg26
g27
sg28
(lp393
VJohn Stockton
p394
assbag1
(g2
g3
Ntp395
Rp396
(dp397
g7
(dp398
g9
V1997-98 SkyBox Premium Star Rubies #26 Jeff Hornacek
p399
sg11
I50
sg12
VSkyBox Premium Star Rubies
p400
sg14
(lp401
Vhttp://www.beckett.com/basketball/1997-98/skybox-premium-star-rubies/26-jeff-hornacek-3141197
p402
asg17
g18
sg19
(lp403
Vhttp://img.beckett.com/images/no-image.jpg
p404
asg22
V#26
p405
sg24
V1997-98
p406
sg26
g27
sg28
(lp407
VJeff Hornacek
p408
assbag1
(g2
g3
Ntp409
Rp410
(dp411
g7
(dp412
g9
V1997-98 SkyBox Premium Star Rubies #82 Karl Malone
p413
sg11
I50
sg12
VSkyBox Premium Star Rubies
p414
sg14
(lp415
Vhttp://www.beckett.com/basketball/1997-98/skybox-premium-star-rubies/82-karl-malone-3141253
p416
asg17
g18
sg19
(lp417
Vhttp://img.beckett.com/images/no-image.jpg
p418
asg22
V#82
p419
sg24
V1997-98
p420
sg26
g27
sg28
(lp421
VKarl Malone
p422
assbag1
(g2
g3
Ntp423
Rp424
(dp425
g7
(dp426
g9
V1997-98 SkyBox Premium Star Rubies #113 Bryon Russell
p427
sg11
I50
sg12
VSkyBox Premium Star Rubies
p428
sg14
(lp429
Vhttp://www.beckett.com/basketball/1997-98/skybox-premium-star-rubies/113-bryon-russell-3141284
p430
asg17
g18
sg19
(lp431
Vhttp://img.beckett.com/images/no-image.jpg
p432
asg22
V#113
p433
sg24
V1997-98
p434
sg26
g27
sg28
(lp435
VBryon Russell
p436
assbag1
(g2
g3
Ntp437
Rp438
(dp439
g7
(dp440
g9
V1997-98 SkyBox Premium Star Rubies #163 Jacque Vaughn
p441
sg11
I50
sg12
VSkyBox Premium Star Rubies
p442
sg14
(lp443
Vhttp://www.beckett.com/basketball/1997-98/skybox-premium-star-rubies/163-jacque-vaughn-3141332
p444
asg17
g18
sg19
(lp445
Vhttp://img.beckett.com/images/no-image.jpg
p446
asg22
V#163
p447
sg24
V1997-98
p448
sg26
g27
sg28
(lp449
VJacque Vaughn
p450
assbag1
(g2
g3
Ntp451
Rp452
(dp453
g7
(dp454
g9
V1997-98 SkyBox Premium Star Rubies #174 Adam Keefe
p455
sg11
I50
sg12
VSkyBox Premium Star Rubies
p456
sg14
(lp457
Vhttp://www.beckett.com/basketball/1997-98/skybox-premium-star-rubies/174-adam-keefe-3141343
p458
asg17
g18
sg19
(lp459
Vhttp://img.beckett.com/images/no-image.jpg
p460
asg22
V#174
p461
sg24
V1997-98
p462
sg26
g27
sg28
(lp463
VAdam Keefe
p464
assbag1
(g2
g3
Ntp465
Rp466
(dp467
g7
(dp468
g9
V1997-98 SkyBox Premium Star Rubies #221 Shandon Anderson
p469
sg11
I50
sg12
VSkyBox Premium Star Rubies
p470
sg14
(lp471
Vhttp://www.beckett.com/basketball/1997-98/skybox-premium-star-rubies/221-shandon-anderson-3141390
p472
asg17
g18
sg19
(lp473
Vhttp://img.beckett.com/images/no-image.jpg
p474
asg22
V#221
p475
sg24
V1997-98
p476
sg26
g27
sg28
(lp477
VShandon Anderson
p478
assbag1
(g2
g3
Ntp479
Rp480
(dp481
g7
(dp482
g9
V1997-98 SkyBox Premium Star Rubies #223 Chris Morris
p483
sg11
I50
sg12
VSkyBox Premium Star Rubies
p484
sg14
(lp485
Vhttp://www.beckett.com/basketball/1997-98/skybox-premium-star-rubies/223-chris-morris-3141392
p486
asg17
g18
sg19
(lp487
Vhttp://img.beckett.com/images/no-image.jpg
p488
asg22
V#223
p489
sg24
V1997-98
p490
sg26
g27
sg28
(lp491
VChris Morris
p492
assbag1
(g2
g3
Ntp493
Rp494
(dp495
g7
(dp496
g9
V1997-98 SkyBox Premium Star Rubies #237 Karl Malone TS
p497
sg11
I50
sg12
VSkyBox Premium Star Rubies
p498
sg14
(lp499
Vhttp://www.beckett.com/basketball/1997-98/skybox-premium-star-rubies/237-karl-malone-ts-3141406
p500
asg17
g18
sg19
(lp501
Vhttp://img.beckett.com/images/no-image.jpg
p502
asg22
V#237
p503
sg24
V1997-98
p504
sS'subsetName'
p505
VTS
p506
sg26
g27
sg28
(lp507
VKarl Malone
p508
assbag1
(g2
g3
Ntp509
Rp510
(dp511
g7
(dp512
g9
V1997-98 SkyBox Premium Autographics Century Marks #35 Howard Eisley
p513
sg11
I100
sg12
VSkyBox Premium Autographics Century Marks
p514
sg14
(lp515
Vhttp://www.beckett.com/basketball/1997-98/skybox-premium-autographics-century-marks/35-howard-eisley-3141617
p516
asg17
g18
sg19
(lp517
Vhttp://img.beckett.com/images/no-image.jpg
p518
asg22
V#35
p519
sS'autograph'
p520
I1
sg24
V1997-98
p521
sg26
g27
sg28
(lp522
VHoward Eisley
p523
assbag1
(g2
g3
Ntp524
Rp525
(dp526
g7
(dp527
g9
V1997-98 SkyBox Premium Autographics Century Marks #60 Adam Keefe
p528
sg11
I100
sg12
VSkyBox Premium Autographics Century Marks
p529
sg14
(lp530
Vhttp://www.beckett.com/basketball/1997-98/skybox-premium-autographics-century-marks/60-adam-keefe-3141642
p531
asg17
g18
sg19
(lp532
Vhttp://img.beckett.com/images/no-image.jpg
p533
asg22
V#60
p534
sg520
I1
sg24
V1997-98
p535
sg26
g27
sg28
(lp536
VAdam Keefe
p537
assbag1
(g2
g3
Ntp538
Rp539
(dp540
g7
(dp541
g9
V1997-98 SkyBox Premium Autographics Century Marks #76 Chris Morris
p542
sg11
I100
sg12
VSkyBox Premium Autographics Century Marks
p543
sg14
(lp544
Vhttp://www.beckett.com/basketball/1997-98/skybox-premium-autographics-century-marks/76-chris-morris-3141658
p545
asg17
g18
sg19
(lp546
Vhttp://img.beckett.com/images/no-image.jpg
p547
asg22
V#76
p548
sg520
I1
sg24
V1997-98
p549
sg26
g27
sg28
(lp550
VChris Morris
p551
assbag1
(g2
g3
Ntp552
Rp553
(dp554
g7
(dp555
g9
V1997-98 SkyBox Premium Autographics Century Marks #106 Jacque Vaughn
p556
sg11
I100
sg12
VSkyBox Premium Autographics Century Marks
p557
sg14
(lp558
Vhttp://www.beckett.com/basketball/1997-98/skybox-premium-autographics-century-marks/106-jacque-vaughn-3141688
p559
asg17
g18
sg19
(lp560
Vhttp://img.beckett.com/images/no-image.jpg
p561
asg22
V#106
p562
sg520
I1
sg24
V1997-98
p563
sg26
g27
sg28
(lp564
VJacque Vaughn
p565
assbag1
(g2
g3
Ntp566
Rp567
(dp568
g7
(dp569
g9
V1997-98 SPx Grand Finale #44 Karl Malone
p570
sg11
I50
sg12
VSPx Grand Finale
p571
sg14
(lp572
Vhttp://www.beckett.com/basketball/1997-98/spx-grand-finale/44-karl-malone-3137728
p573
asg17
g18
sg19
(lp574
Vhttp://img.beckett.com/images/no-image.jpg
p575
asg22
V#44
p576
sg24
V1997-98
p577
sg26
g27
sg28
(lp578
VKarl Malone
p579
assbag1
(g2
g3
Ntp580
Rp581
(dp582
g7
(dp583
g9
V1997-98 SPx Grand Finale #45 John Stockton
p584
sg11
I50
sg12
VSPx Grand Finale
p585
sg14
(lp586
Vhttp://www.beckett.com/basketball/1997-98/spx-grand-finale/45-john-stockton-3137729
p587
asg17
g18
sg19
(lp588
Vhttp://img.beckett.com/images/no-image.jpg
p589
asg22
V#45
p590
sg24
V1997-98
p591
sg26
g27
sg28
(lp592
VJohn Stockton
p593
assbag1
(g2
g3
Ntp594
Rp595
(dp596
g7
(dp597
g9
V1997-98 Stadium Club One Of A Kind #2 Bryon Russell
p598
sg11
I150
sg12
VStadium Club One Of A Kind
p599
sg14
(lp600
Vhttp://www.beckett.com/basketball/1997-98/stadium-club-one-of-a-kind/2-bryon-russell-3138301
p601
asg17
g18
sg19
(lp602
Vhttp://img.beckett.com/images/items_stock/185226/3138288/3138301/front.jpg
p603
asg22
V#2
p604
sg24
V1997-98
p605
sg26
g27
sg28
(lp606
VBryon Russell
p607
assbag1
(g2
g3
Ntp608
Rp609
(dp610
g7
(dp611
g9
V1997-98 Stadium Club One Of A Kind #57 Greg Ostertag
p612
sg11
I150
sg12
VStadium Club One Of A Kind
p613
sg14
(lp614
Vhttp://www.beckett.com/basketball/1997-98/stadium-club-one-of-a-kind/57-greg-ostertag-3138356
p615
asg17
g18
sg19
(lp616
Vhttp://img.beckett.com/images/items_stock/185226/3138288/3138356/front.jpg
p617
asg22
V#57
p618
sg24
V1997-98
p619
sg26
g27
sg28
(lp620
VGreg Ostertag
p621
assbag1
(g2
g3
Ntp622
Rp623
(dp624
g7
(dp625
g9
V1997-98 Stadium Club One Of A Kind #68 John Stockton
p626
sg11
I150
sg12
VStadium Club One Of A Kind
p627
sg14
(lp628
Vhttp://www.beckett.com/basketball/1997-98/stadium-club-one-of-a-kind/68-john-stockton-3138367
p629
asg17
g18
sg19
(lp630
Vhttp://img.beckett.com/images/no-image.jpg
p631
asg22
V#68
p632
sg24
V1997-98
p633
sg26
g27
sg28
(lp634
VJohn Stockton
p635
assbag1
(g2
g3
Ntp636
Rp637
(dp638
g7
(dp639
g9
V1997-98 Stadium Club One Of A Kind #115 Karl Malone
p640
sg11
I150
sg12
VStadium Club One Of A Kind
p641
sg14
(lp642
Vhttp://www.beckett.com/basketball/1997-98/stadium-club-one-of-a-kind/115-karl-malone-3138414
p643
asg17
g18
sg19
(lp644
Vhttp://img.beckett.com/images/items_stock/185226/3138288/3138414/front.jpg
p645
asg22
V#115
p646
sg24
V1997-98
p647
sg26
g27
sg28
(lp648
VKarl Malone
p649
assbag1
(g2
g3
Ntp650
Rp651
(dp652
g7
(dp653
g9
V1997-98 Stadium Club One Of A Kind #156 Greg Foster
p654
sg11
I150
sg12
VStadium Club One Of A Kind
p655
sg14
(lp656
Vhttp://www.beckett.com/basketball/1997-98/stadium-club-one-of-a-kind/156-greg-foster-3138455
p657
asg17
g18
sg19
(lp658
Vhttp://img.beckett.com/images/items_stock/185226/3138288/3138455/front.jpg
p659
asg22
V#156
p660
sg24
V1997-98
p661
sg26
g27
sg28
(lp662
VGreg Foster
p663
assbag1
(g2
g3
Ntp664
Rp665
(dp666
g7
(dp667
g9
V1997-98 Stadium Club One Of A Kind #168 Shandon Anderson
p668
sg11
I150
sg12
VStadium Club One Of A Kind
p669
sg14
(lp670
Vhttp://www.beckett.com/basketball/1997-98/stadium-club-one-of-a-kind/168-shandon-anderson-3138467
p671
asg17
g18
sg19
(lp672
Vhttp://img.beckett.com/images/items_stock/185226/3138288/3138467/front.jpg
p673
asg22
V#168
p674
sg24
V1997-98
p675
sg26
g27
sg28
(lp676
VShandon Anderson
p677
assbag1
(g2
g3
Ntp678
Rp679
(dp680
g7
(dp681
g9
V1997-98 Stadium Club One Of A Kind #179 Shandon Anderson
p682
sg11
I150
sg12
VStadium Club One Of A Kind
p683
sg14
(lp684
Vhttp://www.beckett.com/basketball/1997-98/stadium-club-one-of-a-kind/179-shandon-anderson-3138478
p685
asg17
g18
sg19
(lp686
Vhttp://img.beckett.com/images/no-image.jpg
p687
asg22
V#179
p688
sg24
V1997-98
p689
sg26
g27
sg28
(lp690
VShandon Anderson
p691
assbag1
(g2
g3
Ntp692
Rp693
(dp694
g7
(dp695
g9
V1997-98 Stadium Club One Of A Kind #193 Jeff Hornacek
p696
sg11
I150
sg12
VStadium Club One Of A Kind
p697
sg14
(lp698
Vhttp://www.beckett.com/basketball/1997-98/stadium-club-one-of-a-kind/193-jeff-hornacek-3138492
p699
asg17
g18
sg19
(lp700
Vhttp://img.beckett.com/images/no-image.jpg
p701
asg22
V#193
p702
sg24
V1997-98
p703
sg26
g27
sg28
(lp704
VJeff Hornacek
p705
assbag1
(g2
g3
Ntp706
Rp707
(dp708
g7
(dp709
g9
V1997-98 Stadium Club Printing Plates #2 Bryon Russell Black
p710
sg11
I1
sg12
VStadium Club Printing Plates
p711
sg14
(lp712
Vhttp://www.beckett.com/basketball/1997-98/stadium-club-printing-plates/2-bryon-russell-black-3138549
p713
asg17
g18
sg19
(lp714
Vhttp://img.beckett.com/images/no-image.jpg
p715
asg22
V#2
p716
sg24
V1997-98
p717
sg26
g27
sg28
(lp718
VBryon Russell
p719
assbag1
(g2
g3
Ntp720
Rp721
(dp722
g7
(dp723
g9
V1997-98 Stadium Club Printing Plates #2A Bryon Russell Cyan
p724
sg11
I1
sg12
VStadium Club Printing Plates
p725
sg14
(lp726
Vhttp://www.beckett.com/basketball/1997-98/stadium-club-printing-plates/2a-bryon-russell-cyan-3138550
p727
asg17
g18
sg19
(lp728
Vhttp://img.beckett.com/images/no-image.jpg
p729
asg22
V#2A
p730
sg24
V1997-98
p731
sg26
g27
sg28
(lp732
g719
assbag1
(g2
g3
Ntp733
Rp734
(dp735
g7
(dp736
g9
V1997-98 Stadium Club Printing Plates #2B Bryon Russell Magenta
p737
sg11
I1
sg12
VStadium Club Printing Plates
p738
sg14
(lp739
Vhttp://www.beckett.com/basketball/1997-98/stadium-club-printing-plates/2b-bryon-russell-magenta-3138551
p740
asg17
g18
sg19
(lp741
Vhttp://img.beckett.com/images/no-image.jpg
p742
asg22
V#2B
p743
sg24
V1997-98
p744
sg26
g27
sg28
(lp745
g719
assbag1
(g2
g3
Ntp746
Rp747
(dp748
g7
(dp749
g9
V1997-98 Stadium Club Printing Plates #2C Bryon Russell Yellow
p750
sg11
I1
sg12
VStadium Club Printing Plates
p751
sg14
(lp752
Vhttp://www.beckett.com/basketball/1997-98/stadium-club-printing-plates/2c-bryon-russell-yellow-3138552
p753
asg17
g18
sg19
(lp754
Vhttp://img.beckett.com/images/no-image.jpg
p755
asg22
V#2C
p756
sg24
V1997-98
p757
sg26
g27
sg28
(lp758
g719
assbag1
(g2
g3
Ntp759
Rp760
(dp761
g7
(dp762
g9
V1997-98 Stadium Club Printing Plates #57 Greg Ostertag Black
p763
sg11
I1
sg12
VStadium Club Printing Plates
p764
sg14
(lp765
Vhttp://www.beckett.com/basketball/1997-98/stadium-club-printing-plates/57-greg-ostertag-black-3138769
p766
asg17
g18
sg19
(lp767
Vhttp://img.beckett.com/images/no-image.jpg
p768
asg22
V#57
p769
sg24
V1997-98
p770
sg26
g27
sg28
(lp771
VGreg Ostertag
p772
assbag1
(g2
g3
Ntp773
Rp774
(dp775
g7
(dp776
g9
V1997-98 Stadium Club Printing Plates #57A Greg Ostertag Cyan
p777
sg11
I1
sg12
VStadium Club Printing Plates
p778
sg14
(lp779
Vhttp://www.beckett.com/basketball/1997-98/stadium-club-printing-plates/57a-greg-ostertag-cyan-3138770
p780
asg17
g18
sg19
(lp781
Vhttp://img.beckett.com/images/no-image.jpg
p782
asg22
V#57A
p783
sg24
V1997-98
p784
sg26
g27
sg28
(lp785
g772
assbag1
(g2
g3
Ntp786
Rp787
(dp788
g7
(dp789
g9
V1997-98 Stadium Club Printing Plates #57B Greg Ostertag Magenta
p790
sg11
I1
sg12
VStadium Club Printing Plates
p791
sg14
(lp792
Vhttp://www.beckett.com/basketball/1997-98/stadium-club-printing-plates/57b-greg-ostertag-magenta-3138771
p793
asg17
g18
sg19
(lp794
Vhttp://img.beckett.com/images/no-image.jpg
p795
asg22
V#57B
p796
sg24
V1997-98
p797
sg26
g27
sg28
(lp798
g772
assbag1
(g2
g3
Ntp799
Rp800
(dp801
g7
(dp802
g9
V1997-98 Stadium Club Printing Plates #57C Greg Ostertag Yellow
p803
sg11
I1
sg12
VStadium Club Printing Plates
p804
sg14
(lp805
Vhttp://www.beckett.com/basketball/1997-98/stadium-club-printing-plates/57c-greg-ostertag-yellow-3138772
p806
asg17
g18
sg19
(lp807
Vhttp://img.beckett.com/images/no-image.jpg
p808
asg22
V#57C
p809
sg24
V1997-98
p810
sg26
g27
sg28
(lp811
g772
assbag1
(g2
g3
Ntp812
Rp813
(dp814
g7
(dp815
g9
V1997-98 Stadium Club Printing Plates #68 John Stockton Black
p816
sg11
I1
sg12
VStadium Club Printing Plates
p817
sg14
(lp818
Vhttp://www.beckett.com/basketball/1997-98/stadium-club-printing-plates/68-john-stockton-black-3138813
p819
asg17
g18
sg19
(lp820
Vhttp://img.beckett.com/images/no-image.jpg
p821
asg22
V#68
p822
sg24
V1997-98
p823
sg26
g27
sg28
(lp824
VJohn Stockton
p825
assbag1
(g2
g3
Ntp826
Rp827
(dp828
g7
(dp829
g9
V1997-98 Stadium Club Printing Plates #68A John Stockton Cyan
p830
sg11
I1
sg12
VStadium Club Printing Plates
p831
sg14
(lp832
Vhttp://www.beckett.com/basketball/1997-98/stadium-club-printing-plates/68a-john-stockton-cyan-3138814
p833
asg17
g18
sg19
(lp834
Vhttp://img.beckett.com/images/no-image.jpg
p835
asg22
V#68A
p836
sg24
V1997-98
p837
sg26
g27
sg28
(lp838
g825
assbag1
(g2
g3
Ntp839
Rp840
(dp841
g7
(dp842
g9
V1997-98 Stadium Club Printing Plates #68B John Stockton Magenta
p843
sg11
I1
sg12
VStadium Club Printing Plates
p844
sg14
(lp845
Vhttp://www.beckett.com/basketball/1997-98/stadium-club-printing-plates/68b-john-stockton-magenta-3138815
p846
asg17
g18
sg19
(lp847
Vhttp://img.beckett.com/images/no-image.jpg
p848
asg22
V#68B
p849
sg24
V1997-98
p850
sg26
g27
sg28
(lp851
g825
assbag1
(g2
g3
Ntp852
Rp853
(dp854
g7
(dp855
g9
V1997-98 Stadium Club Printing Plates #68C John Stockton Yellow
p856
sg11
I1
sg12
VStadium Club Printing Plates
p857
sg14
(lp858
Vhttp://www.beckett.com/basketball/1997-98/stadium-club-printing-plates/68c-john-stockton-yellow-3138816
p859
asg17
g18
sg19
(lp860
Vhttp://img.beckett.com/images/no-image.jpg
p861
asg22
V#68C
p862
sg24
V1997-98
p863
sg26
g27
sg28
(lp864
g825
assbag1
(g2
g3
Ntp865
Rp866
(dp867
g7
(dp868
g9
V1997-98 Stadium Club Printing Plates #115 Karl Malone Black
p869
sg11
I1
sg12
VStadium Club Printing Plates
p870
sg14
(lp871
Vhttp://www.beckett.com/basketball/1997-98/stadium-club-printing-plates/115-karl-malone-black-3139001
p872
asg17
g18
sg19
(lp873
Vhttp://img.beckett.com/images/no-image.jpg
p874
asg22
V#115
p875
sg24
V1997-98
p876
sg26
g27
sg28
(lp877
VKarl Malone
p878
assbag1
(g2
g3
Ntp879
Rp880
(dp881
g7
(dp882
g9
V1997-98 Stadium Club Printing Plates #115A Karl Malone Cyan
p883
sg11
I1
sg12
VStadium Club Printing Plates
p884
sg14
(lp885
Vhttp://www.beckett.com/basketball/1997-98/stadium-club-printing-plates/115a-karl-malone-cyan-3139002
p886
asg17
g18
sg19
(lp887
Vhttp://img.beckett.com/images/no-image.jpg
p888
asg22
V#115A
p889
sg24
V1997-98
p890
sg26
g27
sg28
(lp891
g878
assbag1
(g2
g3
Ntp892
Rp893
(dp894
g7
(dp895
g9
V1997-98 Stadium Club Printing Plates #115B Karl Malone Magenta
p896
sg11
I1
sg12
VStadium Club Printing Plates
p897
sg14
(lp898
Vhttp://www.beckett.com/basketball/1997-98/stadium-club-printing-plates/115b-karl-malone-magenta-3139003
p899
asg17
g18
sg19
(lp900
Vhttp://img.beckett.com/images/no-image.jpg
p901
asg22
V#115B
p902
sg24
V1997-98
p903
sg26
g27
sg28
(lp904
g878
assbag1
(g2
g3
Ntp905
Rp906
(dp907
g7
(dp908
g9
V1997-98 Stadium Club Printing Plates #115C Karl Malone Yellow
p909
sg11
I1
sg12
VStadium Club Printing Plates
p910
sg14
(lp911
Vhttp://www.beckett.com/basketball/1997-98/stadium-club-printing-plates/115c-karl-malone-yellow-3139004
p912
asg17
g18
sg19
(lp913
Vhttp://img.beckett.com/images/no-image.jpg
p914
asg22
V#115C
p915
sg24
V1997-98
p916
sg26
g27
sg28
(lp917
g878
assbag1
(g2
g3
Ntp918
Rp919
(dp920
g7
(dp921
g9
V1997-98 Stadium Club Printing Plates #156 Greg Foster Black
p922
sg11
I1
sg12
VStadium Club Printing Plates
p923
sg14
(lp924
Vhttp://www.beckett.com/basketball/1997-98/stadium-club-printing-plates/156-greg-foster-black-3139165
p925
asg17
g18
sg19
(lp926
Vhttp://img.beckett.com/images/no-image.jpg
p927
asg22
V#156
p928
sg24
V1997-98
p929
sg26
g27
sg28
(lp930
VGreg Foster
p931
assbag1
(g2
g3
Ntp932
Rp933
(dp934
g7
(dp935
g9
V1997-98 Stadium Club Printing Plates #156A Greg Foster Cyan
p936
sg11
I1
sg12
VStadium Club Printing Plates
p937
sg14
(lp938
Vhttp://www.beckett.com/basketball/1997-98/stadium-club-printing-plates/156a-greg-foster-cyan-3139166
p939
asg17
g18
sg19
(lp940
Vhttp://img.beckett.com/images/no-image.jpg
p941
asg22
V#156A
p942
sg24
V1997-98
p943
sg26
g27
sg28
(lp944
g931
assbag1
(g2
g3
Ntp945
Rp946
(dp947
g7
(dp948
g9
V1997-98 Stadium Club Printing Plates #156B Greg Foster Magenta
p949
sg11
I1
sg12
VStadium Club Printing Plates
p950
sg14
(lp951
Vhttp://www.beckett.com/basketball/1997-98/stadium-club-printing-plates/156b-greg-foster-magenta-3139167
p952
asg17
g18
sg19
(lp953
Vhttp://img.beckett.com/images/no-image.jpg
p954
asg22
V#156B
p955
sg24
V1997-98
p956
sg26
g27
sg28
(lp957
g931
assbag1
(g2
g3
Ntp958
Rp959
(dp960
g7
(dp961
g9
V1997-98 Stadium Club Printing Plates #156C Greg Foster Yellow
p962
sg11
I1
sg12
VStadium Club Printing Plates
p963
sg14
(lp964
Vhttp://www.beckett.com/basketball/1997-98/stadium-club-printing-plates/156c-greg-foster-yellow-3139168
p965
asg17
g18
sg19
(lp966
Vhttp://img.beckett.com/images/no-image.jpg
p967
asg22
V#156C
p968
sg24
V1997-98
p969
sg26
g27
sg28
(lp970
g931
assbag1
(g2
g3
Ntp971
Rp972
(dp973
g7
(dp974
g9
V1997-98 Stadium Club Printing Plates #168 Shandon Anderson Black
p975
sg11
I1
sg12
VStadium Club Printing Plates
p976
sg14
(lp977
Vhttp://www.beckett.com/basketball/1997-98/stadium-club-printing-plates/168-shandon-anderson-black-3139213
p978
asg17
g18
sg19
(lp979
Vhttp://img.beckett.com/images/no-image.jpg
p980
asg22
V#168
p981
sg24
V1997-98
p982
sg26
g27
sg28
(lp983
VShandon Anderson
p984
assbag1
(g2
g3
Ntp985
Rp986
(dp987
g7
(dp988
g9
V1997-98 Stadium Club Printing Plates #168A Shandon Anderson Cyan
p989
sg11
I1
sg12
VStadium Club Printing Plates
p990
sg14
(lp991
Vhttp://www.beckett.com/basketball/1997-98/stadium-club-printing-plates/168a-shandon-anderson-cyan-3139214
p992
asg17
g18
sg19
(lp993
Vhttp://img.beckett.com/images/no-image.jpg
p994
asg22
V#168A
p995
sg24
V1997-98
p996
sg26
g27
sg28
(lp997
g984
assbag1
(g2
g3
Ntp998
Rp999
(dp1000
g7
(dp1001
g9
V1997-98 Stadium Club Printing Plates #168B Shandon Anderson Magenta
p1002
sg11
I1
sg12
VStadium Club Printing Plates
p1003
sg14
(lp1004
Vhttp://www.beckett.com/basketball/1997-98/stadium-club-printing-plates/168b-shandon-anderson-magenta-3139215
p1005
asg17
g18
sg19
(lp1006
Vhttp://img.beckett.com/images/no-image.jpg
p1007
asg22
V#168B
p1008
sg24
V1997-98
p1009
sg26
g27
sg28
(lp1010
g984
assbag1
(g2
g3
Ntp1011
Rp1012
(dp1013
g7
(dp1014
g9
V1997-98 Stadium Club Printing Plates #168C Shandon Anderson Yellow
p1015
sg11
I1
sg12
VStadium Club Printing Plates
p1016
sg14
(lp1017
Vhttp://www.beckett.com/basketball/1997-98/stadium-club-printing-plates/168c-shandon-anderson-yellow-3139216
p1018
asg17
g18
sg19
(lp1019
Vhttp://img.beckett.com/images/no-image.jpg
p1020
asg22
V#168C
p1021
sg24
V1997-98
p1022
sg26
g27
sg28
(lp1023
g984
assbag1
(g2
g3
Ntp1024
Rp1025
(dp1026
g7
(dp1027
g9
V1997-98 Stadium Club Printing Plates #179 Shandon Anderson Black
p1028
sg11
I1
sg12
VStadium Club Printing Plates
p1029
sg14
(lp1030
Vhttp://www.beckett.com/basketball/1997-98/stadium-club-printing-plates/179-shandon-anderson-black-3139257
p1031
asg17
g18
sg19
(lp1032
Vhttp://img.beckett.com/images/no-image.jpg
p1033
asg22
V#179
p1034
sg24
V1997-98
p1035
sg26
g27
sg28
(lp1036
g984
assbag1
(g2
g3
Ntp1037
Rp1038
(dp1039
g7
(dp1040
g9
V1997-98 Stadium Club Printing Plates #179A Shandon Anderson Cyan
p1041
sg11
I1
sg12
VStadium Club Printing Plates
p1042
sg14
(lp1043
Vhttp://www.beckett.com/basketball/1997-98/stadium-club-printing-plates/179a-shandon-anderson-cyan-3139258
p1044
asg17
g18
sg19
(lp1045
Vhttp://img.beckett.com/images/no-image.jpg
p1046
asg22
V#179A
p1047
sg24
V1997-98
p1048
sg26
g27
sg28
(lp1049
g984
assbag1
(g2
g3
Ntp1050
Rp1051
(dp1052
g7
(dp1053
g9
V1997-98 Stadium Club Printing Plates #179B Shandon Anderson Magenta
p1054
sg11
I1
sg12
VStadium Club Printing Plates
p1055
sg14
(lp1056
Vhttp://www.beckett.com/basketball/1997-98/stadium-club-printing-plates/179b-shandon-anderson-magenta-3139259
p1057
asg17
g18
sg19
(lp1058
Vhttp://img.beckett.com/images/no-image.jpg
p1059
asg22
V#179B
p1060
sg24
V1997-98
p1061
sg26
g27
sg28
(lp1062
g984
assbag1
(g2
g3
Ntp1063
Rp1064
(dp1065
g7
(dp1066
g9
V1997-98 Stadium Club Printing Plates #179C Shandon Anderson Yellow
p1067
sg11
I1
sg12
VStadium Club Printing Plates
p1068
sg14
(lp1069
Vhttp://www.beckett.com/basketball/1997-98/stadium-club-printing-plates/179c-shandon-anderson-yellow-3139260
p1070
asg17
g18
sg19
(lp1071
Vhttp://img.beckett.com/images/no-image.jpg
p1072
asg22
V#179C
p1073
sg24
V1997-98
p1074
sg26
g27
sg28
(lp1075
g984
assbag1
(g2
g3
Ntp1076
Rp1077
(dp1078
g7
(dp1079
g9
V1997-98 Stadium Club Printing Plates #193 Jeff Hornacek Black
p1080
sg11
I1
sg12
VStadium Club Printing Plates
p1081
sg14
(lp1082
Vhttp://www.beckett.com/basketball/1997-98/stadium-club-printing-plates/193-jeff-hornacek-black-3139313
p1083
asg17
g18
sg19
(lp1084
Vhttp://img.beckett.com/images/no-image.jpg
p1085
asg22
V#193
p1086
sg24
V1997-98
p1087
sg26
g27
sg28
(lp1088
VJeff Hornacek
p1089
assbag1
(g2
g3
Ntp1090
Rp1091
(dp1092
g7
(dp1093
g9
V1997-98 Stadium Club Printing Plates #193A Jeff Hornacek Cyan
p1094
sg11
I1
sg12
VStadium Club Printing Plates
p1095
sg14
(lp1096
Vhttp://www.beckett.com/basketball/1997-98/stadium-club-printing-plates/193a-jeff-hornacek-cyan-3139314
p1097
asg17
g18
sg19
(lp1098
Vhttp://img.beckett.com/images/no-image.jpg
p1099
asg22
V#193A
p1100
sg24
V1997-98
p1101
sg26
g27
sg28
(lp1102
g1089
assbag1
(g2
g3
Ntp1103
Rp1104
(dp1105
g7
(dp1106
g9
V1997-98 Stadium Club Printing Plates #193B Jeff Hornacek Magenta
p1107
sg11
I1
sg12
VStadium Club Printing Plates
p1108
sg14
(lp1109
Vhttp://www.beckett.com/basketball/1997-98/stadium-club-printing-plates/193b-jeff-hornacek-magenta-3139315
p1110
asg17
g18
sg19
(lp1111
Vhttp://img.beckett.com/images/no-image.jpg
p1112
asg22
V#193B
p1113
sg24
V1997-98
p1114
sg26
g27
sg28
(lp1115
g1089
assbag1
(g2
g3
Ntp1116
Rp1117
(dp1118
g7
(dp1119
g9
V1997-98 Stadium Club Printing Plates #193C Jeff Hornacek Yellow
p1120
sg11
I1
sg12
VStadium Club Printing Plates
p1121
sg14
(lp1122
Vhttp://www.beckett.com/basketball/1997-98/stadium-club-printing-plates/193c-jeff-hornacek-yellow-3139316
p1123
asg17
g18
sg19
(lp1124
Vhttp://img.beckett.com/images/no-image.jpg
p1125
asg22
V#193C
p1126
sg24
V1997-98
p1127
sg26
g27
sg28
(lp1128
g1089
assbag1
(g2
g3
Ntp1129
Rp1130
(dp1131
g7
(dp1132
g9
V1997-98 Ultra Masterpieces #12 Karl Malone
p1133
sg11
I1
sg12
VUltra Masterpieces
p1134
sg14
(lp1135
Vhttp://www.beckett.com/basketball/1997-98/ultra-masterpieces/12-karl-malone-3135742
p1136
asg17
g18
sg19
(lp1137
Vhttp://img.beckett.com/images/no-image.jpg
p1138
asg22
V#12
p1139
sg24
V1997-98
p1140
sg26
g27
sg28
(lp1141
VKarl Malone
p1142
assbag1
(g2
g3
Ntp1143
Rp1144
(dp1145
g7
(dp1146
g9
V1997-98 Ultra Masterpieces #25 Bryon Russell
p1147
sg11
I1
sg12
VUltra Masterpieces
p1148
sg14
(lp1149
Vhttp://www.beckett.com/basketball/1997-98/ultra-masterpieces/25-bryon-russell-3135755
p1150
asg17
g18
sg19
(lp1151
Vhttp://img.beckett.com/images/no-image.jpg
p1152
asg22
V#25
p1153
sg24
V1997-98
p1154
sg26
g27
sg28
(lp1155
VBryon Russell
p1156
assbag1
(g2
g3
Ntp1157
Rp1158
(dp1159
g7
(dp1160
g9
V1997-98 Ultra Masterpieces #30 John Stockton
p1161
sg11
I1
sg12
VUltra Masterpieces
p1162
sg14
(lp1163
Vhttp://www.beckett.com/basketball/1997-98/ultra-masterpieces/30-john-stockton-3135760
p1164
asg17
g18
sg19
(lp1165
Vhttp://img.beckett.com/images/no-image.jpg
p1166
asg22
V#30
p1167
sg24
V1997-98
p1168
sg26
g27
sg28
(lp1169
VJohn Stockton
p1170
assbag1
(g2
g3
Ntp1171
Rp1172
(dp1173
g7
(dp1174
g9
V1997-98 Ultra Masterpieces #89 Jeff Hornacek
p1175
sg11
I1
sg12
VUltra Masterpieces
p1176
sg14
(lp1177
Vhttp://www.beckett.com/basketball/1997-98/ultra-masterpieces/89-jeff-hornacek-3135819
p1178
asg17
g18
sg19
(lp1179
Vhttp://img.beckett.com/images/no-image.jpg
p1180
asg22
V#89
p1181
sg24
V1997-98
p1182
sg26
g27
sg28
(lp1183
VJeff Hornacek
p1184
assbag1
(g2
g3
Ntp1185
Rp1186
(dp1187
g7
(dp1188
g9
V1997-98 Ultra Masterpieces #148 Jacque Vaughn
p1189
sg11
I1
sg12
VUltra Masterpieces
p1190
sg14
(lp1191
Vhttp://www.beckett.com/basketball/1997-98/ultra-masterpieces/148-jacque-vaughn-3135878
p1192
asg17
g18
sg19
(lp1193
Vhttp://img.beckett.com/images/no-image.jpg
p1194
asg22
V#148
p1195
sg24
V1997-98
p1196
sg26
g27
sg28
(lp1197
VJacque Vaughn
p1198
assbag1
(g2
g3
Ntp1199
Rp1200
(dp1201
g7
(dp1202
g9
V1997-98 Ultra Masterpieces #186 Adam Keefe
p1203
sg11
I1
sg12
VUltra Masterpieces
p1204
sg14
(lp1205
Vhttp://www.beckett.com/basketball/1997-98/ultra-masterpieces/186-adam-keefe-3135914
p1206
asg17
g18
sg19
(lp1207
Vhttp://img.beckett.com/images/no-image.jpg
p1208
asg22
V#186
p1209
sg24
V1997-98
p1210
sg26
g27
sg28
(lp1211
VAdam Keefe
p1212
assbag1
(g2
g3
Ntp1213
Rp1214
(dp1215
g7
(dp1216
g9
V1997-98 Ultra Masterpieces #195 Chris Morris
p1217
sg11
I1
sg12
VUltra Masterpieces
p1218
sg14
(lp1219
Vhttp://www.beckett.com/basketball/1997-98/ultra-masterpieces/195-chris-morris-3135923
p1220
asg17
g18
sg19
(lp1221
Vhttp://img.beckett.com/images/no-image.jpg
p1222
asg22
V#195
p1223
sg24
V1997-98
p1224
sg26
g27
sg28
(lp1225
VChris Morris
p1226
assbag1
(g2
g3
Ntp1227
Rp1228
(dp1229
g7
(dp1230
g9
V1997-98 Ultra Masterpieces #204 Jacque Vaughn
p1231
sg11
I1
sg12
VUltra Masterpieces
p1232
sg14
(lp1233
Vhttp://www.beckett.com/basketball/1997-98/ultra-masterpieces/204-jacque-vaughn-3135932
p1234
asg17
g18
sg19
(lp1235
Vhttp://img.beckett.com/images/no-image.jpg
p1236
asg22
V#204
p1237
sg24
V1997-98
p1238
sg26
g27
sg28
(lp1239
VJacque Vaughn
p1240
assbag1
(g2
g3
Ntp1241
Rp1242
(dp1243
g7
(dp1244
g9
V1997-98 Ultra Masterpieces #262 Karl Malone GRE
p1245
sg11
I1
sg12
VUltra Masterpieces
p1246
sg14
(lp1247
Vhttp://www.beckett.com/basketball/1997-98/ultra-masterpieces/262-karl-malone-gre-3135990
p1248
asg17
g18
sg19
(lp1249
Vhttp://img.beckett.com/images/no-image.jpg
p1250
asg22
V#262
p1251
sg24
V1997-98
p1252
sg505
VGRE
p1253
sg26
g27
sg28
(lp1254
VKarl Malone
p1255
assbag1
(g2
g3
Ntp1256
Rp1257
(dp1258
g7
(dp1259
g9
V1997-98 Ultra Platinum Medallion #12 Karl Malone
p1260
sg11
I100
sg12
VUltra Platinum Medallion
p1261
sg14
(lp1262
Vhttp://www.beckett.com/basketball/1997-98/ultra-platinum-medallion/12-karl-malone-3136026
p1263
asg17
g18
sg19
(lp1264
Vhttp://img.beckett.com/images/no-image.jpg
p1265
asg22
V#12
p1266
sg24
V1997-98
p1267
sg26
g27
sg28
(lp1268
VKarl Malone
p1269
assbag1
(g2
g3
Ntp1270
Rp1271
(dp1272
g7
(dp1273
g9
V1997-98 Ultra Platinum Medallion #25 Bryon Russell
p1274
sg11
I100
sg12
VUltra Platinum Medallion
p1275
sg14
(lp1276
Vhttp://www.beckett.com/basketball/1997-98/ultra-platinum-medallion/25-bryon-russell-3136039
p1277
asg17
g18
sg19
(lp1278
Vhttp://img.beckett.com/images/no-image.jpg
p1279
asg22
V#25
p1280
sg24
V1997-98
p1281
sg26
g27
sg28
(lp1282
VBryon Russell
p1283
assbag1
(g2
g3
Ntp1284
Rp1285
(dp1286
g7
(dp1287
g9
V1997-98 Ultra Platinum Medallion #30 John Stockton
p1288
sg11
I100
sg12
VUltra Platinum Medallion
p1289
sg14
(lp1290
Vhttp://www.beckett.com/basketball/1997-98/ultra-platinum-medallion/30-john-stockton-3136044
p1291
asg17
g18
sg19
(lp1292
Vhttp://img.beckett.com/images/no-image.jpg
p1293
asg22
V#30
p1294
sg24
V1997-98
p1295
sg26
g27
sg28
(lp1296
VJohn Stockton
p1297
assbag1
(g2
g3
Ntp1298
Rp1299
(dp1300
g7
(dp1301
g9
V1997-98 Ultra Platinum Medallion #89 Jeff Hornacek
p1302
sg11
I100
sg12
VUltra Platinum Medallion
p1303
sg14
(lp1304
Vhttp://www.beckett.com/basketball/1997-98/ultra-platinum-medallion/89-jeff-hornacek-3136103
p1305
asg17
g18
sg19
(lp1306
Vhttp://img.beckett.com/images/no-image.jpg
p1307
asg22
V#89
p1308
sg24
V1997-98
p1309
sg26
g27
sg28
(lp1310
VJeff Hornacek
p1311
assbag1
(g2
g3
Ntp1312
Rp1313
(dp1314
g7
(dp1315
g9
V1997-98 Ultra Platinum Medallion #148 Jacque Vaughn
p1316
sg11
I100
sg12
VUltra Platinum Medallion
p1317
sg14
(lp1318
Vhttp://www.beckett.com/basketball/1997-98/ultra-platinum-medallion/148-jacque-vaughn-3136162
p1319
asg17
g18
sg19
(lp1320
Vhttp://img.beckett.com/images/no-image.jpg
p1321
asg22
V#148
p1322
sg24
V1997-98
p1323
sg26
g27
sg28
(lp1324
VJacque Vaughn
p1325
assbag1
(g2
g3
Ntp1326
Rp1327
(dp1328
g7
(dp1329
g9
V1997-98 Ultra Platinum Medallion #186 Adam Keefe
p1330
sg11
I100
sg12
VUltra Platinum Medallion
p1331
sg14
(lp1332
Vhttp://www.beckett.com/basketball/1997-98/ultra-platinum-medallion/186-adam-keefe-3136198
p1333
asg17
g18
sg19
(lp1334
Vhttp://img.beckett.com/images/no-image.jpg
p1335
asg22
V#186
p1336
sg24
V1997-98
p1337
sg26
g27
sg28
(lp1338
VAdam Keefe
p1339
assbag1
(g2
g3
Ntp1340
Rp1341
(dp1342
g7
(dp1343
g9
V1997-98 Ultra Platinum Medallion #195 Chris Morris
p1344
sg11
I100
sg12
VUltra Platinum Medallion
p1345
sg14
(lp1346
Vhttp://www.beckett.com/basketball/1997-98/ultra-platinum-medallion/195-chris-morris-3136207
p1347
asg17
g18
sg19
(lp1348
Vhttp://img.beckett.com/images/no-image.jpg
p1349
asg22
V#195
p1350
sg24
V1997-98
p1351
sg26
g27
sg28
(lp1352
VChris Morris
p1353
assbag1
(g2
g3
Ntp1354
Rp1355
(dp1356
g7
(dp1357
g9
V1997-98 Ultra Platinum Medallion #204 Jacque Vaughn
p1358
sg11
I100
sg12
VUltra Platinum Medallion
p1359
sg14
(lp1360
Vhttp://www.beckett.com/basketball/1997-98/ultra-platinum-medallion/204-jacque-vaughn-3136216
p1361
asg17
g18
sg19
(lp1362
Vhttp://img.beckett.com/images/no-image.jpg
p1363
asg22
V#204
p1364
sg24
V1997-98
p1365
sg26
g27
sg28
(lp1366
VJacque Vaughn
p1367
assbag1
(g2
g3
Ntp1368
Rp1369
(dp1370
g7
(dp1371
g9
V1997-98 Ultra Platinum Medallion #262 Karl Malone GRE
p1372
sg11
I100
sg12
VUltra Platinum Medallion
p1373
sg14
(lp1374
Vhttp://www.beckett.com/basketball/1997-98/ultra-platinum-medallion/262-karl-malone-gre-3136274
p1375
asg17
g18
sg19
(lp1376
Vhttp://img.beckett.com/images/no-image.jpg
p1377
asg22
V#262
p1378
sg24
V1997-98
p1379
sg505
VGRE
p1380
sg26
g27
sg28
(lp1381
VKarl Malone
p1382
assbag1
(g2
g3
Ntp1383
Rp1384
(dp1385
g7
(dp1386
g9
V1997-98 Z-Force Rave #12 John Stockton
p1387
sg11
I399
sg12
VZ-Force Rave
p1388
sg14
(lp1389
Vhttp://www.beckett.com/basketball/1997-98/z-force-rave/12-john-stockton-3133036
p1390
asg17
g18
sg19
(lp1391
Vhttp://img.beckett.com/images/no-image.jpg
p1392
asg22
V#12
p1393
sg24
V1997-98
p1394
sg26
g27
sg28
(lp1395
VJohn Stockton
p1396
assbag1
(g2
g3
Ntp1397
Rp1398
(dp1399
g7
(dp1400
g9
V1997-98 Z-Force Rave #32 Karl Malone
p1401
sg11
I399
sg12
VZ-Force Rave
p1402
sg14
(lp1403
Vhttp://www.beckett.com/basketball/1997-98/z-force-rave/32-karl-malone-3133056
p1404
asg17
g18
sg19
(lp1405
Vhttp://img.beckett.com/images/no-image.jpg
p1406
asg22
V#32
p1407
sg24
V1997-98
p1408
sg26
g27
sg28
(lp1409
VKarl Malone
p1410
assbag1
(g2
g3
Ntp1411
Rp1412
(dp1413
g7
(dp1414
g9
V1997-98 Z-Force Rave #61 Jeff Hornacek
p1415
sg11
I399
sg12
VZ-Force Rave
p1416
sg14
(lp1417
Vhttp://www.beckett.com/basketball/1997-98/z-force-rave/61-jeff-hornacek-3133085
p1418
asg17
g18
sg19
(lp1419
Vhttp://img.beckett.com/images/items_stock/185226/3133012/3133085/front.jpg
p1420
asg22
V#61
p1421
sg24
V1997-98
p1422
sg26
g27
sg28
(lp1423
VJeff Hornacek
p1424
assbag1
(g2
g3
Ntp1425
Rp1426
(dp1427
g7
(dp1428
g9
V1997-98 Z-Force Rave #82 Bryon Russell
p1429
sg11
I399
sg12
VZ-Force Rave
p1430
sg14
(lp1431
Vhttp://www.beckett.com/basketball/1997-98/z-force-rave/82-bryon-russell-3133106
p1432
asg17
g18
sg19
(lp1433
Vhttp://img.beckett.com/images/items_stock/185226/3133012/3133106/front.jpg
p1434
asg22
V#82
p1435
sg24
V1997-98
p1436
sg26
g27
sg28
(lp1437
VBryon Russell
p1438
assbag1
(g2
g3
Ntp1439
Rp1440
(dp1441
g7
(dp1442
g9
V1997-98 Z-Force Rave #115 Jacque Vaughn
p1443
sg11
I399
sg12
VZ-Force Rave
p1444
sg14
(lp1445
Vhttp://www.beckett.com/basketball/1997-98/z-force-rave/115-jacque-vaughn-3133137
p1446
asg17
g18
sg19
(lp1447
Vhttp://img.beckett.com/images/no-image.jpg
p1448
asg22
V#115
p1449
sg24
V1997-98
p1450
sg26
g27
sg28
(lp1451
VJacque Vaughn
p1452
assbag1
(g2
g3
Ntp1453
Rp1454
(dp1455
g7
(dp1456
g9
V1997-98 Z-Force Rave #188 Greg Ostertag
p1457
sg11
I399
sg12
VZ-Force Rave
p1458
sg14
(lp1459
Vhttp://www.beckett.com/basketball/1997-98/z-force-rave/188-greg-ostertag-3133211
p1460
asg17
g18
sg19
(lp1461
Vhttp://img.beckett.com/images/items_stock/185226/3133012/3133211/front.jpg
p1462
asg22
V#188
p1463
sg24
V1997-98
p1464
sg26
g27
sg28
(lp1465
VGreg Ostertag
p1466
assbag1
(g2
g3
Ntp1467
Rp1468
(dp1469
g7
(dp1470
g9
V1997-98 Z-Force Rave #206 Karl Malone ZUP
p1471
sg11
I399
sg12
VZ-Force Rave
p1472
sg14
(lp1473
Vhttp://www.beckett.com/basketball/1997-98/z-force-rave/206-karl-malone-zup-3133229
p1474
asg17
g18
sg19
(lp1475
Vhttp://img.beckett.com/images/no-image.jpg
p1476
asg22
V#206
p1477
sg24
V1997-98
p1478
sg505
VZUP
p1479
sg26
g27
sg28
(lp1480
VKarl Malone
p1481
assbag1
(g2
g3
Ntp1482
Rp1483
(dp1484
g7
(dp1485
g9
V1997-98 Z-Force Rave #207 John Stockton ZUP
p1486
sg11
I399
sg12
VZ-Force Rave
p1487
sg14
(lp1488
Vhttp://www.beckett.com/basketball/1997-98/z-force-rave/207-john-stockton-zup-3133230
p1489
asg17
g18
sg19
(lp1490
Vhttp://img.beckett.com/images/items_stock/185226/3133012/3133230/front.jpg
p1491
asg22
V#207
p1492
sg24
V1997-98
p1493
sg505
VZUP
p1494
sg26
g27
sg28
(lp1495
VJohn Stockton
p1496
assbag1
(g2
g3
Ntp1497
Rp1498
(dp1499
g7
(dp1500
g9
V1997-98 Z-Force Super Rave #115 Jacque Vaughn
p1501
sg11
I50
sg12
VZ-Force Super Rave
p1502
sg14
(lp1503
Vhttp://www.beckett.com/basketball/1997-98/z-force-super-rave/115-jacque-vaughn-3133249
p1504
asg17
g18
sg19
(lp1505
Vhttp://img.beckett.com/images/no-image.jpg
p1506
asg22
V#115
p1507
sg24
V1997-98
p1508
sg26
g27
sg28
(lp1509
VJacque Vaughn
p1510
assbag1
(g2
g3
Ntp1511
Rp1512
(dp1513
g7
(dp1514
g9
V1997-98 Z-Force Super Rave #188 Greg Ostertag
p1515
sg11
I50
sg12
VZ-Force Super Rave
p1516
sg14
(lp1517
Vhttp://www.beckett.com/basketball/1997-98/z-force-super-rave/188-greg-ostertag-3133323
p1518
asg17
g18
sg19
(lp1519
Vhttp://img.beckett.com/images/no-image.jpg
p1520
asg22
V#188
p1521
sg24
V1997-98
p1522
sg26
g27
sg28
(lp1523
VGreg Ostertag
p1524
assbag1
(g2
g3
Ntp1525
Rp1526
(dp1527
g7
(dp1528
g9
V1997-98 Z-Force Super Rave #206 Karl Malone ZUP
p1529
sg11
I50
sg12
VZ-Force Super Rave
p1530
sg14
(lp1531
Vhttp://www.beckett.com/basketball/1997-98/z-force-super-rave/206-karl-malone-zup-3133341
p1532
asg17
g18
sg19
(lp1533
Vhttp://img.beckett.com/images/no-image.jpg
p1534
asg22
V#206
p1535
sg24
V1997-98
p1536
sg505
VZUP
p1537
sg26
g27
sg28
(lp1538
VKarl Malone
p1539
assbag1
(g2
g3
Ntp1540
Rp1541
(dp1542
g7
(dp1543
g9
V1997-98 Z-Force Super Rave #207 John Stockton ZUP
p1544
sg11
I50
sg12
VZ-Force Super Rave
p1545
sg14
(lp1546
Vhttp://www.beckett.com/basketball/1997-98/z-force-super-rave/207-john-stockton-zup-3133342
p1547
asg17
g18
sg19
(lp1548
Vhttp://img.beckett.com/images/no-image.jpg
p1549
asg22
V#207
p1550
sg24
V1997-98
p1551
sg505
VZUP
p1552
sg26
g27
sg28
(lp1553
VJohn Stockton
p1554
assbag1
(g2
g3
Ntp1555
Rp1556
(dp1557
g7
(dp1558
g9
V1997-98 Upper Deck Great Eight #G6 Karl Malone
p1559
sg11
I800
sg12
VUpper Deck Great Eight
p1560
sg14
(lp1561
Vhttp://www.beckett.com/basketball/1997-98/upper-deck-great-eight/g6-karl-malone-3132412
p1562
asg17
g18
sg19
(lp1563
Vhttp://img.beckett.com/images/no-image.jpg
p1564
asg22
V#G6
p1565
sg24
V1997-98
p1566
sg26
g27
sg28
(lp1567
VKarl Malone
p1568
assbag1
(g2
g3
Ntp1569
Rp1570
(dp1571
g7
(dp1572
g9
V1997-98 Upper Deck Great Eight #G8 John Stockton
p1573
sg11
I800
sg12
VUpper Deck Great Eight
p1574
sg14
(lp1575
Vhttp://www.beckett.com/basketball/1997-98/upper-deck-great-eight/g8-john-stockton-3132414
p1576
asg17
g18
sg19
(lp1577
Vhttp://img.beckett.com/images/no-image.jpg
p1578
asg22
V#G8
p1579
sg24
V1997-98
p1580
sg26
g27
sg28
(lp1581
VJohn Stockton
p1582
assbag1
(g2
g3
Ntp1583
Rp1584
(dp1585
g7
(dp1586
g9
V1997-98 Upper Deck High Dimensions #D25 Karl Malone
p1587
sg11
I2000
sg12
VUpper Deck High Dimensions
p1588
sg14
(lp1589
Vhttp://www.beckett.com/basketball/1997-98/upper-deck-high-dimensions/d25-karl-malone-3132447
p1590
asg17
g18
sg19
(lp1591
Vhttp://img.beckett.com/images/no-image.jpg
p1592
asg22
V#D25
p1593
sg24
V1997-98
p1594
sg26
g27
sg28
(lp1595
VKarl Malone
p1596
assbag1
(g2
g3
Ntp1597
Rp1598
(dp1599
g7
(dp1600
g9
V1997-98 Hoops High Voltage 500 #HV20 Karl Malone
p1601
sg11
I500
sg12
VHoops High Voltage 500
p1602
sg14
(lp1603
Vhttp://www.beckett.com/basketball/1997-98/hoops-high-voltage-500/hv20-karl-malone-3142309
p1604
asg17
g18
sg19
(lp1605
Vhttp://img.beckett.com/images/no-image.jpg
p1606
asg22
V#HV20
p1607
sg24
V1997-98
p1608
sg26
g27
sg28
(lp1609
VKarl Malone
p1610
assbag1
(g2
g3
Ntp1611
Rp1612
(dp1613
g7
(dp1614
g9
V1997-98 Metal Universe Precious Metal Gems Emerald #86 Jeff Hornacek
p1615
sg11
I10
sg12
VMetal Universe Precious Metal Gems Emerald
p1616
sg14
(lp1617
Vhttp://www.beckett.com/basketball/1997-98/metal-universe-precious-metal-gems-emerald/86-jeff-hornacek-7055535
p1618
asg17
g18
sg19
(lp1619
Vhttp://img.beckett.com/images/no-image.jpg
p1620
asg22
V#86
p1621
sg24
V1997-98
p1622
sg26
g27
sg28
(lp1623
VJeff Hornacek
p1624
assbag1
(g2
g3
Ntp1625
Rp1626
(dp1627
g7
(dp1628
g9
V1997-98 Metal Universe Precious Metal Gems Emerald #97 Karl Malone
p1629
sg11
I10
sg12
VMetal Universe Precious Metal Gems Emerald
p1630
sg14
(lp1631
Vhttp://www.beckett.com/basketball/1997-98/metal-universe-precious-metal-gems-emerald/97-karl-malone-7055546
p1632
asg17
g18
sg19
(lp1633
Vhttp://img.beckett.com/images/no-image.jpg
p1634
asg22
V#97
p1635
sg24
V1997-98
p1636
sg26
g27
sg28
(lp1637
VKarl Malone
p1638
assbag1
(g2
g3
Ntp1639
Rp1640
(dp1641
g7
(dp1642
g9
V1997-98 Metal Universe Precious Metal Gems Emerald #99 Bryon Russell
p1643
sg11
I10
sg12
VMetal Universe Precious Metal Gems Emerald
p1644
sg14
(lp1645
Vhttp://www.beckett.com/basketball/1997-98/metal-universe-precious-metal-gems-emerald/99-bryon-russell-7055548
p1646
asg17
g18
sg19
(lp1647
Vhttp://img.beckett.com/images/no-image.jpg
p1648
asg22
V#99
p1649
sg24
V1997-98
p1650
sg26
g27
sg28
(lp1651
VBryon Russell
p1652
assbag1
(g2
g3
Ntp1653
Rp1654
(dp1655
g7
(dp1656
g9
V1997-98 Metal Universe Precious Metal Gems Emerald #119 John Stockton
p1657
sg11
I10
sg12
VMetal Universe Precious Metal Gems Emerald
p1658
sg14
(lp1659
Vhttp://www.beckett.com/basketball/1997-98/metal-universe-precious-metal-gems-emerald/119-john-stockton-7055568
p1660
asg17
g18
sg19
(lp1661
Vhttp://img.beckett.com/images/no-image.jpg
p1662
asg22
V#119
p1663
sg24
V1997-98
p1664
sg26
g27
sg28
(lp1665
VJohn Stockton
p1666
assbag1
(g2
g3
Ntp1667
Rp1668
(dp1669
g7
(dp1670
g9
V1997-98 SP Authentic Profiles 3 #P9 Karl Malone
p1671
sg11
I100
sg12
VSP Authentic Profiles 3
p1672
sg14
(lp1673
Vhttp://www.beckett.com/basketball/1997-98/sp-authentic-profiles-3/p9-karl-malone-3140290
p1674
asg17
g18
sg19
(lp1675
Vhttp://img.beckett.com/images/no-image.jpg
p1676
asg22
V#P9
p1677
sg24
V1997-98
p1678
sg26
g27
sg28
(lp1679
VKarl Malone
p1680
assbag1
(g2
g3
Ntp1681
Rp1682
(dp1683
g7
(dp1684
g9
V1997-98 SP Authentic Profiles 3 #P35 John Stockton
p1685
sg11
I100
sg12
VSP Authentic Profiles 3
p1686
sg14
(lp1687
Vhttp://www.beckett.com/basketball/1997-98/sp-authentic-profiles-3/p35-john-stockton-3140316
p1688
asg17
g18
sg19
(lp1689
Vhttp://img.beckett.com/images/no-image.jpg
p1690
asg22
V#P35
p1691
sg24
V1997-98
p1692
sg26
g27
sg28
(lp1693
VJohn Stockton
p1694
assbag1
(g2
g3
Ntp1695
Rp1696
(dp1697
g7
(dp1698
g9
V1997-98 Upper Deck Diamond Dimensions #D25 Karl Malone
p1699
sg11
I100
sg12
VUpper Deck Diamond Dimensions
p1700
sg14
(lp1701
Vhttp://www.beckett.com/basketball/1997-98/upper-deck-diamond-dimensions/d25-karl-malone-3132485
p1702
asg17
g18
sg19
(lp1703
Vhttp://img.beckett.com/images/no-image.jpg
p1704
asg22
V#D25
p1705
sg24
V1997-98
p1706
sg26
g27
sg28
(lp1707
VKarl Malone
p1708
assba.