(lp0
Naccopy_reg
_reconstructor
p1
(ctutorial.items
BeckettItem
p2
c__builtin__
object
p3
Ntp4
Rp5
(dp6
S'_values'
p7
(dp8
S'originalItemDescription'
p9
V1997 Bleachers/Fleer Gold #8 Karl Malone 1986-87
p10
sS'serialNumber'
p11
I10000
sS'setName'
p12
VBleachers/Fleer Gold
p13
sS'beckettLink'
p14
(lp15
Vhttp://www.beckett.com/basketball/1997/bleachersfleer-gold/8-karl-malone-1986-87-3129464
p16
asS'team'
p17
S'Utah Jazz'
p18
sS'imageLink'
p19
(lp20
Vhttp://img.beckett.com/images/no-image.jpg
p21
asS'cardNumber'
p22
V#8
p23
sS'year'
p24
V1997
p25
sS'sport'
p26
S'Basketball'
p27
sS'playerNames'
p28
(lp29
VKarl Malone
p30
assbag1
(g2
g3
Ntp31
Rp32
(dp33
g7
(dp34
g9
V1997-98 E-X2001 Essential Credentials Future #19 Karl Malone/62
p35
sg11
I62
sg12
VE-X2001 Essential Credentials Future
p36
sg14
(lp37
Vhttp://www.beckett.com/basketball/1997-98/e-x2001-essential-credentials-future/19-karl-malone62-3144605
p38
asg17
g18
sg19
(lp39
Vhttp://img.beckett.com/images/no-image.jpg
p40
asg22
V#19
p41
sg24
V1997-98
p42
sg26
g27
sg28
(lp43
VKarl Malone
p44
assbag1
(g2
g3
Ntp45
Rp46
(dp47
g7
(dp48
g9
V1997-98 E-X2001 Essential Credentials Future #27 John Stockton/54
p49
sg11
I54
sg12
VE-X2001 Essential Credentials Future
p50
sg14
(lp51
Vhttp://www.beckett.com/basketball/1997-98/e-x2001-essential-credentials-future/27-john-stockton54-3144613
p52
asg17
g18
sg19
(lp53
Vhttp://img.beckett.com/images/no-image.jpg
p54
asg22
V#27
p55
sg24
V1997-98
p56
sg26
g27
sg28
(lp57
VJohn Stockton
p58
assbag1
(g2
g3
Ntp59
Rp60
(dp61
g7
(dp62
g9
V1997-98 E-X2001 Essential Credentials Future #65 Jacque Vaughn/16
p63
sg11
I16
sg12
VE-X2001 Essential Credentials Future
p64
sg14
(lp65
Vhttp://www.beckett.com/basketball/1997-98/e-x2001-essential-credentials-future/65-jacque-vaughn16-3144651
p66
asg17
g18
sg19
(lp67
Vhttp://img.beckett.com/images/no-image.jpg
p68
asg22
V#65
p69
sg24
V1997-98
p70
sg26
g27
sg28
(lp71
VJacque Vaughn
p72
assbag1
(g2
g3
Ntp73
Rp74
(dp75
g7
(dp76
g9
V1997-98 E-X2001 Essential Credentials Now #19 Karl Malone/19
p77
sg11
I19
sg12
VE-X2001 Essential Credentials Now
p78
sg14
(lp79
Vhttp://www.beckett.com/basketball/1997-98/e-x2001-essential-credentials-now/19-karl-malone19-3144692
p80
asg17
g18
sg19
(lp81
Vhttp://img.beckett.com/images/no-image.jpg
p82
asg22
V#19
p83
sg24
V1997-98
p84
sg26
g27
sg28
(lp85
VKarl Malone
p86
assbag1
(g2
g3
Ntp87
Rp88
(dp89
g7
(dp90
g9
V1997-98 E-X2001 Essential Credentials Now #27 John Stockton/27
p91
sg11
I27
sg12
VE-X2001 Essential Credentials Now
p92
sg14
(lp93
Vhttp://www.beckett.com/basketball/1997-98/e-x2001-essential-credentials-now/27-john-stockton27-3144700
p94
asg17
g18
sg19
(lp95
Vhttp://img.beckett.com/images/no-image.jpg
p96
asg22
V#27
p97
sg24
V1997-98
p98
sg26
g27
sg28
(lp99
VJohn Stockton
p100
assbag1
(g2
g3
Ntp101
Rp102
(dp103
g7
(dp104
g9
V1997-98 E-X2001 Essential Credentials Now #65 Jacque Vaughn/65
p105
sg11
I65
sg12
VE-X2001 Essential Credentials Now
p106
sg14
(lp107
Vhttp://www.beckett.com/basketball/1997-98/e-x2001-essential-credentials-now/65-jacque-vaughn65-3144738
p108
asg17
g18
sg19
(lp109
Vhttp://img.beckett.com/images/no-image.jpg
p110
asg22
V#65
p111
sg24
V1997-98
p112
sg26
g27
sg28
(lp113
VJacque Vaughn
p114
assbag1
(g2
g3
Ntp115
Rp116
(dp117
g7
(dp118
g9
V1997-98 Finest Embossed Refractors #127 Karl Malone S
p119
sg11
I263
sg12
VFinest Embossed Refractors
p120
sg14
(lp121
Vhttp://www.beckett.com/basketball/1997-98/finest-embossed-refractors/127-karl-malone-s-3145335
p122
asg17
g18
sg19
(lp123
Vhttp://img.beckett.com/images/no-image.jpg
p124
asg22
V#127
p125
sg24
V1997-98
p126
sS'subsetName'
p127
VS
p128
sg26
g27
sg28
(lp129
VKarl Malone
p130
assbag1
(g2
g3
Ntp131
Rp132
(dp133
g7
(dp134
g9
V1997-98 Finest Embossed Refractors #173 John Stockton G
p135
sg11
I74
sg12
VFinest Embossed Refractors
p136
sg14
(lp137
Vhttp://www.beckett.com/basketball/1997-98/finest-embossed-refractors/173-john-stockton-g-3145381
p138
asg17
g18
sg19
(lp139
Vhttp://img.beckett.com/images/no-image.jpg
p140
asg22
V#173
p141
sg24
V1997-98
p142
sg127
VG
p143
sg26
g27
sg28
(lp144
VJohn Stockton
p145
assbag1
(g2
g3
Ntp146
Rp147
(dp148
g7
(dp149
g9
V1997-98 Finest Embossed Refractors #297 John Stockton S
p150
sg11
I263
sg12
VFinest Embossed Refractors
p151
sg14
(lp152
Vhttp://www.beckett.com/basketball/1997-98/finest-embossed-refractors/297-john-stockton-s-3145405
p153
asg17
g18
sg19
(lp154
Vhttp://img.beckett.com/images/no-image.jpg
p155
asg22
V#297
p156
sg24
V1997-98
p157
sg127
g128
sg26
g27
sg28
(lp158
VJohn tockton
p159
assbag1
(g2
g3
Ntp160
Rp161
(dp162
g7
(dp163
g9
V1997-98 Finest Embossed Refractors #321 Karl Malone G
p164
sg11
I74
sg12
VFinest Embossed Refractors
p165
sg14
(lp166
Vhttp://www.beckett.com/basketball/1997-98/finest-embossed-refractors/321-karl-malone-g-3145429
p167
asg17
g18
sg19
(lp168
Vhttp://img.beckett.com/images/no-image.jpg
p169
asg22
V#321
p170
sg24
V1997-98
p171
sg127
g143
sg26
g27
sg28
(lp172
VKarl Malone
p173
assbag1
(g2
g3
Ntp174
Rp175
(dp176
g7
(dp177
g9
V1997-98 Finest Refractors #127 Karl Malone S
p178
sg11
I1090
sg12
VFinest Refractors
p179
sg14
(lp180
Vhttp://www.beckett.com/basketball/1997-98/finest-refractors/127-karl-malone-s-3145593
p181
asg17
g18
sg19
(lp182
Vhttp://img.beckett.com/images/items_stock/185226/3145435/3145593/front.jpg
p183
asg22
V#127
p184
sg24
V1997-98
p185
sg127
g128
sg26
g27
sg28
(lp186
VKarl Malone
p187
assbag1
(g2
g3
Ntp188
Rp189
(dp190
g7
(dp191
g9
V1997-98 Finest Refractors #173 John Stockton G
p192
sg11
I289
sg12
VFinest Refractors
p193
sg14
(lp194
Vhttp://www.beckett.com/basketball/1997-98/finest-refractors/173-john-stockton-g-3145639
p195
asg17
g18
sg19
(lp196
Vhttp://img.beckett.com/images/items_stock/185226/3145435/3145639/front.jpg
p197
asg22
V#173
p198
sg24
V1997-98
p199
sg127
g143
sg26
g27
sg28
(lp200
VJohn Stockton
p201
assbag1
(g2
g3
Ntp202
Rp203
(dp204
g7
(dp205
g9
V1997-98 Finest Refractors #297 John Stockton S
p206
sg11
I1090
sg12
VFinest Refractors
p207
sg14
(lp208
Vhttp://www.beckett.com/basketball/1997-98/finest-refractors/297-john-stockton-s-3145763
p209
asg17
g18
sg19
(lp210
Vhttp://img.beckett.com/images/items_stock/185226/3145435/3145763/front.jpg
p211
asg22
V#297
p212
sg24
V1997-98
p213
sg127
g128
sg26
g27
sg28
(lp214
VJohn tockton
p215
assbag1
(g2
g3
Ntp216
Rp217
(dp218
g7
(dp219
g9
V1997-98 Finest Refractors #321 Karl Malone G
p220
sg11
I289
sg12
VFinest Refractors
p221
sg14
(lp222
Vhttp://www.beckett.com/basketball/1997-98/finest-refractors/321-karl-malone-g-3145787
p223
asg17
g18
sg19
(lp224
Vhttp://img.beckett.com/images/no-image.jpg
p225
asg22
V#321
p226
sg24
V1997-98
p227
sg127
g143
sg26
g27
sg28
(lp228
VKarl Malone
p229
assbag1
(g2
g3
Ntp230
Rp231
(dp232
g7
(dp233
g9
V1997-98 Flair Showcase Row 0 #47 John Stockton
p234
sg11
I1000
sg12
VFlair Showcase Row 0
p235
sg14
(lp236
Vhttp://www.beckett.com/basketball/1997-98/flair-showcase-row-0/47-john-stockton-3146145
p237
asg17
g18
sg19
(lp238
Vhttp://img.beckett.com/images/items_stock/185226/3146075/3146145/front.jpg
p239
asg22
V#47
p240
sg24
V1997-98
p241
sg26
g27
sg28
(lp242
VJohn Stockton
p243
assbag1
(g2
g3
Ntp244
Rp245
(dp246
g7
(dp247
g9
V1997-98 Flair Showcase Row 0 #56 Karl Malone
p248
sg11
I1000
sg12
VFlair Showcase Row 0
p249
sg14
(lp250
Vhttp://www.beckett.com/basketball/1997-98/flair-showcase-row-0/56-karl-malone-3146154
p251
asg17
g18
sg19
(lp252
Vhttp://img.beckett.com/images/items_stock/185226/3146075/3146154/front.jpg
p253
asg22
V#56
p254
sg24
V1997-98
p255
sg26
g27
sg28
(lp256
VKarl Malone
p257
assbag1
(g2
g3
Ntp258
Rp259
(dp260
g7
(dp261
g9
V1997-98 Flair Showcase Legacy Collection Row 3 #47 John Stockton
p262
sg11
I100
sg12
VFlair Showcase Legacy Collection Row 3
p263
sg14
(lp264
Vhttp://www.beckett.com/basketball/1997-98/flair-showcase-legacy-collection-row-3/47-john-stockton-3148605
p265
asg17
g18
sg19
(lp266
Vhttp://img.beckett.com/images/no-image.jpg
p267
asg22
V#47
p268
sg24
V1997-98
p269
sg26
g27
sg28
(lp270
VJohn Stockton
p271
assbag1
(g2
g3
Ntp272
Rp273
(dp274
g7
(dp275
g9
V1997-98 Flair Showcase Legacy Collection Row 3 #56 Karl Malone
p276
sg11
I100
sg12
VFlair Showcase Legacy Collection Row 3
p277
sg14
(lp278
Vhttp://www.beckett.com/basketball/1997-98/flair-showcase-legacy-collection-row-3/56-karl-malone-3148614
p279
asg17
g18
sg19
(lp280
Vhttp://img.beckett.com/images/no-image.jpg
p281
asg22
V#56
p282
sg24
V1997-98
p283
sg26
g27
sg28
(lp284
VKarl Malone
p285
assbag1
(g2
g3
Ntp286
Rp287
(dp288
g7
(dp289
g9
V1997-98 Metal Universe Precious Metal Gems #86 Jeff Hornacek
p290
sg11
I90
sg12
VMetal Universe Precious Metal Gems
p291
sg14
(lp292
Vhttp://www.beckett.com/basketball/1997-98/metal-universe-precious-metal-gems/86-jeff-hornacek-3142678
p293
asg17
g18
sg19
(lp294
Vhttp://img.beckett.com/images/no-image.jpg
p295
asg22
V#86
p296
sg24
V1997-98
p297
sg26
g27
sg28
(lp298
VJeff Hornacek
p299
assbag1
(g2
g3
Ntp300
Rp301
(dp302
g7
(dp303
g9
V1997-98 Metal Universe Precious Metal Gems #97 Karl Malone
p304
sg11
I90
sg12
VMetal Universe Precious Metal Gems
p305
sg14
(lp306
Vhttp://www.beckett.com/basketball/1997-98/metal-universe-precious-metal-gems/97-karl-malone-3142689
p307
asg17
g18
sg19
(lp308
Vhttp://img.beckett.com/images/no-image.jpg
p309
asg22
V#97
p310
sg24
V1997-98
p311
sg26
g27
sg28
(lp312
VKarl Malone
p313
assbag1
(g2
g3
Ntp314
Rp315
(dp316
g7
(dp317
g9
V1997-98 Metal Universe Precious Metal Gems #99 Bryon Russell
p318
sg11
I90
sg12
VMetal Universe Precious Metal Gems
p319
sg14
(lp320
Vhttp://www.beckett.com/basketball/1997-98/metal-universe-precious-metal-gems/99-bryon-russell-3142691
p321
asg17
g18
sg19
(lp322
Vhttp://img.beckett.com/images/no-image.jpg
p323
asg22
V#99
p324
sg24
V1997-98
p325
sg26
g27
sg28
(lp326
VBryon Russell
p327
assbag1
(g2
g3
Ntp328
Rp329
(dp330
g7
(dp331
g9
V1997-98 Metal Universe Precious Metal Gems #119 John Stockton
p332
sg11
I90
sg12
VMetal Universe Precious Metal Gems
p333
sg14
(lp334
Vhttp://www.beckett.com/basketball/1997-98/metal-universe-precious-metal-gems/119-john-stockton-3142711
p335
asg17
g18
sg19
(lp336
Vhttp://img.beckett.com/images/no-image.jpg
p337
asg22
V#119
p338
sg24
V1997-98
p339
sg26
g27
sg28
(lp340
VJohn Stockton
p341
assbag1
(g2
g3
Ntp342
Rp343
(dp344
g7
(dp345
g9
V1997-98 Metal Universe Championship Precious Metal Gems #17 John Stockton
p346
sg11
I50
sg12
VMetal Universe Championship Precious Metal Gems
p347
sg14
(lp348
Vhttp://www.beckett.com/basketball/1997-98/metal-universe-championship-precious-metal-gems/17-john-stockton-3140692
p349
asg17
g18
sg19
(lp350
Vhttp://img.beckett.com/images/no-image.jpg
p351
asg22
V#17
p352
sg24
V1997-98
p353
sg26
g27
sg28
(lp354
VJohn Stockton
p355
assbag1
(g2
g3
Ntp356
Rp357
(dp358
g7
(dp359
g9
V1997-98 Metal Universe Championship Precious Metal Gems #69 Jacque Vaughn
p360
sg11
I50
sg12
VMetal Universe Championship Precious Metal Gems
p361
sg14
(lp362
Vhttp://www.beckett.com/basketball/1997-98/metal-universe-championship-precious-metal-gems/69-jacque-vaughn-3140744
p363
asg17
g18
sg19
(lp364
Vhttp://img.beckett.com/images/no-image.jpg
p365
asg22
V#69
p366
sg24
V1997-98
p367
sg26
g27
sg28
(lp368
VJacque Vaughn
p369
assbag1
(g2
g3
Ntp370
Rp371
(dp372
g7
(dp373
g9
V1997-98 Metal Universe Championship Precious Metal Gems #88 Karl Malone
p374
sg11
I50
sg12
VMetal Universe Championship Precious Metal Gems
p375
sg14
(lp376
Vhttp://www.beckett.com/basketball/1997-98/metal-universe-championship-precious-metal-gems/88-karl-malone-3140763
p377
asg17
g18
sg19
(lp378
Vhttp://img.beckett.com/images/no-image.jpg
p379
asg22
V#88
p380
sg24
V1997-98
p381
sg26
g27
sg28
(lp382
VKarl Malone
p383
assbag1
(g2
g3
Ntp384
Rp385
(dp386
g7
(dp387
g9
V1997-98 SkyBox Premium Star Rubies #20 John Stockton
p388
sg11
I50
sg12
VSkyBox Premium Star Rubies
p389
sg14
(lp390
Vhttp://www.beckett.com/basketball/1997-98/skybox-premium-star-rubies/20-john-stockton-3141191
p391
asg17
g18
sg19
(lp392
Vhttp://img.beckett.com/images/no-image.jpg
p393
asg22
V#20
p394
sg24
V1997-98
p395
sg26
g27
sg28
(lp396
VJohn Stockton
p397
assbag1
(g2
g3
Ntp398
Rp399
(dp400
g7
(dp401
g9
V1997-98 SkyBox Premium Star Rubies #26 Jeff Hornacek
p402
sg11
I50
sg12
VSkyBox Premium Star Rubies
p403
sg14
(lp404
Vhttp://www.beckett.com/basketball/1997-98/skybox-premium-star-rubies/26-jeff-hornacek-3141197
p405
asg17
g18
sg19
(lp406
Vhttp://img.beckett.com/images/no-image.jpg
p407
asg22
V#26
p408
sg24
V1997-98
p409
sg26
g27
sg28
(lp410
VJeff Hornacek
p411
assbag1
(g2
g3
Ntp412
Rp413
(dp414
g7
(dp415
g9
V1997-98 SkyBox Premium Star Rubies #82 Karl Malone
p416
sg11
I50
sg12
VSkyBox Premium Star Rubies
p417
sg14
(lp418
Vhttp://www.beckett.com/basketball/1997-98/skybox-premium-star-rubies/82-karl-malone-3141253
p419
asg17
g18
sg19
(lp420
Vhttp://img.beckett.com/images/no-image.jpg
p421
asg22
V#82
p422
sg24
V1997-98
p423
sg26
g27
sg28
(lp424
VKarl Malone
p425
assbag1
(g2
g3
Ntp426
Rp427
(dp428
g7
(dp429
g9
V1997-98 SkyBox Premium Star Rubies #113 Bryon Russell
p430
sg11
I50
sg12
VSkyBox Premium Star Rubies
p431
sg14
(lp432
Vhttp://www.beckett.com/basketball/1997-98/skybox-premium-star-rubies/113-bryon-russell-3141284
p433
asg17
g18
sg19
(lp434
Vhttp://img.beckett.com/images/no-image.jpg
p435
asg22
V#113
p436
sg24
V1997-98
p437
sg26
g27
sg28
(lp438
VBryon Russell
p439
assbag1
(g2
g3
Ntp440
Rp441
(dp442
g7
(dp443
g9
V1997-98 SkyBox Premium Star Rubies #163 Jacque Vaughn
p444
sg11
I50
sg12
VSkyBox Premium Star Rubies
p445
sg14
(lp446
Vhttp://www.beckett.com/basketball/1997-98/skybox-premium-star-rubies/163-jacque-vaughn-3141332
p447
asg17
g18
sg19
(lp448
Vhttp://img.beckett.com/images/no-image.jpg
p449
asg22
V#163
p450
sg24
V1997-98
p451
sg26
g27
sg28
(lp452
VJacque Vaughn
p453
assbag1
(g2
g3
Ntp454
Rp455
(dp456
g7
(dp457
g9
V1997-98 SkyBox Premium Star Rubies #174 Adam Keefe
p458
sg11
I50
sg12
VSkyBox Premium Star Rubies
p459
sg14
(lp460
Vhttp://www.beckett.com/basketball/1997-98/skybox-premium-star-rubies/174-adam-keefe-3141343
p461
asg17
g18
sg19
(lp462
Vhttp://img.beckett.com/images/no-image.jpg
p463
asg22
V#174
p464
sg24
V1997-98
p465
sg26
g27
sg28
(lp466
VAdam Keefe
p467
assbag1
(g2
g3
Ntp468
Rp469
(dp470
g7
(dp471
g9
V1997-98 SkyBox Premium Star Rubies #221 Shandon Anderson
p472
sg11
I50
sg12
VSkyBox Premium Star Rubies
p473
sg14
(lp474
Vhttp://www.beckett.com/basketball/1997-98/skybox-premium-star-rubies/221-shandon-anderson-3141390
p475
asg17
g18
sg19
(lp476
Vhttp://img.beckett.com/images/no-image.jpg
p477
asg22
V#221
p478
sg24
V1997-98
p479
sg26
g27
sg28
(lp480
VShandon Anderson
p481
assbag1
(g2
g3
Ntp482
Rp483
(dp484
g7
(dp485
g9
V1997-98 SkyBox Premium Star Rubies #223 Chris Morris
p486
sg11
I50
sg12
VSkyBox Premium Star Rubies
p487
sg14
(lp488
Vhttp://www.beckett.com/basketball/1997-98/skybox-premium-star-rubies/223-chris-morris-3141392
p489
asg17
g18
sg19
(lp490
Vhttp://img.beckett.com/images/no-image.jpg
p491
asg22
V#223
p492
sg24
V1997-98
p493
sg26
g27
sg28
(lp494
VChris Morris
p495
assbag1
(g2
g3
Ntp496
Rp497
(dp498
g7
(dp499
g9
V1997-98 SkyBox Premium Star Rubies #237 Karl Malone TS
p500
sg11
I50
sg12
VSkyBox Premium Star Rubies
p501
sg14
(lp502
Vhttp://www.beckett.com/basketball/1997-98/skybox-premium-star-rubies/237-karl-malone-ts-3141406
p503
asg17
g18
sg19
(lp504
Vhttp://img.beckett.com/images/no-image.jpg
p505
asg22
V#237
p506
sg24
V1997-98
p507
sg127
VTS
p508
sg26
g27
sg28
(lp509
VKarl Malone
p510
assbag1
(g2
g3
Ntp511
Rp512
(dp513
g7
(dp514
g9
V1997-98 SkyBox Premium Autographics Century Marks #35 Howard Eisley
p515
sg11
I100
sg12
VSkyBox Premium Autographics Century Marks
p516
sg14
(lp517
Vhttp://www.beckett.com/basketball/1997-98/skybox-premium-autographics-century-marks/35-howard-eisley-3141617
p518
asg17
g18
sg19
(lp519
Vhttp://img.beckett.com/images/no-image.jpg
p520
asg22
V#35
p521
sS'autograph'
p522
I1
sg24
V1997-98
p523
sg26
g27
sg28
(lp524
VHoward Eisley
p525
assbag1
(g2
g3
Ntp526
Rp527
(dp528
g7
(dp529
g9
V1997-98 SkyBox Premium Autographics Century Marks #60 Adam Keefe
p530
sg11
I100
sg12
VSkyBox Premium Autographics Century Marks
p531
sg14
(lp532
Vhttp://www.beckett.com/basketball/1997-98/skybox-premium-autographics-century-marks/60-adam-keefe-3141642
p533
asg17
g18
sg19
(lp534
Vhttp://img.beckett.com/images/no-image.jpg
p535
asg22
V#60
p536
sg522
I1
sg24
V1997-98
p537
sg26
g27
sg28
(lp538
VAdam Keefe
p539
assbag1
(g2
g3
Ntp540
Rp541
(dp542
g7
(dp543
g9
V1997-98 SkyBox Premium Autographics Century Marks #76 Chris Morris
p544
sg11
I100
sg12
VSkyBox Premium Autographics Century Marks
p545
sg14
(lp546
Vhttp://www.beckett.com/basketball/1997-98/skybox-premium-autographics-century-marks/76-chris-morris-3141658
p547
asg17
g18
sg19
(lp548
Vhttp://img.beckett.com/images/no-image.jpg
p549
asg22
V#76
p550
sg522
I1
sg24
V1997-98
p551
sg26
g27
sg28
(lp552
VChris Morris
p553
assbag1
(g2
g3
Ntp554
Rp555
(dp556
g7
(dp557
g9
V1997-98 SkyBox Premium Autographics Century Marks #106 Jacque Vaughn
p558
sg11
I100
sg12
VSkyBox Premium Autographics Century Marks
p559
sg14
(lp560
Vhttp://www.beckett.com/basketball/1997-98/skybox-premium-autographics-century-marks/106-jacque-vaughn-3141688
p561
asg17
g18
sg19
(lp562
Vhttp://img.beckett.com/images/no-image.jpg
p563
asg22
V#106
p564
sg522
I1
sg24
V1997-98
p565
sg26
g27
sg28
(lp566
VJacque Vaughn
p567
assbag1
(g2
g3
Ntp568
Rp569
(dp570
g7
(dp571
g9
V1997-98 SPx Grand Finale #44 Karl Malone
p572
sg11
I50
sg12
VSPx Grand Finale
p573
sg14
(lp574
Vhttp://www.beckett.com/basketball/1997-98/spx-grand-finale/44-karl-malone-3137728
p575
asg17
g18
sg19
(lp576
Vhttp://img.beckett.com/images/no-image.jpg
p577
asg22
V#44
p578
sg24
V1997-98
p579
sg26
g27
sg28
(lp580
VKarl Malone
p581
assbag1
(g2
g3
Ntp582
Rp583
(dp584
g7
(dp585
g9
V1997-98 SPx Grand Finale #45 John Stockton
p586
sg11
I50
sg12
VSPx Grand Finale
p587
sg14
(lp588
Vhttp://www.beckett.com/basketball/1997-98/spx-grand-finale/45-john-stockton-3137729
p589
asg17
g18
sg19
(lp590
Vhttp://img.beckett.com/images/no-image.jpg
p591
asg22
V#45
p592
sg24
V1997-98
p593
sg26
g27
sg28
(lp594
VJohn Stockton
p595
assbag1
(g2
g3
Ntp596
Rp597
(dp598
g7
(dp599
g9
V1997-98 Stadium Club One Of A Kind #2 Bryon Russell
p600
sg11
I150
sg12
VStadium Club One Of A Kind
p601
sg14
(lp602
Vhttp://www.beckett.com/basketball/1997-98/stadium-club-one-of-a-kind/2-bryon-russell-3138301
p603
asg17
g18
sg19
(lp604
Vhttp://img.beckett.com/images/items_stock/185226/3138288/3138301/front.jpg
p605
asg22
V#2
p606
sg24
V1997-98
p607
sg26
g27
sg28
(lp608
VBryon Russell
p609
assbag1
(g2
g3
Ntp610
Rp611
(dp612
g7
(dp613
g9
V1997-98 Stadium Club One Of A Kind #57 Greg Ostertag
p614
sg11
I150
sg12
VStadium Club One Of A Kind
p615
sg14
(lp616
Vhttp://www.beckett.com/basketball/1997-98/stadium-club-one-of-a-kind/57-greg-ostertag-3138356
p617
asg17
g18
sg19
(lp618
Vhttp://img.beckett.com/images/items_stock/185226/3138288/3138356/front.jpg
p619
asg22
V#57
p620
sg24
V1997-98
p621
sg26
g27
sg28
(lp622
VGreg Ostertag
p623
assbag1
(g2
g3
Ntp624
Rp625
(dp626
g7
(dp627
g9
V1997-98 Stadium Club One Of A Kind #68 John Stockton
p628
sg11
I150
sg12
VStadium Club One Of A Kind
p629
sg14
(lp630
Vhttp://www.beckett.com/basketball/1997-98/stadium-club-one-of-a-kind/68-john-stockton-3138367
p631
asg17
g18
sg19
(lp632
Vhttp://img.beckett.com/images/no-image.jpg
p633
asg22
V#68
p634
sg24
V1997-98
p635
sg26
g27
sg28
(lp636
VJohn Stockton
p637
assbag1
(g2
g3
Ntp638
Rp639
(dp640
g7
(dp641
g9
V1997-98 Stadium Club One Of A Kind #115 Karl Malone
p642
sg11
I150
sg12
VStadium Club One Of A Kind
p643
sg14
(lp644
Vhttp://www.beckett.com/basketball/1997-98/stadium-club-one-of-a-kind/115-karl-malone-3138414
p645
asg17
g18
sg19
(lp646
Vhttp://img.beckett.com/images/items_stock/185226/3138288/3138414/front.jpg
p647
asg22
V#115
p648
sg24
V1997-98
p649
sg26
g27
sg28
(lp650
VKarl Malone
p651
assbag1
(g2
g3
Ntp652
Rp653
(dp654
g7
(dp655
g9
V1997-98 Stadium Club One Of A Kind #156 Greg Foster
p656
sg11
I150
sg12
VStadium Club One Of A Kind
p657
sg14
(lp658
Vhttp://www.beckett.com/basketball/1997-98/stadium-club-one-of-a-kind/156-greg-foster-3138455
p659
asg17
g18
sg19
(lp660
Vhttp://img.beckett.com/images/items_stock/185226/3138288/3138455/front.jpg
p661
asg22
V#156
p662
sg24
V1997-98
p663
sg26
g27
sg28
(lp664
VGreg Foster
p665
assbag1
(g2
g3
Ntp666
Rp667
(dp668
g7
(dp669
g9
V1997-98 Stadium Club One Of A Kind #168 Shandon Anderson
p670
sg11
I150
sg12
VStadium Club One Of A Kind
p671
sg14
(lp672
Vhttp://www.beckett.com/basketball/1997-98/stadium-club-one-of-a-kind/168-shandon-anderson-3138467
p673
asg17
g18
sg19
(lp674
Vhttp://img.beckett.com/images/items_stock/185226/3138288/3138467/front.jpg
p675
asg22
V#168
p676
sg24
V1997-98
p677
sg26
g27
sg28
(lp678
VShandon Anderson
p679
assbag1
(g2
g3
Ntp680
Rp681
(dp682
g7
(dp683
g9
V1997-98 Stadium Club One Of A Kind #179 Shandon Anderson
p684
sg11
I150
sg12
VStadium Club One Of A Kind
p685
sg14
(lp686
Vhttp://www.beckett.com/basketball/1997-98/stadium-club-one-of-a-kind/179-shandon-anderson-3138478
p687
asg17
g18
sg19
(lp688
Vhttp://img.beckett.com/images/no-image.jpg
p689
asg22
V#179
p690
sg24
V1997-98
p691
sg26
g27
sg28
(lp692
VShandon Anderson
p693
assbag1
(g2
g3
Ntp694
Rp695
(dp696
g7
(dp697
g9
V1997-98 Stadium Club One Of A Kind #193 Jeff Hornacek
p698
sg11
I150
sg12
VStadium Club One Of A Kind
p699
sg14
(lp700
Vhttp://www.beckett.com/basketball/1997-98/stadium-club-one-of-a-kind/193-jeff-hornacek-3138492
p701
asg17
g18
sg19
(lp702
Vhttp://img.beckett.com/images/no-image.jpg
p703
asg22
V#193
p704
sg24
V1997-98
p705
sg26
g27
sg28
(lp706
VJeff Hornacek
p707
assbag1
(g2
g3
Ntp708
Rp709
(dp710
g7
(dp711
g9
V1997-98 Stadium Club Printing Plates #2 Bryon Russell Black
p712
sg11
I1
sg12
VStadium Club Printing Plates
p713
sg14
(lp714
Vhttp://www.beckett.com/basketball/1997-98/stadium-club-printing-plates/2-bryon-russell-black-3138549
p715
asg17
g18
sg19
(lp716
Vhttp://img.beckett.com/images/no-image.jpg
p717
asg22
V#2
p718
sg24
V1997-98
p719
sg26
g27
sg28
(lp720
VBryon Russell Black
p721
assbag1
(g2
g3
Ntp722
Rp723
(dp724
g7
(dp725
g9
V1997-98 Stadium Club Printing Plates #2A Bryon Russell Cyan
p726
sg11
I1
sg12
VStadium Club Printing Plates
p727
sg14
(lp728
Vhttp://www.beckett.com/basketball/1997-98/stadium-club-printing-plates/2a-bryon-russell-cyan-3138550
p729
asg17
g18
sg19
(lp730
Vhttp://img.beckett.com/images/no-image.jpg
p731
asg22
V#2A
p732
sg24
V1997-98
p733
sg26
g27
sg28
(lp734
VBryon Russell Cyan
p735
assbag1
(g2
g3
Ntp736
Rp737
(dp738
g7
(dp739
g9
V1997-98 Stadium Club Printing Plates #2B Bryon Russell Magenta
p740
sg11
I1
sg12
VStadium Club Printing Plates
p741
sg14
(lp742
Vhttp://www.beckett.com/basketball/1997-98/stadium-club-printing-plates/2b-bryon-russell-magenta-3138551
p743
asg17
g18
sg19
(lp744
Vhttp://img.beckett.com/images/no-image.jpg
p745
asg22
V#2B
p746
sg24
V1997-98
p747
sg26
g27
sg28
(lp748
VBryon Russell Magenta
p749
assbag1
(g2
g3
Ntp750
Rp751
(dp752
g7
(dp753
g9
V1997-98 Stadium Club Printing Plates #2C Bryon Russell Yellow
p754
sg11
I1
sg12
VStadium Club Printing Plates
p755
sg14
(lp756
Vhttp://www.beckett.com/basketball/1997-98/stadium-club-printing-plates/2c-bryon-russell-yellow-3138552
p757
asg17
g18
sg19
(lp758
Vhttp://img.beckett.com/images/no-image.jpg
p759
asg22
V#2C
p760
sg24
V1997-98
p761
sg26
g27
sg28
(lp762
VBryon Russell Yellow
p763
assbag1
(g2
g3
Ntp764
Rp765
(dp766
g7
(dp767
g9
V1997-98 Stadium Club Printing Plates #57 Greg Ostertag Black
p768
sg11
I1
sg12
VStadium Club Printing Plates
p769
sg14
(lp770
Vhttp://www.beckett.com/basketball/1997-98/stadium-club-printing-plates/57-greg-ostertag-black-3138769
p771
asg17
g18
sg19
(lp772
Vhttp://img.beckett.com/images/no-image.jpg
p773
asg22
V#57
p774
sg24
V1997-98
p775
sg26
g27
sg28
(lp776
VGreg Ostertag Black
p777
assbag1
(g2
g3
Ntp778
Rp779
(dp780
g7
(dp781
g9
V1997-98 Stadium Club Printing Plates #57A Greg Ostertag Cyan
p782
sg11
I1
sg12
VStadium Club Printing Plates
p783
sg14
(lp784
Vhttp://www.beckett.com/basketball/1997-98/stadium-club-printing-plates/57a-greg-ostertag-cyan-3138770
p785
asg17
g18
sg19
(lp786
Vhttp://img.beckett.com/images/no-image.jpg
p787
asg22
V#57A
p788
sg24
V1997-98
p789
sg26
g27
sg28
(lp790
VGreg Ostertag Cyan
p791
assbag1
(g2
g3
Ntp792
Rp793
(dp794
g7
(dp795
g9
V1997-98 Stadium Club Printing Plates #57B Greg Ostertag Magenta
p796
sg11
I1
sg12
VStadium Club Printing Plates
p797
sg14
(lp798
Vhttp://www.beckett.com/basketball/1997-98/stadium-club-printing-plates/57b-greg-ostertag-magenta-3138771
p799
asg17
g18
sg19
(lp800
Vhttp://img.beckett.com/images/no-image.jpg
p801
asg22
V#57B
p802
sg24
V1997-98
p803
sg26
g27
sg28
(lp804
VGreg Ostertag Magenta
p805
assbag1
(g2
g3
Ntp806
Rp807
(dp808
g7
(dp809
g9
V1997-98 Stadium Club Printing Plates #57C Greg Ostertag Yellow
p810
sg11
I1
sg12
VStadium Club Printing Plates
p811
sg14
(lp812
Vhttp://www.beckett.com/basketball/1997-98/stadium-club-printing-plates/57c-greg-ostertag-yellow-3138772
p813
asg17
g18
sg19
(lp814
Vhttp://img.beckett.com/images/no-image.jpg
p815
asg22
V#57C
p816
sg24
V1997-98
p817
sg26
g27
sg28
(lp818
VGreg Ostertag Yellow
p819
assbag1
(g2
g3
Ntp820
Rp821
(dp822
g7
(dp823
g9
V1997-98 Stadium Club Printing Plates #68 John Stockton Black
p824
sg11
I1
sg12
VStadium Club Printing Plates
p825
sg14
(lp826
Vhttp://www.beckett.com/basketball/1997-98/stadium-club-printing-plates/68-john-stockton-black-3138813
p827
asg17
g18
sg19
(lp828
Vhttp://img.beckett.com/images/no-image.jpg
p829
asg22
V#68
p830
sg24
V1997-98
p831
sg26
g27
sg28
(lp832
VJohn Stockton Black
p833
assbag1
(g2
g3
Ntp834
Rp835
(dp836
g7
(dp837
g9
V1997-98 Stadium Club Printing Plates #68A John Stockton Cyan
p838
sg11
I1
sg12
VStadium Club Printing Plates
p839
sg14
(lp840
Vhttp://www.beckett.com/basketball/1997-98/stadium-club-printing-plates/68a-john-stockton-cyan-3138814
p841
asg17
g18
sg19
(lp842
Vhttp://img.beckett.com/images/no-image.jpg
p843
asg22
V#68A
p844
sg24
V1997-98
p845
sg26
g27
sg28
(lp846
VJohn Stockton Cyan
p847
assbag1
(g2
g3
Ntp848
Rp849
(dp850
g7
(dp851
g9
V1997-98 Stadium Club Printing Plates #68B John Stockton Magenta
p852
sg11
I1
sg12
VStadium Club Printing Plates
p853
sg14
(lp854
Vhttp://www.beckett.com/basketball/1997-98/stadium-club-printing-plates/68b-john-stockton-magenta-3138815
p855
asg17
g18
sg19
(lp856
Vhttp://img.beckett.com/images/no-image.jpg
p857
asg22
V#68B
p858
sg24
V1997-98
p859
sg26
g27
sg28
(lp860
VJohn Stockton Magenta
p861
assbag1
(g2
g3
Ntp862
Rp863
(dp864
g7
(dp865
g9
V1997-98 Stadium Club Printing Plates #68C John Stockton Yellow
p866
sg11
I1
sg12
VStadium Club Printing Plates
p867
sg14
(lp868
Vhttp://www.beckett.com/basketball/1997-98/stadium-club-printing-plates/68c-john-stockton-yellow-3138816
p869
asg17
g18
sg19
(lp870
Vhttp://img.beckett.com/images/no-image.jpg
p871
asg22
V#68C
p872
sg24
V1997-98
p873
sg26
g27
sg28
(lp874
VJohn Stockton Yellow
p875
assbag1
(g2
g3
Ntp876
Rp877
(dp878
g7
(dp879
g9
V1997-98 Stadium Club Printing Plates #115 Karl Malone Black
p880
sg11
I1
sg12
VStadium Club Printing Plates
p881
sg14
(lp882
Vhttp://www.beckett.com/basketball/1997-98/stadium-club-printing-plates/115-karl-malone-black-3139001
p883
asg17
g18
sg19
(lp884
Vhttp://img.beckett.com/images/no-image.jpg
p885
asg22
V#115
p886
sg24
V1997-98
p887
sg26
g27
sg28
(lp888
VKarl Malone Black
p889
assbag1
(g2
g3
Ntp890
Rp891
(dp892
g7
(dp893
g9
V1997-98 Stadium Club Printing Plates #115A Karl Malone Cyan
p894
sg11
I1
sg12
VStadium Club Printing Plates
p895
sg14
(lp896
Vhttp://www.beckett.com/basketball/1997-98/stadium-club-printing-plates/115a-karl-malone-cyan-3139002
p897
asg17
g18
sg19
(lp898
Vhttp://img.beckett.com/images/no-image.jpg
p899
asg22
V#115A
p900
sg24
V1997-98
p901
sg26
g27
sg28
(lp902
VKarl Malone Cyan
p903
assbag1
(g2
g3
Ntp904
Rp905
(dp906
g7
(dp907
g9
V1997-98 Stadium Club Printing Plates #115B Karl Malone Magenta
p908
sg11
I1
sg12
VStadium Club Printing Plates
p909
sg14
(lp910
Vhttp://www.beckett.com/basketball/1997-98/stadium-club-printing-plates/115b-karl-malone-magenta-3139003
p911
asg17
g18
sg19
(lp912
Vhttp://img.beckett.com/images/no-image.jpg
p913
asg22
V#115B
p914
sg24
V1997-98
p915
sg26
g27
sg28
(lp916
VKarl Malone Magenta
p917
assbag1
(g2
g3
Ntp918
Rp919
(dp920
g7
(dp921
g9
V1997-98 Stadium Club Printing Plates #115C Karl Malone Yellow
p922
sg11
I1
sg12
VStadium Club Printing Plates
p923
sg14
(lp924
Vhttp://www.beckett.com/basketball/1997-98/stadium-club-printing-plates/115c-karl-malone-yellow-3139004
p925
asg17
g18
sg19
(lp926
Vhttp://img.beckett.com/images/no-image.jpg
p927
asg22
V#115C
p928
sg24
V1997-98
p929
sg26
g27
sg28
(lp930
VKarl Malone Yellow
p931
assbag1
(g2
g3
Ntp932
Rp933
(dp934
g7
(dp935
g9
V1997-98 Stadium Club Printing Plates #156 Greg Foster Black
p936
sg11
I1
sg12
VStadium Club Printing Plates
p937
sg14
(lp938
Vhttp://www.beckett.com/basketball/1997-98/stadium-club-printing-plates/156-greg-foster-black-3139165
p939
asg17
g18
sg19
(lp940
Vhttp://img.beckett.com/images/no-image.jpg
p941
asg22
V#156
p942
sg24
V1997-98
p943
sg26
g27
sg28
(lp944
VGreg Foster Black
p945
assbag1
(g2
g3
Ntp946
Rp947
(dp948
g7
(dp949
g9
V1997-98 Stadium Club Printing Plates #156A Greg Foster Cyan
p950
sg11
I1
sg12
VStadium Club Printing Plates
p951
sg14
(lp952
Vhttp://www.beckett.com/basketball/1997-98/stadium-club-printing-plates/156a-greg-foster-cyan-3139166
p953
asg17
g18
sg19
(lp954
Vhttp://img.beckett.com/images/no-image.jpg
p955
asg22
V#156A
p956
sg24
V1997-98
p957
sg26
g27
sg28
(lp958
VGreg Foster Cyan
p959
assbag1
(g2
g3
Ntp960
Rp961
(dp962
g7
(dp963
g9
V1997-98 Stadium Club Printing Plates #156B Greg Foster Magenta
p964
sg11
I1
sg12
VStadium Club Printing Plates
p965
sg14
(lp966
Vhttp://www.beckett.com/basketball/1997-98/stadium-club-printing-plates/156b-greg-foster-magenta-3139167
p967
asg17
g18
sg19
(lp968
Vhttp://img.beckett.com/images/no-image.jpg
p969
asg22
V#156B
p970
sg24
V1997-98
p971
sg26
g27
sg28
(lp972
VGreg Foster Magenta
p973
assbag1
(g2
g3
Ntp974
Rp975
(dp976
g7
(dp977
g9
V1997-98 Stadium Club Printing Plates #156C Greg Foster Yellow
p978
sg11
I1
sg12
VStadium Club Printing Plates
p979
sg14
(lp980
Vhttp://www.beckett.com/basketball/1997-98/stadium-club-printing-plates/156c-greg-foster-yellow-3139168
p981
asg17
g18
sg19
(lp982
Vhttp://img.beckett.com/images/no-image.jpg
p983
asg22
V#156C
p984
sg24
V1997-98
p985
sg26
g27
sg28
(lp986
VGreg Foster Yellow
p987
assbag1
(g2
g3
Ntp988
Rp989
(dp990
g7
(dp991
g9
V1997-98 Stadium Club Printing Plates #168 Shandon Anderson Black
p992
sg11
I1
sg12
VStadium Club Printing Plates
p993
sg14
(lp994
Vhttp://www.beckett.com/basketball/1997-98/stadium-club-printing-plates/168-shandon-anderson-black-3139213
p995
asg17
g18
sg19
(lp996
Vhttp://img.beckett.com/images/no-image.jpg
p997
asg22
V#168
p998
sg24
V1997-98
p999
sg26
g27
sg28
(lp1000
VShandon Anderson Black
p1001
assbag1
(g2
g3
Ntp1002
Rp1003
(dp1004
g7
(dp1005
g9
V1997-98 Stadium Club Printing Plates #168A Shandon Anderson Cyan
p1006
sg11
I1
sg12
VStadium Club Printing Plates
p1007
sg14
(lp1008
Vhttp://www.beckett.com/basketball/1997-98/stadium-club-printing-plates/168a-shandon-anderson-cyan-3139214
p1009
asg17
g18
sg19
(lp1010
Vhttp://img.beckett.com/images/no-image.jpg
p1011
asg22
V#168A
p1012
sg24
V1997-98
p1013
sg26
g27
sg28
(lp1014
VShandon Anderson Cyan
p1015
assbag1
(g2
g3
Ntp1016
Rp1017
(dp1018
g7
(dp1019
g9
V1997-98 Stadium Club Printing Plates #168B Shandon Anderson Magenta
p1020
sg11
I1
sg12
VStadium Club Printing Plates
p1021
sg14
(lp1022
Vhttp://www.beckett.com/basketball/1997-98/stadium-club-printing-plates/168b-shandon-anderson-magenta-3139215
p1023
asg17
g18
sg19
(lp1024
Vhttp://img.beckett.com/images/no-image.jpg
p1025
asg22
V#168B
p1026
sg24
V1997-98
p1027
sg26
g27
sg28
(lp1028
VShandon Anderson Magenta
p1029
assbag1
(g2
g3
Ntp1030
Rp1031
(dp1032
g7
(dp1033
g9
V1997-98 Stadium Club Printing Plates #168C Shandon Anderson Yellow
p1034
sg11
I1
sg12
VStadium Club Printing Plates
p1035
sg14
(lp1036
Vhttp://www.beckett.com/basketball/1997-98/stadium-club-printing-plates/168c-shandon-anderson-yellow-3139216
p1037
asg17
g18
sg19
(lp1038
Vhttp://img.beckett.com/images/no-image.jpg
p1039
asg22
V#168C
p1040
sg24
V1997-98
p1041
sg26
g27
sg28
(lp1042
VShandon Anderson Yellow
p1043
assbag1
(g2
g3
Ntp1044
Rp1045
(dp1046
g7
(dp1047
g9
V1997-98 Stadium Club Printing Plates #179 Shandon Anderson Black
p1048
sg11
I1
sg12
VStadium Club Printing Plates
p1049
sg14
(lp1050
Vhttp://www.beckett.com/basketball/1997-98/stadium-club-printing-plates/179-shandon-anderson-black-3139257
p1051
asg17
g18
sg19
(lp1052
Vhttp://img.beckett.com/images/no-image.jpg
p1053
asg22
V#179
p1054
sg24
V1997-98
p1055
sg26
g27
sg28
(lp1056
VShandon Anderson Black
p1057
assbag1
(g2
g3
Ntp1058
Rp1059
(dp1060
g7
(dp1061
g9
V1997-98 Stadium Club Printing Plates #179A Shandon Anderson Cyan
p1062
sg11
I1
sg12
VStadium Club Printing Plates
p1063
sg14
(lp1064
Vhttp://www.beckett.com/basketball/1997-98/stadium-club-printing-plates/179a-shandon-anderson-cyan-3139258
p1065
asg17
g18
sg19
(lp1066
Vhttp://img.beckett.com/images/no-image.jpg
p1067
asg22
V#179A
p1068
sg24
V1997-98
p1069
sg26
g27
sg28
(lp1070
VShandon Anderson Cyan
p1071
assbag1
(g2
g3
Ntp1072
Rp1073
(dp1074
g7
(dp1075
g9
V1997-98 Stadium Club Printing Plates #179B Shandon Anderson Magenta
p1076
sg11
I1
sg12
VStadium Club Printing Plates
p1077
sg14
(lp1078
Vhttp://www.beckett.com/basketball/1997-98/stadium-club-printing-plates/179b-shandon-anderson-magenta-3139259
p1079
asg17
g18
sg19
(lp1080
Vhttp://img.beckett.com/images/no-image.jpg
p1081
asg22
V#179B
p1082
sg24
V1997-98
p1083
sg26
g27
sg28
(lp1084
VShandon Anderson Magenta
p1085
assbag1
(g2
g3
Ntp1086
Rp1087
(dp1088
g7
(dp1089
g9
V1997-98 Stadium Club Printing Plates #179C Shandon Anderson Yellow
p1090
sg11
I1
sg12
VStadium Club Printing Plates
p1091
sg14
(lp1092
Vhttp://www.beckett.com/basketball/1997-98/stadium-club-printing-plates/179c-shandon-anderson-yellow-3139260
p1093
asg17
g18
sg19
(lp1094
Vhttp://img.beckett.com/images/no-image.jpg
p1095
asg22
V#179C
p1096
sg24
V1997-98
p1097
sg26
g27
sg28
(lp1098
VShandon Anderson Yellow
p1099
assbag1
(g2
g3
Ntp1100
Rp1101
(dp1102
g7
(dp1103
g9
V1997-98 Stadium Club Printing Plates #193 Jeff Hornacek Black
p1104
sg11
I1
sg12
VStadium Club Printing Plates
p1105
sg14
(lp1106
Vhttp://www.beckett.com/basketball/1997-98/stadium-club-printing-plates/193-jeff-hornacek-black-3139313
p1107
asg17
g18
sg19
(lp1108
Vhttp://img.beckett.com/images/no-image.jpg
p1109
asg22
V#193
p1110
sg24
V1997-98
p1111
sg26
g27
sg28
(lp1112
VJeff Hornacek Black
p1113
assbag1
(g2
g3
Ntp1114
Rp1115
(dp1116
g7
(dp1117
g9
V1997-98 Stadium Club Printing Plates #193A Jeff Hornacek Cyan
p1118
sg11
I1
sg12
VStadium Club Printing Plates
p1119
sg14
(lp1120
Vhttp://www.beckett.com/basketball/1997-98/stadium-club-printing-plates/193a-jeff-hornacek-cyan-3139314
p1121
asg17
g18
sg19
(lp1122
Vhttp://img.beckett.com/images/no-image.jpg
p1123
asg22
V#193A
p1124
sg24
V1997-98
p1125
sg26
g27
sg28
(lp1126
VJeff Hornacek Cyan
p1127
assbag1
(g2
g3
Ntp1128
Rp1129
(dp1130
g7
(dp1131
g9
V1997-98 Stadium Club Printing Plates #193B Jeff Hornacek Magenta
p1132
sg11
I1
sg12
VStadium Club Printing Plates
p1133
sg14
(lp1134
Vhttp://www.beckett.com/basketball/1997-98/stadium-club-printing-plates/193b-jeff-hornacek-magenta-3139315
p1135
asg17
g18
sg19
(lp1136
Vhttp://img.beckett.com/images/no-image.jpg
p1137
asg22
V#193B
p1138
sg24
V1997-98
p1139
sg26
g27
sg28
(lp1140
VJeff Hornacek Magenta
p1141
assbag1
(g2
g3
Ntp1142
Rp1143
(dp1144
g7
(dp1145
g9
V1997-98 Stadium Club Printing Plates #193C Jeff Hornacek Yellow
p1146
sg11
I1
sg12
VStadium Club Printing Plates
p1147
sg14
(lp1148
Vhttp://www.beckett.com/basketball/1997-98/stadium-club-printing-plates/193c-jeff-hornacek-yellow-3139316
p1149
asg17
g18
sg19
(lp1150
Vhttp://img.beckett.com/images/no-image.jpg
p1151
asg22
V#193C
p1152
sg24
V1997-98
p1153
sg26
g27
sg28
(lp1154
VJeff Hornacek Yellow
p1155
assbag1
(g2
g3
Ntp1156
Rp1157
(dp1158
g7
(dp1159
g9
V1997-98 Ultra Masterpieces #12 Karl Malone
p1160
sg11
I1
sg12
VUltra Masterpieces
p1161
sg14
(lp1162
Vhttp://www.beckett.com/basketball/1997-98/ultra-masterpieces/12-karl-malone-3135742
p1163
asg17
g18
sg19
(lp1164
Vhttp://img.beckett.com/images/no-image.jpg
p1165
asg22
V#12
p1166
sg24
V1997-98
p1167
sg26
g27
sg28
(lp1168
VKarl Malone
p1169
assbag1
(g2
g3
Ntp1170
Rp1171
(dp1172
g7
(dp1173
g9
V1997-98 Ultra Masterpieces #25 Bryon Russell
p1174
sg11
I1
sg12
VUltra Masterpieces
p1175
sg14
(lp1176
Vhttp://www.beckett.com/basketball/1997-98/ultra-masterpieces/25-bryon-russell-3135755
p1177
asg17
g18
sg19
(lp1178
Vhttp://img.beckett.com/images/no-image.jpg
p1179
asg22
V#25
p1180
sg24
V1997-98
p1181
sg26
g27
sg28
(lp1182
VBryon Russell
p1183
assbag1
(g2
g3
Ntp1184
Rp1185
(dp1186
g7
(dp1187
g9
V1997-98 Ultra Masterpieces #30 John Stockton
p1188
sg11
I1
sg12
VUltra Masterpieces
p1189
sg14
(lp1190
Vhttp://www.beckett.com/basketball/1997-98/ultra-masterpieces/30-john-stockton-3135760
p1191
asg17
g18
sg19
(lp1192
Vhttp://img.beckett.com/images/no-image.jpg
p1193
asg22
V#30
p1194
sg24
V1997-98
p1195
sg26
g27
sg28
(lp1196
VJohn Stockton
p1197
assbag1
(g2
g3
Ntp1198
Rp1199
(dp1200
g7
(dp1201
g9
V1997-98 Ultra Masterpieces #89 Jeff Hornacek
p1202
sg11
I1
sg12
VUltra Masterpieces
p1203
sg14
(lp1204
Vhttp://www.beckett.com/basketball/1997-98/ultra-masterpieces/89-jeff-hornacek-3135819
p1205
asg17
g18
sg19
(lp1206
Vhttp://img.beckett.com/images/no-image.jpg
p1207
asg22
V#89
p1208
sg24
V1997-98
p1209
sg26
g27
sg28
(lp1210
VJeff Hornacek
p1211
assbag1
(g2
g3
Ntp1212
Rp1213
(dp1214
g7
(dp1215
g9
V1997-98 Ultra Masterpieces #148 Jacque Vaughn
p1216
sg11
I1
sg12
VUltra Masterpieces
p1217
sg14
(lp1218
Vhttp://www.beckett.com/basketball/1997-98/ultra-masterpieces/148-jacque-vaughn-3135878
p1219
asg17
g18
sg19
(lp1220
Vhttp://img.beckett.com/images/no-image.jpg
p1221
asg22
V#148
p1222
sg24
V1997-98
p1223
sg26
g27
sg28
(lp1224
VJacque Vaughn
p1225
assbag1
(g2
g3
Ntp1226
Rp1227
(dp1228
g7
(dp1229
g9
V1997-98 Ultra Masterpieces #186 Adam Keefe
p1230
sg11
I1
sg12
VUltra Masterpieces
p1231
sg14
(lp1232
Vhttp://www.beckett.com/basketball/1997-98/ultra-masterpieces/186-adam-keefe-3135914
p1233
asg17
g18
sg19
(lp1234
Vhttp://img.beckett.com/images/no-image.jpg
p1235
asg22
V#186
p1236
sg24
V1997-98
p1237
sg26
g27
sg28
(lp1238
VAdam Keefe
p1239
assbag1
(g2
g3
Ntp1240
Rp1241
(dp1242
g7
(dp1243
g9
V1997-98 Ultra Masterpieces #195 Chris Morris
p1244
sg11
I1
sg12
VUltra Masterpieces
p1245
sg14
(lp1246
Vhttp://www.beckett.com/basketball/1997-98/ultra-masterpieces/195-chris-morris-3135923
p1247
asg17
g18
sg19
(lp1248
Vhttp://img.beckett.com/images/no-image.jpg
p1249
asg22
V#195
p1250
sg24
V1997-98
p1251
sg26
g27
sg28
(lp1252
VChris Morris
p1253
assbag1
(g2
g3
Ntp1254
Rp1255
(dp1256
g7
(dp1257
g9
V1997-98 Ultra Masterpieces #204 Jacque Vaughn
p1258
sg11
I1
sg12
VUltra Masterpieces
p1259
sg14
(lp1260
Vhttp://www.beckett.com/basketball/1997-98/ultra-masterpieces/204-jacque-vaughn-3135932
p1261
asg17
g18
sg19
(lp1262
Vhttp://img.beckett.com/images/no-image.jpg
p1263
asg22
V#204
p1264
sg24
V1997-98
p1265
sg26
g27
sg28
(lp1266
VJacque Vaughn
p1267
assbag1
(g2
g3
Ntp1268
Rp1269
(dp1270
g7
(dp1271
g9
V1997-98 Ultra Masterpieces #262 Karl Malone GRE
p1272
sg11
I1
sg12
VUltra Masterpieces
p1273
sg14
(lp1274
Vhttp://www.beckett.com/basketball/1997-98/ultra-masterpieces/262-karl-malone-gre-3135990
p1275
asg17
g18
sg19
(lp1276
Vhttp://img.beckett.com/images/no-image.jpg
p1277
asg22
V#262
p1278
sg24
V1997-98
p1279
sg127
VGRE
p1280
sg26
g27
sg28
(lp1281
VKarl Malone
p1282
assbag1
(g2
g3
Ntp1283
Rp1284
(dp1285
g7
(dp1286
g9
V1997-98 Ultra Platinum Medallion #12 Karl Malone
p1287
sg11
I100
sg12
VUltra Platinum Medallion
p1288
sg14
(lp1289
Vhttp://www.beckett.com/basketball/1997-98/ultra-platinum-medallion/12-karl-malone-3136026
p1290
asg17
g18
sg19
(lp1291
Vhttp://img.beckett.com/images/no-image.jpg
p1292
asg22
V#12
p1293
sg24
V1997-98
p1294
sg26
g27
sg28
(lp1295
VKarl Malone
p1296
assbag1
(g2
g3
Ntp1297
Rp1298
(dp1299
g7
(dp1300
g9
V1997-98 Ultra Platinum Medallion #25 Bryon Russell
p1301
sg11
I100
sg12
VUltra Platinum Medallion
p1302
sg14
(lp1303
Vhttp://www.beckett.com/basketball/1997-98/ultra-platinum-medallion/25-bryon-russell-3136039
p1304
asg17
g18
sg19
(lp1305
Vhttp://img.beckett.com/images/no-image.jpg
p1306
asg22
V#25
p1307
sg24
V1997-98
p1308
sg26
g27
sg28
(lp1309
VBryon Russell
p1310
assbag1
(g2
g3
Ntp1311
Rp1312
(dp1313
g7
(dp1314
g9
V1997-98 Ultra Platinum Medallion #30 John Stockton
p1315
sg11
I100
sg12
VUltra Platinum Medallion
p1316
sg14
(lp1317
Vhttp://www.beckett.com/basketball/1997-98/ultra-platinum-medallion/30-john-stockton-3136044
p1318
asg17
g18
sg19
(lp1319
Vhttp://img.beckett.com/images/no-image.jpg
p1320
asg22
V#30
p1321
sg24
V1997-98
p1322
sg26
g27
sg28
(lp1323
VJohn Stockton
p1324
assbag1
(g2
g3
Ntp1325
Rp1326
(dp1327
g7
(dp1328
g9
V1997-98 Ultra Platinum Medallion #89 Jeff Hornacek
p1329
sg11
I100
sg12
VUltra Platinum Medallion
p1330
sg14
(lp1331
Vhttp://www.beckett.com/basketball/1997-98/ultra-platinum-medallion/89-jeff-hornacek-3136103
p1332
asg17
g18
sg19
(lp1333
Vhttp://img.beckett.com/images/no-image.jpg
p1334
asg22
V#89
p1335
sg24
V1997-98
p1336
sg26
g27
sg28
(lp1337
VJeff Hornacek
p1338
assbag1
(g2
g3
Ntp1339
Rp1340
(dp1341
g7
(dp1342
g9
V1997-98 Ultra Platinum Medallion #148 Jacque Vaughn
p1343
sg11
I100
sg12
VUltra Platinum Medallion
p1344
sg14
(lp1345
Vhttp://www.beckett.com/basketball/1997-98/ultra-platinum-medallion/148-jacque-vaughn-3136162
p1346
asg17
g18
sg19
(lp1347
Vhttp://img.beckett.com/images/no-image.jpg
p1348
asg22
V#148
p1349
sg24
V1997-98
p1350
sg26
g27
sg28
(lp1351
VJacque Vaughn
p1352
assbag1
(g2
g3
Ntp1353
Rp1354
(dp1355
g7
(dp1356
g9
V1997-98 Ultra Platinum Medallion #186 Adam Keefe
p1357
sg11
I100
sg12
VUltra Platinum Medallion
p1358
sg14
(lp1359
Vhttp://www.beckett.com/basketball/1997-98/ultra-platinum-medallion/186-adam-keefe-3136198
p1360
asg17
g18
sg19
(lp1361
Vhttp://img.beckett.com/images/no-image.jpg
p1362
asg22
V#186
p1363
sg24
V1997-98
p1364
sg26
g27
sg28
(lp1365
VAdam Keefe
p1366
assbag1
(g2
g3
Ntp1367
Rp1368
(dp1369
g7
(dp1370
g9
V1997-98 Ultra Platinum Medallion #195 Chris Morris
p1371
sg11
I100
sg12
VUltra Platinum Medallion
p1372
sg14
(lp1373
Vhttp://www.beckett.com/basketball/1997-98/ultra-platinum-medallion/195-chris-morris-3136207
p1374
asg17
g18
sg19
(lp1375
Vhttp://img.beckett.com/images/no-image.jpg
p1376
asg22
V#195
p1377
sg24
V1997-98
p1378
sg26
g27
sg28
(lp1379
VChris Morris
p1380
assbag1
(g2
g3
Ntp1381
Rp1382
(dp1383
g7
(dp1384
g9
V1997-98 Ultra Platinum Medallion #204 Jacque Vaughn
p1385
sg11
I100
sg12
VUltra Platinum Medallion
p1386
sg14
(lp1387
Vhttp://www.beckett.com/basketball/1997-98/ultra-platinum-medallion/204-jacque-vaughn-3136216
p1388
asg17
g18
sg19
(lp1389
Vhttp://img.beckett.com/images/no-image.jpg
p1390
asg22
V#204
p1391
sg24
V1997-98
p1392
sg26
g27
sg28
(lp1393
VJacque Vaughn
p1394
assbag1
(g2
g3
Ntp1395
Rp1396
(dp1397
g7
(dp1398
g9
V1997-98 Ultra Platinum Medallion #262 Karl Malone GRE
p1399
sg11
I100
sg12
VUltra Platinum Medallion
p1400
sg14
(lp1401
Vhttp://www.beckett.com/basketball/1997-98/ultra-platinum-medallion/262-karl-malone-gre-3136274
p1402
asg17
g18
sg19
(lp1403
Vhttp://img.beckett.com/images/no-image.jpg
p1404
asg22
V#262
p1405
sg24
V1997-98
p1406
sg127
VGRE
p1407
sg26
g27
sg28
(lp1408
VKarl Malone
p1409
assbag1
(g2
g3
Ntp1410
Rp1411
(dp1412
g7
(dp1413
g9
V1997-98 Z-Force Rave #12 John Stockton
p1414
sg11
I399
sg12
VZ-Force Rave
p1415
sg14
(lp1416
Vhttp://www.beckett.com/basketball/1997-98/z-force-rave/12-john-stockton-3133036
p1417
asg17
g18
sg19
(lp1418
Vhttp://img.beckett.com/images/no-image.jpg
p1419
asg22
V#12
p1420
sg24
V1997-98
p1421
sg26
g27
sg28
(lp1422
VJohn Stockton
p1423
assbag1
(g2
g3
Ntp1424
Rp1425
(dp1426
g7
(dp1427
g9
V1997-98 Z-Force Rave #32 Karl Malone
p1428
sg11
I399
sg12
VZ-Force Rave
p1429
sg14
(lp1430
Vhttp://www.beckett.com/basketball/1997-98/z-force-rave/32-karl-malone-3133056
p1431
asg17
g18
sg19
(lp1432
Vhttp://img.beckett.com/images/no-image.jpg
p1433
asg22
V#32
p1434
sg24
V1997-98
p1435
sg26
g27
sg28
(lp1436
VKarl Malone
p1437
assbag1
(g2
g3
Ntp1438
Rp1439
(dp1440
g7
(dp1441
g9
V1997-98 Z-Force Rave #61 Jeff Hornacek
p1442
sg11
I399
sg12
VZ-Force Rave
p1443
sg14
(lp1444
Vhttp://www.beckett.com/basketball/1997-98/z-force-rave/61-jeff-hornacek-3133085
p1445
asg17
g18
sg19
(lp1446
Vhttp://img.beckett.com/images/items_stock/185226/3133012/3133085/front.jpg
p1447
asg22
V#61
p1448
sg24
V1997-98
p1449
sg26
g27
sg28
(lp1450
VJeff Hornacek
p1451
assbag1
(g2
g3
Ntp1452
Rp1453
(dp1454
g7
(dp1455
g9
V1997-98 Z-Force Rave #82 Bryon Russell
p1456
sg11
I399
sg12
VZ-Force Rave
p1457
sg14
(lp1458
Vhttp://www.beckett.com/basketball/1997-98/z-force-rave/82-bryon-russell-3133106
p1459
asg17
g18
sg19
(lp1460
Vhttp://img.beckett.com/images/items_stock/185226/3133012/3133106/front.jpg
p1461
asg22
V#82
p1462
sg24
V1997-98
p1463
sg26
g27
sg28
(lp1464
VBryon Russell
p1465
assbag1
(g2
g3
Ntp1466
Rp1467
(dp1468
g7
(dp1469
g9
V1997-98 Z-Force Rave #115 Jacque Vaughn
p1470
sg11
I399
sg12
VZ-Force Rave
p1471
sg14
(lp1472
Vhttp://www.beckett.com/basketball/1997-98/z-force-rave/115-jacque-vaughn-3133137
p1473
asg17
g18
sg19
(lp1474
Vhttp://img.beckett.com/images/no-image.jpg
p1475
asg22
V#115
p1476
sg24
V1997-98
p1477
sg26
g27
sg28
(lp1478
VJacque Vaughn
p1479
assbag1
(g2
g3
Ntp1480
Rp1481
(dp1482
g7
(dp1483
g9
V1997-98 Z-Force Rave #188 Greg Ostertag
p1484
sg11
I399
sg12
VZ-Force Rave
p1485
sg14
(lp1486
Vhttp://www.beckett.com/basketball/1997-98/z-force-rave/188-greg-ostertag-3133211
p1487
asg17
g18
sg19
(lp1488
Vhttp://img.beckett.com/images/items_stock/185226/3133012/3133211/front.jpg
p1489
asg22
V#188
p1490
sg24
V1997-98
p1491
sg26
g27
sg28
(lp1492
VGreg Ostertag
p1493
assbag1
(g2
g3
Ntp1494
Rp1495
(dp1496
g7
(dp1497
g9
V1997-98 Z-Force Rave #206 Karl Malone ZUP
p1498
sg11
I399
sg12
VZ-Force Rave
p1499
sg14
(lp1500
Vhttp://www.beckett.com/basketball/1997-98/z-force-rave/206-karl-malone-zup-3133229
p1501
asg17
g18
sg19
(lp1502
Vhttp://img.beckett.com/images/no-image.jpg
p1503
asg22
V#206
p1504
sg24
V1997-98
p1505
sg127
VZUP
p1506
sg26
g27
sg28
(lp1507
VKarl Malone
p1508
assbag1
(g2
g3
Ntp1509
Rp1510
(dp1511
g7
(dp1512
g9
V1997-98 Z-Force Rave #207 John Stockton ZUP
p1513
sg11
I399
sg12
VZ-Force Rave
p1514
sg14
(lp1515
Vhttp://www.beckett.com/basketball/1997-98/z-force-rave/207-john-stockton-zup-3133230
p1516
asg17
g18
sg19
(lp1517
Vhttp://img.beckett.com/images/items_stock/185226/3133012/3133230/front.jpg
p1518
asg22
V#207
p1519
sg24
V1997-98
p1520
sg127
VZUP
p1521
sg26
g27
sg28
(lp1522
VJohn Stockton
p1523
assbag1
(g2
g3
Ntp1524
Rp1525
(dp1526
g7
(dp1527
g9
V1997-98 Z-Force Super Rave #115 Jacque Vaughn
p1528
sg11
I50
sg12
VZ-Force Super Rave
p1529
sg14
(lp1530
Vhttp://www.beckett.com/basketball/1997-98/z-force-super-rave/115-jacque-vaughn-3133249
p1531
asg17
g18
sg19
(lp1532
Vhttp://img.beckett.com/images/no-image.jpg
p1533
asg22
V#115
p1534
sg24
V1997-98
p1535
sg26
g27
sg28
(lp1536
VJacque Vaughn
p1537
assbag1
(g2
g3
Ntp1538
Rp1539
(dp1540
g7
(dp1541
g9
V1997-98 Z-Force Super Rave #188 Greg Ostertag
p1542
sg11
I50
sg12
VZ-Force Super Rave
p1543
sg14
(lp1544
Vhttp://www.beckett.com/basketball/1997-98/z-force-super-rave/188-greg-ostertag-3133323
p1545
asg17
g18
sg19
(lp1546
Vhttp://img.beckett.com/images/no-image.jpg
p1547
asg22
V#188
p1548
sg24
V1997-98
p1549
sg26
g27
sg28
(lp1550
VGreg Ostertag
p1551
assbag1
(g2
g3
Ntp1552
Rp1553
(dp1554
g7
(dp1555
g9
V1997-98 Z-Force Super Rave #206 Karl Malone ZUP
p1556
sg11
I50
sg12
VZ-Force Super Rave
p1557
sg14
(lp1558
Vhttp://www.beckett.com/basketball/1997-98/z-force-super-rave/206-karl-malone-zup-3133341
p1559
asg17
g18
sg19
(lp1560
Vhttp://img.beckett.com/images/no-image.jpg
p1561
asg22
V#206
p1562
sg24
V1997-98
p1563
sg127
VZUP
p1564
sg26
g27
sg28
(lp1565
VKarl Malone
p1566
assbag1
(g2
g3
Ntp1567
Rp1568
(dp1569
g7
(dp1570
g9
V1997-98 Z-Force Super Rave #207 John Stockton ZUP
p1571
sg11
I50
sg12
VZ-Force Super Rave
p1572
sg14
(lp1573
Vhttp://www.beckett.com/basketball/1997-98/z-force-super-rave/207-john-stockton-zup-3133342
p1574
asg17
g18
sg19
(lp1575
Vhttp://img.beckett.com/images/no-image.jpg
p1576
asg22
V#207
p1577
sg24
V1997-98
p1578
sg127
VZUP
p1579
sg26
g27
sg28
(lp1580
VJohn Stockton
p1581
assbag1
(g2
g3
Ntp1582
Rp1583
(dp1584
g7
(dp1585
g9
V1997-98 Upper Deck Great Eight #G6 Karl Malone
p1586
sg11
I800
sg12
VUpper Deck Great Eight
p1587
sg14
(lp1588
Vhttp://www.beckett.com/basketball/1997-98/upper-deck-great-eight/g6-karl-malone-3132412
p1589
asg17
g18
sg19
(lp1590
Vhttp://img.beckett.com/images/no-image.jpg
p1591
asg22
V#G6
p1592
sg24
V1997-98
p1593
sg26
g27
sg28
(lp1594
VKarl Malone
p1595
assbag1
(g2
g3
Ntp1596
Rp1597
(dp1598
g7
(dp1599
g9
V1997-98 Upper Deck Great Eight #G8 John Stockton
p1600
sg11
I800
sg12
VUpper Deck Great Eight
p1601
sg14
(lp1602
Vhttp://www.beckett.com/basketball/1997-98/upper-deck-great-eight/g8-john-stockton-3132414
p1603
asg17
g18
sg19
(lp1604
Vhttp://img.beckett.com/images/no-image.jpg
p1605
asg22
V#G8
p1606
sg24
V1997-98
p1607
sg26
g27
sg28
(lp1608
VJohn Stockton
p1609
assbag1
(g2
g3
Ntp1610
Rp1611
(dp1612
g7
(dp1613
g9
V1997-98 Upper Deck High Dimensions #D25 Karl Malone
p1614
sg11
I2000
sg12
VUpper Deck High Dimensions
p1615
sg14
(lp1616
Vhttp://www.beckett.com/basketball/1997-98/upper-deck-high-dimensions/d25-karl-malone-3132447
p1617
asg17
g18
sg19
(lp1618
Vhttp://img.beckett.com/images/no-image.jpg
p1619
asg22
V#D25
p1620
sg24
V1997-98
p1621
sg26
g27
sg28
(lp1622
VKarl Malone
p1623
assbag1
(g2
g3
Ntp1624
Rp1625
(dp1626
g7
(dp1627
g9
V1997-98 Hoops High Voltage 500 #HV20 Karl Malone
p1628
sg11
I500
sg12
VHoops High Voltage 500
p1629
sg14
(lp1630
Vhttp://www.beckett.com/basketball/1997-98/hoops-high-voltage-500/hv20-karl-malone-3142309
p1631
asg17
g18
sg19
(lp1632
Vhttp://img.beckett.com/images/no-image.jpg
p1633
asg22
V#HV20
p1634
sg24
V1997-98
p1635
sg26
g27
sg28
(lp1636
VKarl Malone
p1637
assbag1
(g2
g3
Ntp1638
Rp1639
(dp1640
g7
(dp1641
g9
V1997-98 Metal Universe Precious Metal Gems Emerald #86 Jeff Hornacek
p1642
sg11
I10
sg12
VMetal Universe Precious Metal Gems Emerald
p1643
sg14
(lp1644
Vhttp://www.beckett.com/basketball/1997-98/metal-universe-precious-metal-gems-emerald/86-jeff-hornacek-7055535
p1645
asg17
g18
sg19
(lp1646
Vhttp://img.beckett.com/images/no-image.jpg
p1647
asg22
V#86
p1648
sg24
V1997-98
p1649
sg26
g27
sg28
(lp1650
VJeff Hornacek
p1651
assbag1
(g2
g3
Ntp1652
Rp1653
(dp1654
g7
(dp1655
g9
V1997-98 Metal Universe Precious Metal Gems Emerald #97 Karl Malone
p1656
sg11
I10
sg12
VMetal Universe Precious Metal Gems Emerald
p1657
sg14
(lp1658
Vhttp://www.beckett.com/basketball/1997-98/metal-universe-precious-metal-gems-emerald/97-karl-malone-7055546
p1659
asg17
g18
sg19
(lp1660
Vhttp://img.beckett.com/images/no-image.jpg
p1661
asg22
V#97
p1662
sg24
V1997-98
p1663
sg26
g27
sg28
(lp1664
VKarl Malone
p1665
assbag1
(g2
g3
Ntp1666
Rp1667
(dp1668
g7
(dp1669
g9
V1997-98 Metal Universe Precious Metal Gems Emerald #99 Bryon Russell
p1670
sg11
I10
sg12
VMetal Universe Precious Metal Gems Emerald
p1671
sg14
(lp1672
Vhttp://www.beckett.com/basketball/1997-98/metal-universe-precious-metal-gems-emerald/99-bryon-russell-7055548
p1673
asg17
g18
sg19
(lp1674
Vhttp://img.beckett.com/images/no-image.jpg
p1675
asg22
V#99
p1676
sg24
V1997-98
p1677
sg26
g27
sg28
(lp1678
VBryon Russell
p1679
assbag1
(g2
g3
Ntp1680
Rp1681
(dp1682
g7
(dp1683
g9
V1997-98 Metal Universe Precious Metal Gems Emerald #119 John Stockton
p1684
sg11
I10
sg12
VMetal Universe Precious Metal Gems Emerald
p1685
sg14
(lp1686
Vhttp://www.beckett.com/basketball/1997-98/metal-universe-precious-metal-gems-emerald/119-john-stockton-7055568
p1687
asg17
g18
sg19
(lp1688
Vhttp://img.beckett.com/images/no-image.jpg
p1689
asg22
V#119
p1690
sg24
V1997-98
p1691
sg26
g27
sg28
(lp1692
VJohn Stockton
p1693
assbag1
(g2
g3
Ntp1694
Rp1695
(dp1696
g7
(dp1697
g9
V1997-98 SP Authentic Profiles 3 #P9 Karl Malone
p1698
sg11
I100
sg12
VSP Authentic Profiles 3
p1699
sg14
(lp1700
Vhttp://www.beckett.com/basketball/1997-98/sp-authentic-profiles-3/p9-karl-malone-3140290
p1701
asg17
g18
sg19
(lp1702
Vhttp://img.beckett.com/images/no-image.jpg
p1703
asg22
V#P9
p1704
sg24
V1997-98
p1705
sg26
g27
sg28
(lp1706
VKarl Malone
p1707
assbag1
(g2
g3
Ntp1708
Rp1709
(dp1710
g7
(dp1711
g9
V1997-98 SP Authentic Profiles 3 #P35 John Stockton
p1712
sg11
I100
sg12
VSP Authentic Profiles 3
p1713
sg14
(lp1714
Vhttp://www.beckett.com/basketball/1997-98/sp-authentic-profiles-3/p35-john-stockton-3140316
p1715
asg17
g18
sg19
(lp1716
Vhttp://img.beckett.com/images/no-image.jpg
p1717
asg22
V#P35
p1718
sg24
V1997-98
p1719
sg26
g27
sg28
(lp1720
VJohn Stockton
p1721
assbag1
(g2
g3
Ntp1722
Rp1723
(dp1724
g7
(dp1725
g9
V1997-98 Upper Deck Diamond Dimensions #D25 Karl Malone
p1726
sg11
I100
sg12
VUpper Deck Diamond Dimensions
p1727
sg14
(lp1728
Vhttp://www.beckett.com/basketball/1997-98/upper-deck-diamond-dimensions/d25-karl-malone-3132485
p1729
asg17
g18
sg19
(lp1730
Vhttp://img.beckett.com/images/no-image.jpg
p1731
asg22
V#D25
p1732
sg24
V1997-98
p1733
sg26
g27
sg28
(lp1734
VKarl Malone
p1735
assba.