(lp0
Naccopy_reg
_reconstructor
p1
(ctutorial.items
BeckettItem
p2
c__builtin__
object
p3
Ntp4
Rp5
(dp6
S'_values'
p7
(dp8
S'originalItemDescription'
p9
V1998 Upper Deck Hardcourt Home Court Advantage Plus #18 Dikembe Mutombo
p10
sS'serialNumber'
p11
I500
sS'setName'
p12
VUpper Deck Hardcourt Home Court Advantage Plus
p13
sS'beckettLink'
p14
(lp15
Vhttp://www.beckett.com/basketball/1998/upper-deck-hardcourt-home-court-advantage-plus/18-dikembe-mutombo-3150430
p16
asS'team'
p17
S'Atlanta Hawks'
p18
sS'imageLink'
p19
(lp20
Vhttp://img.beckett.com/images/no-image.jpg
p21
asS'cardNumber'
p22
V#18
p23
sS'year'
p24
V1998
p25
sS'sport'
p26
S'Basketball'
p27
sS'playerNames'
p28
(lp29
VDikembe Mutombo
p30
assbag1
(g2
g3
Ntp31
Rp32
(dp33
g7
(dp34
g9
V1998 Upper Deck Hardcourt High Court #H1 Dikembe Mutombo
p35
sg11
I1300
sg12
VUpper Deck Hardcourt High Court
p36
sg14
(lp37
Vhttp://www.beckett.com/basketball/1998/upper-deck-hardcourt-high-court/h1-dikembe-mutombo-3150510
p38
asg17
g18
sg19
(lp39
Vhttp://img.beckett.com/images/items_stock/185226/3150503/3150510/front.jpg
p40
asg22
V#H1
p41
sg24
V1998
p42
sg26
g27
sg28
(lp43
VDikembe Mutombo
p44
assbag1
(g2
g3
Ntp45
Rp46
(dp47
g7
(dp48
g9
V1998-99 SP Authentic #108 Roshown McLeod RC
p49
sg11
I3500
sg12
VSP Authentic
p50
sg14
(lp51
Vhttp://www.beckett.com/basketball/1998-99/sp-authentic/108-roshown-mcleod-rc-3163030
p52
asg17
g18
sS'rookieCard'
p53
I1
sg19
(lp54
Vhttp://img.beckett.com/images/items_stock/185226/3162913/3163030/front.jpg
p55
asg22
V#108
p56
sg24
V1998-99
p57
sg26
g27
sg28
(lp58
VRoshown McLeod
p59
assbag1
(g2
g3
Ntp60
Rp61
(dp62
g7
(dp63
g9
V1998-99 SPx Finite #5 Mookie Blaylock
p64
sg11
I10000
sg12
VSPx Finite
p65
sg14
(lp66
Vhttp://www.beckett.com/basketball/1998-99/spx-finite/5-mookie-blaylock-3163281
p67
asg17
g18
sg19
(lp68
Vhttp://img.beckett.com/images/items_stock/185226/3163241/3163281/front.jpg
p69
asg22
V#5
p70
sg24
V1998-99
p71
sg26
g27
sg28
(lp72
VMookie Blaylock
p73
assbag1
(g2
g3
Ntp74
Rp75
(dp76
g7
(dp77
g9
V1998-99 SPx Finite #16 Alan Henderson
p78
sg11
I10000
sg12
VSPx Finite
p79
sg14
(lp80
Vhttp://www.beckett.com/basketball/1998-99/spx-finite/16-alan-henderson-3163292
p81
asg17
g18
sg19
(lp82
Vhttp://img.beckett.com/images/items_stock/185226/3163241/3163292/front.jpg
p83
asg22
V#16
p84
sg24
V1998-99
p85
sg26
g27
sg28
(lp86
VAlan Henderson
p87
assbag1
(g2
g3
Ntp88
Rp89
(dp90
g7
(dp91
g9
V1998-99 SPx Finite #59 Dikembe Mutombo
p92
sg11
I10000
sg12
VSPx Finite
p93
sg14
(lp94
Vhttp://www.beckett.com/basketball/1998-99/spx-finite/59-dikembe-mutombo-3163335
p95
asg17
g18
sg19
(lp96
Vhttp://img.beckett.com/images/items_stock/185226/3163241/3163335/front.jpg
p97
asg22
V#59
p98
sg24
V1998-99
p99
sg26
g27
sg28
(lp100
VDikembe Mutombo
p101
assbag1
(g2
g3
Ntp102
Rp103
(dp104
g7
(dp105
g9
V1998-99 SPx Finite #103 Dikembe Mutombo SP
p106
sg11
I5400
sg12
VSPx Finite
p107
sg14
(lp108
Vhttp://www.beckett.com/basketball/1998-99/spx-finite/103-dikembe-mutombo-sp-3163379
p109
asg17
g18
sg19
(lp110
Vhttp://img.beckett.com/images/items_stock/185226/3163241/3163379/front.jpg
p111
asg22
V#103
p112
sg24
V1998-99
p113
sS'subsetName'
p114
VSP
p115
sg26
g27
sg28
(lp116
VDikembe Mutombo
p117
assbag1
(g2
g3
Ntp118
Rp119
(dp120
g7
(dp121
g9
V1998-99 SPx Finite #179 Alan Henderson SPx
p122
sg11
I4050
sg12
VSPx Finite
p123
sg14
(lp124
Vhttp://www.beckett.com/basketball/1998-99/spx-finite/179-alan-henderson-spx-3163455
p125
asg17
g18
sg19
(lp126
Vhttp://img.beckett.com/images/items_stock/185226/3163241/3163455/front.jpg
p127
asg22
V#179
p128
sg24
V1998-99
p129
sg114
VSPx
p130
sg26
g27
sg28
(lp131
VAlan Henderson
p132
assbag1
(g2
g3
Ntp133
Rp134
(dp135
g7
(dp136
g9
V1998-99 SPx Finite #187 Dikembe Mutombo TF
p137
sg11
I3390
sg12
VSPx Finite
p138
sg14
(lp139
Vhttp://www.beckett.com/basketball/1998-99/spx-finite/187-dikembe-mutombo-tf-3163463
p140
asg17
g18
sg19
(lp141
Vhttp://img.beckett.com/images/items_stock/185226/3163241/3163463/front.jpg
p142
asg22
V#187
p143
sg24
V1998-99
p144
sg114
VTF
p145
sg26
g27
sg28
(lp146
VDikembe Mutombo
p147
assbag1
(g2
g3
Ntp148
Rp149
(dp150
g7
(dp151
g9
V1998-99 SPx Finite #230 Roshown McLeod RC
p152
sg11
I2500
sg12
VSPx Finite
p153
sg14
(lp154
Vhttp://www.beckett.com/basketball/1998-99/spx-finite/230-roshown-mcleod-rc-3163506
p155
asg17
g18
sg53
I1
sg19
(lp156
Vhttp://img.beckett.com/images/items_stock/185226/3163241/3163506/front.jpg
p157
asg22
V#230
p158
sg24
V1998-99
p159
sg26
g27
sg28
(lp160
VRoshown McLeod
p161
assbag1
(g2
g3
Ntp162
Rp163
(dp164
g7
(dp165
g9
V1998-99 Black Diamond Double Diamond #14 Dikembe Mutombo
p166
sg11
I3000
sg12
VBlack Diamond Double Diamond
p167
sg14
(lp168
Vhttp://www.beckett.com/basketball/1998-99/black-diamond-double-diamond/14-dikembe-mutombo-3171921
p169
asg17
g18
sg19
(lp170
Vhttp://img.beckett.com/images/items_stock/185226/3171898/3171921/front.jpg
p171
asg22
V#14
p172
sg24
V1998-99
p173
sg26
g27
sg28
(lp174
VDikembe Mutombo
p175
assbag1
(g2
g3
Ntp176
Rp177
(dp178
g7
(dp179
g9
V1998-99 Black Diamond Double Diamond #16 Mookie Blaylock
p180
sg11
I3000
sg12
VBlack Diamond Double Diamond
p181
sg14
(lp182
Vhttp://www.beckett.com/basketball/1998-99/black-diamond-double-diamond/16-mookie-blaylock-3171923
p183
asg17
g18
sg19
(lp184
Vhttp://img.beckett.com/images/items_stock/185226/3171898/3171923/front.jpg
p185
asg22
V#16
p186
sg24
V1998-99
p187
sg26
g27
sg28
(lp188
VMookie Blaylock
p189
assbag1
(g2
g3
Ntp190
Rp191
(dp192
g7
(dp193
g9
V1998-99 Black Diamond Double Diamond #112 Roshown McLeod
p194
sg11
I2500
sg12
VBlack Diamond Double Diamond
p195
sg14
(lp196
Vhttp://www.beckett.com/basketball/1998-99/black-diamond-double-diamond/112-roshown-mcleod-3172019
p197
asg17
g18
sg19
(lp198
Vhttp://img.beckett.com/images/items_stock/185226/3171898/3172019/front.jpg
p199
asg22
V#112
p200
sg24
V1998-99
p201
sg26
g27
sg28
(lp202
VRoshown McLeod
p203
assbag1
(g2
g3
Ntp204
Rp205
(dp206
g7
(dp207
g9
V1998-99 Black Diamond Triple Diamond #14 Dikembe Mutombo
p208
sg11
I1500
sg12
VBlack Diamond Triple Diamond
p209
sg14
(lp210
Vhttp://www.beckett.com/basketball/1998-99/black-diamond-triple-diamond/14-dikembe-mutombo-3172051
p211
asg17
g18
sg19
(lp212
Vhttp://img.beckett.com/images/items_stock/185226/3172028/3172051/front.jpg
p213
asg22
V#14
p214
sg24
V1998-99
p215
sg26
g27
sg28
(lp216
VDikembe Mutombo
p217
assbag1
(g2
g3
Ntp218
Rp219
(dp220
g7
(dp221
g9
V1998-99 Black Diamond Triple Diamond #16 Mookie Blaylock
p222
sg11
I1500
sg12
VBlack Diamond Triple Diamond
p223
sg14
(lp224
Vhttp://www.beckett.com/basketball/1998-99/black-diamond-triple-diamond/16-mookie-blaylock-3172053
p225
asg17
g18
sg19
(lp226
Vhttp://img.beckett.com/images/items_stock/185226/3172028/3172053/front.jpg
p227
asg22
V#16
p228
sg24
V1998-99
p229
sg26
g27
sg28
(lp230
VMookie Blaylock
p231
assbag1
(g2
g3
Ntp232
Rp233
(dp234
g7
(dp235
g9
V1998-99 Black Diamond Triple Diamond #112 Roshown McLeod
p236
sg11
I1000
sg12
VBlack Diamond Triple Diamond
p237
sg14
(lp238
Vhttp://www.beckett.com/basketball/1998-99/black-diamond-triple-diamond/112-roshown-mcleod-3172149
p239
asg17
g18
sg19
(lp240
Vhttp://img.beckett.com/images/items_stock/185226/3172028/3172149/front.jpg
p241
asg22
V#112
p242
sg24
V1998-99
p243
sg26
g27
sg28
(lp244
VRoshown McLeod
p245
assbag1
(g2
g3
Ntp246
Rp247
(dp248
g7
(dp249
g9
V1998-99 Black Diamond Quadruple Diamond #14 Dikembe Mutombo
p250
sg11
I150
sg12
VBlack Diamond Quadruple Diamond
p251
sg14
(lp252
Vhttp://www.beckett.com/basketball/1998-99/black-diamond-quadruple-diamond/14-dikembe-mutombo-3170722
p253
asg17
g18
sg19
(lp254
Vhttp://img.beckett.com/images/no-image.jpg
p255
asg22
V#14
p256
sg24
V1998-99
p257
sg26
g27
sg28
(lp258
VDikembe Mutombo
p259
assbag1
(g2
g3
Ntp260
Rp261
(dp262
g7
(dp263
g9
V1998-99 Black Diamond Quadruple Diamond #16 Mookie Blaylock
p264
sg11
I150
sg12
VBlack Diamond Quadruple Diamond
p265
sg14
(lp266
Vhttp://www.beckett.com/basketball/1998-99/black-diamond-quadruple-diamond/16-mookie-blaylock-3170724
p267
asg17
g18
sg19
(lp268
Vhttp://img.beckett.com/images/no-image.jpg
p269
asg22
V#16
p270
sg24
V1998-99
p271
sg26
g27
sg28
(lp272
VMookie Blaylock
p273
assbag1
(g2
g3
Ntp274
Rp275
(dp276
g7
(dp277
g9
V1998-99 Black Diamond Quadruple Diamond #112 Roshown McLeod
p278
sg11
I50
sg12
VBlack Diamond Quadruple Diamond
p279
sg14
(lp280
Vhttp://www.beckett.com/basketball/1998-99/black-diamond-quadruple-diamond/112-roshown-mcleod-3170820
p281
asg17
g18
sg19
(lp282
Vhttp://img.beckett.com/images/no-image.jpg
p283
asg22
V#112
p284
sg24
V1998-99
p285
sg26
g27
sg28
(lp286
VRoshown McLeod
p287
assbag1
(g2
g3
Ntp288
Rp289
(dp290
g7
(dp291
g9
V1998-99 Bowman's Best Refractors #2 Dikembe Mutombo
p292
sg11
I400
sg12
VBowman's Best Refractors
p293
sg14
(lp294
Vhttp://www.beckett.com/basketball/1998-99/bowmans-best-refractors/2-dikembe-mutombo-3171161
p295
asg17
g18
sg19
(lp296
Vhttp://img.beckett.com/images/no-image.jpg
p297
asg22
V#2
p298
sg24
V1998-99
p299
sg26
g27
sg28
(lp300
VDikembe Mutombo
p301
assbag1
(g2
g3
Ntp302
Rp303
(dp304
g7
(dp305
g9
V1998-99 Bowman's Best Refractors #16 Mookie Blaylock
p306
sg11
I400
sg12
VBowman's Best Refractors
p307
sg14
(lp308
Vhttp://www.beckett.com/basketball/1998-99/bowmans-best-refractors/16-mookie-blaylock-3171175
p309
asg17
g18
sg19
(lp310
Vhttp://img.beckett.com/images/no-image.jpg
p311
asg22
V#16
p312
sg24
V1998-99
p313
sg26
g27
sg28
(lp314
VMookie Blaylock
p315
assbag1
(g2
g3
Ntp316
Rp317
(dp318
g7
(dp319
g9
V1998-99 Bowman's Best Refractors #28 LaPhonso Ellis
p320
sg11
I400
sg12
VBowman's Best Refractors
p321
sg14
(lp322
Vhttp://www.beckett.com/basketball/1998-99/bowmans-best-refractors/28-laphonso-ellis-3171187
p323
asg17
g18
sg19
(lp324
Vhttp://img.beckett.com/images/items_stock/185226/3171150/3171187/front.jpg
p325
asg22
V#28
p326
sg24
V1998-99
p327
sg26
g27
sg28
(lp328
VLaPhonso Ellis
p329
assbag1
(g2
g3
Ntp330
Rp331
(dp332
g7
(dp333
g9
V1998-99 Bowman's Best Refractors #72 Steve Smith
p334
sg11
I400
sg12
VBowman's Best Refractors
p335
sg14
(lp336
Vhttp://www.beckett.com/basketball/1998-99/bowmans-best-refractors/72-steve-smith-3171231
p337
asg17
g18
sg19
(lp338
Vhttp://img.beckett.com/images/no-image.jpg
p339
asg22
V#72
p340
sg24
V1998-99
p341
sg26
g27
sg28
(lp342
VSteve Smith
p343
assbag1
(g2
g3
Ntp344
Rp345
(dp346
g7
(dp347
g9
V1998-99 Bowman's Best Refractors #87 Alan Henderson
p348
sg11
I400
sg12
VBowman's Best Refractors
p349
sg14
(lp350
Vhttp://www.beckett.com/basketball/1998-99/bowmans-best-refractors/87-alan-henderson-3171246
p351
asg17
g18
sg19
(lp352
Vhttp://img.beckett.com/images/items_stock/185226/3171150/3171246/front.jpg
p353
asg22
V#87
p354
sg24
V1998-99
p355
sg26
g27
sg28
(lp356
VAlan Henderson
p357
assbag1
(g2
g3
Ntp358
Rp359
(dp360
g7
(dp361
g9
V1998-99 Bowman's Best Refractors #118 Roshown McLeod
p362
sg11
I400
sg12
VBowman's Best Refractors
p363
sg14
(lp364
Vhttp://www.beckett.com/basketball/1998-99/bowmans-best-refractors/118-roshown-mcleod-3171277
p365
asg17
g18
sg19
(lp366
Vhttp://img.beckett.com/images/no-image.jpg
p367
asg22
V#118
p368
sg24
V1998-99
p369
sg26
g27
sg28
(lp370
VRoshown McLeod
p371
assbag1
(g2
g3
Ntp372
Rp373
(dp374
g7
(dp375
g9
V1998-99 Bowman's Best Atomic Refractors #2 Dikembe Mutombo
p376
sg11
I100
sg12
VBowman's Best Atomic Refractors
p377
sg14
(lp378
Vhttp://www.beckett.com/basketball/1998-99/bowmans-best-atomic-refractors/2-dikembe-mutombo-3171296
p379
asg17
g18
sg19
(lp380
Vhttp://img.beckett.com/images/no-image.jpg
p381
asg22
V#2
p382
sg24
V1998-99
p383
sg26
g27
sg28
(lp384
VDikembe Mutombo
p385
assbag1
(g2
g3
Ntp386
Rp387
(dp388
g7
(dp389
g9
V1998-99 Bowman's Best Atomic Refractors #16 Mookie Blaylock
p390
sg11
I100
sg12
VBowman's Best Atomic Refractors
p391
sg14
(lp392
Vhttp://www.beckett.com/basketball/1998-99/bowmans-best-atomic-refractors/16-mookie-blaylock-3171310
p393
asg17
g18
sg19
(lp394
Vhttp://img.beckett.com/images/no-image.jpg
p395
asg22
V#16
p396
sg24
V1998-99
p397
sg26
g27
sg28
(lp398
VMookie Blaylock
p399
assbag1
(g2
g3
Ntp400
Rp401
(dp402
g7
(dp403
g9
V1998-99 Bowman's Best Atomic Refractors #28 LaPhonso Ellis
p404
sg11
I100
sg12
VBowman's Best Atomic Refractors
p405
sg14
(lp406
Vhttp://www.beckett.com/basketball/1998-99/bowmans-best-atomic-refractors/28-laphonso-ellis-3171322
p407
asg17
g18
sg19
(lp408
Vhttp://img.beckett.com/images/no-image.jpg
p409
asg22
V#28
p410
sg24
V1998-99
p411
sg26
g27
sg28
(lp412
VLaPhonso Ellis
p413
assbag1
(g2
g3
Ntp414
Rp415
(dp416
g7
(dp417
g9
V1998-99 Bowman's Best Atomic Refractors #72 Steve Smith
p418
sg11
I100
sg12
VBowman's Best Atomic Refractors
p419
sg14
(lp420
Vhttp://www.beckett.com/basketball/1998-99/bowmans-best-atomic-refractors/72-steve-smith-3171366
p421
asg17
g18
sg19
(lp422
Vhttp://img.beckett.com/images/no-image.jpg
p423
asg22
V#72
p424
sg24
V1998-99
p425
sg26
g27
sg28
(lp426
VSteve Smith
p427
assbag1
(g2
g3
Ntp428
Rp429
(dp430
g7
(dp431
g9
V1998-99 Bowman's Best Atomic Refractors #87 Alan Henderson
p432
sg11
I100
sg12
VBowman's Best Atomic Refractors
p433
sg14
(lp434
Vhttp://www.beckett.com/basketball/1998-99/bowmans-best-atomic-refractors/87-alan-henderson-3171381
p435
asg17
g18
sg19
(lp436
Vhttp://img.beckett.com/images/no-image.jpg
p437
asg22
V#87
p438
sg24
V1998-99
p439
sg26
g27
sg28
(lp440
VAlan Henderson
p441
assbag1
(g2
g3
Ntp442
Rp443
(dp444
g7
(dp445
g9
V1998-99 Bowman's Best Atomic Refractors #118 Roshown McLeod
p446
sg11
I100
sg12
VBowman's Best Atomic Refractors
p447
sg14
(lp448
Vhttp://www.beckett.com/basketball/1998-99/bowmans-best-atomic-refractors/118-roshown-mcleod-3171412
p449
asg17
g18
sg19
(lp450
Vhttp://img.beckett.com/images/no-image.jpg
p451
asg22
V#118
p452
sg24
V1998-99
p453
sg26
g27
sg28
(lp454
VRoshown McLeod
p455
assbag1
(g2
g3
Ntp456
Rp457
(dp458
g7
(dp459
g9
V1998-99 Flair Showcase Row 1 #70 Mookie Blaylock
p460
sg11
I6000
sg12
VFlair Showcase Row 1
p461
sg14
(lp462
Vhttp://www.beckett.com/basketball/1998-99/flair-showcase-row-1/70-mookie-blaylock-3167693
p463
asg17
g18
sg19
(lp464
Vhttp://img.beckett.com/images/items_stock/185226/3167600/3167693/front.jpg
p465
asg22
V#70
p466
sg24
V1998-99
p467
sg26
g27
sg28
(lp468
VMookie Blaylock
p469
assbag1
(g2
g3
Ntp470
Rp471
(dp472
g7
(dp473
g9
V1998-99 Flair Showcase Row 1 #74 Roshown McLeod
p474
sg11
I6000
sg12
VFlair Showcase Row 1
p475
sg14
(lp476
Vhttp://www.beckett.com/basketball/1998-99/flair-showcase-row-1/74-roshown-mcleod-3167697
p477
asg17
g18
sg19
(lp478
Vhttp://img.beckett.com/images/items_stock/185226/3167600/3167697/front.jpg
p479
asg22
V#74
p480
sg24
V1998-99
p481
sg26
g27
sg28
(lp482
VRoshown McLeod
p483
assbag1
(g2
g3
Ntp484
Rp485
(dp486
g7
(dp487
g9
V1998-99 Flair Showcase Legacy Collection Row 3 #70 Mookie Blaylock
p488
sg11
I99
sg12
VFlair Showcase Legacy Collection Row 3
p489
sg14
(lp490
Vhttp://www.beckett.com/basketball/1998-99/flair-showcase-legacy-collection-row-3/70-mookie-blaylock-3172860
p491
asg17
g18
sg19
(lp492
Vhttp://img.beckett.com/images/no-image.jpg
p493
asg22
V#70
p494
sg24
V1998-99
p495
sg26
g27
sg28
(lp496
VMookie Blaylock
p497
assbag1
(g2
g3
Ntp498
Rp499
(dp500
g7
(dp501
g9
V1998-99 Flair Showcase Legacy Collection Row 3 #74 Roshown McLeod
p502
sg11
I99
sg12
VFlair Showcase Legacy Collection Row 3
p503
sg14
(lp504
Vhttp://www.beckett.com/basketball/1998-99/flair-showcase-legacy-collection-row-3/74-roshown-mcleod-3172864
p505
asg17
g18
sg19
(lp506
Vhttp://img.beckett.com/images/no-image.jpg
p507
asg22
V#74
p508
sg24
V1998-99
p509
sg26
g27
sg28
(lp510
VRoshown McLeod
p511
assbag1
(g2
g3
Ntp512
Rp513
(dp514
g7
(dp515
g9
V1998-99 Fleer Classic '61 #55 Dikembe Mutombo
p516
sg11
I61
sg12
VFleer Classic '61
p517
sg14
(lp518
Vhttp://www.beckett.com/basketball/1998-99/fleer-classic-61/55-dikembe-mutombo-3168149
p519
asg17
g18
sg19
(lp520
Vhttp://img.beckett.com/images/no-image.jpg
p521
asg22
V#55
p522
sg24
V1998-99
p523
sg26
g27
sg28
(lp524
VDikembe Mutombo
p525
assbag1
(g2
g3
Ntp526
Rp527
(dp528
g7
(dp529
g9
V1998-99 Fleer Classic '61 #96 Ed Gray
p530
sg11
I61
sg12
VFleer Classic '61
p531
sg14
(lp532
Vhttp://www.beckett.com/basketball/1998-99/fleer-classic-61/96-ed-gray-3168190
p533
asg17
g18
sg19
(lp534
Vhttp://img.beckett.com/images/no-image.jpg
p535
asg22
V#96
p536
sg24
V1998-99
p537
sg26
g27
sg28
(lp538
VEd Gray
p539
assbag1
(g2
g3
Ntp540
Rp541
(dp542
g7
(dp543
g9
V1998-99 Fleer Classic '61 #124 Mookie Blaylock
p544
sg11
I61
sg12
VFleer Classic '61
p545
sg14
(lp546
Vhttp://www.beckett.com/basketball/1998-99/fleer-classic-61/124-mookie-blaylock-3168218
p547
asg17
g18
sg19
(lp548
Vhttp://img.beckett.com/images/no-image.jpg
p549
asg22
V#124
p550
sg24
V1998-99
p551
sg26
g27
sg28
(lp552
VMookie Blaylock
p553
assbag1
(g2
g3
Ntp554
Rp555
(dp556
g7
(dp557
g9
V1998-99 Fleer Classic '61 #137 Dikembe Mutombo PF
p558
sg11
I61
sg12
VFleer Classic '61
p559
sg14
(lp560
Vhttp://www.beckett.com/basketball/1998-99/fleer-classic-61/137-dikembe-mutombo-pf-3168231
p561
asg17
g18
sg19
(lp562
Vhttp://img.beckett.com/images/no-image.jpg
p563
asg22
V#137
p564
sg24
V1998-99
p565
sg114
VPF
p566
sg26
g27
sg28
(lp567
VDikembe Mutombo
p568
assbag1
(g2
g3
Ntp569
Rp570
(dp571
g7
(dp572
g9
V1998-99 Fleer Classic '61 #145 Mookie Blaylock PF
p573
sg11
I61
sg12
VFleer Classic '61
p574
sg14
(lp575
Vhttp://www.beckett.com/basketball/1998-99/fleer-classic-61/145-mookie-blaylock-pf-3168239
p576
asg17
g18
sg19
(lp577
Vhttp://img.beckett.com/images/no-image.jpg
p578
asg22
V#145
p579
sg24
V1998-99
p580
sg114
VPF
p581
sg26
g27
sg28
(lp582
VMookie Blaylock
p583
assbag1
(g2
g3
Ntp584
Rp585
(dp586
g7
(dp587
g9
V1998-99 Fleer Brilliants 24-Karat Gold #2 Dikembe Mutombo
p588
sg11
I24
sg12
VFleer Brilliants 24-Karat Gold
p589
sg14
(lp590
Vhttp://www.beckett.com/basketball/1998-99/fleer-brilliants-24-karat-gold/2-dikembe-mutombo-3168503
p591
asg17
g18
sg19
(lp592
Vhttp://img.beckett.com/images/no-image.jpg
p593
asg22
V#2
p594
sg24
V1998-99
p595
sg26
g27
sg28
(lp596
VDikembe Mutombo
p597
assbag1
(g2
g3
Ntp598
Rp599
(dp600
g7
(dp601
g9
V1998-99 Fleer Brilliants 24-Karat Gold #41 Mookie Blaylock
p602
sg11
I24
sg12
VFleer Brilliants 24-Karat Gold
p603
sg14
(lp604
Vhttp://www.beckett.com/basketball/1998-99/fleer-brilliants-24-karat-gold/41-mookie-blaylock-3168542
p605
asg17
g18
sg19
(lp606
Vhttp://img.beckett.com/images/no-image.jpg
p607
asg22
V#41
p608
sg24
V1998-99
p609
sg26
g27
sg28
(lp610
VMookie Blaylock
p611
assbag1
(g2
g3
Ntp612
Rp613
(dp614
g7
(dp615
g9
V1998-99 Fleer Brilliants 24-Karat Gold #118 Roshown McLeod
p616
sg11
I24
sg12
VFleer Brilliants 24-Karat Gold
p617
sg14
(lp618
Vhttp://www.beckett.com/basketball/1998-99/fleer-brilliants-24-karat-gold/118-roshown-mcleod-3168619
p619
asg17
g18
sg19
(lp620
Vhttp://img.beckett.com/images/no-image.jpg
p621
asg22
V#118
p622
sg24
V1998-99
p623
sg26
g27
sg28
(lp624
VRoshown McLeod
p625
assbag1
(g2
g3
Ntp626
Rp627
(dp628
g7
(dp629
g9
V1998-99 Fleer Brilliants Gold #2 Dikembe Mutombo
p630
sg11
I99
sg12
VFleer Brilliants Gold
p631
sg14
(lp632
Vhttp://www.beckett.com/basketball/1998-99/fleer-brilliants-gold/2-dikembe-mutombo-3168775
p633
asg17
g18
sg19
(lp634
Vhttp://img.beckett.com/images/no-image.jpg
p635
asg22
V#2
p636
sg24
V1998-99
p637
sg26
g27
sg28
(lp638
VDikembe Mutombo
p639
assbag1
(g2
g3
Ntp640
Rp641
(dp642
g7
(dp643
g9
V1998-99 Fleer Brilliants Gold #41 Mookie Blaylock
p644
sg11
I99
sg12
VFleer Brilliants Gold
p645
sg14
(lp646
Vhttp://www.beckett.com/basketball/1998-99/fleer-brilliants-gold/41-mookie-blaylock-3168814
p647
asg17
g18
sg19
(lp648
Vhttp://img.beckett.com/images/no-image.jpg
p649
asg22
V#41
p650
sg24
V1998-99
p651
sg26
g27
sg28
(lp652
VMookie Blaylock
p653
assbag1
(g2
g3
Ntp654
Rp655
(dp656
g7
(dp657
g9
V1998-99 Fleer Brilliants Gold #118 Roshown McLeod
p658
sg11
I99
sg12
VFleer Brilliants Gold
p659
sg14
(lp660
Vhttp://www.beckett.com/basketball/1998-99/fleer-brilliants-gold/118-roshown-mcleod-3168891
p661
asg17
g18
sg19
(lp662
Vhttp://img.beckett.com/images/no-image.jpg
p663
asg22
V#118
p664
sg24
V1998-99
p665
sg26
g27
sg28
(lp666
VRoshown McLeod
p667
assbag1
(g2
g3
Ntp668
Rp669
(dp670
g7
(dp671
g9
V1998-99 Hoops Starting Five #14 Mookie Blaylock
p672
sg11
I5
sg12
VHoops Starting Five
p673
sg14
(lp674
Vhttp://www.beckett.com/basketball/1998-99/hoops-starting-five/14-mookie-blaylock-3166520
p675
asg17
g18
sg19
(lp676
Vhttp://img.beckett.com/images/no-image.jpg
p677
asg22
V#14
p678
sg24
V1998-99
p679
sg26
g27
sg28
(lp680
VMookie Blaylock
p681
assbag1
(g2
g3
Ntp682
Rp683
(dp684
g7
(dp685
g9
V1998-99 Hoops Starting Five #32 Ed Gray
p686
sg11
I5
sg12
VHoops Starting Five
p687
sg14
(lp688
Vhttp://www.beckett.com/basketball/1998-99/hoops-starting-five/32-ed-gray-3166538
p689
asg17
g18
sg19
(lp690
Vhttp://img.beckett.com/images/no-image.jpg
p691
asg22
V#32
p692
sg24
V1998-99
p693
sg26
g27
sg28
(lp694
VEd Gray
p695
assbag1
(g2
g3
Ntp696
Rp697
(dp698
g7
(dp699
g9
V1998-99 Hoops Starting Five #83 Dikembe Mutombo
p700
sg11
I5
sg12
VHoops Starting Five
p701
sg14
(lp702
Vhttp://www.beckett.com/basketball/1998-99/hoops-starting-five/83-dikembe-mutombo-3166589
p703
asg17
g18
sg19
(lp704
Vhttp://img.beckett.com/images/no-image.jpg
p705
asg22
V#83
p706
sg24
V1998-99
p707
sg26
g27
sg28
(lp708
VDikembe Mutombo
p709
assbag1
(g2
g3
Ntp710
Rp711
(dp712
g7
(dp713
g9
V1998-99 Metal Universe Precious Metal Gems #20 Dikembe Mutombo
p714
sg11
I50
sg12
VMetal Universe Precious Metal Gems
p715
sg14
(lp716
Vhttp://www.beckett.com/basketball/1998-99/metal-universe-precious-metal-gems/20-dikembe-mutombo-3166963
p717
asg17
g18
sg19
(lp718
Vhttp://img.beckett.com/images/no-image.jpg
p719
asg22
V#20
p720
sg24
V1998-99
p721
sg26
g27
sg28
(lp722
VDikembe Mutombo
p723
assbag1
(g2
g3
Ntp724
Rp725
(dp726
g7
(dp727
g9
V1998-99 Metal Universe Precious Metal Gems #72 Mookie Blaylock
p728
sg11
I50
sg12
VMetal Universe Precious Metal Gems
p729
sg14
(lp730
Vhttp://www.beckett.com/basketball/1998-99/metal-universe-precious-metal-gems/72-mookie-blaylock-3167015
p731
asg17
g18
sg19
(lp732
Vhttp://img.beckett.com/images/no-image.jpg
p733
asg22
V#72
p734
sg24
V1998-99
p735
sg26
g27
sg28
(lp736
VMookie Blaylock
p737
assbag1
(g2
g3
Ntp738
Rp739
(dp740
g7
(dp741
g9
V1998-99 Metal Universe Precious Metal Gems #104 Alan Henderson
p742
sg11
I50
sg12
VMetal Universe Precious Metal Gems
p743
sg14
(lp744
Vhttp://www.beckett.com/basketball/1998-99/metal-universe-precious-metal-gems/104-alan-henderson-3167047
p745
asg17
g18
sg19
(lp746
Vhttp://img.beckett.com/images/no-image.jpg
p747
asg22
V#104
p748
sg24
V1998-99
p749
sg26
g27
sg28
(lp750
VAlan Henderson
p751
assbag1
(g2
g3
Ntp752
Rp753
(dp754
g7
(dp755
g9
V1998-99 Metal Universe Gem Masters #20 Dikembe Mutombo
p756
sg11
I1
sg12
VMetal Universe Gem Masters
p757
sg14
(lp758
Vhttp://www.beckett.com/basketball/1998-99/metal-universe-gem-masters/20-dikembe-mutombo-3166832
p759
asg17
g18
sg19
(lp760
Vhttp://img.beckett.com/images/no-image.jpg
p761
asg22
V#20
p762
sg24
V1998-99
p763
sg26
g27
sg28
(lp764
VDikembe Mutombo
p765
assbag1
(g2
g3
Ntp766
Rp767
(dp768
g7
(dp769
g9
V1998-99 Metal Universe Gem Masters #72 Mookie Blaylock
p770
sg11
I1
sg12
VMetal Universe Gem Masters
p771
sg14
(lp772
Vhttp://www.beckett.com/basketball/1998-99/metal-universe-gem-masters/72-mookie-blaylock-3166884
p773
asg17
g18
sg19
(lp774
Vhttp://img.beckett.com/images/no-image.jpg
p775
asg22
V#72
p776
sg24
V1998-99
p777
sg26
g27
sg28
(lp778
VMookie Blaylock
p779
assbag1
(g2
g3
Ntp780
Rp781
(dp782
g7
(dp783
g9
V1998-99 Metal Universe Gem Masters #104 Alan Henderson
p784
sg11
I1
sg12
VMetal Universe Gem Masters
p785
sg14
(lp786
Vhttp://www.beckett.com/basketball/1998-99/metal-universe-gem-masters/104-alan-henderson-3166916
p787
asg17
g18
sg19
(lp788
Vhttp://img.beckett.com/images/no-image.jpg
p789
asg22
V#104
p790
sg24
V1998-99
p791
sg26
g27
sg28
(lp792
VAlan Henderson
p793
assbag1
(g2
g3
Ntp794
Rp795
(dp796
g7
(dp797
g9
V1998-99 SkyBox Premium Star Rubies #18 Dikembe Mutombo
p798
sg11
I50
sg12
VSkyBox Premium Star Rubies
p799
sg14
(lp800
Vhttp://www.beckett.com/basketball/1998-99/skybox-premium-star-rubies/18-dikembe-mutombo-3165123
p801
asg17
g18
sg19
(lp802
Vhttp://img.beckett.com/images/no-image.jpg
p803
asg22
V#18
p804
sg24
V1998-99
p805
sg26
g27
sg28
(lp806
VDikembe Mutombo
p807
assbag1
(g2
g3
Ntp808
Rp809
(dp810
g7
(dp811
g9
V1998-99 SkyBox Premium Star Rubies #59 Mookie Blaylock
p812
sg11
I50
sg12
VSkyBox Premium Star Rubies
p813
sg14
(lp814
Vhttp://www.beckett.com/basketball/1998-99/skybox-premium-star-rubies/59-mookie-blaylock-3165164
p815
asg17
g18
sg19
(lp816
Vhttp://img.beckett.com/images/no-image.jpg
p817
asg22
V#59
p818
sg24
V1998-99
p819
sg26
g27
sg28
(lp820
VMookie Blaylock
p821
assbag1
(g2
g3
Ntp822
Rp823
(dp824
g7
(dp825
g9
V1998-99 SkyBox Premium Star Rubies #101 Alan Henderson
p826
sg11
I50
sg12
VSkyBox Premium Star Rubies
p827
sg14
(lp828
Vhttp://www.beckett.com/basketball/1998-99/skybox-premium-star-rubies/101-alan-henderson-3165206
p829
asg17
g18
sg19
(lp830
Vhttp://img.beckett.com/images/no-image.jpg
p831
asg22
V#101
p832
sg24
V1998-99
p833
sg26
g27
sg28
(lp834
VAlan Henderson
p835
assbag1
(g2
g3
Ntp836
Rp837
(dp838
g7
(dp839
g9
V1998-99 SkyBox Premium Star Rubies #195 Ed Gray
p840
sg11
I50
sg12
VSkyBox Premium Star Rubies
p841
sg14
(lp842
Vhttp://www.beckett.com/basketball/1998-99/skybox-premium-star-rubies/195-ed-gray-3165300
p843
asg17
g18
sg19
(lp844
Vhttp://img.beckett.com/images/no-image.jpg
p845
asg22
V#195
p846
sg24
V1998-99
p847
sg26
g27
sg28
(lp848
VEd Gray
p849
assbag1
(g2
g3
Ntp850
Rp851
(dp852
g7
(dp853
g9
V1998-99 SkyBox Premium Star Rubies #232 Shammond Williams
p854
sg11
I25
sg12
VSkyBox Premium Star Rubies
p855
sg14
(lp856
Vhttp://www.beckett.com/basketball/1998-99/skybox-premium-star-rubies/232-shammond-williams-3165337
p857
asg17
g18
sg19
(lp858
Vhttp://img.beckett.com/images/no-image.jpg
p859
asg22
V#232
p860
sg24
V1998-99
p861
sg26
g27
sg28
(lp862
VShammond Williams
p863
assbag1
(g2
g3
Ntp864
Rp865
(dp866
g7
(dp867
g9
V1998-99 SkyBox Premium Star Rubies #261 Roshown McLeod
p868
sg11
I25
sg12
VSkyBox Premium Star Rubies
p869
sg14
(lp870
Vhttp://www.beckett.com/basketball/1998-99/skybox-premium-star-rubies/261-roshown-mcleod-3165366
p871
asg17
g18
sg19
(lp872
Vhttp://img.beckett.com/images/no-image.jpg
p873
asg22
V#261
p874
sg24
V1998-99
p875
sg26
g27
sg28
(lp876
VRoshown McLeod
p877
assbag1
(g2
g3
Ntp878
Rp879
(dp880
g7
(dp881
g9
V1998-99 SkyBox Thunder Rave #10 Mookie Blaylock
p882
sg11
I150
sg12
VSkyBox Thunder Rave
p883
sg14
(lp884
Vhttp://www.beckett.com/basketball/1998-99/skybox-thunder-rave/10-mookie-blaylock-3166048
p885
asg17
g18
sg19
(lp886
Vhttp://img.beckett.com/images/no-image.jpg
p887
asg22
V#10
p888
sg24
V1998-99
p889
sg26
g27
sg28
(lp890
VMookie Blaylock
p891
assbag1
(g2
g3
Ntp892
Rp893
(dp894
g7
(dp895
g9
V1998-99 SkyBox Thunder Rave #49 Ed Gray
p896
sg11
I150
sg12
VSkyBox Thunder Rave
p897
sg14
(lp898
Vhttp://www.beckett.com/basketball/1998-99/skybox-thunder-rave/49-ed-gray-3166087
p899
asg17
g18
sg19
(lp900
Vhttp://img.beckett.com/images/no-image.jpg
p901
asg22
V#49
p902
sg24
V1998-99
p903
sg26
g27
sg28
(lp904
VEd Gray
p905
assbag1
(g2
g3
Ntp906
Rp907
(dp908
g7
(dp909
g9
V1998-99 SkyBox Thunder Rave #95 Dikembe Mutombo
p910
sg11
I150
sg12
VSkyBox Thunder Rave
p911
sg14
(lp912
Vhttp://www.beckett.com/basketball/1998-99/skybox-thunder-rave/95-dikembe-mutombo-3166133
p913
asg17
g18
sg19
(lp914
Vhttp://img.beckett.com/images/no-image.jpg
p915
asg22
V#95
p916
sg24
V1998-99
p917
sg26
g27
sg28
(lp918
VDikembe Mutombo
p919
assbag1
(g2
g3
Ntp920
Rp921
(dp922
g7
(dp923
g9
V1998-99 SkyBox Thunder Super Rave #10 Mookie Blaylock
p924
sg11
I25
sg12
VSkyBox Thunder Super Rave
p925
sg14
(lp926
Vhttp://www.beckett.com/basketball/1998-99/skybox-thunder-super-rave/10-mookie-blaylock-3162700
p927
asg17
g18
sg19
(lp928
Vhttp://img.beckett.com/images/no-image.jpg
p929
asg22
V#10
p930
sg24
V1998-99
p931
sg26
g27
sg28
(lp932
VMookie Blaylock
p933
assbag1
(g2
g3
Ntp934
Rp935
(dp936
g7
(dp937
g9
V1998-99 SkyBox Thunder Super Rave #49 Ed Gray
p938
sg11
I25
sg12
VSkyBox Thunder Super Rave
p939
sg14
(lp940
Vhttp://www.beckett.com/basketball/1998-99/skybox-thunder-super-rave/49-ed-gray-3162739
p941
asg17
g18
sg19
(lp942
Vhttp://img.beckett.com/images/no-image.jpg
p943
asg22
V#49
p944
sg24
V1998-99
p945
sg26
g27
sg28
(lp946
VEd Gray
p947
assbag1
(g2
g3
Ntp948
Rp949
(dp950
g7
(dp951
g9
V1998-99 SkyBox Thunder Super Rave #95 Dikembe Mutombo
p952
sg11
I25
sg12
VSkyBox Thunder Super Rave
p953
sg14
(lp954
Vhttp://www.beckett.com/basketball/1998-99/skybox-thunder-super-rave/95-dikembe-mutombo-3162785
p955
asg17
g18
sg19
(lp956
Vhttp://img.beckett.com/images/no-image.jpg
p957
asg22
V#95
p958
sg24
V1998-99
p959
sg26
g27
sg28
(lp960
VDikembe Mutombo
p961
assbag1
(g2
g3
Ntp962
Rp963
(dp964
g7
(dp965
g9
V1998-99 SPx Finite Extreme #5 Mookie Blaylock
p966
sg11
I1
sg12
VSPx Finite Extreme
p967
sg14
(lp968
Vhttp://www.beckett.com/basketball/1998-99/spx-finite-extreme/5-mookie-blaylock-3163527
p969
asg17
g18
sg19
(lp970
Vhttp://img.beckett.com/images/no-image.jpg
p971
asg22
V#5
p972
sg24
V1998-99
p973
sg26
g27
sg28
(lp974
VMookie Blaylock
p975
assbag1
(g2
g3
Ntp976
Rp977
(dp978
g7
(dp979
g9
V1998-99 SPx Finite Extreme #16 Alan Henderson
p980
sg11
I1
sg12
VSPx Finite Extreme
p981
sg14
(lp982
Vhttp://www.beckett.com/basketball/1998-99/spx-finite-extreme/16-alan-henderson-3163538
p983
asg17
g18
sg19
(lp984
Vhttp://img.beckett.com/images/no-image.jpg
p985
asg22
V#16
p986
sg24
V1998-99
p987
sg26
g27
sg28
(lp988
VAlan Henderson
p989
assbag1
(g2
g3
Ntp990
Rp991
(dp992
g7
(dp993
g9
V1998-99 SPx Finite Extreme #59 Dikembe Mutombo
p994
sg11
I1
sg12
VSPx Finite Extreme
p995
sg14
(lp996
Vhttp://www.beckett.com/basketball/1998-99/spx-finite-extreme/59-dikembe-mutombo-3163581
p997
asg17
g18
sg19
(lp998
Vhttp://img.beckett.com/images/no-image.jpg
p999
asg22
V#59
p1000
sg24
V1998-99
p1001
sg26
g27
sg28
(lp1002
VDikembe Mutombo
p1003
assbag1
(g2
g3
Ntp1004
Rp1005
(dp1006
g7
(dp1007
g9
V1998-99 SPx Finite Radiance #5 Mookie Blaylock
p1008
sg11
I5000
sg12
VSPx Finite Radiance
p1009
sg14
(lp1010
Vhttp://www.beckett.com/basketball/1998-99/spx-finite-radiance/5-mookie-blaylock-3163655
p1011
asg17
g18
sg19
(lp1012
Vhttp://img.beckett.com/images/items_stock/185226/3163613/3163655/front.jpg
p1013
asg22
V#5
p1014
sg24
V1998-99
p1015
sg26
g27
sg28
(lp1016
VMookie Blaylock
p1017
assbag1
(g2
g3
Ntp1018
Rp1019
(dp1020
g7
(dp1021
g9
V1998-99 SPx Finite Radiance #16 Alan Henderson
p1022
sg11
I5000
sg12
VSPx Finite Radiance
p1023
sg14
(lp1024
Vhttp://www.beckett.com/basketball/1998-99/spx-finite-radiance/16-alan-henderson-3163666
p1025
asg17
g18
sg19
(lp1026
Vhttp://img.beckett.com/images/items_stock/185226/3163613/3163666/front.jpg
p1027
asg22
V#16
p1028
sg24
V1998-99
p1029
sg26
g27
sg28
(lp1030
VAlan Henderson
p1031
assbag1
(g2
g3
Ntp1032
Rp1033
(dp1034
g7
(dp1035
g9
V1998-99 SPx Finite Radiance #59 Dikembe Mutombo
p1036
sg11
I5000
sg12
VSPx Finite Radiance
p1037
sg14
(lp1038
Vhttp://www.beckett.com/basketball/1998-99/spx-finite-radiance/59-dikembe-mutombo-3163709
p1039
asg17
g18
sg19
(lp1040
Vhttp://img.beckett.com/images/items_stock/185226/3163613/3163709/front.jpg
p1041
asg22
V#59
p1042
sg24
V1998-99
p1043
sg26
g27
sg28
(lp1044
VDikembe Mutombo
p1045
assbag1
(g2
g3
Ntp1046
Rp1047
(dp1048
g7
(dp1049
g9
V1998-99 SPx Finite Radiance #103 Dikembe Mutombo SP
p1050
sg11
I2700
sg12
VSPx Finite Radiance
p1051
sg14
(lp1052
Vhttp://www.beckett.com/basketball/1998-99/spx-finite-radiance/103-dikembe-mutombo-sp-3163753
p1053
asg17
g18
sg19
(lp1054
Vhttp://img.beckett.com/images/items_stock/185226/3163613/3163753/front.jpg
p1055
asg22
V#103
p1056
sg24
V1998-99
p1057
sg114
VSP
p1058
sg26
g27
sg28
(lp1059
VDikembe Mutombo
p1060
assbag1
(g2
g3
Ntp1061
Rp1062
(dp1063
g7
(dp1064
g9
V1998-99 SPx Finite Radiance #179 Alan Henderson SPx
p1065
sg11
I2025
sg12
VSPx Finite Radiance
p1066
sg14
(lp1067
Vhttp://www.beckett.com/basketball/1998-99/spx-finite-radiance/179-alan-henderson-spx-3163829
p1068
asg17
g18
sg19
(lp1069
Vhttp://img.beckett.com/images/items_stock/185226/3163613/3163829/front.jpg
p1070
asg22
V#179
p1071
sg24
V1998-99
p1072
sg114
VSPx
p1073
sg26
g27
sg28
(lp1074
VAlan Henderson
p1075
assbag1
(g2
g3
Ntp1076
Rp1077
(dp1078
g7
(dp1079
g9
V1998-99 SPx Finite Radiance #187 Dikembe Mutombo TF
p1080
sg11
I1130
sg12
VSPx Finite Radiance
p1081
sg14
(lp1082
Vhttp://www.beckett.com/basketball/1998-99/spx-finite-radiance/187-dikembe-mutombo-tf-3163837
p1083
asg17
g18
sg19
(lp1084
Vhttp://img.beckett.com/images/no-image.jpg
p1085
asg22
V#187
p1086
sg24
V1998-99
p1087
sg114
VTF
p1088
sg26
g27
sg28
(lp1089
VDikembe Mutombo
p1090
assbag1
(g2
g3
Ntp1091
Rp1092
(dp1093
g7
(dp1094
g9
V1998-99 SPx Finite Radiance #230 Roshown McLeod
p1095
sg11
I1500
sg12
VSPx Finite Radiance
p1096
sg14
(lp1097
Vhttp://www.beckett.com/basketball/1998-99/spx-finite-radiance/230-roshown-mcleod-3163880
p1098
asg17
g18
sg19
(lp1099
Vhttp://img.beckett.com/images/items_stock/185226/3163613/3163880/front.jpg
p1100
asg22
V#230
p1101
sg24
V1998-99
p1102
sg26
g27
sg28
(lp1103
VRoshown McLeod
p1104
assbag1
(g2
g3
Ntp1105
Rp1106
(dp1107
g7
(dp1108
g9
V1998-99 SPx Finite Spectrum #5 Mookie Blaylock
p1109
sg11
I350
sg12
VSPx Finite Spectrum
p1110
sg14
(lp1111
Vhttp://www.beckett.com/basketball/1998-99/spx-finite-spectrum/5-mookie-blaylock-3163933
p1112
asg17
g18
sg19
(lp1113
Vhttp://img.beckett.com/images/items_stock/185226/3163891/3163933/front.jpg
p1114
asg22
V#5
p1115
sg24
V1998-99
p1116
sg26
g27
sg28
(lp1117
VMookie Blaylock
p1118
assbag1
(g2
g3
Ntp1119
Rp1120
(dp1121
g7
(dp1122
g9
V1998-99 SPx Finite Spectrum #16 Alan Henderson
p1123
sg11
I350
sg12
VSPx Finite Spectrum
p1124
sg14
(lp1125
Vhttp://www.beckett.com/basketball/1998-99/spx-finite-spectrum/16-alan-henderson-3163944
p1126
asg17
g18
sg19
(lp1127
Vhttp://img.beckett.com/images/items_stock/185226/3163891/3163944/front.jpg
p1128
asg22
V#16
p1129
sg24
V1998-99
p1130
sg26
g27
sg28
(lp1131
VAlan Henderson
p1132
assbag1
(g2
g3
Ntp1133
Rp1134
(dp1135
g7
(dp1136
g9
V1998-99 SPx Finite Spectrum #59 Dikembe Mutombo
p1137
sg11
I350
sg12
VSPx Finite Spectrum
p1138
sg14
(lp1139
Vhttp://www.beckett.com/basketball/1998-99/spx-finite-spectrum/59-dikembe-mutombo-3163987
p1140
asg17
g18
sg19
(lp1141
Vhttp://img.beckett.com/images/items_stock/185226/3163891/3163987/front.jpg
p1142
asg22
V#59
p1143
sg24
V1998-99
p1144
sg26
g27
sg28
(lp1145
VDikembe Mutombo
p1146
assbag1
(g2
g3
Ntp1147
Rp1148
(dp1149
g7
(dp1150
g9
V1998-99 SPx Finite Spectrum #103 Dikembe Mutombo SP
p1151
sg11
I250
sg12
VSPx Finite Spectrum
p1152
sg14
(lp1153
Vhttp://www.beckett.com/basketball/1998-99/spx-finite-spectrum/103-dikembe-mutombo-sp-3164031
p1154
asg17
g18
sg19
(lp1155
Vhttp://img.beckett.com/images/no-image.jpg
p1156
asg22
V#103
p1157
sg24
V1998-99
p1158
sg114
VSP
p1159
sg26
g27
sg28
(lp1160
VDikembe Mutombo
p1161
assbag1
(g2
g3
Ntp1162
Rp1163
(dp1164
g7
(dp1165
g9
V1998-99 SPx Finite Spectrum #179 Alan Henderson SPx
p1166
sg11
I75
sg12
VSPx Finite Spectrum
p1167
sg14
(lp1168
Vhttp://www.beckett.com/basketball/1998-99/spx-finite-spectrum/179-alan-henderson-spx-3164107
p1169
asg17
g18
sg19
(lp1170
Vhttp://img.beckett.com/images/no-image.jpg
p1171
asg22
V#179
p1172
sg24
V1998-99
p1173
sg114
VSPx
p1174
sg26
g27
sg28
(lp1175
VAlan Henderson
p1176
assbag1
(g2
g3
Ntp1177
Rp1178
(dp1179
g7
(dp1180
g9
V1998-99 SPx Finite Spectrum #187 Dikembe Mutombo TF
p1181
sg11
I50
sg12
VSPx Finite Spectrum
p1182
sg14
(lp1183
Vhttp://www.beckett.com/basketball/1998-99/spx-finite-spectrum/187-dikembe-mutombo-tf-3164115
p1184
asg17
g18
sg19
(lp1185
Vhttp://img.beckett.com/images/no-image.jpg
p1186
asg22
V#187
p1187
sg24
V1998-99
p1188
sg114
VTF
p1189
sg26
g27
sg28
(lp1190
VDikembe Mutombo
p1191
assbag1
(g2
g3
Ntp1192
Rp1193
(dp1194
g7
(dp1195
g9
V1998-99 SPx Finite Spectrum #230 Roshown McLeod
p1196
sg11
I25
sg12
VSPx Finite Spectrum
p1197
sg14
(lp1198
Vhttp://www.beckett.com/basketball/1998-99/spx-finite-spectrum/230-roshown-mcleod-3164158
p1199
asg17
g18
sg19
(lp1200
Vhttp://img.beckett.com/images/no-image.jpg
p1201
asg22
V#230
p1202
sg24
V1998-99
p1203
sg26
g27
sg28
(lp1204
VRoshown McLeod
p1205
assbag1
(g2
g3
Ntp1206
Rp1207
(dp1208
g7
(dp1209
g9
V1998-99 Stadium Club First Day Issue #17 Dikembe Mutombo
p1210
sg11
I200
sg12
VStadium Club First Day Issue
p1211
sg14
(lp1212
Vhttp://www.beckett.com/basketball/1998-99/stadium-club-first-day-issue/17-dikembe-mutombo-3164462
p1213
asg17
g18
sg19
(lp1214
Vhttp://img.beckett.com/images/no-image.jpg
p1215
asg22
V#17
p1216
sg24
V1998-99
p1217
sg26
g27
sg28
(lp1218
VDikembe Mutombo
p1219
assbag1
(g2
g3
Ntp1220
Rp1221
(dp1222
g7
(dp1223
g9
V1998-99 Stadium Club First Day Issue #47 Mookie Blaylock
p1224
sg11
I200
sg12
VStadium Club First Day Issue
p1225
sg14
(lp1226
Vhttp://www.beckett.com/basketball/1998-99/stadium-club-first-day-issue/47-mookie-blaylock-3164492
p1227
asg17
g18
sg19
(lp1228
Vhttp://img.beckett.com/images/no-image.jpg
p1229
asg22
V#47
p1230
sg24
V1998-99
p1231
sg26
g27
sg28
(lp1232
VMookie Blaylock
p1233
assbag1
(g2
g3
Ntp1234
Rp1235
(dp1236
g7
(dp1237
g9
V1998-99 Stadium Club First Day Issue #118 Roshown McLeod
p1238
sg11
I200
sg12
VStadium Club First Day Issue
p1239
sg14
(lp1240
Vhttp://www.beckett.com/basketball/1998-99/stadium-club-first-day-issue/118-roshown-mcleod-3164563
p1241
asg17
g18
sg19
(lp1242
Vhttp://img.beckett.com/images/no-image.jpg
p1243
asg22
V#118
p1244
sg24
V1998-99
p1245
sg26
g27
sg28
(lp1246
VRoshown McLeod
p1247
assbag1
(g2
g3
Ntp1248
Rp1249
(dp1250
g7
(dp1251
g9
V1998-99 Stadium Club First Day Issue #133 Alan Henderson
p1252
sg11
I200
sg12
VStadium Club First Day Issue
p1253
sg14
(lp1254
Vhttp://www.beckett.com/basketball/1998-99/stadium-club-first-day-issue/133-alan-henderson-3164578
p1255
asg17
g18
sg19
(lp1256
Vhttp://img.beckett.com/images/no-image.jpg
p1257
asg22
V#133
p1258
sg24
V1998-99
p1259
sg26
g27
sg28
(lp1260
VAlan Henderson
p1261
assbag1
(g2
g3
Ntp1262
Rp1263
(dp1264
g7
(dp1265
g9
V1998-99 Stadium Club First Day Issue #211 Roshown McLeod
p1266
sg11
I200
sg12
VStadium Club First Day Issue
p1267
sg14
(lp1268
Vhttp://www.beckett.com/basketball/1998-99/stadium-club-first-day-issue/211-roshown-mcleod-3164656
p1269
asg17
g18
sg19
(lp1270
Vhttp://img.beckett.com/images/no-image.jpg
p1271
asg22
V#211
p1272
sg24
V1998-99
p1273
sg26
g27
sg28
(lp1274
VRoshown McLeod
p1275
assbag1
(g2
g3
Ntp1276
Rp1277
(dp1278
g7
(dp1279
g9
V1998-99 Stadium Club One Of A Kind #17 Dikembe Mutombo
p1280
sg11
I150
sg12
VStadium Club One Of A Kind
p1281
sg14
(lp1282
Vhttp://www.beckett.com/basketball/1998-99/stadium-club-one-of-a-kind/17-dikembe-mutombo-3160717
p1283
asg17
g18
sg19
(lp1284
Vhttp://img.beckett.com/images/no-image.jpg
p1285
asg22
V#17
p1286
sg24
V1998-99
p1287
sg26
g27
sg28
(lp1288
VDikembe Mutombo
p1289
assbag1
(g2
g3
Ntp1290
Rp1291
(dp1292
g7
(dp1293
g9
V1998-99 Stadium Club One Of A Kind #47 Mookie Blaylock
p1294
sg11
I150
sg12
VStadium Club One Of A Kind
p1295
sg14
(lp1296
Vhttp://www.beckett.com/basketball/1998-99/stadium-club-one-of-a-kind/47-mookie-blaylock-3160747
p1297
asg17
g18
sg19
(lp1298
Vhttp://img.beckett.com/images/no-image.jpg
p1299
asg22
V#47
p1300
sg24
V1998-99
p1301
sg26
g27
sg28
(lp1302
VMookie Blaylock
p1303
assbag1
(g2
g3
Ntp1304
Rp1305
(dp1306
g7
(dp1307
g9
V1998-99 Stadium Club One Of A Kind #118 Roshown McLeod
p1308
sg11
I150
sg12
VStadium Club One Of A Kind
p1309
sg14
(lp1310
Vhttp://www.beckett.com/basketball/1998-99/stadium-club-one-of-a-kind/118-roshown-mcleod-3160818
p1311
asg17
g18
sg19
(lp1312
Vhttp://img.beckett.com/images/no-image.jpg
p1313
asg22
V#118
p1314
sg24
V1998-99
p1315
sg26
g27
sg28
(lp1316
VRoshown McLeod
p1317
assbag1
(g2
g3
Ntp1318
Rp1319
(dp1320
g7
(dp1321
g9
V1998-99 Stadium Club One Of A Kind #133 Alan Henderson
p1322
sg11
I150
sg12
VStadium Club One Of A Kind
p1323
sg14
(lp1324
Vhttp://www.beckett.com/basketball/1998-99/stadium-club-one-of-a-kind/133-alan-henderson-3160833
p1325
asg17
g18
sg19
(lp1326
Vhttp://img.beckett.com/images/no-image.jpg
p1327
asg22
V#133
p1328
sg24
V1998-99
p1329
sg26
g27
sg28
(lp1330
VAlan Henderson
p1331
assbag1
(g2
g3
Ntp1332
Rp1333
(dp1334
g7
(dp1335
g9
V1998-99 Stadium Club One Of A Kind #211 Roshown McLeod
p1336
sg11
I150
sg12
VStadium Club One Of A Kind
p1337
sg14
(lp1338
Vhttp://www.beckett.com/basketball/1998-99/stadium-club-one-of-a-kind/211-roshown-mcleod-3160911
p1339
asg17
g18
sg19
(lp1340
Vhttp://img.beckett.com/images/no-image.jpg
p1341
asg22
V#211
p1342
sg24
V1998-99
p1343
sg26
g27
sg28
(lp1344
VRoshown McLeod
p1345
assbag1
(g2
g3
Ntp1346
Rp1347
(dp1348
g7
(dp1349
g9
V1998-99 Stadium Club Printing Plates #17 Dikembe Mutombo Black
p1350
sg11
I1
sg12
VStadium Club Printing Plates
p1351
sg14
(lp1352
Vhttp://www.beckett.com/basketball/1998-99/stadium-club-printing-plates/17-dikembe-mutombo-black-3161014
p1353
asg17
g18
sg19
(lp1354
Vhttp://img.beckett.com/images/no-image.jpg
p1355
asg22
V#17
p1356
sg24
V1998-99
p1357
sg26
g27
sg28
(lp1358
VDikembe Mutombo
p1359
assbag1
(g2
g3
Ntp1360
Rp1361
(dp1362
g7
(dp1363
g9
V1998-99 Stadium Club Printing Plates #17A Dikembe Mutombo Cyan
p1364
sg11
I1
sg12
VStadium Club Printing Plates
p1365
sg14
(lp1366
Vhttp://www.beckett.com/basketball/1998-99/stadium-club-printing-plates/17a-dikembe-mutombo-cyan-3161015
p1367
asg17
g18
sg19
(lp1368
Vhttp://img.beckett.com/images/no-image.jpg
p1369
asg22
V#17A
p1370
sg24
V1998-99
p1371
sg26
g27
sg28
(lp1372
g1359
assbag1
(g2
g3
Ntp1373
Rp1374
(dp1375
g7
(dp1376
g9
V1998-99 Stadium Club Printing Plates #17B Dikembe Mutombo Magenta
p1377
sg11
I1
sg12
VStadium Club Printing Plates
p1378
sg14
(lp1379
Vhttp://www.beckett.com/basketball/1998-99/stadium-club-printing-plates/17b-dikembe-mutombo-magenta-3161016
p1380
asg17
g18
sg19
(lp1381
Vhttp://img.beckett.com/images/no-image.jpg
p1382
asg22
V#17B
p1383
sg24
V1998-99
p1384
sg26
g27
sg28
(lp1385
g1359
assbag1
(g2
g3
Ntp1386
Rp1387
(dp1388
g7
(dp1389
g9
V1998-99 Stadium Club Printing Plates #17C Dikembe Mutombo Yellow
p1390
sg11
I1
sg12
VStadium Club Printing Plates
p1391
sg14
(lp1392
Vhttp://www.beckett.com/basketball/1998-99/stadium-club-printing-plates/17c-dikembe-mutombo-yellow-3161017
p1393
asg17
g18
sg19
(lp1394
Vhttp://img.beckett.com/images/no-image.jpg
p1395
asg22
V#17C
p1396
sg24
V1998-99
p1397
sg26
g27
sg28
(lp1398
g1359
assbag1
(g2
g3
Ntp1399
Rp1400
(dp1401
g7
(dp1402
g9
V1998-99 Stadium Club Printing Plates #47 Mookie Blaylock Black
p1403
sg11
I1
sg12
VStadium Club Printing Plates
p1404
sg14
(lp1405
Vhttp://www.beckett.com/basketball/1998-99/stadium-club-printing-plates/47-mookie-blaylock-black-3161134
p1406
asg17
g18
sg19
(lp1407
Vhttp://img.beckett.com/images/no-image.jpg
p1408
asg22
V#47
p1409
sg24
V1998-99
p1410
sg26
g27
sg28
(lp1411
VMookie Blaylock
p1412
assbag1
(g2
g3
Ntp1413
Rp1414
(dp1415
g7
(dp1416
g9
V1998-99 Stadium Club Printing Plates #47A Mookie Blaylock Cyan
p1417
sg11
I1
sg12
VStadium Club Printing Plates
p1418
sg14
(lp1419
Vhttp://www.beckett.com/basketball/1998-99/stadium-club-printing-plates/47a-mookie-blaylock-cyan-3161135
p1420
asg17
g18
sg19
(lp1421
Vhttp://img.beckett.com/images/no-image.jpg
p1422
asg22
V#47A
p1423
sg24
V1998-99
p1424
sg26
g27
sg28
(lp1425
g1412
assbag1
(g2
g3
Ntp1426
Rp1427
(dp1428
g7
(dp1429
g9
V1998-99 Stadium Club Printing Plates #47B Mookie Blaylock Magenta
p1430
sg11
I1
sg12
VStadium Club Printing Plates
p1431
sg14
(lp1432
Vhttp://www.beckett.com/basketball/1998-99/stadium-club-printing-plates/47b-mookie-blaylock-magenta-3161136
p1433
asg17
g18
sg19
(lp1434
Vhttp://img.beckett.com/images/no-image.jpg
p1435
asg22
V#47B
p1436
sg24
V1998-99
p1437
sg26
g27
sg28
(lp1438
g1412
assbag1
(g2
g3
Ntp1439
Rp1440
(dp1441
g7
(dp1442
g9
V1998-99 Stadium Club Printing Plates #47C Mookie Blaylock Yellow
p1443
sg11
I1
sg12
VStadium Club Printing Plates
p1444
sg14
(lp1445
Vhttp://www.beckett.com/basketball/1998-99/stadium-club-printing-plates/47c-mookie-blaylock-yellow-3161137
p1446
asg17
g18
sg19
(lp1447
Vhttp://img.beckett.com/images/no-image.jpg
p1448
asg22
V#47C
p1449
sg24
V1998-99
p1450
sg26
g27
sg28
(lp1451
g1412
assbag1
(g2
g3
Ntp1452
Rp1453
(dp1454
g7
(dp1455
g9
V1998-99 Stadium Club Printing Plates #118 Roshown McLeod Black
p1456
sg11
I1
sg12
VStadium Club Printing Plates
p1457
sg14
(lp1458
Vhttp://www.beckett.com/basketball/1998-99/stadium-club-printing-plates/118-roshown-mcleod-black-3161418
p1459
asg17
g18
sg19
(lp1460
Vhttp://img.beckett.com/images/no-image.jpg
p1461
asg22
V#118
p1462
sg24
V1998-99
p1463
sg26
g27
sg28
(lp1464
VRoshown McLeod
p1465
assbag1
(g2
g3
Ntp1466
Rp1467
(dp1468
g7
(dp1469
g9
V1998-99 Stadium Club Printing Plates #118A Roshown McLeod Cyan
p1470
sg11
I1
sg12
VStadium Club Printing Plates
p1471
sg14
(lp1472
Vhttp://www.beckett.com/basketball/1998-99/stadium-club-printing-plates/118a-roshown-mcleod-cyan-3161419
p1473
asg17
g18
sg19
(lp1474
Vhttp://img.beckett.com/images/no-image.jpg
p1475
asg22
V#118A
p1476
sg24
V1998-99
p1477
sg26
g27
sg28
(lp1478
g1465
assbag1
(g2
g3
Ntp1479
Rp1480
(dp1481
g7
(dp1482
g9
V1998-99 Stadium Club Printing Plates #118B Roshown McLeod Magenta
p1483
sg11
I1
sg12
VStadium Club Printing Plates
p1484
sg14
(lp1485
Vhttp://www.beckett.com/basketball/1998-99/stadium-club-printing-plates/118b-roshown-mcleod-magenta-3161420
p1486
asg17
g18
sg19
(lp1487
Vhttp://img.beckett.com/images/no-image.jpg
p1488
asg22
V#118B
p1489
sg24
V1998-99
p1490
sg26
g27
sg28
(lp1491
g1465
assbag1
(g2
g3
Ntp1492
Rp1493
(dp1494
g7
(dp1495
g9
V1998-99 Stadium Club Printing Plates #118C Roshown McLeod Yellow
p1496
sg11
I1
sg12
VStadium Club Printing Plates
p1497
sg14
(lp1498
Vhttp://www.beckett.com/basketball/1998-99/stadium-club-printing-plates/118c-roshown-mcleod-yellow-3161421
p1499
asg17
g18
sg19
(lp1500
Vhttp://img.beckett.com/images/no-image.jpg
p1501
asg22
V#118C
p1502
sg24
V1998-99
p1503
sg26
g27
sg28
(lp1504
g1465
assbag1
(g2
g3
Ntp1505
Rp1506
(dp1507
g7
(dp1508
g9
V1998-99 Stadium Club Printing Plates #133 Alan Henderson Black
p1509
sg11
I1
sg12
VStadium Club Printing Plates
p1510
sg14
(lp1511
Vhttp://www.beckett.com/basketball/1998-99/stadium-club-printing-plates/133-alan-henderson-black-3161478
p1512
asg17
g18
sg19
(lp1513
Vhttp://img.beckett.com/images/no-image.jpg
p1514
asg22
V#133
p1515
sg24
V1998-99
p1516
sg26
g27
sg28
(lp1517
VAlan Henderson
p1518
assbag1
(g2
g3
Ntp1519
Rp1520
(dp1521
g7
(dp1522
g9
V1998-99 Stadium Club Printing Plates #133A Alan Henderson Cyan
p1523
sg11
I1
sg12
VStadium Club Printing Plates
p1524
sg14
(lp1525
Vhttp://www.beckett.com/basketball/1998-99/stadium-club-printing-plates/133a-alan-henderson-cyan-3161479
p1526
asg17
g18
sg19
(lp1527
Vhttp://img.beckett.com/images/no-image.jpg
p1528
asg22
V#133A
p1529
sg24
V1998-99
p1530
sg26
g27
sg28
(lp1531
g1518
assbag1
(g2
g3
Ntp1532
Rp1533
(dp1534
g7
(dp1535
g9
V1998-99 Stadium Club Printing Plates #133B Alan Henderson Magenta
p1536
sg11
I1
sg12
VStadium Club Printing Plates
p1537
sg14
(lp1538
Vhttp://www.beckett.com/basketball/1998-99/stadium-club-printing-plates/133b-alan-henderson-magenta-3161480
p1539
asg17
g18
sg19
(lp1540
Vhttp://img.beckett.com/images/no-image.jpg
p1541
asg22
V#133B
p1542
sg24
V1998-99
p1543
sg26
g27
sg28
(lp1544
g1518
assbag1
(g2
g3
Ntp1545
Rp1546
(dp1547
g7
(dp1548
g9
V1998-99 Stadium Club Printing Plates #133C Alan Henderson Yellow
p1549
sg11
I1
sg12
VStadium Club Printing Plates
p1550
sg14
(lp1551
Vhttp://www.beckett.com/basketball/1998-99/stadium-club-printing-plates/133c-alan-henderson-yellow-3161481
p1552
asg17
g18
sg19
(lp1553
Vhttp://img.beckett.com/images/no-image.jpg
p1554
asg22
V#133C
p1555
sg24
V1998-99
p1556
sg26
g27
sg28
(lp1557
g1518
assbag1
(g2
g3
Ntp1558
Rp1559
(dp1560
g7
(dp1561
g9
V1998-99 Stadium Club Printing Plates #211 Roshown McLeod Black
p1562
sg11
I1
sg12
VStadium Club Printing Plates
p1563
sg14
(lp1564
Vhttp://www.beckett.com/basketball/1998-99/stadium-club-printing-plates/211-roshown-mcleod-black-3161790
p1565
asg17
g18
sg19
(lp1566
Vhttp://img.beckett.com/images/no-image.jpg
p1567
asg22
V#211
p1568
sg24
V1998-99
p1569
sg26
g27
sg28
(lp1570
g1465
assbag1
(g2
g3
Ntp1571
Rp1572
(dp1573
g7
(dp1574
g9
V1998-99 Stadium Club Printing Plates #211A Roshown McLeod Cyan
p1575
sg11
I1
sg12
VStadium Club Printing Plates
p1576
sg14
(lp1577
Vhttp://www.beckett.com/basketball/1998-99/stadium-club-printing-plates/211a-roshown-mcleod-cyan-3161791
p1578
asg17
g18
sg19
(lp1579
Vhttp://img.beckett.com/images/no-image.jpg
p1580
asg22
V#211A
p1581
sg24
V1998-99
p1582
sg26
g27
sg28
(lp1583
g1465
assbag1
(g2
g3
Ntp1584
Rp1585
(dp1586
g7
(dp1587
g9
V1998-99 Stadium Club Printing Plates #211B Roshown McLeod Magenta
p1588
sg11
I1
sg12
VStadium Club Printing Plates
p1589
sg14
(lp1590
Vhttp://www.beckett.com/basketball/1998-99/stadium-club-printing-plates/211b-roshown-mcleod-magenta-3161792
p1591
asg17
g18
sg19
(lp1592
Vhttp://img.beckett.com/images/no-image.jpg
p1593
asg22
V#211B
p1594
sg24
V1998-99
p1595
sg26
g27
sg28
(lp1596
g1465
assbag1
(g2
g3
Ntp1597
Rp1598
(dp1599
g7
(dp1600
g9
V1998-99 Stadium Club Printing Plates #211C Roshown McLeod Yellow
p1601
sg11
I1
sg12
VStadium Club Printing Plates
p1602
sg14
(lp1603
Vhttp://www.beckett.com/basketball/1998-99/stadium-club-printing-plates/211c-roshown-mcleod-yellow-3161793
p1604
asg17
g18
sg19
(lp1605
Vhttp://img.beckett.com/images/no-image.jpg
p1606
asg22
V#211C
p1607
sg24
V1998-99
p1608
sg26
g27
sg28
(lp1609
g1465
assbag1
(g2
g3
Ntp1610
Rp1611
(dp1612
g7
(dp1613
g9
V1998-99 UD Choice Premium Choice Reserve #1 Dikembe Mutombo
p1614
sg11
I100
sg12
VUD Choice Premium Choice Reserve
p1615
sg14
(lp1616
Vhttp://www.beckett.com/basketball/1998-99/ud-choice-premium-choice-reserve/1-dikembe-mutombo-3159174
p1617
asg17
g18
sg19
(lp1618
Vhttp://img.beckett.com/images/no-image.jpg
p1619
asg22
V#1
p1620
sg24
V1998-99
p1621
sg26
g27
sg28
(lp1622
VDikembe Mutombo
p1623
assbag1
(g2
g3
Ntp1624
Rp1625
(dp1626
g7
(dp1627
g9
V1998-99 UD Choice Premium Choice Reserve #2 Alan Henderson
p1628
sg11
I100
sg12
VUD Choice Premium Choice Reserve
p1629
sg14
(lp1630
Vhttp://www.beckett.com/basketball/1998-99/ud-choice-premium-choice-reserve/2-alan-henderson-3159175
p1631
asg17
g18
sg19
(lp1632
Vhttp://img.beckett.com/images/no-image.jpg
p1633
asg22
V#2
p1634
sg24
V1998-99
p1635
sg26
g27
sg28
(lp1636
VAlan Henderson
p1637
assbag1
(g2
g3
Ntp1638
Rp1639
(dp1640
g7
(dp1641
g9
V1998-99 UD Choice Premium Choice Reserve #3 Mookie Blaylock
p1642
sg11
I100
sg12
VUD Choice Premium Choice Reserve
p1643
sg14
(lp1644
Vhttp://www.beckett.com/basketball/1998-99/ud-choice-premium-choice-reserve/3-mookie-blaylock-3159176
p1645
asg17
g18
sg19
(lp1646
Vhttp://img.beckett.com/images/no-image.jpg
p1647
asg22
V#3
p1648
sg24
V1998-99
p1649
sg26
g27
sg28
(lp1650
VMookie Blaylock
p1651
assbag1
(g2
g3
Ntp1652
Rp1653
(dp1654
g7
(dp1655
g9
V1998-99 UD Choice Premium Choice Reserve #4 Ed Gray
p1656
sg11
I100
sg12
VUD Choice Premium Choice Reserve
p1657
sg14
(lp1658
Vhttp://www.beckett.com/basketball/1998-99/ud-choice-premium-choice-reserve/4-ed-gray-3159177
p1659
asg17
g18
sg19
(lp1660
Vhttp://img.beckett.com/images/no-image.jpg
p1661
asg22
V#4
p1662
sg24
V1998-99
p1663
sg26
g27
sg28
(lp1664
VEd Gray
p1665
assbag1
(g2
g3
Ntp1666
Rp1667
(dp1668
g7
(dp1669
g9
V1998-99 UD Choice Premium Choice Reserve #5 Eldridge Recasner
p1670
sg11
I100
sg12
VUD Choice Premium Choice Reserve
p1671
sg14
(lp1672
Vhttp://www.beckett.com/basketball/1998-99/ud-choice-premium-choice-reserve/5-eldridge-recasner-3159178
p1673
asg17
g18
sg19
(lp1674
Vhttp://img.beckett.com/images/no-image.jpg
p1675
asg22
V#5
p1676
sg24
V1998-99
p1677
sg26
g27
sg28
(lp1678
VEldridge Recasner
p1679
assbag1
(g2
g3
Ntp1680
Rp1681
(dp1682
g7
(dp1683
g9
V1998-99 UD Choice Premium Choice Reserve #156 Dikembe Mutombo FS
p1684
sg11
I100
sg12
VUD Choice Premium Choice Reserve
p1685
sg14
(lp1686
Vhttp://www.beckett.com/basketball/1998-99/ud-choice-premium-choice-reserve/156-dikembe-mutombo-fs-3159329
p1687
asg17
g18
sg19
(lp1688
Vhttp://img.beckett.com/images/no-image.jpg
p1689
asg22
V#156
p1690
sg24
V1998-99
p1691
sg114
VFS
p1692
sg26
g27
sg28
(lp1693
VDikembe Mutombo
p1694
assbag1
(g2
g3
Ntp1695
Rp1696
(dp1697
g7
(dp1698
g9
V1998-99 UD Choice Premium Choice Reserve #193 Dikembe Mutombo YIR
p1699
sg11
I100
sg12
VUD Choice Premium Choice Reserve
p1700
sg14
(lp1701
Vhttp://www.beckett.com/basketball/1998-99/ud-choice-premium-choice-reserve/193-dikembe-mutombo-yir-3159366
p1702
asg17
g18
sg19
(lp1703
Vhttp://img.beckett.com/images/no-image.jpg
p1704
asg22
V#193
p1705
sg24
V1998-99
p1706
sg114
VYIR
p1707
sg26
g27
sg28
(lp1708
VDikembe Mutombo
p1709
assbag1
(g2
g3
Ntp1710
Rp1711
(dp1712
g7
(dp1713
g9
V1998-99 UD Ionix Reciprocal #8 Dikembe Mutombo
p1714
sg11
I750
sg12
VUD Ionix Reciprocal
p1715
sg14
(lp1716
Vhttp://www.beckett.com/basketball/1998-99/ud-ionix-reciprocal/8-dikembe-mutombo-3159684
p1717
asg17
g18
sg19
(lp1718
Vhttp://img.beckett.com/images/no-image.jpg
p1719
asg22
V#8
p1720
sg24
V1998-99
p1721
sg26
g27
sg28
(lp1722
VDikembe Mutombo
p1723
assbag1
(g2
g3
Ntp1724
Rp1725
(dp1726
g7
(dp1727
g9
V1998-99 UD Ionix Reciprocal #78 Roshown McLeod
p1728
sg11
I100
sg12
VUD Ionix Reciprocal
p1729
sg14
(lp1730
Vhttp://www.beckett.com/basketball/1998-99/ud-ionix-reciprocal/78-roshown-mcleod-3159754
p1731
asg17
g18
sg19
(lp1732
Vhttp://img.beckett.com/images/no-image.jpg
p1733
asg22
V#78
p1734
sg24
V1998-99
p1735
sg26
g27
sg28
(lp1736
VRoshown McLeod
p1737
assbag1
(g2
g3
Ntp1738
Rp1739
(dp1740
g7
(dp1741
g9
V1998-99 Ultra Masterpieces #10 Mookie Blaylock
p1742
sg11
I1
sg12
VUltra Masterpieces
p1743
sg14
(lp1744
Vhttp://www.beckett.com/basketball/1998-99/ultra-masterpieces/10-mookie-blaylock-3156966
p1745
asg17
g18
sg19
(lp1746
Vhttp://img.beckett.com/images/no-image.jpg
p1747
asg22
V#10
p1748
sg24
V1998-99
p1749
sg26
g27
sg28
(lp1750
VMookie Blaylock
p1751
assbag1
(g2
g3
Ntp1752
Rp1753
(dp1754
g7
(dp1755
g9
V1998-99 Ultra Masterpieces #67 Dikembe Mutombo
p1756
sg11
I1
sg12
VUltra Masterpieces
p1757
sg14
(lp1758
Vhttp://www.beckett.com/basketball/1998-99/ultra-masterpieces/67-dikembe-mutombo-3157023
p1759
asg17
g18
sg19
(lp1760
Vhttp://img.beckett.com/images/no-image.jpg
p1761
asg22
V#67
p1762
sg24
V1998-99
p1763
sg26
g27
sg28
(lp1764
VDikembe Mutombo
p1765
assbag1
(g2
g3
Ntp1766
Rp1767
(dp1768
g7
(dp1769
g9
V1998-99 Ultra Masterpieces #104 Roshown McLeod
p1770
sg11
I1
sg12
VUltra Masterpieces
p1771
sg14
(lp1772
Vhttp://www.beckett.com/basketball/1998-99/ultra-masterpieces/104-roshown-mcleod-3157060
p1773
asg17
g18
sg19
(lp1774
Vhttp://img.beckett.com/images/no-image.jpg
p1775
asg22
V#104
p1776
sg24
V1998-99
p1777
sg26
g27
sg28
(lp1778
VRoshown McLeod
p1779
assbag1
(g2
g3
Ntp1780
Rp1781
(dp1782
g7
(dp1783
g9
V1998-99 Ultra Platinum Medallion #10 Mookie Blaylock
p1784
sg11
I99
sg12
VUltra Platinum Medallion
p1785
sg14
(lp1786
Vhttp://www.beckett.com/basketball/1998-99/ultra-platinum-medallion/10-mookie-blaylock-3157102
p1787
asg17
g18
sg19
(lp1788
Vhttp://img.beckett.com/images/no-image.jpg
p1789
asg22
V#10
p1790
sg24
V1998-99
p1791
sg26
g27
sg28
(lp1792
VMookie Blaylock
p1793
assbag1
(g2
g3
Ntp1794
Rp1795
(dp1796
g7
(dp1797
g9
V1998-99 Ultra Platinum Medallion #67 Dikembe Mutombo
p1798
sg11
I99
sg12
VUltra Platinum Medallion
p1799
sg14
(lp1800
Vhttp://www.beckett.com/basketball/1998-99/ultra-platinum-medallion/67-dikembe-mutombo-3157159
p1801
asg17
g18
sg19
(lp1802
Vhttp://img.beckett.com/images/no-image.jpg
p1803
asg22
V#67
p1804
sg24
V1998-99
p1805
sg26
g27
sg28
(lp1806
VDikembe Mutombo
p1807
assbag1
(g2
g3
Ntp1808
Rp1809
(dp1810
g7
(dp1811
g9
V1998-99 Ultra Platinum Medallion #104 Roshown McLeod
p1812
sg11
I66
sg12
VUltra Platinum Medallion
p1813
sg14
(lp1814
Vhttp://www.beckett.com/basketball/1998-99/ultra-platinum-medallion/104-roshown-mcleod-3157196
p1815
asg17
g18
sg19
(lp1816
Vhttp://img.beckett.com/images/no-image.jpg
p1817
asg22
V#104
p1818
sg24
V1998-99
p1819
sg26
g27
sg28
(lp1820
VRoshown McLeod
p1821
assbag1
(g2
g3
Ntp1822
Rp1823
(dp1824
g7
(dp1825
g9
V1998-99 Upper Deck Bronze #1 Mookie Blaylock
p1826
sg11
I100
sg12
VUpper Deck Bronze
p1827
sg14
(lp1828
Vhttp://www.beckett.com/basketball/1998-99/upper-deck-bronze/1-mookie-blaylock-3157732
p1829
asg17
g18
sg19
(lp1830
Vhttp://img.beckett.com/images/no-image.jpg
p1831
asg22
V#1
p1832
sg24
V1998-99
p1833
sg26
g27
sg28
(lp1834
VMookie Blaylock
p1835
assbag1
(g2
g3
Ntp1836
Rp1837
(dp1838
g7
(dp1839
g9
V1998-99 Upper Deck Bronze #2 Ed Gray
p1840
sg11
I100
sg12
VUpper Deck Bronze
p1841
sg14
(lp1842
Vhttp://www.beckett.com/basketball/1998-99/upper-deck-bronze/2-ed-gray-3157733
p1843
asg17
g18
sg19
(lp1844
Vhttp://img.beckett.com/images/no-image.jpg
p1845
asg22
V#2
p1846
sg24
V1998-99
p1847
sg26
g27
sg28
(lp1848
VEd Gray
p1849
assbag1
(g2
g3
Ntp1850
Rp1851
(dp1852
g7
(dp1853
g9
V1998-99 Upper Deck Bronze #3 Dikembe Mutombo
p1854
sg11
I100
sg12
VUpper Deck Bronze
p1855
sg14
(lp1856
Vhttp://www.beckett.com/basketball/1998-99/upper-deck-bronze/3-dikembe-mutombo-3157734
p1857
asg17
g18
sg19
(lp1858
Vhttp://img.beckett.com/images/no-image.jpg
p1859
asg22
V#3
p1860
sg24
V1998-99
p1861
sg26
g27
sg28
(lp1862
VDikembe Mutombo
p1863
assbag1
(g2
g3
Ntp1864
Rp1865
(dp1866
g7
(dp1867
g9
V1998-99 Upper Deck Bronze #5 Dikembe Mutombo/Steve Smith HS
p1868
sg11
I100
sg12
VUpper Deck Bronze
p1869
sg14
(lp1870
Vhttp://www.beckett.com/basketball/1998-99/upper-deck-bronze/5-dikembe-mutombosteve-smith-hs-3157736
p1871
asg17
g18
sg19
(lp1872
Vhttp://img.beckett.com/images/no-image.jpg
p1873
asg22
V#5
p1874
sg24
V1998-99
p1875
sg114
VHS
p1876
sg26
g27
sg28
(lp1877
VDikembe Mutombo
p1878
aVSteve Smith
p1879
assbag1
(g2
g3
Ntp1880
Rp1881
(dp1882
g7
(dp1883
g9
V1998-99 Upper Deck Bronze #186 Alan Henderson
p1884
sg11
I100
sg12
VUpper Deck Bronze
p1885
sg14
(lp1886
Vhttp://www.beckett.com/basketball/1998-99/upper-deck-bronze/186-alan-henderson-3157917
p1887
asg17
g18
sg19
(lp1888
Vhttp://img.beckett.com/images/items_stock/185226/3157718/3157917/front.jpg
p1889
asg22
V#186
p1890
sg24
V1998-99
p1891
sg26
g27
sg28
(lp1892
VAlan Henderson
p1893
assbag1
(g2
g3
Ntp1894
Rp1895
(dp1896
g7
(dp1897
g9
V1998-99 Upper Deck Bronze #304 Dikembe Mutombo H99
p1898
sg11
I100
sg12
VUpper Deck Bronze
p1899
sg14
(lp1900
Vhttp://www.beckett.com/basketball/1998-99/upper-deck-bronze/304-dikembe-mutombo-h99-3158057
p1901
asg17
g18
sg19
(lp1902
Vhttp://img.beckett.com/images/no-image.jpg
p1903
asg22
V#304
p1904
sg24
V1998-99
p1905
sg26
g27
sg28
(lp1906
VDikembe Mutombo
p1907
assbag1
(g2
g3
Ntp1908
Rp1909
(dp1910
g7
(dp1911
g9
V1998-99 Upper Deck Bronze #329 Roshown McLeod
p1912
sg11
I100
sg12
VUpper Deck Bronze
p1913
sg14
(lp1914
Vhttp://www.beckett.com/basketball/1998-99/upper-deck-bronze/329-roshown-mcleod-3158082
p1915
asg17
g18
sg19
(lp1916
Vhttp://img.beckett.com/images/no-image.jpg
p1917
asg22
V#329
p1918
sg24
V1998-99
p1919
sg26
g27
sg28
(lp1920
VRoshown McLeod
p1921
assbag1
(g2
g3
Ntp1922
Rp1923
(dp1924
g7
(dp1925
g9
V1998-99 Upper Deck Gold #1 Mookie Blaylock
p1926
sg11
I1
sg12
VUpper Deck Gold
p1927
sg14
(lp1928
Vhttp://www.beckett.com/basketball/1998-99/upper-deck-gold/1-mookie-blaylock-3158097
p1929
asg17
g18
sg19
(lp1930
Vhttp://img.beckett.com/images/no-image.jpg
p1931
asg22
V#1
p1932
sg24
V1998-99
p1933
sg26
g27
sg28
(lp1934
VMookie Blaylock
p1935
assbag1
(g2
g3
Ntp1936
Rp1937
(dp1938
g7
(dp1939
g9
V1998-99 Upper Deck Gold #2 Ed Gray
p1940
sg11
I1
sg12
VUpper Deck Gold
p1941
sg14
(lp1942
Vhttp://www.beckett.com/basketball/1998-99/upper-deck-gold/2-ed-gray-3158098
p1943
asg17
g18
sg19
(lp1944
Vhttp://img.beckett.com/images/no-image.jpg
p1945
asg22
V#2
p1946
sg24
V1998-99
p1947
sg26
g27
sg28
(lp1948
VEd Gray
p1949
assbag1
(g2
g3
Ntp1950
Rp1951
(dp1952
g7
(dp1953
g9
V1998-99 Upper Deck Gold #3 Dikembe Mutombo
p1954
sg11
I1
sg12
VUpper Deck Gold
p1955
sg14
(lp1956
Vhttp://www.beckett.com/basketball/1998-99/upper-deck-gold/3-dikembe-mutombo-3158099
p1957
asg17
g18
sg19
(lp1958
Vhttp://img.beckett.com/images/no-image.jpg
p1959
asg22
V#3
p1960
sg24
V1998-99
p1961
sg26
g27
sg28
(lp1962
VDikembe Mutombo
p1963
assbag1
(g2
g3
Ntp1964
Rp1965
(dp1966
g7
(dp1967
g9
V1998-99 Upper Deck Gold #5 Dikembe Mutombo/Steve Smith HS
p1968
sg11
I1
sg12
VUpper Deck Gold
p1969
sg14
(lp1970
Vhttp://www.beckett.com/basketball/1998-99/upper-deck-gold/5-dikembe-mutombosteve-smith-hs-3158101
p1971
asg17
g18
sg19
(lp1972
Vhttp://img.beckett.com/images/no-image.jpg
p1973
asg22
V#5
p1974
sg24
V1998-99
p1975
sg114
VHS
p1976
sg26
g27
sg28
(lp1977
VDikembe Mutombo
p1978
aVSteve Smith
p1979
assbag1
(g2
g3
Ntp1980
Rp1981
(dp1982
g7
(dp1983
g9
V1998-99 Upper Deck Gold #186 Alan Henderson
p1984
sg11
I1
sg12
VUpper Deck Gold
p1985
sg14
(lp1986
Vhttp://www.beckett.com/basketball/1998-99/upper-deck-gold/186-alan-henderson-3158282
p1987
asg17
g18
sg19
(lp1988
Vhttp://img.beckett.com/images/no-image.jpg
p1989
asg22
V#186
p1990
sg24
V1998-99
p1991
sg26
g27
sg28
(lp1992
VAlan Henderson
p1993
assbag1
(g2
g3
Ntp1994
Rp1995
(dp1996
g7
(dp1997
g9
V1998-99 Upper Deck Gold #304 Dikembe Mutombo H99
p1998
sg11
I1
sg12
VUpper Deck Gold
p1999
sg14
(lp2000
Vhttp://www.beckett.com/basketball/1998-99/upper-deck-gold/304-dikembe-mutombo-h99-3158422
p2001
asg17
g18
sg19
(lp2002
Vhttp://img.beckett.com/images/no-image.jpg
p2003
asg22
V#304
p2004
sg24
V1998-99
p2005
sg26
g27
sg28
(lp2006
VDikembe Mutombo
p2007
assbag1
(g2
g3
Ntp2008
Rp2009
(dp2010
g7
(dp2011
g9
V1998-99 Upper Deck Gold #329 Roshown McLeod
p2012
sg11
I1
sg12
VUpper Deck Gold
p2013
sg14
(lp2014
Vhttp://www.beckett.com/basketball/1998-99/upper-deck-gold/329-roshown-mcleod-3158447
p2015
asg17
g18
sg19
(lp2016
Vhttp://img.beckett.com/images/no-image.jpg
p2017
asg22
V#329
p2018
sg24
V1998-99
p2019
sg26
g27
sg28
(lp2020
VRoshown McLeod
p2021
assbag1
(g2
g3
Ntp2022
Rp2023
(dp2024
g7
(dp2025
g9
V1998-99 Upper Deck Encore F/X #1 Mookie Blaylock
p2026
sg11
I125
sg12
VUpper Deck Encore F/X
p2027
sg14
(lp2028
Vhttp://www.beckett.com/basketball/1998-99/upper-deck-encore-fx/1-mookie-blaylock-3155102
p2029
asg17
g18
sg19
(lp2030
Vhttp://img.beckett.com/images/no-image.jpg
p2031
asg22
V#1
p2032
sg24
V1998-99
p2033
sg26
g27
sg28
(lp2034
VMookie Blaylock
p2035
assbag1
(g2
g3
Ntp2036
Rp2037
(dp2038
g7
(dp2039
g9
V1998-99 Upper Deck Encore F/X #2 Dikembe Mutombo
p2040
sg11
I125
sg12
VUpper Deck Encore F/X
p2041
sg14
(lp2042
Vhttp://www.beckett.com/basketball/1998-99/upper-deck-encore-fx/2-dikembe-mutombo-3155103
p2043
asg17
g18
sg19
(lp2044
Vhttp://img.beckett.com/images/no-image.jpg
p2045
asg22
V#2
p2046
sg24
V1998-99
p2047
sg26
g27
sg28
(lp2048
VDikembe Mutombo
p2049
assbag1
(g2
g3
Ntp2050
Rp2051
(dp2052
g7
(dp2053
g9
V1998-99 Upper Deck Encore F/X #130 Roshown McLeod
p2054
sg11
I125
sg12
VUpper Deck Encore F/X
p2055
sg14
(lp2056
Vhttp://www.beckett.com/basketball/1998-99/upper-deck-encore-fx/130-roshown-mcleod-3155231
p2057
asg17
g18
sg19
(lp2058
Vhttp://img.beckett.com/images/no-image.jpg
p2059
asg22
V#130
p2060
sg24
V1998-99
p2061
sg26
g27
sg28
(lp2062
VRoshown McLeod
p2063
assbag1
(g2
g3
Ntp2064
Rp2065
(dp2066
g7
(dp2067
g9
V1998-99 Upper Deck Ovation Gold #2 Dikembe Mutombo
p2068
sg11
I1000
sg12
VUpper Deck Ovation Gold
p2069
sg14
(lp2070
Vhttp://www.beckett.com/basketball/1998-99/upper-deck-ovation-gold/2-dikembe-mutombo-3155558
p2071
asg17
g18
sg19
(lp2072
Vhttp://img.beckett.com/images/items_stock/185226/3155547/3155558/front.jpg
p2073
asg22
V#2
p2074
sg24
V1998-99
p2075
sg26
g27
sg28
(lp2076
VDikembe Mutombo
p2077
assbag1
(g2
g3
Ntp2078
Rp2079
(dp2080
g7
(dp2081
g9
V1998-99 Hoops Rejectors #1 Dikembe Mutombo
p2082
sg11
I2500
sg12
VHoops Rejectors
p2083
sg14
(lp2084
Vhttp://www.beckett.com/basketball/1998-99/hoops-rejectors/1-dikembe-mutombo-3166454
p2085
asg17
g18
sg19
(lp2086
Vhttp://img.beckett.com/images/no-image.jpg
p2087
asg22
V#1
p2088
sg24
V1998-99
p2089
sg26
g27
sg28
(lp2090
VDikembe Mutombo
p2091
assbag1
(g2
g3
Ntp2092
Rp2093
(dp2094
g7
(dp2095
g9
V1998-99 UD Ionix UD Authentics #RM Roshown McLeod
p2096
sg11
I475
sg12
VUD Ionix UD Authentics
p2097
sg14
(lp2098
Vhttp://www.beckett.com/basketball/1998-99/ud-ionix-ud-authentics/rm-roshown-mcleod-3156652
p2099
asg17
g18
sg19
(lp2100
Vhttp://img.beckett.com/images/no-image.jpg
p2101
asg22
V#RM
p2102
sS'autograph'
p2103
I1
sg24
V1998-99
p2104
sg26
g27
sg28
(lp2105
VRoshown McLeod
p2106
assbag1
(g2
g3
Ntp2107
Rp2108
(dp2109
g7
(dp2110
g9
V1998-99 Bowman's Best Mirror Image Atomic Refractors #MI19 Dikembe Mutombo/Theo Ratliff
p2111
sg11
I25
sg12
VBowman's Best Mirror Image Atomic Refractors
p2112
sg14
(lp2113
Vhttp://www.beckett.com/basketball/1998-99/bowmans-best-mirror-image-atomic-refractors/mi19-dikembe-mutombotheo-ratliff-3171562
p2114
asg17
g18
sg19
(lp2115
Vhttp://img.beckett.com/images/no-image.jpg
p2116
asg22
V#MI19
p2117
sg24
V1998-99
p2118
sg26
g27
sg28
(lp2119
VDikembe Mutombo
p2120
aVTheo Ratliff
p2121
assbag1
(g2
g3
Ntp2122
Rp2123
(dp2124
g7
(dp2125
g9
V1998-99 Bowman's Best Mirror Image Refractors #MI19 Dikembe Mutombo/Theo Ratliff
p2126
sg11
I100
sg12
VBowman's Best Mirror Image Refractors
p2127
sg14
(lp2128
Vhttp://www.beckett.com/basketball/1998-99/bowmans-best-mirror-image-refractors/mi19-dikembe-mutombotheo-ratliff-3171590
p2129
asg17
g18
sg19
(lp2130
Vhttp://img.beckett.com/images/no-image.jpg
p2131
asg22
V#MI19
p2132
sg24
V1998-99
p2133
sg26
g27
sg28
(lp2134
VDikembe Mutombo
p2135
aVTheo Ratliff
p2136
assbag1
(g2
g3
Ntp2137
Rp2138
(dp2139
g7
(dp2140
g9
V1998-99 Bowman's Best Performers Atomic Refractors #BP3 Dikembe Mutombo
p2141
sg11
I50
sg12
VBowman's Best Performers Atomic Refractors
p2142
sg14
(lp2143
Vhttp://www.beckett.com/basketball/1998-99/bowmans-best-performers-atomic-refractors/bp3-dikembe-mutombo-3171628
p2144
asg17
g18
sg19
(lp2145
Vhttp://img.beckett.com/images/no-image.jpg
p2146
asg22
V#BP3
p2147
sg24
V1998-99
p2148
sg26
g27
sg28
(lp2149
VDikembe Mutombo
p2150
assbag1
(g2
g3
Ntp2151
Rp2152
(dp2153
g7
(dp2154
g9
V1998-99 Bowman's Best Performers Refractors #BP3 Dikembe Mutombo
p2155
sg11
I200
sg12
VBowman's Best Performers Refractors
p2156
sg14
(lp2157
Vhttp://www.beckett.com/basketball/1998-99/bowmans-best-performers-refractors/bp3-dikembe-mutombo-3171646
p2158
asg17
g18
sg19
(lp2159
Vhttp://img.beckett.com/images/no-image.jpg
p2160
asg22
V#BP3
p2161
sg24
V1998-99
p2162
sg26
g27
sg28
(lp2163
VDikembe Mutombo
p2164
assbag1
(g2
g3
Ntp2165
Rp2166
(dp2167
g7
(dp2168
g9
V1998-99 E-X Century Essential Credentials Future #50 Dikembe Mutombo/41
p2169
sg11
I41
sg12
VE-X Century Essential Credentials Future
p2170
sg14
(lp2171
Vhttp://www.beckett.com/basketball/1998-99/e-x-century-essential-credentials-future/50-dikembe-mutombo41-3169001
p2172
asg17
g18
sg19
(lp2173
Vhttp://img.beckett.com/images/no-image.jpg
p2174
asg22
V#50
p2175
sg24
V1998-99
p2176
sg26
g27
sg28
(lp2177
VDikembe Mutombo
p2178
assbag1
(g2
g3
Ntp2179
Rp2180
(dp2181
g7
(dp2182
g9
V1998-99 E-X Century Essential Credentials Future #75 Roshown McLeod/16
p2183
sg11
I16
sg12
VE-X Century Essential Credentials Future
p2184
sg14
(lp2185
Vhttp://www.beckett.com/basketball/1998-99/e-x-century-essential-credentials-future/75-roshown-mcleod16-3169026
p2186
asg17
g18
sg19
(lp2187
Vhttp://img.beckett.com/images/no-image.jpg
p2188
asg22
V#75
p2189
sg24
V1998-99
p2190
sg26
g27
sg28
(lp2191
VRoshown McLeod
p2192
assbag1
(g2
g3
Ntp2193
Rp2194
(dp2195
g7
(dp2196
g9
V1998-99 E-X Century Essential Credentials Now #50 Dikembe Mutombo/50
p2197
sg11
I50
sg12
VE-X Century Essential Credentials Now
p2198
sg14
(lp2199
Vhttp://www.beckett.com/basketball/1998-99/e-x-century-essential-credentials-now/50-dikembe-mutombo50-3169098
p2200
asg17
g18
sg19
(lp2201
Vhttp://img.beckett.com/images/no-image.jpg
p2202
asg22
V#50
p2203
sg24
V1998-99
p2204
sg26
g27
sg28
(lp2205
VDikembe Mutombo
p2206
assbag1
(g2
g3
Ntp2207
Rp2208
(dp2209
g7
(dp2210
g9
V1998-99 E-X Century Essential Credentials Now #75 Roshown McLeod/75
p2211
sg11
I75
sg12
VE-X Century Essential Credentials Now
p2212
sg14
(lp2213
Vhttp://www.beckett.com/basketball/1998-99/e-x-century-essential-credentials-now/75-roshown-mcleod75-3169123
p2214
asg17
g18
sg19
(lp2215
Vhttp://img.beckett.com/images/no-image.jpg
p2216
asg22
V#75
p2217
sg24
V1998-99
p2218
sg26
g27
sg28
(lp2219
VRoshown McLeod
p2220
assbag1
(g2
g3
Ntp2221
Rp2222
(dp2223
g7
(dp2224
g9
V1998-99 SkyBox Premium Autographics Blue #90 Dikembe Mutombo
p2225
sg11
I50
sg12
VSkyBox Premium Autographics Blue
p2226
sg14
(lp2227
Vhttp://www.beckett.com/basketball/1998-99/skybox-premium-autographics-blue/90-dikembe-mutombo-3165645
p2228
asg17
g18
sg19
(lp2229
Vhttp://img.beckett.com/images/no-image.jpg
p2230
asg22
V#90
p2231
sg2103
I1
sg24
V1998-99
p2232
sg26
g27
sg28
(lp2233
VDikembe Mutombo
p2234
assbag1
(g2
g3
Ntp2235
Rp2236
(dp2237
g7
(dp2238
g9
V1998-99 Upper Deck AeroDynamics Bronze #A12 Mookie Blaylock
p2239
sg11
I2000
sg12
VUpper Deck AeroDynamics Bronze
p2240
sg14
(lp2241
Vhttp://www.beckett.com/basketball/1998-99/upper-deck-aerodynamics-bronze/a12-mookie-blaylock-3155731
p2242
asg17
g18
sg19
(lp2243
Vhttp://img.beckett.com/images/items_stock/185226/3155712/3155731/front.jpg
p2244
asg22
V#A12
p2245
sg24
V1998-99
p2246
sg26
g27
sg28
(lp2247
VMookie Blaylock
p2248
assbag1
(g2
g3
Ntp2249
Rp2250
(dp2251
g7
(dp2252
g9
V1998-99 Upper Deck AeroDynamics Silver #A12 Mookie Blaylock
p2253
sg11
I100
sg12
VUpper Deck AeroDynamics Silver
p2254
sg14
(lp2255
Vhttp://www.beckett.com/basketball/1998-99/upper-deck-aerodynamics-silver/a12-mookie-blaylock-3155807
p2256
asg17
g18
sg19
(lp2257
Vhttp://img.beckett.com/images/no-image.jpg
p2258
asg22
V#A12
p2259
sg24
V1998-99
p2260
sg26
g27
sg28
(lp2261
VMookie Blaylock
p2262
assbag1
(g2
g3
Ntp2263
Rp2264
(dp2265
g7
(dp2266
g9
V1998-99 Upper Deck AeroDynamics Gold #A12 Mookie Blaylock
p2267
sg11
I25
sg12
VUpper Deck AeroDynamics Gold
p2268
sg14
(lp2269
Vhttp://www.beckett.com/basketball/1998-99/upper-deck-aerodynamics-gold/a12-mookie-blaylock-3155769
p2270
asg17
g18
sg19
(lp2271
Vhttp://img.beckett.com/images/no-image.jpg
p2272
asg22
V#A12
p2273
sg24
V1998-99
p2274
sg26
g27
sg28
(lp2275
VMookie Blaylock
p2276
assbag1
(g2
g3
Ntp2277
Rp2278
(dp2279
g7
(dp2280
g9
V1998-99 Upper Deck Intensity Bronze #I24 Dikembe Mutombo
p2281
sg11
I1500
sg12
VUpper Deck Intensity Bronze
p2282
sg14
(lp2283
Vhttp://www.beckett.com/basketball/1998-99/upper-deck-intensity-bronze/i24-dikembe-mutombo-3156120
p2284
asg17
g18
sg19
(lp2285
Vhttp://img.beckett.com/images/no-image.jpg
p2286
asg22
V#I24
p2287
sg24
V1998-99
p2288
sg26
g27
sg28
(lp2289
VDikembe Mutombo
p2290
assbag1
(g2
g3
Ntp2291
Rp2292
(dp2293
g7
(dp2294
g9
V1998-99 Upper Deck Intensity Silver #I24 Dikembe Mutombo
p2295
sg11
I75
sg12
VUpper Deck Intensity Silver
p2296
sg14
(lp2297
Vhttp://www.beckett.com/basketball/1998-99/upper-deck-intensity-silver/i24-dikembe-mutombo-3156196
p2298
asg17
g18
sg19
(lp2299
Vhttp://img.beckett.com/images/no-image.jpg
p2300
asg22
V#I24
p2301
sg24
V1998-99
p2302
sg26
g27
sg28
(lp2303
VDikembe Mutombo
p2304
assbag1
(g2
g3
Ntp2305
Rp2306
(dp2307
g7
(dp2308
g9
V1998-99 Upper Deck Intensity Gold #I24 Dikembe Mutombo
p2309
sg11
I25
sg12
VUpper Deck Intensity Gold
p2310
sg14
(lp2311
Vhttp://www.beckett.com/basketball/1998-99/upper-deck-intensity-gold/i24-dikembe-mutombo-3156158
p2312
asg17
g18
sg19
(lp2313
Vhttp://img.beckett.com/images/no-image.jpg
p2314
asg22
V#I24
p2315
sg24
V1998-99
p2316
sg26
g27
sg28
(lp2317
VDikembe Mutombo
p2318
assbag1
(g2
g3
Ntp2319
Rp2320
(dp2321
g7
(dp2322
g9
V1998-99 Upper Deck Next Wave Bronze #NW17 Ed Gray
p2323
sg11
I1500
sg12
VUpper Deck Next Wave Bronze
p2324
sg14
(lp2325
Vhttp://www.beckett.com/basketball/1998-99/upper-deck-next-wave-bronze/nw17-ed-gray-3156468
p2326
asg17
g18
sg19
(lp2327
Vhttp://img.beckett.com/images/items_stock/185226/3156444/3156468/front.jpg
p2328
asg22
V#NW17
p2329
sg24
V1998-99
p2330
sg26
g27
sg28
(lp2331
VEd Gray
p2332
assbag1
(g2
g3
Ntp2333
Rp2334
(dp2335
g7
(dp2336
g9
V1998-99 Upper Deck Next Wave Silver #NW17 Ed Gray
p2337
sg11
I200
sg12
VUpper Deck Next Wave Silver
p2338
sg14
(lp2339
Vhttp://www.beckett.com/basketball/1998-99/upper-deck-next-wave-silver/nw17-ed-gray-3156544
p2340
asg17
g18
sg19
(lp2341
Vhttp://img.beckett.com/images/no-image.jpg
p2342
asg22
V#NW17
p2343
sg24
V1998-99
p2344
sg26
g27
sg28
(lp2345
VEd Gray
p2346
assbag1
(g2
g3
Ntp2347
Rp2348
(dp2349
g7
(dp2350
g9
V1998-99 Upper Deck Next Wave Gold #NW17 Ed Gray
p2351
sg11
I75
sg12
VUpper Deck Next Wave Gold
p2352
sg14
(lp2353
Vhttp://www.beckett.com/basketball/1998-99/upper-deck-next-wave-gold/nw17-ed-gray-3156506
p2354
asg17
g18
sg19
(lp2355
Vhttp://img.beckett.com/images/no-image.jpg
p2356
asg22
V#NW17
p2357
sg24
V1998-99
p2358
sg26
g27
sg28
(lp2359
VEd Gray
p2360
assbag1
(g2
g3
Ntp2361
Rp2362
(dp2363
g7
(dp2364
g9
V1998-99 Upper Deck Super Powers Bronze #S1 Dikembe Mutombo
p2365
sg11
I1000
sg12
VUpper Deck Super Powers Bronze
p2366
sg14
(lp2367
Vhttp://www.beckett.com/basketball/1998-99/upper-deck-super-powers-bronze/s1-dikembe-mutombo-3154808
p2368
asg17
g18
sg19
(lp2369
Vhttp://img.beckett.com/images/items_stock/185226/3154800/3154808/front.jpg
p2370
asg22
V#S1
p2371
sg24
V1998-99
p2372
sg26
g27
sg28
(lp2373
VDikembe Mutombo
p2374
assbag1
(g2
g3
Ntp2375
Rp2376
(dp2377
g7
(dp2378
g9
V1998-99 Upper Deck Super Powers Silver #S1 Dikembe Mutombo
p2379
sg11
I100
sg12
VUpper Deck Super Powers Silver
p2380
sg14
(lp2381
Vhttp://www.beckett.com/basketball/1998-99/upper-deck-super-powers-silver/s1-dikembe-mutombo-3154884
p2382
asg17
g18
sg19
(lp2383
Vhttp://img.beckett.com/images/no-image.jpg
p2384
asg22
V#S1
p2385
sg24
V1998-99
p2386
sg26
g27
sg28
(lp2387
VDikembe Mutombo
p2388
assbag1
(g2
g3
Ntp2389
Rp2390
(dp2391
g7
(dp2392
g9
V1998-99 Upper Deck Super Powers Gold #S1 Dikembe Mutombo
p2393
sg11
I50
sg12
VUpper Deck Super Powers Gold
p2394
sg14
(lp2395
Vhttp://www.beckett.com/basketball/1998-99/upper-deck-super-powers-gold/s1-dikembe-mutombo-3154846
p2396
asg17
g18
sg19
(lp2397
Vhttp://img.beckett.com/images/no-image.jpg
p2398
asg22
V#S1
p2399
sg24
V1998-99
p2400
sg26
g27
sg28
(lp2401
VDikembe Mutombo
p2402
assba.