(lp0
Naccopy_reg
_reconstructor
p1
(ctutorial.items
BeckettItem
p2
c__builtin__
object
p3
Ntp4
Rp5
(dp6
S'_values'
p7
(dp8
S'originalItemDescription'
p9
V1998 Upper Deck Hardcourt Home Court Advantage Plus #12 Kenny Anderson
p10
sS'serialNumber'
p11
I500
sS'setName'
p12
VUpper Deck Hardcourt Home Court Advantage Plus
p13
sS'beckettLink'
p14
(lp15
Vhttp://www.beckett.com/basketball/1998/upper-deck-hardcourt-home-court-advantage-plus/12-kenny-anderson-3150424
p16
asS'team'
p17
S'Boston Celtics'
p18
sS'imageLink'
p19
(lp20
Vhttp://img.beckett.com/images/no-image.jpg
p21
asS'cardNumber'
p22
V#12
p23
sS'year'
p24
V1998
p25
sS'sport'
p26
S'Basketball'
p27
sS'playerNames'
p28
(lp29
VKenny Anderson
p30
assbag1
(g2
g3
Ntp31
Rp32
(dp33
g7
(dp34
g9
V1998 Upper Deck Hardcourt Home Court Advantage Plus #21 Ron Mercer
p35
sg11
I500
sg12
VUpper Deck Hardcourt Home Court Advantage Plus
p36
sg14
(lp37
Vhttp://www.beckett.com/basketball/1998/upper-deck-hardcourt-home-court-advantage-plus/21-ron-mercer-3150433
p38
asg17
g18
sg19
(lp39
Vhttp://img.beckett.com/images/no-image.jpg
p40
asg22
V#21
p41
sg24
V1998
p42
sg26
g27
sg28
(lp43
VRon Mercer
p44
assbag1
(g2
g3
Ntp45
Rp46
(dp47
g7
(dp48
g9
V1998 Upper Deck Hardcourt Home Court Advantage Plus #31 Antoine Walker
p49
sg11
I500
sg12
VUpper Deck Hardcourt Home Court Advantage Plus
p50
sg14
(lp51
Vhttp://www.beckett.com/basketball/1998/upper-deck-hardcourt-home-court-advantage-plus/31-antoine-walker-3150443
p52
asg17
g18
sg19
(lp53
Vhttp://img.beckett.com/images/no-image.jpg
p54
asg22
V#31
p55
sg24
V1998
p56
sg26
g27
sg28
(lp57
VAntoine Walker
p58
assbag1
(g2
g3
Ntp59
Rp60
(dp61
g7
(dp62
g9
V1998 Upper Deck Hardcourt Home Court Advantage Plus #76 Ron Mercer RE
p63
sg11
I500
sg12
VUpper Deck Hardcourt Home Court Advantage Plus
p64
sg14
(lp65
Vhttp://www.beckett.com/basketball/1998/upper-deck-hardcourt-home-court-advantage-plus/76-ron-mercer-re-3150488
p66
asg17
g18
sg19
(lp67
Vhttp://img.beckett.com/images/no-image.jpg
p68
asg22
V#76
p69
sg24
V1998
p70
sS'subsetName'
p71
VRE
p72
sg26
g27
sg28
(lp73
VRon Mercer
p74
assbag1
(g2
g3
Ntp75
Rp76
(dp77
g7
(dp78
g9
V1998 Upper Deck Hardcourt High Court #H2 Ron Mercer
p79
sg11
I1300
sg12
VUpper Deck Hardcourt High Court
p80
sg14
(lp81
Vhttp://www.beckett.com/basketball/1998/upper-deck-hardcourt-high-court/h2-ron-mercer-3150511
p82
asg17
g18
sg19
(lp83
Vhttp://img.beckett.com/images/items_stock/185226/3150503/3150511/front.jpg
p84
asg22
V#H2
p85
sg24
V1998
p86
sg26
g27
sg28
(lp87
VRon Mercer
p88
assbag1
(g2
g3
Ntp89
Rp90
(dp91
g7
(dp92
g9
V1998 Upper Deck Hardcourt Jordan Holding Court Red #J2 Antoine Walker/Michael Jordan
p93
sg11
I2300
sg12
VUpper Deck Hardcourt Jordan Holding Court Red
p94
sg14
(lp95
Vhttp://www.beckett.com/basketball/1998/upper-deck-hardcourt-jordan-holding-court-red/j2-antoine-walkermichael-jordan-3150555
p96
asg17
g18
sg19
(lp97
Vhttp://img.beckett.com/images/no-image.jpg
p98
asg22
V#J2
p99
sg24
V1998
p100
sg26
g27
sg28
(lp101
VAntoine Walker
p102
aVMichael Jordan
p103
assbag1
(g2
g3
Ntp104
Rp105
(dp106
g7
(dp107
g9
V1998 Upper Deck Hardcourt Jordan Holding Court Bronze #J2 Antoine Walker/Michael Jordan
p108
sg11
I230
sg12
VUpper Deck Hardcourt Jordan Holding Court Bronze
p109
sg14
(lp110
Vhttp://www.beckett.com/basketball/1998/upper-deck-hardcourt-jordan-holding-court-bronze/j2-antoine-walkermichael-jordan-3150593
p111
asg17
g18
sg19
(lp112
Vhttp://img.beckett.com/images/no-image.jpg
p113
asg22
V#J2
p114
sg24
V1998
p115
sg26
g27
sg28
(lp116
VAntoine Walker
p117
aVMichael Jordan
p118
assbag1
(g2
g3
Ntp119
Rp120
(dp121
g7
(dp122
g9
V1998 Upper Deck Hardcourt Jordan Holding Court Silver #J2 Antoine Walker/Michael Jordan
p123
sg11
I23
sg12
VUpper Deck Hardcourt Jordan Holding Court Silver
p124
sg14
(lp125
Vhttp://www.beckett.com/basketball/1998/upper-deck-hardcourt-jordan-holding-court-silver/j2-antoine-walkermichael-jordan-3150668
p126
asg17
g18
sg19
(lp127
Vhttp://img.beckett.com/images/no-image.jpg
p128
asg22
V#J2
p129
sg24
V1998
p130
sg26
g27
sg28
(lp131
VAntoine Walker
p132
aVMichael Jordan
p133
assbag1
(g2
g3
Ntp134
Rp135
(dp136
g7
(dp137
g9
V1998 Upper Deck Hardcourt Jordan Holding Court Gold #J2 Antoine Walker/Michael Jordan
p138
sg11
I1
sg12
VUpper Deck Hardcourt Jordan Holding Court Gold
p139
sg14
(lp140
Vhttp://www.beckett.com/basketball/1998/upper-deck-hardcourt-jordan-holding-court-gold/j2-antoine-walkermichael-jordan-3150630
p141
asg17
g18
sg19
(lp142
Vhttp://img.beckett.com/images/no-image.jpg
p143
asg22
V#J2
p144
sg24
V1998
p145
sg26
g27
sg28
(lp146
VAntoine Walker
p147
aVMichael Jordan
p148
assbag1
(g2
g3
Ntp149
Rp150
(dp151
g7
(dp152
g9
V1998-99 SP Authentic #100 Paul Pierce RC
p153
sg11
I3500
sg12
VSP Authentic
p154
sg14
(lp155
Vhttp://www.beckett.com/basketball/1998-99/sp-authentic/100-paul-pierce-rc-3163022
p156
asg17
g18
sS'rookieCard'
p157
I1
sg19
(lp158
Vhttp://img.beckett.com/images/no-image.jpg
p159
asg22
V#100
p160
sg24
V1998-99
p161
sg26
g27
sg28
(lp162
VPaul Pierce
p163
assbag1
(g2
g3
Ntp164
Rp165
(dp166
g7
(dp167
g9
V1998-99 SPx Finite #55 Antoine Walker
p168
sg11
I10000
sg12
VSPx Finite
p169
sg14
(lp170
Vhttp://www.beckett.com/basketball/1998-99/spx-finite/55-antoine-walker-3163331
p171
asg17
g18
sg19
(lp172
Vhttp://img.beckett.com/images/items_stock/185226/3163241/3163331/front.jpg
p173
asg22
V#55
p174
sg24
V1998-99
p175
sg26
g27
sg28
(lp176
VAntoine Walker
p177
assbag1
(g2
g3
Ntp178
Rp179
(dp180
g7
(dp181
g9
V1998-99 SPx Finite #64 Ron Mercer
p182
sg11
I10000
sg12
VSPx Finite
p183
sg14
(lp184
Vhttp://www.beckett.com/basketball/1998-99/spx-finite/64-ron-mercer-3163340
p185
asg17
g18
sg19
(lp186
Vhttp://img.beckett.com/images/items_stock/185226/3163241/3163340/front_old.jpg
p187
asg22
V#64
p188
sg24
V1998-99
p189
sg26
g27
sg28
(lp190
VRon Mercer
p191
assbag1
(g2
g3
Ntp192
Rp193
(dp194
g7
(dp195
g9
V1998-99 SPx Finite #85 Kenny Anderson
p196
sg11
I10000
sg12
VSPx Finite
p197
sg14
(lp198
Vhttp://www.beckett.com/basketball/1998-99/spx-finite/85-kenny-anderson-3163361
p199
asg17
g18
sg19
(lp200
Vhttp://img.beckett.com/images/items_stock/185226/3163241/3163361/front.jpg
p201
asg22
V#85
p202
sg24
V1998-99
p203
sg26
g27
sg28
(lp204
VKenny Anderson
p205
assbag1
(g2
g3
Ntp206
Rp207
(dp208
g7
(dp209
g9
V1998-99 SPx Finite #109 Antoine Walker SP
p210
sg11
I5400
sg12
VSPx Finite
p211
sg14
(lp212
Vhttp://www.beckett.com/basketball/1998-99/spx-finite/109-antoine-walker-sp-3163385
p213
asg17
g18
sg19
(lp214
Vhttp://img.beckett.com/images/items_stock/185226/3163241/3163385/front.jpg
p215
asg22
V#109
p216
sg24
V1998-99
p217
sg71
VSP
p218
sg26
g27
sg28
(lp219
VAntoine Walker
p220
assbag1
(g2
g3
Ntp221
Rp222
(dp223
g7
(dp224
g9
V1998-99 SPx Finite #144 Kenny Anderson SP
p225
sg11
I5400
sg12
VSPx Finite
p226
sg14
(lp227
Vhttp://www.beckett.com/basketball/1998-99/spx-finite/144-kenny-anderson-sp-3163420
p228
asg17
g18
sg19
(lp229
Vhttp://img.beckett.com/images/items_stock/185226/3163241/3163420/front.jpg
p230
asg22
V#144
p231
sg24
V1998-99
p232
sg71
VSP
p233
sg26
g27
sg28
(lp234
VKenny Anderson
p235
assbag1
(g2
g3
Ntp236
Rp237
(dp238
g7
(dp239
g9
V1998-99 SPx Finite #152 Ron Mercer SPx
p240
sg11
I4050
sg12
VSPx Finite
p241
sg14
(lp242
Vhttp://www.beckett.com/basketball/1998-99/spx-finite/152-ron-mercer-spx-3163428
p243
asg17
g18
sg19
(lp244
Vhttp://img.beckett.com/images/items_stock/185226/3163241/3163428/front.jpg
p245
asg22
V#152
p246
sg24
V1998-99
p247
sg71
VSPx
p248
sg26
g27
sg28
(lp249
VRon Mercer
p250
assbag1
(g2
g3
Ntp251
Rp252
(dp253
g7
(dp254
g9
V1998-99 SPx Finite #164 Antoine Walker SPx
p255
sg11
I4050
sg12
VSPx Finite
p256
sg14
(lp257
Vhttp://www.beckett.com/basketball/1998-99/spx-finite/164-antoine-walker-spx-3163440
p258
asg17
g18
sg19
(lp259
Vhttp://img.beckett.com/images/items_stock/185226/3163241/3163440/front.jpg
p260
asg22
V#164
p261
sg24
V1998-99
p262
sg71
VSPx
p263
sg26
g27
sg28
(lp264
VAntoine Walker
p265
assbag1
(g2
g3
Ntp266
Rp267
(dp268
g7
(dp269
g9
V1998-99 SPx Finite #197 Ron Mercer TF
p270
sg11
I3390
sg12
VSPx Finite
p271
sg14
(lp272
Vhttp://www.beckett.com/basketball/1998-99/spx-finite/197-ron-mercer-tf-3163473
p273
asg17
g18
sg19
(lp274
Vhttp://img.beckett.com/images/items_stock/185226/3163241/3163473/front.jpg
p275
asg22
V#197
p276
sg24
V1998-99
p277
sg71
VTF
p278
sg26
g27
sg28
(lp279
VRon Mercer
p280
assbag1
(g2
g3
Ntp281
Rp282
(dp283
g7
(dp284
g9
V1998-99 SPx Finite #220 Paul Pierce RC
p285
sg11
I2500
sg12
VSPx Finite
p286
sg14
(lp287
Vhttp://www.beckett.com/basketball/1998-99/spx-finite/220-paul-pierce-rc-3163496
p288
asg17
g18
sg157
I1
sg19
(lp289
Vhttp://img.beckett.com/images/items_stock/185226/3163241/3163496/front.jpg
p290
asg22
V#220
p291
sg24
V1998-99
p292
sg26
g27
sg28
(lp293
VPaul Pierce
p294
assbag1
(g2
g3
Ntp295
Rp296
(dp297
g7
(dp298
g9
V1998-99 Black Diamond Double Diamond #17 Antoine Walker
p299
sg11
I3000
sg12
VBlack Diamond Double Diamond
p300
sg14
(lp301
Vhttp://www.beckett.com/basketball/1998-99/black-diamond-double-diamond/17-antoine-walker-3171924
p302
asg17
g18
sg19
(lp303
Vhttp://img.beckett.com/images/items_stock/185226/3171898/3171924/front.jpg
p304
asg22
V#17
p305
sg24
V1998-99
p306
sg26
g27
sg28
(lp307
VAntoine Walker
p308
assbag1
(g2
g3
Ntp309
Rp310
(dp311
g7
(dp312
g9
V1998-99 Black Diamond Double Diamond #18 Kenny Anderson
p313
sg11
I3000
sg12
VBlack Diamond Double Diamond
p314
sg14
(lp315
Vhttp://www.beckett.com/basketball/1998-99/black-diamond-double-diamond/18-kenny-anderson-3171925
p316
asg17
g18
sg19
(lp317
Vhttp://img.beckett.com/images/items_stock/185226/3171898/3171925/front.jpg
p318
asg22
V#18
p319
sg24
V1998-99
p320
sg26
g27
sg28
(lp321
VKenny Anderson
p322
assbag1
(g2
g3
Ntp323
Rp324
(dp325
g7
(dp326
g9
V1998-99 Black Diamond Double Diamond #19 Ron Mercer
p327
sg11
I3000
sg12
VBlack Diamond Double Diamond
p328
sg14
(lp329
Vhttp://www.beckett.com/basketball/1998-99/black-diamond-double-diamond/19-ron-mercer-3171926
p330
asg17
g18
sg19
(lp331
Vhttp://img.beckett.com/images/items_stock/185226/3171898/3171926/front.jpg
p332
asg22
V#19
p333
sg24
V1998-99
p334
sg26
g27
sg28
(lp335
VRon Mercer
p336
assbag1
(g2
g3
Ntp337
Rp338
(dp339
g7
(dp340
g9
V1998-99 Black Diamond Double Diamond #101 Paul Pierce
p341
sg11
I2500
sg12
VBlack Diamond Double Diamond
p342
sg14
(lp343
Vhttp://www.beckett.com/basketball/1998-99/black-diamond-double-diamond/101-paul-pierce-3172008
p344
asg17
g18
sg19
(lp345
Vhttp://img.beckett.com/images/items_stock/185226/3171898/3172008/front.jpg
p346
asg22
V#101
p347
sg24
V1998-99
p348
sg26
g27
sg28
(lp349
VPaul Pierce
p350
assbag1
(g2
g3
Ntp351
Rp352
(dp353
g7
(dp354
g9
V1998-99 Black Diamond Triple Diamond #17 Antoine Walker
p355
sg11
I1500
sg12
VBlack Diamond Triple Diamond
p356
sg14
(lp357
Vhttp://www.beckett.com/basketball/1998-99/black-diamond-triple-diamond/17-antoine-walker-3172054
p358
asg17
g18
sg19
(lp359
Vhttp://img.beckett.com/images/items_stock/185226/3172028/3172054/front.jpg
p360
asg22
V#17
p361
sg24
V1998-99
p362
sg26
g27
sg28
(lp363
VAntoine Walker
p364
assbag1
(g2
g3
Ntp365
Rp366
(dp367
g7
(dp368
g9
V1998-99 Black Diamond Triple Diamond #18 Kenny Anderson
p369
sg11
I1500
sg12
VBlack Diamond Triple Diamond
p370
sg14
(lp371
Vhttp://www.beckett.com/basketball/1998-99/black-diamond-triple-diamond/18-kenny-anderson-3172055
p372
asg17
g18
sg19
(lp373
Vhttp://img.beckett.com/images/items_stock/185226/3172028/3172055/front.jpg
p374
asg22
V#18
p375
sg24
V1998-99
p376
sg26
g27
sg28
(lp377
VKenny Anderson
p378
assbag1
(g2
g3
Ntp379
Rp380
(dp381
g7
(dp382
g9
V1998-99 Black Diamond Triple Diamond #19 Ron Mercer
p383
sg11
I1500
sg12
VBlack Diamond Triple Diamond
p384
sg14
(lp385
Vhttp://www.beckett.com/basketball/1998-99/black-diamond-triple-diamond/19-ron-mercer-3172056
p386
asg17
g18
sg19
(lp387
Vhttp://img.beckett.com/images/items_stock/185226/3172028/3172056/front.jpg
p388
asg22
V#19
p389
sg24
V1998-99
p390
sg26
g27
sg28
(lp391
VRon Mercer
p392
assbag1
(g2
g3
Ntp393
Rp394
(dp395
g7
(dp396
g9
V1998-99 Black Diamond Triple Diamond #101 Paul Pierce
p397
sg11
I1000
sg12
VBlack Diamond Triple Diamond
p398
sg14
(lp399
Vhttp://www.beckett.com/basketball/1998-99/black-diamond-triple-diamond/101-paul-pierce-3172138
p400
asg17
g18
sg19
(lp401
Vhttp://img.beckett.com/images/no-image.jpg
p402
asg22
V#101
p403
sg24
V1998-99
p404
sg26
g27
sg28
(lp405
VPaul Pierce
p406
assbag1
(g2
g3
Ntp407
Rp408
(dp409
g7
(dp410
g9
V1998-99 Black Diamond Quadruple Diamond #17 Antoine Walker
p411
sg11
I150
sg12
VBlack Diamond Quadruple Diamond
p412
sg14
(lp413
Vhttp://www.beckett.com/basketball/1998-99/black-diamond-quadruple-diamond/17-antoine-walker-3170725
p414
asg17
g18
sg19
(lp415
Vhttp://img.beckett.com/images/no-image.jpg
p416
asg22
V#17
p417
sg24
V1998-99
p418
sg26
g27
sg28
(lp419
VAntoine Walker
p420
assbag1
(g2
g3
Ntp421
Rp422
(dp423
g7
(dp424
g9
V1998-99 Black Diamond Quadruple Diamond #18 Kenny Anderson
p425
sg11
I150
sg12
VBlack Diamond Quadruple Diamond
p426
sg14
(lp427
Vhttp://www.beckett.com/basketball/1998-99/black-diamond-quadruple-diamond/18-kenny-anderson-3170726
p428
asg17
g18
sg19
(lp429
Vhttp://img.beckett.com/images/items_stock/185226/3170697/3170726/front.jpg
p430
asg22
V#18
p431
sg24
V1998-99
p432
sg26
g27
sg28
(lp433
VKenny Anderson
p434
assbag1
(g2
g3
Ntp435
Rp436
(dp437
g7
(dp438
g9
V1998-99 Black Diamond Quadruple Diamond #19 Ron Mercer
p439
sg11
I150
sg12
VBlack Diamond Quadruple Diamond
p440
sg14
(lp441
Vhttp://www.beckett.com/basketball/1998-99/black-diamond-quadruple-diamond/19-ron-mercer-3170727
p442
asg17
g18
sg19
(lp443
Vhttp://img.beckett.com/images/no-image.jpg
p444
asg22
V#19
p445
sg24
V1998-99
p446
sg26
g27
sg28
(lp447
VRon Mercer
p448
assbag1
(g2
g3
Ntp449
Rp450
(dp451
g7
(dp452
g9
V1998-99 Black Diamond Quadruple Diamond #101 Paul Pierce
p453
sg11
I50
sg12
VBlack Diamond Quadruple Diamond
p454
sg14
(lp455
Vhttp://www.beckett.com/basketball/1998-99/black-diamond-quadruple-diamond/101-paul-pierce-3170809
p456
asg17
g18
sg19
(lp457
Vhttp://img.beckett.com/images/no-image.jpg
p458
asg22
V#101
p459
sg24
V1998-99
p460
sg26
g27
sg28
(lp461
VPaul Pierce
p462
assbag1
(g2
g3
Ntp463
Rp464
(dp465
g7
(dp466
g9
V1998-99 Bowman's Best Refractors #11 Kenny Anderson
p467
sg11
I400
sg12
VBowman's Best Refractors
p468
sg14
(lp469
Vhttp://www.beckett.com/basketball/1998-99/bowmans-best-refractors/11-kenny-anderson-3171170
p470
asg17
g18
sg19
(lp471
Vhttp://img.beckett.com/images/items_stock/185226/3171150/3171170/front.jpg
p472
asg22
V#11
p473
sg24
V1998-99
p474
sg26
g27
sg28
(lp475
VKenny Anderson
p476
assbag1
(g2
g3
Ntp477
Rp478
(dp479
g7
(dp480
g9
V1998-99 Bowman's Best Refractors #47 Ron Mercer
p481
sg11
I400
sg12
VBowman's Best Refractors
p482
sg14
(lp483
Vhttp://www.beckett.com/basketball/1998-99/bowmans-best-refractors/47-ron-mercer-3171206
p484
asg17
g18
sg19
(lp485
Vhttp://img.beckett.com/images/items_stock/185226/3171150/3171206/front.jpg
p486
asg22
V#47
p487
sg24
V1998-99
p488
sg26
g27
sg28
(lp489
VRon Mercer
p490
assbag1
(g2
g3
Ntp491
Rp492
(dp493
g7
(dp494
g9
V1998-99 Bowman's Best Refractors #58 Walter McCarty
p495
sg11
I400
sg12
VBowman's Best Refractors
p496
sg14
(lp497
Vhttp://www.beckett.com/basketball/1998-99/bowmans-best-refractors/58-walter-mccarty-3171217
p498
asg17
g18
sg19
(lp499
Vhttp://img.beckett.com/images/items_stock/185226/3171150/3171217/front.jpg
p500
asg22
V#58
p501
sg24
V1998-99
p502
sg26
g27
sg28
(lp503
VWalter McCarty
p504
assbag1
(g2
g3
Ntp505
Rp506
(dp507
g7
(dp508
g9
V1998-99 Bowman's Best Refractors #90 Antoine Walker
p509
sg11
I400
sg12
VBowman's Best Refractors
p510
sg14
(lp511
Vhttp://www.beckett.com/basketball/1998-99/bowmans-best-refractors/90-antoine-walker-3171249
p512
asg17
g18
sg19
(lp513
Vhttp://img.beckett.com/images/no-image.jpg
p514
asg22
V#90
p515
sg24
V1998-99
p516
sg26
g27
sg28
(lp517
VAntoine Walker
p518
assbag1
(g2
g3
Ntp519
Rp520
(dp521
g7
(dp522
g9
V1998-99 Bowman's Best Refractors #110 Paul Pierce
p523
sg11
I400
sg12
VBowman's Best Refractors
p524
sg14
(lp525
Vhttp://www.beckett.com/basketball/1998-99/bowmans-best-refractors/110-paul-pierce-3171269
p526
asg17
g18
sg19
(lp527
Vhttp://img.beckett.com/images/no-image.jpg
p528
asg22
V#110
p529
sg24
V1998-99
p530
sg26
g27
sg28
(lp531
VPaul Pierce
p532
assbag1
(g2
g3
Ntp533
Rp534
(dp535
g7
(dp536
g9
V1998-99 Bowman's Best Atomic Refractors #11 Kenny Anderson
p537
sg11
I100
sg12
VBowman's Best Atomic Refractors
p538
sg14
(lp539
Vhttp://www.beckett.com/basketball/1998-99/bowmans-best-atomic-refractors/11-kenny-anderson-3171305
p540
asg17
g18
sg19
(lp541
Vhttp://img.beckett.com/images/no-image.jpg
p542
asg22
V#11
p543
sg24
V1998-99
p544
sg26
g27
sg28
(lp545
VKenny Anderson
p546
assbag1
(g2
g3
Ntp547
Rp548
(dp549
g7
(dp550
g9
V1998-99 Bowman's Best Atomic Refractors #47 Ron Mercer
p551
sg11
I100
sg12
VBowman's Best Atomic Refractors
p552
sg14
(lp553
Vhttp://www.beckett.com/basketball/1998-99/bowmans-best-atomic-refractors/47-ron-mercer-3171341
p554
asg17
g18
sg19
(lp555
Vhttp://img.beckett.com/images/no-image.jpg
p556
asg22
V#47
p557
sg24
V1998-99
p558
sg26
g27
sg28
(lp559
VRon Mercer
p560
assbag1
(g2
g3
Ntp561
Rp562
(dp563
g7
(dp564
g9
V1998-99 Bowman's Best Atomic Refractors #58 Walter McCarty
p565
sg11
I100
sg12
VBowman's Best Atomic Refractors
p566
sg14
(lp567
Vhttp://www.beckett.com/basketball/1998-99/bowmans-best-atomic-refractors/58-walter-mccarty-3171352
p568
asg17
g18
sg19
(lp569
Vhttp://img.beckett.com/images/no-image.jpg
p570
asg22
V#58
p571
sg24
V1998-99
p572
sg26
g27
sg28
(lp573
VWalter McCarty
p574
assbag1
(g2
g3
Ntp575
Rp576
(dp577
g7
(dp578
g9
V1998-99 Bowman's Best Atomic Refractors #90 Antoine Walker
p579
sg11
I100
sg12
VBowman's Best Atomic Refractors
p580
sg14
(lp581
Vhttp://www.beckett.com/basketball/1998-99/bowmans-best-atomic-refractors/90-antoine-walker-3171384
p582
asg17
g18
sg19
(lp583
Vhttp://img.beckett.com/images/no-image.jpg
p584
asg22
V#90
p585
sg24
V1998-99
p586
sg26
g27
sg28
(lp587
VAntoine Walker
p588
assbag1
(g2
g3
Ntp589
Rp590
(dp591
g7
(dp592
g9
V1998-99 Bowman's Best Atomic Refractors #110 Paul Pierce
p593
sg11
I100
sg12
VBowman's Best Atomic Refractors
p594
sg14
(lp595
Vhttp://www.beckett.com/basketball/1998-99/bowmans-best-atomic-refractors/110-paul-pierce-3171404
p596
asg17
g18
sg19
(lp597
Vhttp://img.beckett.com/images/no-image.jpg
p598
asg22
V#110
p599
sg24
V1998-99
p600
sg26
g27
sg28
(lp601
VPaul Pierce
p602
assbag1
(g2
g3
Ntp603
Rp604
(dp605
g7
(dp606
g9
V1998-99 Flair Showcase Row 1 #8 Antoine Walker
p607
sg11
I1500
sg12
VFlair Showcase Row 1
p608
sg14
(lp609
Vhttp://www.beckett.com/basketball/1998-99/flair-showcase-row-1/8-antoine-walker-3167631
p610
asg17
g18
sg19
(lp611
Vhttp://img.beckett.com/images/items_stock/185226/3167600/3167631/front.jpg
p612
asg22
V#8
p613
sg24
V1998-99
p614
sg26
g27
sg28
(lp615
VAntoine Walker
p616
assbag1
(g2
g3
Ntp617
Rp618
(dp619
g7
(dp620
g9
V1998-99 Flair Showcase Row 1 #22 Ron Mercer
p621
sg11
I1500
sg12
VFlair Showcase Row 1
p622
sg14
(lp623
Vhttp://www.beckett.com/basketball/1998-99/flair-showcase-row-1/22-ron-mercer-3167645
p624
asg17
g18
sg19
(lp625
Vhttp://img.beckett.com/images/items_stock/185226/3167600/3167645/front.jpg
p626
asg22
V#22
p627
sg24
V1998-99
p628
sg26
g27
sg28
(lp629
VRon Mercer
p630
assbag1
(g2
g3
Ntp631
Rp632
(dp633
g7
(dp634
g9
V1998-99 Flair Showcase Row 1 #29 Paul Pierce
p635
sg11
I1500
sg12
VFlair Showcase Row 1
p636
sg14
(lp637
Vhttp://www.beckett.com/basketball/1998-99/flair-showcase-row-1/29-paul-pierce-3167652
p638
asg17
g18
sg19
(lp639
Vhttp://img.beckett.com/images/items_stock/185226/3167600/3167652/front.jpg
p640
asg22
V#29
p641
sg24
V1998-99
p642
sg26
g27
sg28
(lp643
VPaul Pierce
p644
assbag1
(g2
g3
Ntp645
Rp646
(dp647
g7
(dp648
g9
V1998-99 Flair Showcase Legacy Collection Row 3 #8 Antoine Walker
p649
sg11
I99
sg12
VFlair Showcase Legacy Collection Row 3
p650
sg14
(lp651
Vhttp://www.beckett.com/basketball/1998-99/flair-showcase-legacy-collection-row-3/8-antoine-walker-3172798
p652
asg17
g18
sg19
(lp653
Vhttp://img.beckett.com/images/no-image.jpg
p654
asg22
V#8
p655
sg24
V1998-99
p656
sg26
g27
sg28
(lp657
VAntoine Walker
p658
assbag1
(g2
g3
Ntp659
Rp660
(dp661
g7
(dp662
g9
V1998-99 Flair Showcase Legacy Collection Row 3 #22 Ron Mercer
p663
sg11
I99
sg12
VFlair Showcase Legacy Collection Row 3
p664
sg14
(lp665
Vhttp://www.beckett.com/basketball/1998-99/flair-showcase-legacy-collection-row-3/22-ron-mercer-3172812
p666
asg17
g18
sg19
(lp667
Vhttp://img.beckett.com/images/no-image.jpg
p668
asg22
V#22
p669
sg24
V1998-99
p670
sg26
g27
sg28
(lp671
VRon Mercer
p672
assbag1
(g2
g3
Ntp673
Rp674
(dp675
g7
(dp676
g9
V1998-99 Flair Showcase Legacy Collection Row 3 #29 Paul Pierce
p677
sg11
I99
sg12
VFlair Showcase Legacy Collection Row 3
p678
sg14
(lp679
Vhttp://www.beckett.com/basketball/1998-99/flair-showcase-legacy-collection-row-3/29-paul-pierce-3172819
p680
asg17
g18
sg19
(lp681
Vhttp://img.beckett.com/images/no-image.jpg
p682
asg22
V#29
p683
sg24
V1998-99
p684
sg26
g27
sg28
(lp685
VPaul Pierce
p686
assbag1
(g2
g3
Ntp687
Rp688
(dp689
g7
(dp690
g9
V1998-99 Fleer Classic '61 #8 Antoine Walker
p691
sg11
I61
sg12
VFleer Classic '61
p692
sg14
(lp693
Vhttp://www.beckett.com/basketball/1998-99/fleer-classic-61/8-antoine-walker-3168102
p694
asg17
g18
sg19
(lp695
Vhttp://img.beckett.com/images/no-image.jpg
p696
asg22
V#8
p697
sg24
V1998-99
p698
sg26
g27
sg28
(lp699
VAntoine Walker
p700
assbag1
(g2
g3
Ntp701
Rp702
(dp703
g7
(dp704
g9
V1998-99 Fleer Classic '61 #58 Walter McCarty
p705
sg11
I61
sg12
VFleer Classic '61
p706
sg14
(lp707
Vhttp://www.beckett.com/basketball/1998-99/fleer-classic-61/58-walter-mccarty-3168152
p708
asg17
g18
sg19
(lp709
Vhttp://img.beckett.com/images/no-image.jpg
p710
asg22
V#58
p711
sg24
V1998-99
p712
sg26
g27
sg28
(lp713
VWalter McCarty
p714
assbag1
(g2
g3
Ntp715
Rp716
(dp717
g7
(dp718
g9
V1998-99 Fleer Classic '61 #82 Kenny Anderson
p719
sg11
I61
sg12
VFleer Classic '61
p720
sg14
(lp721
Vhttp://www.beckett.com/basketball/1998-99/fleer-classic-61/82-kenny-anderson-3168176
p722
asg17
g18
sg19
(lp723
Vhttp://img.beckett.com/images/items_stock/185226/3168086/3168176/front.jpg
p724
asg22
V#82
p725
sg24
V1998-99
p726
sg26
g27
sg28
(lp727
VKenny Anderson
p728
assbag1
(g2
g3
Ntp729
Rp730
(dp731
g7
(dp732
g9
V1998-99 Fleer Classic '61 #105 Ron Mercer
p733
sg11
I61
sg12
VFleer Classic '61
p734
sg14
(lp735
Vhttp://www.beckett.com/basketball/1998-99/fleer-classic-61/105-ron-mercer-3168199
p736
asg17
g18
sg19
(lp737
Vhttp://img.beckett.com/images/no-image.jpg
p738
asg22
V#105
p739
sg24
V1998-99
p740
sg26
g27
sg28
(lp741
VRon Mercer
p742
assbag1
(g2
g3
Ntp743
Rp744
(dp745
g7
(dp746
g9
V1998-99 Fleer Classic '61 #113 Travis Knight
p747
sg11
I61
sg12
VFleer Classic '61
p748
sg14
(lp749
Vhttp://www.beckett.com/basketball/1998-99/fleer-classic-61/113-travis-knight-3168207
p750
asg17
g18
sg19
(lp751
Vhttp://img.beckett.com/images/no-image.jpg
p752
asg22
V#113
p753
sg24
V1998-99
p754
sg26
g27
sg28
(lp755
VTravis Knight
p756
assbag1
(g2
g3
Ntp757
Rp758
(dp759
g7
(dp760
g9
V1998-99 Fleer Brilliants 24-Karat Gold #10 Ron Mercer
p761
sg11
I24
sg12
VFleer Brilliants 24-Karat Gold
p762
sg14
(lp763
Vhttp://www.beckett.com/basketball/1998-99/fleer-brilliants-24-karat-gold/10-ron-mercer-3168511
p764
asg17
g18
sg19
(lp765
Vhttp://img.beckett.com/images/no-image.jpg
p766
asg22
V#10
p767
sg24
V1998-99
p768
sg26
g27
sg28
(lp769
VRon Mercer
p770
assbag1
(g2
g3
Ntp771
Rp772
(dp773
g7
(dp774
g9
V1998-99 Fleer Brilliants 24-Karat Gold #37 Kenny Anderson
p775
sg11
I24
sg12
VFleer Brilliants 24-Karat Gold
p776
sg14
(lp777
Vhttp://www.beckett.com/basketball/1998-99/fleer-brilliants-24-karat-gold/37-kenny-anderson-3168538
p778
asg17
g18
sg19
(lp779
Vhttp://img.beckett.com/images/no-image.jpg
p780
asg22
V#37
p781
sg24
V1998-99
p782
sg26
g27
sg28
(lp783
VKenny Anderson
p784
assbag1
(g2
g3
Ntp785
Rp786
(dp787
g7
(dp788
g9
V1998-99 Fleer Brilliants 24-Karat Gold #40 Antoine Walker
p789
sg11
I24
sg12
VFleer Brilliants 24-Karat Gold
p790
sg14
(lp791
Vhttp://www.beckett.com/basketball/1998-99/fleer-brilliants-24-karat-gold/40-antoine-walker-3168541
p792
asg17
g18
sg19
(lp793
Vhttp://img.beckett.com/images/no-image.jpg
p794
asg22
V#40
p795
sg24
V1998-99
p796
sg26
g27
sg28
(lp797
VAntoine Walker
p798
assbag1
(g2
g3
Ntp799
Rp800
(dp801
g7
(dp802
g9
V1998-99 Fleer Brilliants 24-Karat Gold #110 Paul Pierce
p803
sg11
I24
sg12
VFleer Brilliants 24-Karat Gold
p804
sg14
(lp805
Vhttp://www.beckett.com/basketball/1998-99/fleer-brilliants-24-karat-gold/110-paul-pierce-3168611
p806
asg17
g18
sg19
(lp807
Vhttp://img.beckett.com/images/no-image.jpg
p808
asg22
V#110
p809
sg24
V1998-99
p810
sg26
g27
sg28
(lp811
VPaul Pierce
p812
assbag1
(g2
g3
Ntp813
Rp814
(dp815
g7
(dp816
g9
V1998-99 Fleer Brilliants Gold #10 Ron Mercer
p817
sg11
I99
sg12
VFleer Brilliants Gold
p818
sg14
(lp819
Vhttp://www.beckett.com/basketball/1998-99/fleer-brilliants-gold/10-ron-mercer-3168783
p820
asg17
g18
sg19
(lp821
Vhttp://img.beckett.com/images/no-image.jpg
p822
asg22
V#10
p823
sg24
V1998-99
p824
sg26
g27
sg28
(lp825
VRon Mercer
p826
assbag1
(g2
g3
Ntp827
Rp828
(dp829
g7
(dp830
g9
V1998-99 Fleer Brilliants Gold #37 Kenny Anderson
p831
sg11
I99
sg12
VFleer Brilliants Gold
p832
sg14
(lp833
Vhttp://www.beckett.com/basketball/1998-99/fleer-brilliants-gold/37-kenny-anderson-3168810
p834
asg17
g18
sg19
(lp835
Vhttp://img.beckett.com/images/items_stock/185226/3168762/3168810/front.jpg
p836
asg22
V#37
p837
sg24
V1998-99
p838
sg26
g27
sg28
(lp839
VKenny Anderson
p840
assbag1
(g2
g3
Ntp841
Rp842
(dp843
g7
(dp844
g9
V1998-99 Fleer Brilliants Gold #40 Antoine Walker
p845
sg11
I99
sg12
VFleer Brilliants Gold
p846
sg14
(lp847
Vhttp://www.beckett.com/basketball/1998-99/fleer-brilliants-gold/40-antoine-walker-3168813
p848
asg17
g18
sg19
(lp849
Vhttp://img.beckett.com/images/items_stock/185226/3168762/3168813/front.jpg
p850
asg22
V#40
p851
sg24
V1998-99
p852
sg26
g27
sg28
(lp853
VAntoine Walker
p854
assbag1
(g2
g3
Ntp855
Rp856
(dp857
g7
(dp858
g9
V1998-99 Fleer Brilliants Gold #110 Paul Pierce
p859
sg11
I99
sg12
VFleer Brilliants Gold
p860
sg14
(lp861
Vhttp://www.beckett.com/basketball/1998-99/fleer-brilliants-gold/110-paul-pierce-3168883
p862
asg17
g18
sg19
(lp863
Vhttp://img.beckett.com/images/no-image.jpg
p864
asg22
V#110
p865
sg24
V1998-99
p866
sg26
g27
sg28
(lp867
VPaul Pierce
p868
assbag1
(g2
g3
Ntp869
Rp870
(dp871
g7
(dp872
g9
V1998-99 Hoops Starting Five #47 Kenny Anderson
p873
sg11
I5
sg12
VHoops Starting Five
p874
sg14
(lp875
Vhttp://www.beckett.com/basketball/1998-99/hoops-starting-five/47-kenny-anderson-3166553
p876
asg17
g18
sg19
(lp877
Vhttp://img.beckett.com/images/no-image.jpg
p878
asg22
V#47
p879
sg24
V1998-99
p880
sg26
g27
sg28
(lp881
VKenny Anderson
p882
assbag1
(g2
g3
Ntp883
Rp884
(dp885
g7
(dp886
g9
V1998-99 Hoops Starting Five #110 Antoine Walker
p887
sg11
I5
sg12
VHoops Starting Five
p888
sg14
(lp889
Vhttp://www.beckett.com/basketball/1998-99/hoops-starting-five/110-antoine-walker-3166616
p890
asg17
g18
sg19
(lp891
Vhttp://img.beckett.com/images/no-image.jpg
p892
asg22
V#110
p893
sg24
V1998-99
p894
sg26
g27
sg28
(lp895
VAntoine Walker
p896
assbag1
(g2
g3
Ntp897
Rp898
(dp899
g7
(dp900
g9
V1998-99 Hoops Starting Five #115 Travis Knight
p901
sg11
I5
sg12
VHoops Starting Five
p902
sg14
(lp903
Vhttp://www.beckett.com/basketball/1998-99/hoops-starting-five/115-travis-knight-3166621
p904
asg17
g18
sg19
(lp905
Vhttp://img.beckett.com/images/no-image.jpg
p906
asg22
V#115
p907
sg24
V1998-99
p908
sg26
g27
sg28
(lp909
VTravis Knight
p910
assbag1
(g2
g3
Ntp911
Rp912
(dp913
g7
(dp914
g9
V1998-99 Hoops Starting Five #123 Ron Mercer
p915
sg11
I5
sg12
VHoops Starting Five
p916
sg14
(lp917
Vhttp://www.beckett.com/basketball/1998-99/hoops-starting-five/123-ron-mercer-3166629
p918
asg17
g18
sg19
(lp919
Vhttp://img.beckett.com/images/no-image.jpg
p920
asg22
V#123
p921
sg24
V1998-99
p922
sg26
g27
sg28
(lp923
VRon Mercer
p924
assbag1
(g2
g3
Ntp925
Rp926
(dp927
g7
(dp928
g9
V1998-99 Hoops Starting Five #154 Dana Barros
p929
sg11
I5
sg12
VHoops Starting Five
p930
sg14
(lp931
Vhttp://www.beckett.com/basketball/1998-99/hoops-starting-five/154-dana-barros-3166660
p932
asg17
g18
sg19
(lp933
Vhttp://img.beckett.com/images/no-image.jpg
p934
asg22
V#154
p935
sg24
V1998-99
p936
sg26
g27
sg28
(lp937
VDana Barros
p938
assbag1
(g2
g3
Ntp939
Rp940
(dp941
g7
(dp942
g9
V1998-99 Metal Universe Precious Metal Gems #42 Antoine Walker
p943
sg11
I50
sg12
VMetal Universe Precious Metal Gems
p944
sg14
(lp945
Vhttp://www.beckett.com/basketball/1998-99/metal-universe-precious-metal-gems/42-antoine-walker-3166985
p946
asg17
g18
sg19
(lp947
Vhttp://img.beckett.com/images/no-image.jpg
p948
asg22
V#42
p949
sg24
V1998-99
p950
sg26
g27
sg28
(lp951
VAntoine Walker
p952
assbag1
(g2
g3
Ntp953
Rp954
(dp955
g7
(dp956
g9
V1998-99 Metal Universe Precious Metal Gems #90 Kenny Anderson
p957
sg11
I50
sg12
VMetal Universe Precious Metal Gems
p958
sg14
(lp959
Vhttp://www.beckett.com/basketball/1998-99/metal-universe-precious-metal-gems/90-kenny-anderson-3167033
p960
asg17
g18
sg19
(lp961
Vhttp://img.beckett.com/images/no-image.jpg
p962
asg22
V#90
p963
sg24
V1998-99
p964
sg26
g27
sg28
(lp965
VKenny Anderson
p966
assbag1
(g2
g3
Ntp967
Rp968
(dp969
g7
(dp970
g9
V1998-99 Metal Universe Precious Metal Gems #95 Ron Mercer
p971
sg11
I50
sg12
VMetal Universe Precious Metal Gems
p972
sg14
(lp973
Vhttp://www.beckett.com/basketball/1998-99/metal-universe-precious-metal-gems/95-ron-mercer-3167038
p974
asg17
g18
sg19
(lp975
Vhttp://img.beckett.com/images/no-image.jpg
p976
asg22
V#95
p977
sg24
V1998-99
p978
sg26
g27
sg28
(lp979
VRon Mercer
p980
assbag1
(g2
g3
Ntp981
Rp982
(dp983
g7
(dp984
g9
V1998-99 Metal Universe Precious Metal Gems #115 Walter McCarty
p985
sg11
I50
sg12
VMetal Universe Precious Metal Gems
p986
sg14
(lp987
Vhttp://www.beckett.com/basketball/1998-99/metal-universe-precious-metal-gems/115-walter-mccarty-3167058
p988
asg17
g18
sg19
(lp989
Vhttp://img.beckett.com/images/no-image.jpg
p990
asg22
V#115
p991
sg24
V1998-99
p992
sg26
g27
sg28
(lp993
VWalter McCarty
p994
assbag1
(g2
g3
Ntp995
Rp996
(dp997
g7
(dp998
g9
V1998-99 Metal Universe Gem Masters #42 Antoine Walker
p999
sg11
I1
sg12
VMetal Universe Gem Masters
p1000
sg14
(lp1001
Vhttp://www.beckett.com/basketball/1998-99/metal-universe-gem-masters/42-antoine-walker-3166854
p1002
asg17
g18
sg19
(lp1003
Vhttp://img.beckett.com/images/no-image.jpg
p1004
asg22
V#42
p1005
sg24
V1998-99
p1006
sg26
g27
sg28
(lp1007
VAntoine Walker
p1008
assbag1
(g2
g3
Ntp1009
Rp1010
(dp1011
g7
(dp1012
g9
V1998-99 Metal Universe Gem Masters #90 Kenny Anderson
p1013
sg11
I1
sg12
VMetal Universe Gem Masters
p1014
sg14
(lp1015
Vhttp://www.beckett.com/basketball/1998-99/metal-universe-gem-masters/90-kenny-anderson-3166902
p1016
asg17
g18
sg19
(lp1017
Vhttp://img.beckett.com/images/no-image.jpg
p1018
asg22
V#90
p1019
sg24
V1998-99
p1020
sg26
g27
sg28
(lp1021
VKenny Anderson
p1022
assbag1
(g2
g3
Ntp1023
Rp1024
(dp1025
g7
(dp1026
g9
V1998-99 Metal Universe Gem Masters #95 Ron Mercer
p1027
sg11
I1
sg12
VMetal Universe Gem Masters
p1028
sg14
(lp1029
Vhttp://www.beckett.com/basketball/1998-99/metal-universe-gem-masters/95-ron-mercer-3166907
p1030
asg17
g18
sg19
(lp1031
Vhttp://img.beckett.com/images/no-image.jpg
p1032
asg22
V#95
p1033
sg24
V1998-99
p1034
sg26
g27
sg28
(lp1035
VRon Mercer
p1036
assbag1
(g2
g3
Ntp1037
Rp1038
(dp1039
g7
(dp1040
g9
V1998-99 Metal Universe Gem Masters #115 Walter McCarty
p1041
sg11
I1
sg12
VMetal Universe Gem Masters
p1042
sg14
(lp1043
Vhttp://www.beckett.com/basketball/1998-99/metal-universe-gem-masters/115-walter-mccarty-3166927
p1044
asg17
g18
sg19
(lp1045
Vhttp://img.beckett.com/images/no-image.jpg
p1046
asg22
V#115
p1047
sg24
V1998-99
p1048
sg26
g27
sg28
(lp1049
VWalter McCarty
p1050
assbag1
(g2
g3
Ntp1051
Rp1052
(dp1053
g7
(dp1054
g9
V1998-99 SkyBox Premium Star Rubies #34 Antoine Walker
p1055
sg11
I50
sg12
VSkyBox Premium Star Rubies
p1056
sg14
(lp1057
Vhttp://www.beckett.com/basketball/1998-99/skybox-premium-star-rubies/34-antoine-walker-3165139
p1058
asg17
g18
sg19
(lp1059
Vhttp://img.beckett.com/images/no-image.jpg
p1060
asg22
V#34
p1061
sg24
V1998-99
p1062
sg26
g27
sg28
(lp1063
VAntoine Walker
p1064
assbag1
(g2
g3
Ntp1065
Rp1066
(dp1067
g7
(dp1068
g9
V1998-99 SkyBox Premium Star Rubies #75 Kenny Anderson
p1069
sg11
I50
sg12
VSkyBox Premium Star Rubies
p1070
sg14
(lp1071
Vhttp://www.beckett.com/basketball/1998-99/skybox-premium-star-rubies/75-kenny-anderson-3165180
p1072
asg17
g18
sg19
(lp1073
Vhttp://img.beckett.com/images/no-image.jpg
p1074
asg22
V#75
p1075
sg24
V1998-99
p1076
sg26
g27
sg28
(lp1077
VKenny Anderson
p1078
assbag1
(g2
g3
Ntp1079
Rp1080
(dp1081
g7
(dp1082
g9
V1998-99 SkyBox Premium Star Rubies #79 Ron Mercer
p1083
sg11
I50
sg12
VSkyBox Premium Star Rubies
p1084
sg14
(lp1085
Vhttp://www.beckett.com/basketball/1998-99/skybox-premium-star-rubies/79-ron-mercer-3165184
p1086
asg17
g18
sg19
(lp1087
Vhttp://img.beckett.com/images/no-image.jpg
p1088
asg22
V#79
p1089
sg24
V1998-99
p1090
sg26
g27
sg28
(lp1091
VRon Mercer
p1092
assbag1
(g2
g3
Ntp1093
Rp1094
(dp1095
g7
(dp1096
g9
V1998-99 SkyBox Premium Star Rubies #102 Walter McCarty
p1097
sg11
I50
sg12
VSkyBox Premium Star Rubies
p1098
sg14
(lp1099
Vhttp://www.beckett.com/basketball/1998-99/skybox-premium-star-rubies/102-walter-mccarty-3165207
p1100
asg17
g18
sg19
(lp1101
Vhttp://img.beckett.com/images/no-image.jpg
p1102
asg22
V#102
p1103
sg24
V1998-99
p1104
sg26
g27
sg28
(lp1105
VWalter McCarty
p1106
assbag1
(g2
g3
Ntp1107
Rp1108
(dp1109
g7
(dp1110
g9
V1998-99 SkyBox Premium Star Rubies #176 Popeye Jones
p1111
sg11
I50
sg12
VSkyBox Premium Star Rubies
p1112
sg14
(lp1113
Vhttp://www.beckett.com/basketball/1998-99/skybox-premium-star-rubies/176-popeye-jones-3165281
p1114
asg17
g18
sg19
(lp1115
Vhttp://img.beckett.com/images/no-image.jpg
p1116
asg22
V#176
p1117
sg24
V1998-99
p1118
sg26
g27
sg28
(lp1119
VPopeye Jones
p1120
assbag1
(g2
g3
Ntp1121
Rp1122
(dp1123
g7
(dp1124
g9
V1998-99 SkyBox Premium Star Rubies #216 Ron Mercer NF
p1125
sg11
I50
sg12
VSkyBox Premium Star Rubies
p1126
sg14
(lp1127
Vhttp://www.beckett.com/basketball/1998-99/skybox-premium-star-rubies/216-ron-mercer-nf-3165321
p1128
asg17
g18
sg19
(lp1129
Vhttp://img.beckett.com/images/no-image.jpg
p1130
asg22
V#216
p1131
sg24
V1998-99
p1132
sg71
VNF
p1133
sg26
g27
sg28
(lp1134
VRon Mercer
p1135
assbag1
(g2
g3
Ntp1136
Rp1137
(dp1138
g7
(dp1139
g9
V1998-99 SkyBox Premium Star Rubies #225 Antoine Walker NF
p1140
sg11
I50
sg12
VSkyBox Premium Star Rubies
p1141
sg14
(lp1142
Vhttp://www.beckett.com/basketball/1998-99/skybox-premium-star-rubies/225-antoine-walker-nf-3165330
p1143
asg17
g18
sg19
(lp1144
Vhttp://img.beckett.com/images/no-image.jpg
p1145
asg22
V#225
p1146
sg24
V1998-99
p1147
sg71
VNF
p1148
sg26
g27
sg28
(lp1149
VAntoine Walker
p1150
assbag1
(g2
g3
Ntp1151
Rp1152
(dp1153
g7
(dp1154
g9
V1998-99 SkyBox Premium Star Rubies #263 Paul Pierce
p1155
sg11
I25
sg12
VSkyBox Premium Star Rubies
p1156
sg14
(lp1157
Vhttp://www.beckett.com/basketball/1998-99/skybox-premium-star-rubies/263-paul-pierce-3165368
p1158
asg17
g18
sg19
(lp1159
Vhttp://img.beckett.com/images/no-image.jpg
p1160
asg22
V#263
p1161
sg24
V1998-99
p1162
sg26
g27
sg28
(lp1163
VPaul Pierce
p1164
assbag1
(g2
g3
Ntp1165
Rp1166
(dp1167
g7
(dp1168
g9
V1998-99 SkyBox Thunder Rave #34 Travis Knight
p1169
sg11
I150
sg12
VSkyBox Thunder Rave
p1170
sg14
(lp1171
Vhttp://www.beckett.com/basketball/1998-99/skybox-thunder-rave/34-travis-knight-3166072
p1172
asg17
g18
sg19
(lp1173
Vhttp://img.beckett.com/images/no-image.jpg
p1174
asg22
V#34
p1175
sg24
V1998-99
p1176
sg26
g27
sg28
(lp1177
VTravis Knight
p1178
assbag1
(g2
g3
Ntp1179
Rp1180
(dp1181
g7
(dp1182
g9
V1998-99 SkyBox Thunder Rave #72 Kenny Anderson
p1183
sg11
I150
sg12
VSkyBox Thunder Rave
p1184
sg14
(lp1185
Vhttp://www.beckett.com/basketball/1998-99/skybox-thunder-rave/72-kenny-anderson-3166110
p1186
asg17
g18
sg19
(lp1187
Vhttp://img.beckett.com/images/no-image.jpg
p1188
asg22
V#72
p1189
sg24
V1998-99
p1190
sg26
g27
sg28
(lp1191
VKenny Anderson
p1192
assbag1
(g2
g3
Ntp1193
Rp1194
(dp1195
g7
(dp1196
g9
V1998-99 SkyBox Thunder Rave #93 Walter McCarty
p1197
sg11
I150
sg12
VSkyBox Thunder Rave
p1198
sg14
(lp1199
Vhttp://www.beckett.com/basketball/1998-99/skybox-thunder-rave/93-walter-mccarty-3166131
p1200
asg17
g18
sg19
(lp1201
Vhttp://img.beckett.com/images/no-image.jpg
p1202
asg22
V#93
p1203
sg24
V1998-99
p1204
sg26
g27
sg28
(lp1205
VWalter McCarty
p1206
assbag1
(g2
g3
Ntp1207
Rp1208
(dp1209
g7
(dp1210
g9
V1998-99 SkyBox Thunder Rave #102 Antoine Walker
p1211
sg11
I150
sg12
VSkyBox Thunder Rave
p1212
sg14
(lp1213
Vhttp://www.beckett.com/basketball/1998-99/skybox-thunder-rave/102-antoine-walker-3166140
p1214
asg17
g18
sg19
(lp1215
Vhttp://img.beckett.com/images/no-image.jpg
p1216
asg22
V#102
p1217
sg24
V1998-99
p1218
sg26
g27
sg28
(lp1219
VAntoine Walker
p1220
assbag1
(g2
g3
Ntp1221
Rp1222
(dp1223
g7
(dp1224
g9
V1998-99 SkyBox Thunder Rave #116 Ron Mercer
p1225
sg11
I150
sg12
VSkyBox Thunder Rave
p1226
sg14
(lp1227
Vhttp://www.beckett.com/basketball/1998-99/skybox-thunder-rave/116-ron-mercer-3166154
p1228
asg17
g18
sg19
(lp1229
Vhttp://img.beckett.com/images/no-image.jpg
p1230
asg22
V#116
p1231
sg24
V1998-99
p1232
sg26
g27
sg28
(lp1233
VRon Mercer
p1234
assbag1
(g2
g3
Ntp1235
Rp1236
(dp1237
g7
(dp1238
g9
V1998-99 SkyBox Thunder Super Rave #34 Travis Knight
p1239
sg11
I25
sg12
VSkyBox Thunder Super Rave
p1240
sg14
(lp1241
Vhttp://www.beckett.com/basketball/1998-99/skybox-thunder-super-rave/34-travis-knight-3162724
p1242
asg17
g18
sg19
(lp1243
Vhttp://img.beckett.com/images/no-image.jpg
p1244
asg22
V#34
p1245
sg24
V1998-99
p1246
sg26
g27
sg28
(lp1247
VTravis Knight
p1248
assbag1
(g2
g3
Ntp1249
Rp1250
(dp1251
g7
(dp1252
g9
V1998-99 SkyBox Thunder Super Rave #72 Kenny Anderson
p1253
sg11
I25
sg12
VSkyBox Thunder Super Rave
p1254
sg14
(lp1255
Vhttp://www.beckett.com/basketball/1998-99/skybox-thunder-super-rave/72-kenny-anderson-3162762
p1256
asg17
g18
sg19
(lp1257
Vhttp://img.beckett.com/images/no-image.jpg
p1258
asg22
V#72
p1259
sg24
V1998-99
p1260
sg26
g27
sg28
(lp1261
VKenny Anderson
p1262
assbag1
(g2
g3
Ntp1263
Rp1264
(dp1265
g7
(dp1266
g9
V1998-99 SkyBox Thunder Super Rave #93 Walter McCarty
p1267
sg11
I25
sg12
VSkyBox Thunder Super Rave
p1268
sg14
(lp1269
Vhttp://www.beckett.com/basketball/1998-99/skybox-thunder-super-rave/93-walter-mccarty-3162783
p1270
asg17
g18
sg19
(lp1271
Vhttp://img.beckett.com/images/no-image.jpg
p1272
asg22
V#93
p1273
sg24
V1998-99
p1274
sg26
g27
sg28
(lp1275
VWalter McCarty
p1276
assbag1
(g2
g3
Ntp1277
Rp1278
(dp1279
g7
(dp1280
g9
V1998-99 SkyBox Thunder Super Rave #102 Antoine Walker
p1281
sg11
I25
sg12
VSkyBox Thunder Super Rave
p1282
sg14
(lp1283
Vhttp://www.beckett.com/basketball/1998-99/skybox-thunder-super-rave/102-antoine-walker-3162792
p1284
asg17
g18
sg19
(lp1285
Vhttp://img.beckett.com/images/no-image.jpg
p1286
asg22
V#102
p1287
sg24
V1998-99
p1288
sg26
g27
sg28
(lp1289
VAntoine Walker
p1290
assbag1
(g2
g3
Ntp1291
Rp1292
(dp1293
g7
(dp1294
g9
V1998-99 SkyBox Thunder Super Rave #116 Ron Mercer
p1295
sg11
I25
sg12
VSkyBox Thunder Super Rave
p1296
sg14
(lp1297
Vhttp://www.beckett.com/basketball/1998-99/skybox-thunder-super-rave/116-ron-mercer-3162806
p1298
asg17
g18
sg19
(lp1299
Vhttp://img.beckett.com/images/no-image.jpg
p1300
asg22
V#116
p1301
sg24
V1998-99
p1302
sg26
g27
sg28
(lp1303
VRon Mercer
p1304
assbag1
(g2
g3
Ntp1305
Rp1306
(dp1307
g7
(dp1308
g9
V1998-99 SPx Finite Extreme #55 Antoine Walker
p1309
sg11
I1
sg12
VSPx Finite Extreme
p1310
sg14
(lp1311
Vhttp://www.beckett.com/basketball/1998-99/spx-finite-extreme/55-antoine-walker-3163577
p1312
asg17
g18
sg19
(lp1313
Vhttp://img.beckett.com/images/no-image.jpg
p1314
asg22
V#55
p1315
sg24
V1998-99
p1316
sg26
g27
sg28
(lp1317
VAntoine Walker
p1318
assbag1
(g2
g3
Ntp1319
Rp1320
(dp1321
g7
(dp1322
g9
V1998-99 SPx Finite Extreme #64 Ron Mercer
p1323
sg11
I1
sg12
VSPx Finite Extreme
p1324
sg14
(lp1325
Vhttp://www.beckett.com/basketball/1998-99/spx-finite-extreme/64-ron-mercer-3163586
p1326
asg17
g18
sg19
(lp1327
Vhttp://img.beckett.com/images/no-image.jpg
p1328
asg22
V#64
p1329
sg24
V1998-99
p1330
sg26
g27
sg28
(lp1331
VRon Mercer
p1332
assbag1
(g2
g3
Ntp1333
Rp1334
(dp1335
g7
(dp1336
g9
V1998-99 SPx Finite Extreme #85 Kenny Anderson
p1337
sg11
I1
sg12
VSPx Finite Extreme
p1338
sg14
(lp1339
Vhttp://www.beckett.com/basketball/1998-99/spx-finite-extreme/85-kenny-anderson-3163607
p1340
asg17
g18
sg19
(lp1341
Vhttp://img.beckett.com/images/no-image.jpg
p1342
asg22
V#85
p1343
sg24
V1998-99
p1344
sg26
g27
sg28
(lp1345
VKenny Anderson
p1346
assbag1
(g2
g3
Ntp1347
Rp1348
(dp1349
g7
(dp1350
g9
V1998-99 SPx Finite Radiance #55 Antoine Walker
p1351
sg11
I5000
sg12
VSPx Finite Radiance
p1352
sg14
(lp1353
Vhttp://www.beckett.com/basketball/1998-99/spx-finite-radiance/55-antoine-walker-3163705
p1354
asg17
g18
sg19
(lp1355
Vhttp://img.beckett.com/images/items_stock/185226/3163613/3163705/front.jpg
p1356
asg22
V#55
p1357
sg24
V1998-99
p1358
sg26
g27
sg28
(lp1359
VAntoine Walker
p1360
assbag1
(g2
g3
Ntp1361
Rp1362
(dp1363
g7
(dp1364
g9
V1998-99 SPx Finite Radiance #64 Ron Mercer
p1365
sg11
I5000
sg12
VSPx Finite Radiance
p1366
sg14
(lp1367
Vhttp://www.beckett.com/basketball/1998-99/spx-finite-radiance/64-ron-mercer-3163714
p1368
asg17
g18
sg19
(lp1369
Vhttp://img.beckett.com/images/items_stock/185226/3163613/3163714/front.jpg
p1370
asg22
V#64
p1371
sg24
V1998-99
p1372
sg26
g27
sg28
(lp1373
VRon Mercer
p1374
assbag1
(g2
g3
Ntp1375
Rp1376
(dp1377
g7
(dp1378
g9
V1998-99 SPx Finite Radiance #85 Kenny Anderson
p1379
sg11
I5000
sg12
VSPx Finite Radiance
p1380
sg14
(lp1381
Vhttp://www.beckett.com/basketball/1998-99/spx-finite-radiance/85-kenny-anderson-3163735
p1382
asg17
g18
sg19
(lp1383
Vhttp://img.beckett.com/images/items_stock/185226/3163613/3163735/front.jpg
p1384
asg22
V#85
p1385
sg24
V1998-99
p1386
sg26
g27
sg28
(lp1387
VKenny Anderson
p1388
assbag1
(g2
g3
Ntp1389
Rp1390
(dp1391
g7
(dp1392
g9
V1998-99 SPx Finite Radiance #109 Antoine Walker SP
p1393
sg11
I2700
sg12
VSPx Finite Radiance
p1394
sg14
(lp1395
Vhttp://www.beckett.com/basketball/1998-99/spx-finite-radiance/109-antoine-walker-sp-3163759
p1396
asg17
g18
sg19
(lp1397
Vhttp://img.beckett.com/images/items_stock/185226/3163613/3163759/front.jpg
p1398
asg22
V#109
p1399
sg24
V1998-99
p1400
sg71
VSP
p1401
sg26
g27
sg28
(lp1402
VAntoine Walker
p1403
assbag1
(g2
g3
Ntp1404
Rp1405
(dp1406
g7
(dp1407
g9
V1998-99 SPx Finite Radiance #144 Kenny Anderson SP
p1408
sg11
I2700
sg12
VSPx Finite Radiance
p1409
sg14
(lp1410
Vhttp://www.beckett.com/basketball/1998-99/spx-finite-radiance/144-kenny-anderson-sp-3163794
p1411
asg17
g18
sg19
(lp1412
Vhttp://img.beckett.com/images/items_stock/185226/3163613/3163794/front.jpg
p1413
asg22
V#144
p1414
sg24
V1998-99
p1415
sg71
VSP
p1416
sg26
g27
sg28
(lp1417
VKenny Anderson
p1418
assbag1
(g2
g3
Ntp1419
Rp1420
(dp1421
g7
(dp1422
g9
V1998-99 SPx Finite Radiance #152 Ron Mercer SPx
p1423
sg11
I2025
sg12
VSPx Finite Radiance
p1424
sg14
(lp1425
Vhttp://www.beckett.com/basketball/1998-99/spx-finite-radiance/152-ron-mercer-spx-3163802
p1426
asg17
g18
sg19
(lp1427
Vhttp://img.beckett.com/images/items_stock/185226/3163613/3163802/front.jpg
p1428
asg22
V#152
p1429
sg24
V1998-99
p1430
sg71
VSPx
p1431
sg26
g27
sg28
(lp1432
VRon Mercer
p1433
assbag1
(g2
g3
Ntp1434
Rp1435
(dp1436
g7
(dp1437
g9
V1998-99 SPx Finite Radiance #164 Antoine Walker SPx
p1438
sg11
I2025
sg12
VSPx Finite Radiance
p1439
sg14
(lp1440
Vhttp://www.beckett.com/basketball/1998-99/spx-finite-radiance/164-antoine-walker-spx-3163814
p1441
asg17
g18
sg19
(lp1442
Vhttp://img.beckett.com/images/items_stock/185226/3163613/3163814/front.jpg
p1443
asg22
V#164
p1444
sg24
V1998-99
p1445
sg71
VSPx
p1446
sg26
g27
sg28
(lp1447
VAntoine Walker
p1448
assbag1
(g2
g3
Ntp1449
Rp1450
(dp1451
g7
(dp1452
g9
V1998-99 SPx Finite Radiance #197 Ron Mercer TF
p1453
sg11
I1130
sg12
VSPx Finite Radiance
p1454
sg14
(lp1455
Vhttp://www.beckett.com/basketball/1998-99/spx-finite-radiance/197-ron-mercer-tf-3163847
p1456
asg17
g18
sg19
(lp1457
Vhttp://img.beckett.com/images/no-image.jpg
p1458
asg22
V#197
p1459
sg24
V1998-99
p1460
sg71
VTF
p1461
sg26
g27
sg28
(lp1462
VRon Mercer
p1463
assbag1
(g2
g3
Ntp1464
Rp1465
(dp1466
g7
(dp1467
g9
V1998-99 SPx Finite Radiance #220 Paul Pierce
p1468
sg11
I1500
sg12
VSPx Finite Radiance
p1469
sg14
(lp1470
Vhttp://www.beckett.com/basketball/1998-99/spx-finite-radiance/220-paul-pierce-3163870
p1471
asg17
g18
sg19
(lp1472
Vhttp://img.beckett.com/images/no-image.jpg
p1473
asg22
V#220
p1474
sg24
V1998-99
p1475
sg26
g27
sg28
(lp1476
VPaul Pierce
p1477
assbag1
(g2
g3
Ntp1478
Rp1479
(dp1480
g7
(dp1481
g9
V1998-99 SPx Finite Spectrum #55 Antoine Walker
p1482
sg11
I350
sg12
VSPx Finite Spectrum
p1483
sg14
(lp1484
Vhttp://www.beckett.com/basketball/1998-99/spx-finite-spectrum/55-antoine-walker-3163983
p1485
asg17
g18
sg19
(lp1486
Vhttp://img.beckett.com/images/items_stock/185226/3163891/3163983/front.jpg
p1487
asg22
V#55
p1488
sg24
V1998-99
p1489
sg26
g27
sg28
(lp1490
VAntoine Walker
p1491
assbag1
(g2
g3
Ntp1492
Rp1493
(dp1494
g7
(dp1495
g9
V1998-99 SPx Finite Spectrum #64 Ron Mercer
p1496
sg11
I350
sg12
VSPx Finite Spectrum
p1497
sg14
(lp1498
Vhttp://www.beckett.com/basketball/1998-99/spx-finite-spectrum/64-ron-mercer-3163992
p1499
asg17
g18
sg19
(lp1500
Vhttp://img.beckett.com/images/items_stock/185226/3163891/3163992/front.jpg
p1501
asg22
V#64
p1502
sg24
V1998-99
p1503
sg26
g27
sg28
(lp1504
VRon Mercer
p1505
assbag1
(g2
g3
Ntp1506
Rp1507
(dp1508
g7
(dp1509
g9
V1998-99 SPx Finite Spectrum #85 Kenny Anderson
p1510
sg11
I350
sg12
VSPx Finite Spectrum
p1511
sg14
(lp1512
Vhttp://www.beckett.com/basketball/1998-99/spx-finite-spectrum/85-kenny-anderson-3164013
p1513
asg17
g18
sg19
(lp1514
Vhttp://img.beckett.com/images/items_stock/185226/3163891/3164013/front.jpg
p1515
asg22
V#85
p1516
sg24
V1998-99
p1517
sg26
g27
sg28
(lp1518
VKenny Anderson
p1519
assbag1
(g2
g3
Ntp1520
Rp1521
(dp1522
g7
(dp1523
g9
V1998-99 SPx Finite Spectrum #109 Antoine Walker SP
p1524
sg11
I250
sg12
VSPx Finite Spectrum
p1525
sg14
(lp1526
Vhttp://www.beckett.com/basketball/1998-99/spx-finite-spectrum/109-antoine-walker-sp-3164037
p1527
asg17
g18
sg19
(lp1528
Vhttp://img.beckett.com/images/no-image.jpg
p1529
asg22
V#109
p1530
sg24
V1998-99
p1531
sg71
VSP
p1532
sg26
g27
sg28
(lp1533
VAntoine Walker
p1534
assbag1
(g2
g3
Ntp1535
Rp1536
(dp1537
g7
(dp1538
g9
V1998-99 SPx Finite Spectrum #144 Kenny Anderson SP
p1539
sg11
I250
sg12
VSPx Finite Spectrum
p1540
sg14
(lp1541
Vhttp://www.beckett.com/basketball/1998-99/spx-finite-spectrum/144-kenny-anderson-sp-3164072
p1542
asg17
g18
sg19
(lp1543
Vhttp://img.beckett.com/images/items_stock/185226/3163891/3164072/front.jpg
p1544
asg22
V#144
p1545
sg24
V1998-99
p1546
sg71
VSP
p1547
sg26
g27
sg28
(lp1548
VKenny Anderson
p1549
assbag1
(g2
g3
Ntp1550
Rp1551
(dp1552
g7
(dp1553
g9
V1998-99 SPx Finite Spectrum #152 Ron Mercer SPx
p1554
sg11
I75
sg12
VSPx Finite Spectrum
p1555
sg14
(lp1556
Vhttp://www.beckett.com/basketball/1998-99/spx-finite-spectrum/152-ron-mercer-spx-3164080
p1557
asg17
g18
sg19
(lp1558
Vhttp://img.beckett.com/images/no-image.jpg
p1559
asg22
V#152
p1560
sg24
V1998-99
p1561
sg71
VSPx
p1562
sg26
g27
sg28
(lp1563
VRon Mercer
p1564
assbag1
(g2
g3
Ntp1565
Rp1566
(dp1567
g7
(dp1568
g9
V1998-99 SPx Finite Spectrum #164 Antoine Walker SPx
p1569
sg11
I75
sg12
VSPx Finite Spectrum
p1570
sg14
(lp1571
Vhttp://www.beckett.com/basketball/1998-99/spx-finite-spectrum/164-antoine-walker-spx-3164092
p1572
asg17
g18
sg19
(lp1573
Vhttp://img.beckett.com/images/no-image.jpg
p1574
asg22
V#164
p1575
sg24
V1998-99
p1576
sg71
VSPx
p1577
sg26
g27
sg28
(lp1578
VAntoine Walker
p1579
assbag1
(g2
g3
Ntp1580
Rp1581
(dp1582
g7
(dp1583
g9
V1998-99 SPx Finite Spectrum #197 Ron Mercer TF
p1584
sg11
I50
sg12
VSPx Finite Spectrum
p1585
sg14
(lp1586
Vhttp://www.beckett.com/basketball/1998-99/spx-finite-spectrum/197-ron-mercer-tf-3164125
p1587
asg17
g18
sg19
(lp1588
Vhttp://img.beckett.com/images/no-image.jpg
p1589
asg22
V#197
p1590
sg24
V1998-99
p1591
sg71
VTF
p1592
sg26
g27
sg28
(lp1593
VRon Mercer
p1594
assbag1
(g2
g3
Ntp1595
Rp1596
(dp1597
g7
(dp1598
g9
V1998-99 SPx Finite Spectrum #220 Paul Pierce
p1599
sg11
I25
sg12
VSPx Finite Spectrum
p1600
sg14
(lp1601
Vhttp://www.beckett.com/basketball/1998-99/spx-finite-spectrum/220-paul-pierce-3164148
p1602
asg17
g18
sg19
(lp1603
Vhttp://img.beckett.com/images/no-image.jpg
p1604
asg22
V#220
p1605
sg24
V1998-99
p1606
sg26
g27
sg28
(lp1607
VPaul Pierce
p1608
assbag1
(g2
g3
Ntp1609
Rp1610
(dp1611
g7
(dp1612
g9
V1998-99 Stadium Club First Day Issue #10 Walter McCarty
p1613
sg11
I200
sg12
VStadium Club First Day Issue
p1614
sg14
(lp1615
Vhttp://www.beckett.com/basketball/1998-99/stadium-club-first-day-issue/10-walter-mccarty-3164455
p1616
asg17
g18
sg19
(lp1617
Vhttp://img.beckett.com/images/no-image.jpg
p1618
asg22
V#10
p1619
sg24
V1998-99
p1620
sg26
g27
sg28
(lp1621
VWalter McCarty
p1622
assbag1
(g2
g3
Ntp1623
Rp1624
(dp1625
g7
(dp1626
g9
V1998-99 Stadium Club First Day Issue #77 Travis Knight
p1627
sg11
I200
sg12
VStadium Club First Day Issue
p1628
sg14
(lp1629
Vhttp://www.beckett.com/basketball/1998-99/stadium-club-first-day-issue/77-travis-knight-3164522
p1630
asg17
g18
sg19
(lp1631
Vhttp://img.beckett.com/images/no-image.jpg
p1632
asg22
V#77
p1633
sg24
V1998-99
p1634
sg26
g27
sg28
(lp1635
VTravis Knight
p1636
assbag1
(g2
g3
Ntp1637
Rp1638
(dp1639
g7
(dp1640
g9
V1998-99 Stadium Club First Day Issue #96 Antoine Walker
p1641
sg11
I200
sg12
VStadium Club First Day Issue
p1642
sg14
(lp1643
Vhttp://www.beckett.com/basketball/1998-99/stadium-club-first-day-issue/96-antoine-walker-3164541
p1644
asg17
g18
sg19
(lp1645
Vhttp://img.beckett.com/images/items_stock/185226/3164434/3164541/front.jpg
p1646
asg22
V#96
p1647
sg24
V1998-99
p1648
sg26
g27
sg28
(lp1649
VAntoine Walker
p1650
assbag1
(g2
g3
Ntp1651
Rp1652
(dp1653
g7
(dp1654
g9
V1998-99 Stadium Club First Day Issue #110 Paul Pierce
p1655
sg11
I200
sg12
VStadium Club First Day Issue
p1656
sg14
(lp1657
Vhttp://www.beckett.com/basketball/1998-99/stadium-club-first-day-issue/110-paul-pierce-3164555
p1658
asg17
g18
sg19
(lp1659
Vhttp://img.beckett.com/images/no-image.jpg
p1660
asg22
V#110
p1661
sg24
V1998-99
p1662
sg26
g27
sg28
(lp1663
VPaul Pierce
p1664
assbag1
(g2
g3
Ntp1665
Rp1666
(dp1667
g7
(dp1668
g9
V1998-99 Stadium Club First Day Issue #134 Ron Mercer
p1669
sg11
I200
sg12
VStadium Club First Day Issue
p1670
sg14
(lp1671
Vhttp://www.beckett.com/basketball/1998-99/stadium-club-first-day-issue/134-ron-mercer-3164579
p1672
asg17
g18
sg19
(lp1673
Vhttp://img.beckett.com/images/no-image.jpg
p1674
asg22
V#134
p1675
sg24
V1998-99
p1676
sg26
g27
sg28
(lp1677
VRon Mercer
p1678
assbag1
(g2
g3
Ntp1679
Rp1680
(dp1681
g7
(dp1682
g9
V1998-99 Stadium Club First Day Issue #153 Andrew DeClercq
p1683
sg11
I200
sg12
VStadium Club First Day Issue
p1684
sg14
(lp1685
Vhttp://www.beckett.com/basketball/1998-99/stadium-club-first-day-issue/153-andrew-declercq-3164598
p1686
asg17
g18
sg19
(lp1687
Vhttp://img.beckett.com/images/no-image.jpg
p1688
asg22
V#153
p1689
sg24
V1998-99
p1690
sg26
g27
sg28
(lp1691
VAndrew DeClercq
p1692
assbag1
(g2
g3
Ntp1693
Rp1694
(dp1695
g7
(dp1696
g9
V1998-99 Stadium Club First Day Issue #161 Kenny Anderson
p1697
sg11
I200
sg12
VStadium Club First Day Issue
p1698
sg14
(lp1699
Vhttp://www.beckett.com/basketball/1998-99/stadium-club-first-day-issue/161-kenny-anderson-3164606
p1700
asg17
g18
sg19
(lp1701
Vhttp://img.beckett.com/images/no-image.jpg
p1702
asg22
V#161
p1703
sg24
V1998-99
p1704
sg26
g27
sg28
(lp1705
VKenny Anderson
p1706
assbag1
(g2
g3
Ntp1707
Rp1708
(dp1709
g7
(dp1710
g9
V1998-99 Stadium Club First Day Issue #187 Dana Barros
p1711
sg11
I200
sg12
VStadium Club First Day Issue
p1712
sg14
(lp1713
Vhttp://www.beckett.com/basketball/1998-99/stadium-club-first-day-issue/187-dana-barros-3164632
p1714
asg17
g18
sg19
(lp1715
Vhttp://img.beckett.com/images/no-image.jpg
p1716
asg22
V#187
p1717
sg24
V1998-99
p1718
sg26
g27
sg28
(lp1719
VDana Barros
p1720
assbag1
(g2
g3
Ntp1721
Rp1722
(dp1723
g7
(dp1724
g9
V1998-99 Stadium Club First Day Issue #203 Paul Pierce
p1725
sg11
I200
sg12
VStadium Club First Day Issue
p1726
sg14
(lp1727
Vhttp://www.beckett.com/basketball/1998-99/stadium-club-first-day-issue/203-paul-pierce-3164648
p1728
asg17
g18
sg19
(lp1729
Vhttp://img.beckett.com/images/no-image.jpg
p1730
asg22
V#203
p1731
sg24
V1998-99
p1732
sg26
g27
sg28
(lp1733
VPaul Pierce
p1734
assbag1
(g2
g3
Ntp1735
Rp1736
(dp1737
g7
(dp1738
g9
V1998-99 Stadium Club One Of A Kind #10 Walter McCarty
p1739
sg11
I150
sg12
VStadium Club One Of A Kind
p1740
sg14
(lp1741
Vhttp://www.beckett.com/basketball/1998-99/stadium-club-one-of-a-kind/10-walter-mccarty-3160710
p1742
asg17
g18
sg19
(lp1743
Vhttp://img.beckett.com/images/no-image.jpg
p1744
asg22
V#10
p1745
sg24
V1998-99
p1746
sg26
g27
sg28
(lp1747
VWalter McCarty
p1748
assbag1
(g2
g3
Ntp1749
Rp1750
(dp1751
g7
(dp1752
g9
V1998-99 Stadium Club One Of A Kind #77 Travis Knight
p1753
sg11
I150
sg12
VStadium Club One Of A Kind
p1754
sg14
(lp1755
Vhttp://www.beckett.com/basketball/1998-99/stadium-club-one-of-a-kind/77-travis-knight-3160777
p1756
asg17
g18
sg19
(lp1757
Vhttp://img.beckett.com/images/no-image.jpg
p1758
asg22
V#77
p1759
sg24
V1998-99
p1760
sg26
g27
sg28
(lp1761
VTravis Knight
p1762
assbag1
(g2
g3
Ntp1763
Rp1764
(dp1765
g7
(dp1766
g9
V1998-99 Stadium Club One Of A Kind #96 Antoine Walker
p1767
sg11
I150
sg12
VStadium Club One Of A Kind
p1768
sg14
(lp1769
Vhttp://www.beckett.com/basketball/1998-99/stadium-club-one-of-a-kind/96-antoine-walker-3160796
p1770
asg17
g18
sg19
(lp1771
Vhttp://img.beckett.com/images/no-image.jpg
p1772
asg22
V#96
p1773
sg24
V1998-99
p1774
sg26
g27
sg28
(lp1775
VAntoine Walker
p1776
assbag1
(g2
g3
Ntp1777
Rp1778
(dp1779
g7
(dp1780
g9
V1998-99 Stadium Club One Of A Kind #110 Paul Pierce
p1781
sg11
I150
sg12
VStadium Club One Of A Kind
p1782
sg14
(lp1783
Vhttp://www.beckett.com/basketball/1998-99/stadium-club-one-of-a-kind/110-paul-pierce-3160810
p1784
asg17
g18
sg19
(lp1785
Vhttp://img.beckett.com/images/items_stock/185226/3160688/3160810/front.jpg
p1786
asg22
V#110
p1787
sg24
V1998-99
p1788
sg26
g27
sg28
(lp1789
VPaul Pierce
p1790
assbag1
(g2
g3
Ntp1791
Rp1792
(dp1793
g7
(dp1794
g9
V1998-99 Stadium Club One Of A Kind #134 Ron Mercer
p1795
sg11
I150
sg12
VStadium Club One Of A Kind
p1796
sg14
(lp1797
Vhttp://www.beckett.com/basketball/1998-99/stadium-club-one-of-a-kind/134-ron-mercer-3160834
p1798
asg17
g18
sg19
(lp1799
Vhttp://img.beckett.com/images/items_stock/185226/3160688/3160834/front.jpg
p1800
asg22
V#134
p1801
sg24
V1998-99
p1802
sg26
g27
sg28
(lp1803
VRon Mercer
p1804
assbag1
(g2
g3
Ntp1805
Rp1806
(dp1807
g7
(dp1808
g9
V1998-99 Stadium Club One Of A Kind #153 Andrew DeClercq
p1809
sg11
I150
sg12
VStadium Club One Of A Kind
p1810
sg14
(lp1811
Vhttp://www.beckett.com/basketball/1998-99/stadium-club-one-of-a-kind/153-andrew-declercq-3160853
p1812
asg17
g18
sg19
(lp1813
Vhttp://img.beckett.com/images/items_stock/185226/3160688/3160853/front.jpg
p1814
asg22
V#153
p1815
sg24
V1998-99
p1816
sg26
g27
sg28
(lp1817
VAndrew DeClercq
p1818
assbag1
(g2
g3
Ntp1819
Rp1820
(dp1821
g7
(dp1822
g9
V1998-99 Stadium Club One Of A Kind #161 Kenny Anderson
p1823
sg11
I150
sg12
VStadium Club One Of A Kind
p1824
sg14
(lp1825
Vhttp://www.beckett.com/basketball/1998-99/stadium-club-one-of-a-kind/161-kenny-anderson-3160861
p1826
asg17
g18
sg19
(lp1827
Vhttp://img.beckett.com/images/no-image.jpg
p1828
asg22
V#161
p1829
sg24
V1998-99
p1830
sg26
g27
sg28
(lp1831
VKenny Anderson
p1832
assbag1
(g2
g3
Ntp1833
Rp1834
(dp1835
g7
(dp1836
g9
V1998-99 Stadium Club One Of A Kind #187 Dana Barros
p1837
sg11
I150
sg12
VStadium Club One Of A Kind
p1838
sg14
(lp1839
Vhttp://www.beckett.com/basketball/1998-99/stadium-club-one-of-a-kind/187-dana-barros-3160887
p1840
asg17
g18
sg19
(lp1841
Vhttp://img.beckett.com/images/items_stock/185226/3160688/3160887/front.jpg
p1842
asg22
V#187
p1843
sg24
V1998-99
p1844
sg26
g27
sg28
(lp1845
VDana Barros
p1846
assbag1
(g2
g3
Ntp1847
Rp1848
(dp1849
g7
(dp1850
g9
V1998-99 Stadium Club One Of A Kind #203 Paul Pierce
p1851
sg11
I150
sg12
VStadium Club One Of A Kind
p1852
sg14
(lp1853
Vhttp://www.beckett.com/basketball/1998-99/stadium-club-one-of-a-kind/203-paul-pierce-3160903
p1854
asg17
g18
sg19
(lp1855
Vhttp://img.beckett.com/images/no-image.jpg
p1856
asg22
V#203
p1857
sg24
V1998-99
p1858
sg26
g27
sg28
(lp1859
VPaul Pierce
p1860
assbag1
(g2
g3
Ntp1861
Rp1862
(dp1863
g7
(dp1864
g9
V1998-99 Stadium Club Printing Plates #10 Walter McCarty Black
p1865
sg11
I1
sg12
VStadium Club Printing Plates
p1866
sg14
(lp1867
Vhttp://www.beckett.com/basketball/1998-99/stadium-club-printing-plates/10-walter-mccarty-black-3160986
p1868
asg17
g18
sg19
(lp1869
Vhttp://img.beckett.com/images/no-image.jpg
p1870
asg22
V#10
p1871
sg24
V1998-99
p1872
sg26
g27
sg28
(lp1873
VWalter McCarty
p1874
assbag1
(g2
g3
Ntp1875
Rp1876
(dp1877
g7
(dp1878
g9
V1998-99 Stadium Club Printing Plates #10A Walter McCarty Cyan
p1879
sg11
I1
sg12
VStadium Club Printing Plates
p1880
sg14
(lp1881
Vhttp://www.beckett.com/basketball/1998-99/stadium-club-printing-plates/10a-walter-mccarty-cyan-3160987
p1882
asg17
g18
sg19
(lp1883
Vhttp://img.beckett.com/images/no-image.jpg
p1884
asg22
V#10A
p1885
sg24
V1998-99
p1886
sg26
g27
sg28
(lp1887
g1874
assbag1
(g2
g3
Ntp1888
Rp1889
(dp1890
g7
(dp1891
g9
V1998-99 Stadium Club Printing Plates #10B Walter McCarty Magenta
p1892
sg11
I1
sg12
VStadium Club Printing Plates
p1893
sg14
(lp1894
Vhttp://www.beckett.com/basketball/1998-99/stadium-club-printing-plates/10b-walter-mccarty-magenta-3160988
p1895
asg17
g18
sg19
(lp1896
Vhttp://img.beckett.com/images/no-image.jpg
p1897
asg22
V#10B
p1898
sg24
V1998-99
p1899
sg26
g27
sg28
(lp1900
g1874
assbag1
(g2
g3
Ntp1901
Rp1902
(dp1903
g7
(dp1904
g9
V1998-99 Stadium Club Printing Plates #10C Walter McCarty Yellow
p1905
sg11
I1
sg12
VStadium Club Printing Plates
p1906
sg14
(lp1907
Vhttp://www.beckett.com/basketball/1998-99/stadium-club-printing-plates/10c-walter-mccarty-yellow-3160989
p1908
asg17
g18
sg19
(lp1909
Vhttp://img.beckett.com/images/no-image.jpg
p1910
asg22
V#10C
p1911
sg24
V1998-99
p1912
sg26
g27
sg28
(lp1913
g1874
assbag1
(g2
g3
Ntp1914
Rp1915
(dp1916
g7
(dp1917
g9
V1998-99 Stadium Club Printing Plates #77 Travis Knight Black
p1918
sg11
I1
sg12
VStadium Club Printing Plates
p1919
sg14
(lp1920
Vhttp://www.beckett.com/basketball/1998-99/stadium-club-printing-plates/77-travis-knight-black-3161254
p1921
asg17
g18
sg19
(lp1922
Vhttp://img.beckett.com/images/no-image.jpg
p1923
asg22
V#77
p1924
sg24
V1998-99
p1925
sg26
g27
sg28
(lp1926
VTravis Knight
p1927
assbag1
(g2
g3
Ntp1928
Rp1929
(dp1930
g7
(dp1931
g9
V1998-99 Stadium Club Printing Plates #77A Travis Knight Cyan
p1932
sg11
I1
sg12
VStadium Club Printing Plates
p1933
sg14
(lp1934
Vhttp://www.beckett.com/basketball/1998-99/stadium-club-printing-plates/77a-travis-knight-cyan-3161255
p1935
asg17
g18
sg19
(lp1936
Vhttp://img.beckett.com/images/no-image.jpg
p1937
asg22
V#77A
p1938
sg24
V1998-99
p1939
sg26
g27
sg28
(lp1940
g1927
assbag1
(g2
g3
Ntp1941
Rp1942
(dp1943
g7
(dp1944
g9
V1998-99 Stadium Club Printing Plates #77B Travis Knight Magenta
p1945
sg11
I1
sg12
VStadium Club Printing Plates
p1946
sg14
(lp1947
Vhttp://www.beckett.com/basketball/1998-99/stadium-club-printing-plates/77b-travis-knight-magenta-3161256
p1948
asg17
g18
sg19
(lp1949
Vhttp://img.beckett.com/images/no-image.jpg
p1950
asg22
V#77B
p1951
sg24
V1998-99
p1952
sg26
g27
sg28
(lp1953
g1927
assbag1
(g2
g3
Ntp1954
Rp1955
(dp1956
g7
(dp1957
g9
V1998-99 Stadium Club Printing Plates #77C Travis Knight Yellow
p1958
sg11
I1
sg12
VStadium Club Printing Plates
p1959
sg14
(lp1960
Vhttp://www.beckett.com/basketball/1998-99/stadium-club-printing-plates/77c-travis-knight-yellow-3161257
p1961
asg17
g18
sg19
(lp1962
Vhttp://img.beckett.com/images/no-image.jpg
p1963
asg22
V#77C
p1964
sg24
V1998-99
p1965
sg26
g27
sg28
(lp1966
g1927
assbag1
(g2
g3
Ntp1967
Rp1968
(dp1969
g7
(dp1970
g9
V1998-99 Stadium Club Printing Plates #96 Antoine Walker Black
p1971
sg11
I1
sg12
VStadium Club Printing Plates
p1972
sg14
(lp1973
Vhttp://www.beckett.com/basketball/1998-99/stadium-club-printing-plates/96-antoine-walker-black-3161330
p1974
asg17
g18
sg19
(lp1975
Vhttp://img.beckett.com/images/no-image.jpg
p1976
asg22
V#96
p1977
sg24
V1998-99
p1978
sg26
g27
sg28
(lp1979
VAntoine Walker
p1980
assbag1
(g2
g3
Ntp1981
Rp1982
(dp1983
g7
(dp1984
g9
V1998-99 Stadium Club Printing Plates #96A Antoine Walker Cyan
p1985
sg11
I1
sg12
VStadium Club Printing Plates
p1986
sg14
(lp1987
Vhttp://www.beckett.com/basketball/1998-99/stadium-club-printing-plates/96a-antoine-walker-cyan-3161331
p1988
asg17
g18
sg19
(lp1989
Vhttp://img.beckett.com/images/no-image.jpg
p1990
asg22
V#96A
p1991
sg24
V1998-99
p1992
sg26
g27
sg28
(lp1993
g1980
assbag1
(g2
g3
Ntp1994
Rp1995
(dp1996
g7
(dp1997
g9
V1998-99 Stadium Club Printing Plates #96B Antoine Walker Magenta
p1998
sg11
I1
sg12
VStadium Club Printing Plates
p1999
sg14
(lp2000
Vhttp://www.beckett.com/basketball/1998-99/stadium-club-printing-plates/96b-antoine-walker-magenta-3161332
p2001
asg17
g18
sg19
(lp2002
Vhttp://img.beckett.com/images/no-image.jpg
p2003
asg22
V#96B
p2004
sg24
V1998-99
p2005
sg26
g27
sg28
(lp2006
g1980
assbag1
(g2
g3
Ntp2007
Rp2008
(dp2009
g7
(dp2010
g9
V1998-99 Stadium Club Printing Plates #96C Antoine Walker Yellow
p2011
sg11
I1
sg12
VStadium Club Printing Plates
p2012
sg14
(lp2013
Vhttp://www.beckett.com/basketball/1998-99/stadium-club-printing-plates/96c-antoine-walker-yellow-3161333
p2014
asg17
g18
sg19
(lp2015
Vhttp://img.beckett.com/images/no-image.jpg
p2016
asg22
V#96C
p2017
sg24
V1998-99
p2018
sg26
g27
sg28
(lp2019
g1980
assbag1
(g2
g3
Ntp2020
Rp2021
(dp2022
g7
(dp2023
g9
V1998-99 Stadium Club Printing Plates #110 Paul Pierce Black
p2024
sg11
I1
sg12
VStadium Club Printing Plates
p2025
sg14
(lp2026
Vhttp://www.beckett.com/basketball/1998-99/stadium-club-printing-plates/110-paul-pierce-black-3161386
p2027
asg17
g18
sg19
(lp2028
Vhttp://img.beckett.com/images/no-image.jpg
p2029
asg22
V#110
p2030
sg24
V1998-99
p2031
sg26
g27
sg28
(lp2032
VPaul Pierce
p2033
assbag1
(g2
g3
Ntp2034
Rp2035
(dp2036
g7
(dp2037
g9
V1998-99 Stadium Club Printing Plates #110A Paul Pierce Cyan
p2038
sg11
I1
sg12
VStadium Club Printing Plates
p2039
sg14
(lp2040
Vhttp://www.beckett.com/basketball/1998-99/stadium-club-printing-plates/110a-paul-pierce-cyan-3161387
p2041
asg17
g18
sg19
(lp2042
Vhttp://img.beckett.com/images/no-image.jpg
p2043
asg22
V#110A
p2044
sg24
V1998-99
p2045
sg26
g27
sg28
(lp2046
g2033
assbag1
(g2
g3
Ntp2047
Rp2048
(dp2049
g7
(dp2050
g9
V1998-99 Stadium Club Printing Plates #110B Paul Pierce Magenta
p2051
sg11
I1
sg12
VStadium Club Printing Plates
p2052
sg14
(lp2053
Vhttp://www.beckett.com/basketball/1998-99/stadium-club-printing-plates/110b-paul-pierce-magenta-3161388
p2054
asg17
g18
sg19
(lp2055
Vhttp://img.beckett.com/images/no-image.jpg
p2056
asg22
V#110B
p2057
sg24
V1998-99
p2058
sg26
g27
sg28
(lp2059
g2033
assbag1
(g2
g3
Ntp2060
Rp2061
(dp2062
g7
(dp2063
g9
V1998-99 Stadium Club Printing Plates #110C Paul Pierce Yellow
p2064
sg11
I1
sg12
VStadium Club Printing Plates
p2065
sg14
(lp2066
Vhttp://www.beckett.com/basketball/1998-99/stadium-club-printing-plates/110c-paul-pierce-yellow-3161389
p2067
asg17
g18
sg19
(lp2068
Vhttp://img.beckett.com/images/no-image.jpg
p2069
asg22
V#110C
p2070
sg24
V1998-99
p2071
sg26
g27
sg28
(lp2072
g2033
assbag1
(g2
g3
Ntp2073
Rp2074
(dp2075
g7
(dp2076
g9
V1998-99 Stadium Club Printing Plates #134 Ron Mercer Black
p2077
sg11
I1
sg12
VStadium Club Printing Plates
p2078
sg14
(lp2079
Vhttp://www.beckett.com/basketball/1998-99/stadium-club-printing-plates/134-ron-mercer-black-3161482
p2080
asg17
g18
sg19
(lp2081
Vhttp://img.beckett.com/images/no-image.jpg
p2082
asg22
V#134
p2083
sg24
V1998-99
p2084
sg26
g27
sg28
(lp2085
VRon Mercer
p2086
assbag1
(g2
g3
Ntp2087
Rp2088
(dp2089
g7
(dp2090
g9
V1998-99 Stadium Club Printing Plates #134A Ron Mercer Cyan
p2091
sg11
I1
sg12
VStadium Club Printing Plates
p2092
sg14
(lp2093
Vhttp://www.beckett.com/basketball/1998-99/stadium-club-printing-plates/134a-ron-mercer-cyan-3161483
p2094
asg17
g18
sg19
(lp2095
Vhttp://img.beckett.com/images/no-image.jpg
p2096
asg22
V#134A
p2097
sg24
V1998-99
p2098
sg26
g27
sg28
(lp2099
g2086
assbag1
(g2
g3
Ntp2100
Rp2101
(dp2102
g7
(dp2103
g9
V1998-99 Stadium Club Printing Plates #134B Ron Mercer Magenta
p2104
sg11
I1
sg12
VStadium Club Printing Plates
p2105
sg14
(lp2106
Vhttp://www.beckett.com/basketball/1998-99/stadium-club-printing-plates/134b-ron-mercer-magenta-3161484
p2107
asg17
g18
sg19
(lp2108
Vhttp://img.beckett.com/images/no-image.jpg
p2109
asg22
V#134B
p2110
sg24
V1998-99
p2111
sg26
g27
sg28
(lp2112
g2086
assbag1
(g2
g3
Ntp2113
Rp2114
(dp2115
g7
(dp2116
g9
V1998-99 Stadium Club Printing Plates #134C Ron Mercer Yellow
p2117
sg11
I1
sg12
VStadium Club Printing Plates
p2118
sg14
(lp2119
Vhttp://www.beckett.com/basketball/1998-99/stadium-club-printing-plates/134c-ron-mercer-yellow-3161485
p2120
asg17
g18
sg19
(lp2121
Vhttp://img.beckett.com/images/no-image.jpg
p2122
asg22
V#134C
p2123
sg24
V1998-99
p2124
sg26
g27
sg28
(lp2125
g2086
assbag1
(g2
g3
Ntp2126
Rp2127
(dp2128
g7
(dp2129
g9
V1998-99 Stadium Club Printing Plates #153 Andrew DeClercq Black
p2130
sg11
I1
sg12
VStadium Club Printing Plates
p2131
sg14
(lp2132
Vhttp://www.beckett.com/basketball/1998-99/stadium-club-printing-plates/153-andrew-declercq-black-3161558
p2133
asg17
g18
sg19
(lp2134
Vhttp://img.beckett.com/images/no-image.jpg
p2135
asg22
V#153
p2136
sg24
V1998-99
p2137
sg26
g27
sg28
(lp2138
VAndrew DeClercq
p2139
assbag1
(g2
g3
Ntp2140
Rp2141
(dp2142
g7
(dp2143
g9
V1998-99 Stadium Club Printing Plates #153A Andrew DeClercq Cyan
p2144
sg11
I1
sg12
VStadium Club Printing Plates
p2145
sg14
(lp2146
Vhttp://www.beckett.com/basketball/1998-99/stadium-club-printing-plates/153a-andrew-declercq-cyan-3161559
p2147
asg17
g18
sg19
(lp2148
Vhttp://img.beckett.com/images/no-image.jpg
p2149
asg22
V#153A
p2150
sg24
V1998-99
p2151
sg26
g27
sg28
(lp2152
g2139
assbag1
(g2
g3
Ntp2153
Rp2154
(dp2155
g7
(dp2156
g9
V1998-99 Stadium Club Printing Plates #153B Andrew DeClercq Magenta
p2157
sg11
I1
sg12
VStadium Club Printing Plates
p2158
sg14
(lp2159
Vhttp://www.beckett.com/basketball/1998-99/stadium-club-printing-plates/153b-andrew-declercq-magenta-3161560
p2160
asg17
g18
sg19
(lp2161
Vhttp://img.beckett.com/images/no-image.jpg
p2162
asg22
V#153B
p2163
sg24
V1998-99
p2164
sg26
g27
sg28
(lp2165
g2139
assbag1
(g2
g3
Ntp2166
Rp2167
(dp2168
g7
(dp2169
g9
V1998-99 Stadium Club Printing Plates #153C Andrew DeClercq Yellow
p2170
sg11
I1
sg12
VStadium Club Printing Plates
p2171
sg14
(lp2172
Vhttp://www.beckett.com/basketball/1998-99/stadium-club-printing-plates/153c-andrew-declercq-yellow-3161561
p2173
asg17
g18
sg19
(lp2174
Vhttp://img.beckett.com/images/no-image.jpg
p2175
asg22
V#153C
p2176
sg24
V1998-99
p2177
sg26
g27
sg28
(lp2178
g2139
assbag1
(g2
g3
Ntp2179
Rp2180
(dp2181
g7
(dp2182
g9
V1998-99 Stadium Club Printing Plates #161 Kenny Anderson Black
p2183
sg11
I1
sg12
VStadium Club Printing Plates
p2184
sg14
(lp2185
Vhttp://www.beckett.com/basketball/1998-99/stadium-club-printing-plates/161-kenny-anderson-black-3161590
p2186
asg17
g18
sg19
(lp2187
Vhttp://img.beckett.com/images/no-image.jpg
p2188
asg22
V#161
p2189
sg24
V1998-99
p2190
sg26
g27
sg28
(lp2191
VKenny Anderson
p2192
assbag1
(g2
g3
Ntp2193
Rp2194
(dp2195
g7
(dp2196
g9
V1998-99 Stadium Club Printing Plates #161A Kenny Anderson Cyan
p2197
sg11
I1
sg12
VStadium Club Printing Plates
p2198
sg14
(lp2199
Vhttp://www.beckett.com/basketball/1998-99/stadium-club-printing-plates/161a-kenny-anderson-cyan-3161591
p2200
asg17
g18
sg19
(lp2201
Vhttp://img.beckett.com/images/no-image.jpg
p2202
asg22
V#161A
p2203
sg24
V1998-99
p2204
sg26
g27
sg28
(lp2205
g2192
assbag1
(g2
g3
Ntp2206
Rp2207
(dp2208
g7
(dp2209
g9
V1998-99 Stadium Club Printing Plates #161B Kenny Anderson Magenta
p2210
sg11
I1
sg12
VStadium Club Printing Plates
p2211
sg14
(lp2212
Vhttp://www.beckett.com/basketball/1998-99/stadium-club-printing-plates/161b-kenny-anderson-magenta-3161592
p2213
asg17
g18
sg19
(lp2214
Vhttp://img.beckett.com/images/no-image.jpg
p2215
asg22
V#161B
p2216
sg24
V1998-99
p2217
sg26
g27
sg28
(lp2218
g2192
assbag1
(g2
g3
Ntp2219
Rp2220
(dp2221
g7
(dp2222
g9
V1998-99 Stadium Club Printing Plates #161C Kenny Anderson Yellow
p2223
sg11
I1
sg12
VStadium Club Printing Plates
p2224
sg14
(lp2225
Vhttp://www.beckett.com/basketball/1998-99/stadium-club-printing-plates/161c-kenny-anderson-yellow-3161593
p2226
asg17
g18
sg19
(lp2227
Vhttp://img.beckett.com/images/no-image.jpg
p2228
asg22
V#161C
p2229
sg24
V1998-99
p2230
sg26
g27
sg28
(lp2231
g2192
assbag1
(g2
g3
Ntp2232
Rp2233
(dp2234
g7
(dp2235
g9
V1998-99 Stadium Club Printing Plates #187 Dana Barros Black
p2236
sg11
I1
sg12
VStadium Club Printing Plates
p2237
sg14
(lp2238
Vhttp://www.beckett.com/basketball/1998-99/stadium-club-printing-plates/187-dana-barros-black-3161694
p2239
asg17
g18
sg19
(lp2240
Vhttp://img.beckett.com/images/no-image.jpg
p2241
asg22
V#187
p2242
sg24
V1998-99
p2243
sg26
g27
sg28
(lp2244
VDana Barros
p2245
assbag1
(g2
g3
Ntp2246
Rp2247
(dp2248
g7
(dp2249
g9
V1998-99 Stadium Club Printing Plates #187A Dana Barros Cyan
p2250
sg11
I1
sg12
VStadium Club Printing Plates
p2251
sg14
(lp2252
Vhttp://www.beckett.com/basketball/1998-99/stadium-club-printing-plates/187a-dana-barros-cyan-3161695
p2253
asg17
g18
sg19
(lp2254
Vhttp://img.beckett.com/images/no-image.jpg
p2255
asg22
V#187A
p2256
sg24
V1998-99
p2257
sg26
g27
sg28
(lp2258
g2245
assbag1
(g2
g3
Ntp2259
Rp2260
(dp2261
g7
(dp2262
g9
V1998-99 Stadium Club Printing Plates #187B Dana Barros Magenta
p2263
sg11
I1
sg12
VStadium Club Printing Plates
p2264
sg14
(lp2265
Vhttp://www.beckett.com/basketball/1998-99/stadium-club-printing-plates/187b-dana-barros-magenta-3161696
p2266
asg17
g18
sg19
(lp2267
Vhttp://img.beckett.com/images/no-image.jpg
p2268
asg22
V#187B
p2269
sg24
V1998-99
p2270
sg26
g27
sg28
(lp2271
g2245
assbag1
(g2
g3
Ntp2272
Rp2273
(dp2274
g7
(dp2275
g9
V1998-99 Stadium Club Printing Plates #187C Dana Barros Yellow
p2276
sg11
I1
sg12
VStadium Club Printing Plates
p2277
sg14
(lp2278
Vhttp://www.beckett.com/basketball/1998-99/stadium-club-printing-plates/187c-dana-barros-yellow-3161697
p2279
asg17
g18
sg19
(lp2280
Vhttp://img.beckett.com/images/no-image.jpg
p2281
asg22
V#187C
p2282
sg24
V1998-99
p2283
sg26
g27
sg28
(lp2284
g2245
assbag1
(g2
g3
Ntp2285
Rp2286
(dp2287
g7
(dp2288
g9
V1998-99 Stadium Club Printing Plates #203 Paul Pierce Black
p2289
sg11
I1
sg12
VStadium Club Printing Plates
p2290
sg14
(lp2291
Vhttp://www.beckett.com/basketball/1998-99/stadium-club-printing-plates/203-paul-pierce-black-3161758
p2292
asg17
g18
sg19
(lp2293
Vhttp://img.beckett.com/images/no-image.jpg
p2294
asg22
V#203
p2295
sg24
V1998-99
p2296
sg26
g27
sg28
(lp2297
g2033
assbag1
(g2
g3
Ntp2298
Rp2299
(dp2300
g7
(dp2301
g9
V1998-99 Stadium Club Printing Plates #203A Paul Pierce Cyan
p2302
sg11
I1
sg12
VStadium Club Printing Plates
p2303
sg14
(lp2304
Vhttp://www.beckett.com/basketball/1998-99/stadium-club-printing-plates/203a-paul-pierce-cyan-3161759
p2305
asg17
g18
sg19
(lp2306
Vhttp://img.beckett.com/images/no-image.jpg
p2307
asg22
V#203A
p2308
sg24
V1998-99
p2309
sg26
g27
sg28
(lp2310
g2033
assbag1
(g2
g3
Ntp2311
Rp2312
(dp2313
g7
(dp2314
g9
V1998-99 Stadium Club Printing Plates #203B Paul Pierce Magenta
p2315
sg11
I1
sg12
VStadium Club Printing Plates
p2316
sg14
(lp2317
Vhttp://www.beckett.com/basketball/1998-99/stadium-club-printing-plates/203b-paul-pierce-magenta-3161760
p2318
asg17
g18
sg19
(lp2319
Vhttp://img.beckett.com/images/no-image.jpg
p2320
asg22
V#203B
p2321
sg24
V1998-99
p2322
sg26
g27
sg28
(lp2323
g2033
assbag1
(g2
g3
Ntp2324
Rp2325
(dp2326
g7
(dp2327
g9
V1998-99 Stadium Club Printing Plates #203C Paul Pierce Yellow
p2328
sg11
I1
sg12
VStadium Club Printing Plates
p2329
sg14
(lp2330
Vhttp://www.beckett.com/basketball/1998-99/stadium-club-printing-plates/203c-paul-pierce-yellow-3161761
p2331
asg17
g18
sg19
(lp2332
Vhttp://img.beckett.com/images/no-image.jpg
p2333
asg22
V#203C
p2334
sg24
V1998-99
p2335
sg26
g27
sg28
(lp2336
g2033
assbag1
(g2
g3
Ntp2337
Rp2338
(dp2339
g7
(dp2340
g9
V1998-99 UD Choice Premium Choice Reserve #6 Kenny Anderson
p2341
sg11
I100
sg12
VUD Choice Premium Choice Reserve
p2342
sg14
(lp2343
Vhttp://www.beckett.com/basketball/1998-99/ud-choice-premium-choice-reserve/6-kenny-anderson-3159179
p2344
asg17
g18
sg19
(lp2345
Vhttp://img.beckett.com/images/no-image.jpg
p2346
asg22
V#6
p2347
sg24
V1998-99
p2348
sg26
g27
sg28
(lp2349
VKenny Anderson
p2350
assbag1
(g2
g3
Ntp2351
Rp2352
(dp2353
g7
(dp2354
g9
V1998-99 UD Choice Premium Choice Reserve #7 Ron Mercer
p2355
sg11
I100
sg12
VUD Choice Premium Choice Reserve
p2356
sg14
(lp2357
Vhttp://www.beckett.com/basketball/1998-99/ud-choice-premium-choice-reserve/7-ron-mercer-3159180
p2358
asg17
g18
sg19
(lp2359
Vhttp://img.beckett.com/images/no-image.jpg
p2360
asg22
V#7
p2361
sg24
V1998-99
p2362
sg26
g27
sg28
(lp2363
VRon Mercer
p2364
assbag1
(g2
g3
Ntp2365
Rp2366
(dp2367
g7
(dp2368
g9
V1998-99 UD Choice Premium Choice Reserve #8 Dana Barros
p2369
sg11
I100
sg12
VUD Choice Premium Choice Reserve
p2370
sg14
(lp2371
Vhttp://www.beckett.com/basketball/1998-99/ud-choice-premium-choice-reserve/8-dana-barros-3159181
p2372
asg17
g18
sg19
(lp2373
Vhttp://img.beckett.com/images/no-image.jpg
p2374
asg22
V#8
p2375
sg24
V1998-99
p2376
sg26
g27
sg28
(lp2377
VDana Barros
p2378
assbag1
(g2
g3
Ntp2379
Rp2380
(dp2381
g7
(dp2382
g9
V1998-99 UD Choice Premium Choice Reserve #9 Walter McCarty
p2383
sg11
I100
sg12
VUD Choice Premium Choice Reserve
p2384
sg14
(lp2385
Vhttp://www.beckett.com/basketball/1998-99/ud-choice-premium-choice-reserve/9-walter-mccarty-3159182
p2386
asg17
g18
sg19
(lp2387
Vhttp://img.beckett.com/images/no-image.jpg
p2388
asg22
V#9
p2389
sg24
V1998-99
p2390
sg26
g27
sg28
(lp2391
VWalter McCarty
p2392
assbag1
(g2
g3
Ntp2393
Rp2394
(dp2395
g7
(dp2396
g9
V1998-99 UD Choice Premium Choice Reserve #10 Travis Knight
p2397
sg11
I100
sg12
VUD Choice Premium Choice Reserve
p2398
sg14
(lp2399
Vhttp://www.beckett.com/basketball/1998-99/ud-choice-premium-choice-reserve/10-travis-knight-3159183
p2400
asg17
g18
sg19
(lp2401
Vhttp://img.beckett.com/images/no-image.jpg
p2402
asg22
V#10
p2403
sg24
V1998-99
p2404
sg26
g27
sg28
(lp2405
VTravis Knight
p2406
assbag1
(g2
g3
Ntp2407
Rp2408
(dp2409
g7
(dp2410
g9
V1998-99 UD Choice Premium Choice Reserve #11 Andrew DeClercq
p2411
sg11
I100
sg12
VUD Choice Premium Choice Reserve
p2412
sg14
(lp2413
Vhttp://www.beckett.com/basketball/1998-99/ud-choice-premium-choice-reserve/11-andrew-declercq-3159184
p2414
asg17
g18
sg19
(lp2415
Vhttp://img.beckett.com/images/no-image.jpg
p2416
asg22
V#11
p2417
sg24
V1998-99
p2418
sg26
g27
sg28
(lp2419
VAndrew DeClercq
p2420
assbag1
(g2
g3
Ntp2421
Rp2422
(dp2423
g7
(dp2424
g9
V1998-99 UD Choice Premium Choice Reserve #157 Antoine Walker FS
p2425
sg11
I100
sg12
VUD Choice Premium Choice Reserve
p2426
sg14
(lp2427
Vhttp://www.beckett.com/basketball/1998-99/ud-choice-premium-choice-reserve/157-antoine-walker-fs-3159330
p2428
asg17
g18
sg19
(lp2429
Vhttp://img.beckett.com/images/no-image.jpg
p2430
asg22
V#157
p2431
sg24
V1998-99
p2432
sg71
VFS
p2433
sg26
g27
sg28
(lp2434
VAntoine Walker
p2435
assbag1
(g2
g3
Ntp2436
Rp2437
(dp2438
g7
(dp2439
g9
V1998-99 UD Ionix Reciprocal #9 Ron Mercer
p2440
sg11
I750
sg12
VUD Ionix Reciprocal
p2441
sg14
(lp2442
Vhttp://www.beckett.com/basketball/1998-99/ud-ionix-reciprocal/9-ron-mercer-3159685
p2443
asg17
g18
sg19
(lp2444
Vhttp://img.beckett.com/images/no-image.jpg
p2445
asg22
V#9
p2446
sg24
V1998-99
p2447
sg26
g27
sg28
(lp2448
VRon Mercer
p2449
assbag1
(g2
g3
Ntp2450
Rp2451
(dp2452
g7
(dp2453
g9
V1998-99 UD Ionix Reciprocal #10 Antoine Walker
p2454
sg11
I750
sg12
VUD Ionix Reciprocal
p2455
sg14
(lp2456
Vhttp://www.beckett.com/basketball/1998-99/ud-ionix-reciprocal/10-antoine-walker-3159686
p2457
asg17
g18
sg19
(lp2458
Vhttp://img.beckett.com/images/no-image.jpg
p2459
asg22
V#10
p2460
sg24
V1998-99
p2461
sg26
g27
sg28
(lp2462
VAntoine Walker
p2463
assbag1
(g2
g3
Ntp2464
Rp2465
(dp2466
g7
(dp2467
g9
V1998-99 UD Ionix Reciprocal #70 Paul Pierce
p2468
sg11
I100
sg12
VUD Ionix Reciprocal
p2469
sg14
(lp2470
Vhttp://www.beckett.com/basketball/1998-99/ud-ionix-reciprocal/70-paul-pierce-3159746
p2471
asg17
g18
sg19
(lp2472
Vhttp://img.beckett.com/images/no-image.jpg
p2473
asg22
V#70
p2474
sg24
V1998-99
p2475
sg26
g27
sg28
(lp2476
VPaul Pierce
p2477
assbag1
(g2
g3
Ntp2478
Rp2479
(dp2480
g7
(dp2481
g9
V1998-99 Ultra Masterpieces #9 Kenny Anderson
p2482
sg11
I1
sg12
VUltra Masterpieces
p2483
sg14
(lp2484
Vhttp://www.beckett.com/basketball/1998-99/ultra-masterpieces/9-kenny-anderson-3156965
p2485
asg17
g18
sg19
(lp2486
Vhttp://img.beckett.com/images/no-image.jpg
p2487
asg22
V#9
p2488
sg24
V1998-99
p2489
sg26
g27
sg28
(lp2490
VKenny Anderson
p2491
assbag1
(g2
g3
Ntp2492
Rp2493
(dp2494
g7
(dp2495
g9
V1998-99 Ultra Masterpieces #63 Ron Mercer
p2496
sg11
I1
sg12
VUltra Masterpieces
p2497
sg14
(lp2498
Vhttp://www.beckett.com/basketball/1998-99/ultra-masterpieces/63-ron-mercer-3157019
p2499
asg17
g18
sg19
(lp2500
Vhttp://img.beckett.com/images/no-image.jpg
p2501
asg22
V#63
p2502
sg24
V1998-99
p2503
sg26
g27
sg28
(lp2504
VRon Mercer
p2505
assbag1
(g2
g3
Ntp2506
Rp2507
(dp2508
g7
(dp2509
g9
V1998-99 Ultra Masterpieces #76 Antoine Walker
p2510
sg11
I1
sg12
VUltra Masterpieces
p2511
sg14
(lp2512
Vhttp://www.beckett.com/basketball/1998-99/ultra-masterpieces/76-antoine-walker-3157032
p2513
asg17
g18
sg19
(lp2514
Vhttp://img.beckett.com/images/no-image.jpg
p2515
asg22
V#76
p2516
sg24
V1998-99
p2517
sg26
g27
sg28
(lp2518
VAntoine Walker
p2519
assbag1
(g2
g3
Ntp2520
Rp2521
(dp2522
g7
(dp2523
g9
V1998-99 Ultra Masterpieces #108 Paul Pierce
p2524
sg11
I1
sg12
VUltra Masterpieces
p2525
sg14
(lp2526
Vhttp://www.beckett.com/basketball/1998-99/ultra-masterpieces/108-paul-pierce-3157064
p2527
asg17
g18
sg19
(lp2528
Vhttp://img.beckett.com/images/no-image.jpg
p2529
asg22
V#108
p2530
sg24
V1998-99
p2531
sg26
g27
sg28
(lp2532
VPaul Pierce
p2533
assbag1
(g2
g3
Ntp2534
Rp2535
(dp2536
g7
(dp2537
g9
V1998-99 Ultra Platinum Medallion #9 Kenny Anderson
p2538
sg11
I99
sg12
VUltra Platinum Medallion
p2539
sg14
(lp2540
Vhttp://www.beckett.com/basketball/1998-99/ultra-platinum-medallion/9-kenny-anderson-3157101
p2541
asg17
g18
sg19
(lp2542
Vhttp://img.beckett.com/images/no-image.jpg
p2543
asg22
V#9
p2544
sg24
V1998-99
p2545
sg26
g27
sg28
(lp2546
VKenny Anderson
p2547
assbag1
(g2
g3
Ntp2548
Rp2549
(dp2550
g7
(dp2551
g9
V1998-99 Ultra Platinum Medallion #63 Ron Mercer
p2552
sg11
I99
sg12
VUltra Platinum Medallion
p2553
sg14
(lp2554
Vhttp://www.beckett.com/basketball/1998-99/ultra-platinum-medallion/63-ron-mercer-3157155
p2555
asg17
g18
sg19
(lp2556
Vhttp://img.beckett.com/images/items_stock/185226/3157082/3157155/front.jpg
p2557
asg22
V#63
p2558
sg24
V1998-99
p2559
sg26
g27
sg28
(lp2560
VRon Mercer
p2561
assbag1
(g2
g3
Ntp2562
Rp2563
(dp2564
g7
(dp2565
g9
V1998-99 Ultra Platinum Medallion #76 Antoine Walker
p2566
sg11
I99
sg12
VUltra Platinum Medallion
p2567
sg14
(lp2568
Vhttp://www.beckett.com/basketball/1998-99/ultra-platinum-medallion/76-antoine-walker-3157168
p2569
asg17
g18
sg19
(lp2570
Vhttp://img.beckett.com/images/items_stock/185226/3157082/3157168/front.jpg
p2571
asg22
V#76
p2572
sg24
V1998-99
p2573
sg26
g27
sg28
(lp2574
VAntoine Walker
p2575
assbag1
(g2
g3
Ntp2576
Rp2577
(dp2578
g7
(dp2579
g9
V1998-99 Ultra Platinum Medallion #108 Paul Pierce
p2580
sg11
I66
sg12
VUltra Platinum Medallion
p2581
sg14
(lp2582
Vhttp://www.beckett.com/basketball/1998-99/ultra-platinum-medallion/108-paul-pierce-3157200
p2583
asg17
g18
sg19
(lp2584
Vhttp://img.beckett.com/images/no-image.jpg
p2585
asg22
V#108
p2586
sg24
V1998-99
p2587
sg26
g27
sg28
(lp2588
VPaul Pierce
p2589
assbag1
(g2
g3
Ntp2590
Rp2591
(dp2592
g7
(dp2593
g9
V1998-99 Upper Deck Bronze #6 Kenny Anderson
p2594
sg11
I100
sg12
VUpper Deck Bronze
p2595
sg14
(lp2596
Vhttp://www.beckett.com/basketball/1998-99/upper-deck-bronze/6-kenny-anderson-3157737
p2597
asg17
g18
sg19
(lp2598
Vhttp://img.beckett.com/images/items_stock/185226/3157718/3157737/front.jpg
p2599
asg22
V#6
p2600
sg24
V1998-99
p2601
sg26
g27
sg28
(lp2602
VKenny Anderson
p2603
assbag1
(g2
g3
Ntp2604
Rp2605
(dp2606
g7
(dp2607
g9
V1998-99 Upper Deck Bronze #7 Dana Barros
p2608
sg11
I100
sg12
VUpper Deck Bronze
p2609
sg14
(lp2610
Vhttp://www.beckett.com/basketball/1998-99/upper-deck-bronze/7-dana-barros-3157738
p2611
asg17
g18
sg19
(lp2612
Vhttp://img.beckett.com/images/no-image.jpg
p2613
asg22
V#7
p2614
sg24
V1998-99
p2615
sg26
g27
sg28
(lp2616
VDana Barros
p2617
assbag1
(g2
g3
Ntp2618
Rp2619
(dp2620
g7
(dp2621
g9
V1998-99 Upper Deck Bronze #8 Travis Knight
p2622
sg11
I100
sg12
VUpper Deck Bronze
p2623
sg14
(lp2624
Vhttp://www.beckett.com/basketball/1998-99/upper-deck-bronze/8-travis-knight-3157739
p2625
asg17
g18
sg19
(lp2626
Vhttp://img.beckett.com/images/no-image.jpg
p2627
asg22
V#8
p2628
sg24
V1998-99
p2629
sg26
g27
sg28
(lp2630
VTravis Knight
p2631
assbag1
(g2
g3
Ntp2632
Rp2633
(dp2634
g7
(dp2635
g9
V1998-99 Upper Deck Bronze #9 Walter McCarty
p2636
sg11
I100
sg12
VUpper Deck Bronze
p2637
sg14
(lp2638
Vhttp://www.beckett.com/basketball/1998-99/upper-deck-bronze/9-walter-mccarty-3157740
p2639
asg17
g18
sg19
(lp2640
Vhttp://img.beckett.com/images/no-image.jpg
p2641
asg22
V#9
p2642
sg24
V1998-99
p2643
sg26
g27
sg28
(lp2644
VWalter McCarty
p2645
assbag1
(g2
g3
Ntp2646
Rp2647
(dp2648
g7
(dp2649
g9
V1998-99 Upper Deck Bronze #10 Ron Mercer
p2650
sg11
I100
sg12
VUpper Deck Bronze
p2651
sg14
(lp2652
Vhttp://www.beckett.com/basketball/1998-99/upper-deck-bronze/10-ron-mercer-3157741
p2653
asg17
g18
sg19
(lp2654
Vhttp://img.beckett.com/images/items_stock/185226/3157718/3157741/front.jpg
p2655
asg22
V#10
p2656
sg24
V1998-99
p2657
sg26
g27
sg28
(lp2658
VRon Mercer
p2659
assbag1
(g2
g3
Ntp2660
Rp2661
(dp2662
g7
(dp2663
g9
V1998-99 Upper Deck Bronze #11 Greg Minor
p2664
sg11
I100
sg12
VUpper Deck Bronze
p2665
sg14
(lp2666
Vhttp://www.beckett.com/basketball/1998-99/upper-deck-bronze/11-greg-minor-3157742
p2667
asg17
g18
sg19
(lp2668
Vhttp://img.beckett.com/images/no-image.jpg
p2669
asg22
V#11
p2670
sg24
V1998-99
p2671
sg26
g27
sg28
(lp2672
VGreg Minor
p2673
assbag1
(g2
g3
Ntp2674
Rp2675
(dp2676
g7
(dp2677
g9
V1998-99 Upper Deck Bronze #12 Antoine Walker/Ron Mercer HS
p2678
sg11
I100
sg12
VUpper Deck Bronze
p2679
sg14
(lp2680
Vhttp://www.beckett.com/basketball/1998-99/upper-deck-bronze/12-antoine-walkerron-mercer-hs-3157743
p2681
asg17
g18
sg19
(lp2682
Vhttp://img.beckett.com/images/no-image.jpg
p2683
asg22
V#12
p2684
sg24
V1998-99
p2685
sg71
VHS
p2686
sg26
g27
sg28
(lp2687
VAntoine Walker
p2688
aVRon Mercer
p2689
assbag1
(g2
g3
Ntp2690
Rp2691
(dp2692
g7
(dp2693
g9
V1998-99 Upper Deck Bronze #168 Antoine Walker TN
p2694
sg11
I100
sg12
VUpper Deck Bronze
p2695
sg14
(lp2696
Vhttp://www.beckett.com/basketball/1998-99/upper-deck-bronze/168-antoine-walker-tn-3157899
p2697
asg17
g18
sg19
(lp2698
Vhttp://img.beckett.com/images/items_stock/185226/3157718/3157899/front.jpg
p2699
asg22
V#168
p2700
sg24
V1998-99
p2701
sg71
VTN
p2702
sg26
g27
sg28
(lp2703
VAntoine Walker
p2704
assbag1
(g2
g3
Ntp2705
Rp2706
(dp2707
g7
(dp2708
g9
V1998-99 Upper Deck Bronze #178 Antoine Walker
p2709
sg11
I100
sg12
VUpper Deck Bronze
p2710
sg14
(lp2711
Vhttp://www.beckett.com/basketball/1998-99/upper-deck-bronze/178-antoine-walker-3157909
p2712
asg17
g18
sg19
(lp2713
Vhttp://img.beckett.com/images/items_stock/185226/3157718/3157909/front.jpg
p2714
asg22
V#178
p2715
sg24
V1998-99
p2716
sg26
g27
sg28
(lp2717
VAntoine Walker
p2718
assbag1
(g2
g3
Ntp2719
Rp2720
(dp2721
g7
(dp2722
g9
V1998-99 Upper Deck Bronze #232 Andrew DeClercq
p2723
sg11
I100
sg12
VUpper Deck Bronze
p2724
sg14
(lp2725
Vhttp://www.beckett.com/basketball/1998-99/upper-deck-bronze/232-andrew-declercq-3157985
p2726
asg17
g18
sg19
(lp2727
Vhttp://img.beckett.com/images/items_stock/185226/3157718/3157985/front.jpg
p2728
asg22
V#232
p2729
sg24
V1998-99
p2730
sg26
g27
sg28
(lp2731
VAndrew DeClercq
p2732
assbag1
(g2
g3
Ntp2733
Rp2734
(dp2735
g7
(dp2736
g9
V1998-99 Upper Deck Bronze #298 Ron Mercer H99
p2737
sg11
I100
sg12
VUpper Deck Bronze
p2738
sg14
(lp2739
Vhttp://www.beckett.com/basketball/1998-99/upper-deck-bronze/298-ron-mercer-h99-3158051
p2740
asg17
g18
sg19
(lp2741
Vhttp://img.beckett.com/images/no-image.jpg
p2742
asg22
V#298
p2743
sg24
V1998-99
p2744
sg26
g27
sg28
(lp2745
VRon Mercer
p2746
assbag1
(g2
g3
Ntp2747
Rp2748
(dp2749
g7
(dp2750
g9
V1998-99 Upper Deck Bronze #321 Paul Pierce
p2751
sg11
I100
sg12
VUpper Deck Bronze
p2752
sg14
(lp2753
Vhttp://www.beckett.com/basketball/1998-99/upper-deck-bronze/321-paul-pierce-3158074
p2754
asg17
g18
sg19
(lp2755
Vhttp://img.beckett.com/images/no-image.jpg
p2756
asg22
V#321
p2757
sg24
V1998-99
p2758
sg26
g27
sg28
(lp2759
VPaul Pierce
p2760
assbag1
(g2
g3
Ntp2761
Rp2762
(dp2763
g7
(dp2764
g9
V1998-99 Upper Deck Gold #6 Kenny Anderson
p2765
sg11
I1
sg12
VUpper Deck Gold
p2766
sg14
(lp2767
Vhttp://www.beckett.com/basketball/1998-99/upper-deck-gold/6-kenny-anderson-3158102
p2768
asg17
g18
sg19
(lp2769
Vhttp://img.beckett.com/images/no-image.jpg
p2770
asg22
V#6
p2771
sg24
V1998-99
p2772
sg26
g27
sg28
(lp2773
VKenny Anderson
p2774
assbag1
(g2
g3
Ntp2775
Rp2776
(dp2777
g7
(dp2778
g9
V1998-99 Upper Deck Gold #7 Dana Barros
p2779
sg11
I1
sg12
VUpper Deck Gold
p2780
sg14
(lp2781
Vhttp://www.beckett.com/basketball/1998-99/upper-deck-gold/7-dana-barros-3158103
p2782
asg17
g18
sg19
(lp2783
Vhttp://img.beckett.com/images/no-image.jpg
p2784
asg22
V#7
p2785
sg24
V1998-99
p2786
sg26
g27
sg28
(lp2787
VDana Barros
p2788
assbag1
(g2
g3
Ntp2789
Rp2790
(dp2791
g7
(dp2792
g9
V1998-99 Upper Deck Gold #8 Travis Knight
p2793
sg11
I1
sg12
VUpper Deck Gold
p2794
sg14
(lp2795
Vhttp://www.beckett.com/basketball/1998-99/upper-deck-gold/8-travis-knight-3158104
p2796
asg17
g18
sg19
(lp2797
Vhttp://img.beckett.com/images/no-image.jpg
p2798
asg22
V#8
p2799
sg24
V1998-99
p2800
sg26
g27
sg28
(lp2801
VTravis Knight
p2802
assbag1
(g2
g3
Ntp2803
Rp2804
(dp2805
g7
(dp2806
g9
V1998-99 Upper Deck Gold #9 Walter McCarty
p2807
sg11
I1
sg12
VUpper Deck Gold
p2808
sg14
(lp2809
Vhttp://www.beckett.com/basketball/1998-99/upper-deck-gold/9-walter-mccarty-3158105
p2810
asg17
g18
sg19
(lp2811
Vhttp://img.beckett.com/images/no-image.jpg
p2812
asg22
V#9
p2813
sg24
V1998-99
p2814
sg26
g27
sg28
(lp2815
VWalter McCarty
p2816
assbag1
(g2
g3
Ntp2817
Rp2818
(dp2819
g7
(dp2820
g9
V1998-99 Upper Deck Gold #10 Ron Mercer
p2821
sg11
I1
sg12
VUpper Deck Gold
p2822
sg14
(lp2823
Vhttp://www.beckett.com/basketball/1998-99/upper-deck-gold/10-ron-mercer-3158106
p2824
asg17
g18
sg19
(lp2825
Vhttp://img.beckett.com/images/no-image.jpg
p2826
asg22
V#10
p2827
sg24
V1998-99
p2828
sg26
g27
sg28
(lp2829
VRon Mercer
p2830
assbag1
(g2
g3
Ntp2831
Rp2832
(dp2833
g7
(dp2834
g9
V1998-99 Upper Deck Gold #11 Greg Minor
p2835
sg11
I1
sg12
VUpper Deck Gold
p2836
sg14
(lp2837
Vhttp://www.beckett.com/basketball/1998-99/upper-deck-gold/11-greg-minor-3158107
p2838
asg17
g18
sg19
(lp2839
Vhttp://img.beckett.com/images/no-image.jpg
p2840
asg22
V#11
p2841
sg24
V1998-99
p2842
sg26
g27
sg28
(lp2843
VGreg Minor
p2844
assbag1
(g2
g3
Ntp2845
Rp2846
(dp2847
g7
(dp2848
g9
V1998-99 Upper Deck Gold #12 Antoine Walker/Ron Mercer HS
p2849
sg11
I1
sg12
VUpper Deck Gold
p2850
sg14
(lp2851
Vhttp://www.beckett.com/basketball/1998-99/upper-deck-gold/12-antoine-walkerron-mercer-hs-3158108
p2852
asg17
g18
sg19
(lp2853
Vhttp://img.beckett.com/images/no-image.jpg
p2854
asg22
V#12
p2855
sg24
V1998-99
p2856
sg71
VHS
p2857
sg26
g27
sg28
(lp2858
VAntoine Walker
p2859
aVRon Mercer
p2860
assbag1
(g2
g3
Ntp2861
Rp2862
(dp2863
g7
(dp2864
g9
V1998-99 Upper Deck Gold #168 Antoine Walker TN
p2865
sg11
I1
sg12
VUpper Deck Gold
p2866
sg14
(lp2867
Vhttp://www.beckett.com/basketball/1998-99/upper-deck-gold/168-antoine-walker-tn-3158264
p2868
asg17
g18
sg19
(lp2869
Vhttp://img.beckett.com/images/no-image.jpg
p2870
asg22
V#168
p2871
sg24
V1998-99
p2872
sg71
VTN
p2873
sg26
g27
sg28
(lp2874
VAntoine Walker
p2875
assbag1
(g2
g3
Ntp2876
Rp2877
(dp2878
g7
(dp2879
g9
V1998-99 Upper Deck Gold #178 Antoine Walker
p2880
sg11
I1
sg12
VUpper Deck Gold
p2881
sg14
(lp2882
Vhttp://www.beckett.com/basketball/1998-99/upper-deck-gold/178-antoine-walker-3158274
p2883
asg17
g18
sg19
(lp2884
Vhttp://img.beckett.com/images/no-image.jpg
p2885
asg22
V#178
p2886
sg24
V1998-99
p2887
sg26
g27
sg28
(lp2888
VAntoine Walker
p2889
assbag1
(g2
g3
Ntp2890
Rp2891
(dp2892
g7
(dp2893
g9
V1998-99 Upper Deck Gold #232 Andrew DeClercq
p2894
sg11
I1
sg12
VUpper Deck Gold
p2895
sg14
(lp2896
Vhttp://www.beckett.com/basketball/1998-99/upper-deck-gold/232-andrew-declercq-3158350
p2897
asg17
g18
sg19
(lp2898
Vhttp://img.beckett.com/images/no-image.jpg
p2899
asg22
V#232
p2900
sg24
V1998-99
p2901
sg26
g27
sg28
(lp2902
VAndrew DeClercq
p2903
assbag1
(g2
g3
Ntp2904
Rp2905
(dp2906
g7
(dp2907
g9
V1998-99 Upper Deck Gold #298 Ron Mercer H99
p2908
sg11
I1
sg12
VUpper Deck Gold
p2909
sg14
(lp2910
Vhttp://www.beckett.com/basketball/1998-99/upper-deck-gold/298-ron-mercer-h99-3158416
p2911
asg17
g18
sg19
(lp2912
Vhttp://img.beckett.com/images/no-image.jpg
p2913
asg22
V#298
p2914
sg24
V1998-99
p2915
sg26
g27
sg28
(lp2916
VRon Mercer
p2917
assbag1
(g2
g3
Ntp2918
Rp2919
(dp2920
g7
(dp2921
g9
V1998-99 Upper Deck Gold #321 Paul Pierce
p2922
sg11
I1
sg12
VUpper Deck Gold
p2923
sg14
(lp2924
Vhttp://www.beckett.com/basketball/1998-99/upper-deck-gold/321-paul-pierce-3158439
p2925
asg17
g18
sg19
(lp2926
Vhttp://img.beckett.com/images/no-image.jpg
p2927
asg22
V#321
p2928
sg24
V1998-99
p2929
sg26
g27
sg28
(lp2930
VPaul Pierce
p2931
assbag1
(g2
g3
Ntp2932
Rp2933
(dp2934
g7
(dp2935
g9
V1998-99 Upper Deck Encore F/X #4 Kenny Anderson
p2936
sg11
I125
sg12
VUpper Deck Encore F/X
p2937
sg14
(lp2938
Vhttp://www.beckett.com/basketball/1998-99/upper-deck-encore-fx/4-kenny-anderson-3155105
p2939
asg17
g18
sg19
(lp2940
Vhttp://img.beckett.com/images/items_stock/185226/3155089/3155105/front.jpg
p2941
asg22
V#4
p2942
sg24
V1998-99
p2943
sg26
g27
sg28
(lp2944
VKenny Anderson
p2945
assbag1
(g2
g3
Ntp2946
Rp2947
(dp2948
g7
(dp2949
g9
V1998-99 Upper Deck Encore F/X #5 Antoine Walker
p2950
sg11
I125
sg12
VUpper Deck Encore F/X
p2951
sg14
(lp2952
Vhttp://www.beckett.com/basketball/1998-99/upper-deck-encore-fx/5-antoine-walker-3155106
p2953
asg17
g18
sg19
(lp2954
Vhttp://img.beckett.com/images/no-image.jpg
p2955
asg22
V#5
p2956
sg24
V1998-99
p2957
sg26
g27
sg28
(lp2958
VAntoine Walker
p2959
assbag1
(g2
g3
Ntp2960
Rp2961
(dp2962
g7
(dp2963
g9
V1998-99 Upper Deck Encore F/X #6 Ron Mercer
p2964
sg11
I125
sg12
VUpper Deck Encore F/X
p2965
sg14
(lp2966
Vhttp://www.beckett.com/basketball/1998-99/upper-deck-encore-fx/6-ron-mercer-3155107
p2967
asg17
g18
sg19
(lp2968
Vhttp://img.beckett.com/images/items_stock/185226/3155089/3155107/front.jpg
p2969
asg22
V#6
p2970
sg24
V1998-99
p2971
sg26
g27
sg28
(lp2972
VRon Mercer
p2973
assbag1
(g2
g3
Ntp2974
Rp2975
(dp2976
g7
(dp2977
g9
V1998-99 Upper Deck Encore F/X #123 Paul Pierce
p2978
sg11
I125
sg12
VUpper Deck Encore F/X
p2979
sg14
(lp2980
Vhttp://www.beckett.com/basketball/1998-99/upper-deck-encore-fx/123-paul-pierce-3155224
p2981
asg17
g18
sg19
(lp2982
Vhttp://img.beckett.com/images/no-image.jpg
p2983
asg22
V#123
p2984
sg24
V1998-99
p2985
sg26
g27
sg28
(lp2986
VPaul Pierce
p2987
assbag1
(g2
g3
Ntp2988
Rp2989
(dp2990
g7
(dp2991
g9
V1998-99 Upper Deck Encore F/X #145 Paul Pierce
p2992
sg11
I125
sg12
VUpper Deck Encore F/X
p2993
sg14
(lp2994
Vhttp://www.beckett.com/basketball/1998-99/upper-deck-encore-fx/145-paul-pierce-3155246
p2995
asg17
g18
sg19
(lp2996
Vhttp://img.beckett.com/images/no-image.jpg
p2997
asg22
V#145
p2998
sg24
V1998-99
p2999
sg26
g27
sg28
(lp3000
VPaul Pierce
p3001
assbag1
(g2
g3
Ntp3002
Rp3003
(dp3004
g7
(dp3005
g9
V1998-99 Upper Deck Ovation Gold #3 Antoine Walker
p3006
sg11
I1000
sg12
VUpper Deck Ovation Gold
p3007
sg14
(lp3008
Vhttp://www.beckett.com/basketball/1998-99/upper-deck-ovation-gold/3-antoine-walker-3155559
p3009
asg17
g18
sg19
(lp3010
Vhttp://img.beckett.com/images/no-image.jpg
p3011
asg22
V#3
p3012
sg24
V1998-99
p3013
sg26
g27
sg28
(lp3014
VAntoine Walker
p3015
assbag1
(g2
g3
Ntp3016
Rp3017
(dp3018
g7
(dp3019
g9
V1998-99 Upper Deck Ovation Gold #4 Ron Mercer
p3020
sg11
I1000
sg12
VUpper Deck Ovation Gold
p3021
sg14
(lp3022
Vhttp://www.beckett.com/basketball/1998-99/upper-deck-ovation-gold/4-ron-mercer-3155560
p3023
asg17
g18
sg19
(lp3024
Vhttp://img.beckett.com/images/items_stock/185226/3155547/3155560/front.jpg
p3025
asg22
V#4
p3026
sg24
V1998-99
p3027
sg26
g27
sg28
(lp3028
VRon Mercer
p3029
assbag1
(g2
g3
Ntp3030
Rp3031
(dp3032
g7
(dp3033
g9
V1998-99 Upper Deck Ovation Gold #80 Paul Pierce
p3034
sg11
I1000
sg12
VUpper Deck Ovation Gold
p3035
sg14
(lp3036
Vhttp://www.beckett.com/basketball/1998-99/upper-deck-ovation-gold/80-paul-pierce-3155636
p3037
asg17
g18
sg19
(lp3038
Vhttp://img.beckett.com/images/no-image.jpg
p3039
asg22
V#80
p3040
sg24
V1998-99
p3041
sg26
g27
sg28
(lp3042
VPaul Pierce
p3043
assbag1
(g2
g3
Ntp3044
Rp3045
(dp3046
g7
(dp3047
g9
V1998-99 Black Diamond Diamond Dominance #D2 Paul Pierce
p3048
sg11
I1000
sg12
VBlack Diamond Diamond Dominance
p3049
sg14
(lp3050
Vhttp://www.beckett.com/basketball/1998-99/black-diamond-diamond-dominance/d2-paul-pierce-3170843
p3051
asg17
g18
sg19
(lp3052
Vhttp://img.beckett.com/images/items_stock/185226/3170829/3170843/front.jpg
p3053
asg22
V#D2
p3054
sg24
V1998-99
p3055
sg26
g27
sg28
(lp3056
VPaul Pierce
p3057
assbag1
(g2
g3
Ntp3058
Rp3059
(dp3060
g7
(dp3061
g9
V1998-99 E-X Century Authen-Kicks #3 Ron Mercer/180
p3062
sg11
I180
sg12
VE-X Century Authen-Kicks
p3063
sg14
(lp3064
Vhttp://www.beckett.com/basketball/1998-99/e-x-century-authen-kicks/3-ron-mercer180-3169147
p3065
asg17
g18
sS'memorabilia'
p3066
I1
sg19
(lp3067
Vhttp://img.beckett.com/images/no-image.jpg
p3068
asg22
V#3
p3069
sg24
V1998-99
p3070
sg26
g27
sg28
(lp3071
VRon Mercer
p3072
assbag1
(g2
g3
Ntp3073
Rp3074
(dp3075
g7
(dp3076
g9
V1998-99 E-X Century Authen-Kicks #4 Antoine Walker/125
p3077
sg11
I125
sg12
VE-X Century Authen-Kicks
p3078
sg14
(lp3079
Vhttp://www.beckett.com/basketball/1998-99/e-x-century-authen-kicks/4-antoine-walker125-3169148
p3080
asg17
g18
sg3066
I1
sg19
(lp3081
Vhttp://img.beckett.com/images/no-image.jpg
p3082
asg22
V#4
p3083
sg24
V1998-99
p3084
sg26
g27
sg28
(lp3085
VAntoine Walker
p3086
assbag1
(g2
g3
Ntp3087
Rp3088
(dp3089
g7
(dp3090
g9
V1998-99 Finest Centurions #C9 Antoine Walker
p3091
sg11
I500
sg12
VFinest Centurions
p3092
sg14
(lp3093
Vhttp://www.beckett.com/basketball/1998-99/finest-centurions/c9-antoine-walker-3170309
p3094
asg17
g18
sg19
(lp3095
Vhttp://img.beckett.com/images/items_stock/185226/3170289/3170309/front.jpg
p3096
asg22
V#C9
p3097
sg24
V1998-99
p3098
sg26
g27
sg28
(lp3099
VAntoine Walker
p3100
assbag1
(g2
g3
Ntp3101
Rp3102
(dp3103
g7
(dp3104
g9
V1998-99 Finest Centurions #C19 Ron Mercer
p3105
sg11
I500
sg12
VFinest Centurions
p3106
sg14
(lp3107
Vhttp://www.beckett.com/basketball/1998-99/finest-centurions/c19-ron-mercer-3170319
p3108
asg17
g18
sg19
(lp3109
Vhttp://img.beckett.com/images/no-image.jpg
p3110
asg22
V#C19
p3111
sg24
V1998-99
p3112
sg26
g27
sg28
(lp3113
VRon Mercer
p3114
assbag1
(g2
g3
Ntp3115
Rp3116
(dp3117
g7
(dp3118
g9
V1998-99 Finest Court Control #CC4 Antoine Walker
p3119
sg11
I750
sg12
VFinest Court Control
p3120
sg14
(lp3121
Vhttp://www.beckett.com/basketball/1998-99/finest-court-control/cc4-antoine-walker-3170364
p3122
asg17
g18
sg19
(lp3123
Vhttp://img.beckett.com/images/items_stock/185226/3170349/3170364/front.jpg
p3124
asg22
V#CC4
p3125
sg24
V1998-99
p3126
sg26
g27
sg28
(lp3127
VAntoine Walker
p3128
assbag1
(g2
g3
Ntp3129
Rp3130
(dp3131
g7
(dp3132
g9
V1998-99 Finest Court Control #CC9 Ron Mercer
p3133
sg11
I750
sg12
VFinest Court Control
p3134
sg14
(lp3135
Vhttp://www.beckett.com/basketball/1998-99/finest-court-control/cc9-ron-mercer-3170369
p3136
asg17
g18
sg19
(lp3137
Vhttp://img.beckett.com/images/no-image.jpg
p3138
asg22
V#CC9
p3139
sg24
V1998-99
p3140
sg26
g27
sg28
(lp3141
VRon Mercer
p3142
assbag1
(g2
g3
Ntp3143
Rp3144
(dp3145
g7
(dp3146
g9
V1998-99 Finest Court Control #CC17 Paul Pierce
p3147
sg11
I750
sg12
VFinest Court Control
p3148
sg14
(lp3149
Vhttp://www.beckett.com/basketball/1998-99/finest-court-control/cc17-paul-pierce-3170377
p3150
asg17
g18
sg19
(lp3151
Vhttp://img.beckett.com/images/no-image.jpg
p3152
asg22
V#CC17
p3153
sg24
V1998-99
p3154
sg26
g27
sg28
(lp3155
VPaul Pierce
p3156
assbag1
(g2
g3
Ntp3157
Rp3158
(dp3159
g7
(dp3160
g9
V1998-99 Flair Showcase Class of '98 #10 Paul Pierce
p3161
sg11
I500
sg12
VFlair Showcase Class of '98
p3162
sg14
(lp3163
Vhttp://www.beckett.com/basketball/1998-99/flair-showcase-class-of-98/10-paul-pierce-3167743
p3164
asg17
g18
sg19
(lp3165
Vhttp://img.beckett.com/images/no-image.jpg
p3166
asg22
V#10
p3167
sg24
V1998-99
p3168
sg26
g27
sg28
(lp3169
VPaul Pierce
p3170
assbag1
(g2
g3
Ntp3171
Rp3172
(dp3173
g7
(dp3174
g9
V1998-99 Flair Showcase takeit2.net #6 Antoine Walker
p3175
sg11
I1000
sg12
VFlair Showcase takeit2.net
p3176
sg14
(lp3177
Vhttp://www.beckett.com/basketball/1998-99/flair-showcase-takeit2net/6-antoine-walker-3167761
p3178
asg17
g18
sg19
(lp3179
Vhttp://img.beckett.com/images/no-image.jpg
p3180
asg22
V#6
p3181
sg24
V1998-99
p3182
sg26
g27
sg28
(lp3183
VAntoine Walker
p3184
assbag1
(g2
g3
Ntp3185
Rp3186
(dp3187
g7
(dp3188
g9
V1998-99 Flair Showcase takeit2.net #12 Ron Mercer
p3189
sg11
I1000
sg12
VFlair Showcase takeit2.net
p3190
sg14
(lp3191
Vhttp://www.beckett.com/basketball/1998-99/flair-showcase-takeit2net/12-ron-mercer-3167767
p3192
asg17
g18
sg19
(lp3193
Vhttp://img.beckett.com/images/no-image.jpg
p3194
asg22
V#12
p3195
sg24
V1998-99
p3196
sg26
g27
sg28
(lp3197
VRon Mercer
p3198
assbag1
(g2
g3
Ntp3199
Rp3200
(dp3201
g7
(dp3202
g9
V1998-99 Fleer Playmakers Theatre #15 Antoine Walker
p3203
sg11
I100
sg12
VFleer Playmakers Theatre
p3204
sg14
(lp3205
Vhttp://www.beckett.com/basketball/1998-99/fleer-playmakers-theatre/15-antoine-walker-3168316
p3206
asg17
g18
sg19
(lp3207
Vhttp://img.beckett.com/images/no-image.jpg
p3208
asg22
V#15
p3209
sg24
V1998-99
p3210
sg26
g27
sg28
(lp3211
VAntoine Walker
p3212
assbag1
(g2
g3
Ntp3213
Rp3214
(dp3215
g7
(dp3216
g9
V1998-99 Hoops Prime Twine #9 Antoine Walker
p3217
sg11
I500
sg12
VHoops Prime Twine
p3218
sg14
(lp3219
Vhttp://www.beckett.com/basketball/1998-99/hoops-prime-twine/9-antoine-walker-3166429
p3220
asg17
g18
sg19
(lp3221
Vhttp://img.beckett.com/images/no-image.jpg
p3222
asg22
V#9
p3223
sg24
V1998-99
p3224
sg26
g27
sg28
(lp3225
VAntoine Walker
p3226
assbag1
(g2
g3
Ntp3227
Rp3228
(dp3229
g7
(dp3230
g9
V1998-99 Black Diamond Diamond Dominance Emerald #D2 Paul Pierce
p3231
sg11
I100
sg12
VBlack Diamond Diamond Dominance Emerald
p3232
sg14
(lp3233
Vhttp://www.beckett.com/basketball/1998-99/black-diamond-diamond-dominance-emerald/d2-paul-pierce-3170882
p3234
asg17
g18
sg19
(lp3235
Vhttp://img.beckett.com/images/no-image.jpg
p3236
asg22
V#D2
p3237
sg24
V1998-99
p3238
sg26
g27
sg28
(lp3239
VPaul Pierce
p3240
assbag1
(g2
g3
Ntp3241
Rp3242
(dp3243
g7
(dp3244
g9
V1998-99 Bowman's Best Mirror Image Atomic Refractors #MI7 Steve Smith/Ron Mercer
p3245
sg11
I25
sg12
VBowman's Best Mirror Image Atomic Refractors
p3246
sg14
(lp3247
Vhttp://www.beckett.com/basketball/1998-99/bowmans-best-mirror-image-atomic-refractors/mi7-steve-smithron-mercer-3171550
p3248
asg17
g18
sg19
(lp3249
Vhttp://img.beckett.com/images/no-image.jpg
p3250
asg22
V#MI7
p3251
sg24
V1998-99
p3252
sg26
g27
sg28
(lp3253
VSteve Smith
p3254
aVRon Mercer
p3255
assbag1
(g2
g3
Ntp3256
Rp3257
(dp3258
g7
(dp3259
g9
V1998-99 Bowman's Best Mirror Image Atomic Refractors #MI9 Latrell Sprewell/Antoine Walker
p3260
sg11
I25
sg12
VBowman's Best Mirror Image Atomic Refractors
p3261
sg14
(lp3262
Vhttp://www.beckett.com/basketball/1998-99/bowmans-best-mirror-image-atomic-refractors/mi9-latrell-sprewellantoine-walker-3171552
p3263
asg17
g18
sg19
(lp3264
Vhttp://img.beckett.com/images/no-image.jpg
p3265
asg22
V#MI9
p3266
sg24
V1998-99
p3267
sg26
g27
sg28
(lp3268
VLatrell Sprewell
p3269
aVAntoine Walker
p3270
assbag1
(g2
g3
Ntp3271
Rp3272
(dp3273
g7
(dp3274
g9
V1998-99 Bowman's Best Mirror Image Refractors #MI7 Steve Smith/Ron Mercer
p3275
sg11
I100
sg12
VBowman's Best Mirror Image Refractors
p3276
sg14
(lp3277
Vhttp://www.beckett.com/basketball/1998-99/bowmans-best-mirror-image-refractors/mi7-steve-smithron-mercer-3171578
p3278
asg17
g18
sg19
(lp3279
Vhttp://img.beckett.com/images/no-image.jpg
p3280
asg22
V#MI7
p3281
sg24
V1998-99
p3282
sg26
g27
sg28
(lp3283
VSteve Smith
p3284
aVRon Mercer
p3285
assbag1
(g2
g3
Ntp3286
Rp3287
(dp3288
g7
(dp3289
g9
V1998-99 Bowman's Best Mirror Image Refractors #MI9 Latrell Sprewell/Antoine Walker
p3290
sg11
I100
sg12
VBowman's Best Mirror Image Refractors
p3291
sg14
(lp3292
Vhttp://www.beckett.com/basketball/1998-99/bowmans-best-mirror-image-refractors/mi9-latrell-sprewellantoine-walker-3171580
p3293
asg17
g18
sg19
(lp3294
Vhttp://img.beckett.com/images/no-image.jpg
p3295
asg22
V#MI9
p3296
sg24
V1998-99
p3297
sg26
g27
sg28
(lp3298
VLatrell Sprewell
p3299
aVAntoine Walker
p3300
assbag1
(g2
g3
Ntp3301
Rp3302
(dp3303
g7
(dp3304
g9
V1998-99 Bowman's Best Performers Atomic Refractors #BP9 Paul Pierce
p3305
sg11
I50
sg12
VBowman's Best Performers Atomic Refractors
p3306
sg14
(lp3307
Vhttp://www.beckett.com/basketball/1998-99/bowmans-best-performers-atomic-refractors/bp9-paul-pierce-3171634
p3308
asg17
g18
sg19
(lp3309
Vhttp://img.beckett.com/images/no-image.jpg
p3310
asg22
V#BP9
p3311
sg24
V1998-99
p3312
sg26
g27
sg28
(lp3313
VPaul Pierce
p3314
assbag1
(g2
g3
Ntp3315
Rp3316
(dp3317
g7
(dp3318
g9
V1998-99 Bowman's Best Performers Refractors #BP9 Paul Pierce
p3319
sg11
I200
sg12
VBowman's Best Performers Refractors
p3320
sg14
(lp3321
Vhttp://www.beckett.com/basketball/1998-99/bowmans-best-performers-refractors/bp9-paul-pierce-3171652
p3322
asg17
g18
sg19
(lp3323
Vhttp://img.beckett.com/images/no-image.jpg
p3324
asg22
V#BP9
p3325
sg24
V1998-99
p3326
sg26
g27
sg28
(lp3327
VPaul Pierce
p3328
assbag1
(g2
g3
Ntp3329
Rp3330
(dp3331
g7
(dp3332
g9
V1998-99 E-X Century Essential Credentials Future #9 Ron Mercer/82
p3333
sg11
I82
sg12
VE-X Century Essential Credentials Future
p3334
sg14
(lp3335
Vhttp://www.beckett.com/basketball/1998-99/e-x-century-essential-credentials-future/9-ron-mercer82-3168960
p3336
asg17
g18
sg19
(lp3337
Vhttp://img.beckett.com/images/no-image.jpg
p3338
asg22
V#9
p3339
sg24
V1998-99
p3340
sg26
g27
sg28
(lp3341
VRon Mercer
p3342
assbag1
(g2
g3
Ntp3343
Rp3344
(dp3345
g7
(dp3346
g9
V1998-99 E-X Century Essential Credentials Future #11 Antoine Walker/80
p3347
sg11
I80
sg12
VE-X Century Essential Credentials Future
p3348
sg14
(lp3349
Vhttp://www.beckett.com/basketball/1998-99/e-x-century-essential-credentials-future/11-antoine-walker80-3168962
p3350
asg17
g18
sg19
(lp3351
Vhttp://img.beckett.com/images/no-image.jpg
p3352
asg22
V#11
p3353
sg24
V1998-99
p3354
sg26
g27
sg28
(lp3355
VAntoine Walker
p3356
assbag1
(g2
g3
Ntp3357
Rp3358
(dp3359
g7
(dp3360
g9
V1998-99 E-X Century Essential Credentials Future #82 Paul Pierce/9
p3361
sg11
I9
sg12
VE-X Century Essential Credentials Future
p3362
sg14
(lp3363
Vhttp://www.beckett.com/basketball/1998-99/e-x-century-essential-credentials-future/82-paul-pierce9-3169033
p3364
asg17
g18
sg19
(lp3365
Vhttp://img.beckett.com/images/no-image.jpg
p3366
asg22
V#82
p3367
sg24
V1998-99
p3368
sg26
g27
sg28
(lp3369
VPaul Pierce
p3370
assbag1
(g2
g3
Ntp3371
Rp3372
(dp3373
g7
(dp3374
g9
V1998-99 E-X Century Essential Credentials Now #9 Ron Mercer/9
p3375
sg11
I9
sg12
VE-X Century Essential Credentials Now
p3376
sg14
(lp3377
Vhttp://www.beckett.com/basketball/1998-99/e-x-century-essential-credentials-now/9-ron-mercer9-3169057
p3378
asg17
g18
sg19
(lp3379
Vhttp://img.beckett.com/images/no-image.jpg
p3380
asg22
V#9
p3381
sg24
V1998-99
p3382
sg26
g27
sg28
(lp3383
VRon Mercer
p3384
assbag1
(g2
g3
Ntp3385
Rp3386
(dp3387
g7
(dp3388
g9
V1998-99 E-X Century Essential Credentials Now #11 Antoine Walker/11
p3389
sg11
I11
sg12
VE-X Century Essential Credentials Now
p3390
sg14
(lp3391
Vhttp://www.beckett.com/basketball/1998-99/e-x-century-essential-credentials-now/11-antoine-walker11-3169059
p3392
asg17
g18
sg19
(lp3393
Vhttp://img.beckett.com/images/no-image.jpg
p3394
asg22
V#11
p3395
sg24
V1998-99
p3396
sg26
g27
sg28
(lp3397
VAntoine Walker
p3398
assbag1
(g2
g3
Ntp3399
Rp3400
(dp3401
g7
(dp3402
g9
V1998-99 E-X Century Essential Credentials Now #82 Paul Pierce/82
p3403
sg11
I82
sg12
VE-X Century Essential Credentials Now
p3404
sg14
(lp3405
Vhttp://www.beckett.com/basketball/1998-99/e-x-century-essential-credentials-now/82-paul-pierce82-3169130
p3406
asg17
g18
sg19
(lp3407
Vhttp://img.beckett.com/images/no-image.jpg
p3408
asg22
V#82
p3409
sg24
V1998-99
p3410
sg26
g27
sg28
(lp3411
VPaul Pierce
p3412
assbag1
(g2
g3
Ntp3413
Rp3414
(dp3415
g7
(dp3416
g9
V1998-99 Finest Centurions Refractors #C9 Antoine Walker
p3417
sg11
I75
sg12
VFinest Centurions Refractors
p3418
sg14
(lp3419
Vhttp://www.beckett.com/basketball/1998-99/finest-centurions-refractors/c9-antoine-walker-3170337
p3420
asg17
g18
sg19
(lp3421
Vhttp://img.beckett.com/images/no-image.jpg
p3422
asg22
V#C9
p3423
sg24
V1998-99
p3424
sg26
g27
sg28
(lp3425
VAntoine Walker
p3426
assbag1
(g2
g3
Ntp3427
Rp3428
(dp3429
g7
(dp3430
g9
V1998-99 Finest Centurions Refractors #C19 Ron Mercer
p3431
sg11
I75
sg12
VFinest Centurions Refractors
p3432
sg14
(lp3433
Vhttp://www.beckett.com/basketball/1998-99/finest-centurions-refractors/c19-ron-mercer-3170347
p3434
asg17
g18
sg19
(lp3435
Vhttp://img.beckett.com/images/no-image.jpg
p3436
asg22
V#C19
p3437
sg24
V1998-99
p3438
sg26
g27
sg28
(lp3439
VRon Mercer
p3440
assbag1
(g2
g3
Ntp3441
Rp3442
(dp3443
g7
(dp3444
g9
V1998-99 Finest Court Control Refractors #CC4 Antoine Walker
p3445
sg11
I150
sg12
VFinest Court Control Refractors
p3446
sg14
(lp3447
Vhttp://www.beckett.com/basketball/1998-99/finest-court-control-refractors/cc4-antoine-walker-3170392
p3448
asg17
g18
sg19
(lp3449
Vhttp://img.beckett.com/images/no-image.jpg
p3450
asg22
V#CC4
p3451
sg24
V1998-99
p3452
sg26
g27
sg28
(lp3453
VAntoine Walker
p3454
assbag1
(g2
g3
Ntp3455
Rp3456
(dp3457
g7
(dp3458
g9
V1998-99 Finest Court Control Refractors #CC9 Ron Mercer
p3459
sg11
I150
sg12
VFinest Court Control Refractors
p3460
sg14
(lp3461
Vhttp://www.beckett.com/basketball/1998-99/finest-court-control-refractors/cc9-ron-mercer-3170397
p3462
asg17
g18
sg19
(lp3463
Vhttp://img.beckett.com/images/no-image.jpg
p3464
asg22
V#CC9
p3465
sg24
V1998-99
p3466
sg26
g27
sg28
(lp3467
VRon Mercer
p3468
assbag1
(g2
g3
Ntp3469
Rp3470
(dp3471
g7
(dp3472
g9
V1998-99 Finest Court Control Refractors #CC17 Paul Pierce
p3473
sg11
I150
sg12
VFinest Court Control Refractors
p3474
sg14
(lp3475
Vhttp://www.beckett.com/basketball/1998-99/finest-court-control-refractors/cc17-paul-pierce-3170405
p3476
asg17
g18
sg19
(lp3477
Vhttp://img.beckett.com/images/no-image.jpg
p3478
asg22
V#CC17
p3479
sg24
V1998-99
p3480
sg26
g27
sg28
(lp3481
VPaul Pierce
p3482
assbag1
(g2
g3
Ntp3483
Rp3484
(dp3485
g7
(dp3486
g9
V1998-99 SkyBox Molten Metal Fusion #50 Antoine Walker
p3487
sg11
I40
sg12
VSkyBox Molten Metal Fusion
p3488
sg14
(lp3489
Vhttp://www.beckett.com/basketball/1998-99/skybox-molten-metal-fusion/50-antoine-walker-3164747
p3490
asg17
g18
sg19
(lp3491
Vhttp://img.beckett.com/images/no-image.jpg
p3492
asg22
V#50
p3493
sg24
V1998-99
p3494
sg26
g27
sg28
(lp3495
VAntoine Walker
p3496
assbag1
(g2
g3
Ntp3497
Rp3498
(dp3499
g7
(dp3500
g9
V1998-99 SkyBox Molten Metal Fusion Titanium #50 Antoine Walker
p3501
sg11
I250
sg12
VSkyBox Molten Metal Fusion Titanium
p3502
sg14
(lp3503
Vhttp://www.beckett.com/basketball/1998-99/skybox-molten-metal-fusion-titanium/50-antoine-walker-3164809
p3504
asg17
g18
sg19
(lp3505
Vhttp://img.beckett.com/images/no-image.jpg
p3506
asg22
V#50
p3507
sg24
V1998-99
p3508
sg26
g27
sg28
(lp3509
VAntoine Walker
p3510
assbag1
(g2
g3
Ntp3511
Rp3512
(dp3513
g7
(dp3514
g9
V1998-99 SkyBox Premium Autographics Blue #5 Kenny Anderson
p3515
sg11
I50
sg12
VSkyBox Premium Autographics Blue
p3516
sg14
(lp3517
Vhttp://www.beckett.com/basketball/1998-99/skybox-premium-autographics-blue/5-kenny-anderson-3165560
p3518
asg17
g18
sg19
(lp3519
Vhttp://img.beckett.com/images/no-image.jpg
p3520
asg22
V#5
p3521
sS'autograph'
p3522
I1
sg24
V1998-99
p3523
sg26
g27
sg28
(lp3524
VKenny Anderson
p3525
assbag1
(g2
g3
Ntp3526
Rp3527
(dp3528
g7
(dp3529
g9
V1998-99 SkyBox Premium Autographics Blue #10 Dana Barros
p3530
sg11
I50
sg12
VSkyBox Premium Autographics Blue
p3531
sg14
(lp3532
Vhttp://www.beckett.com/basketball/1998-99/skybox-premium-autographics-blue/10-dana-barros-3165565
p3533
asg17
g18
sg19
(lp3534
Vhttp://img.beckett.com/images/no-image.jpg
p3535
asg22
V#10
p3536
sg3522
I1
sg24
V1998-99
p3537
sg26
g27
sg28
(lp3538
VDana Barros
p3539
assbag1
(g2
g3
Ntp3540
Rp3541
(dp3542
g7
(dp3543
g9
V1998-99 SkyBox Premium Autographics Blue #32 Andrew DeClercq
p3544
sg11
I50
sg12
VSkyBox Premium Autographics Blue
p3545
sg14
(lp3546
Vhttp://www.beckett.com/basketball/1998-99/skybox-premium-autographics-blue/32-andrew-declercq-3165587
p3547
asg17
g18
sg19
(lp3548
Vhttp://img.beckett.com/images/no-image.jpg
p3549
asg22
V#32
p3550
sg3522
I1
sg24
V1998-99
p3551
sg26
g27
sg28
(lp3552
VAndrew DeClercq
p3553
assbag1
(g2
g3
Ntp3554
Rp3555
(dp3556
g7
(dp3557
g9
V1998-99 SkyBox Premium Autographics Blue #81 Walter McCarty
p3558
sg11
I50
sg12
VSkyBox Premium Autographics Blue
p3559
sg14
(lp3560
Vhttp://www.beckett.com/basketball/1998-99/skybox-premium-autographics-blue/81-walter-mccarty-3165636
p3561
asg17
g18
sg19
(lp3562
Vhttp://img.beckett.com/images/no-image.jpg
p3563
asg22
V#81
p3564
sg3522
I1
sg24
V1998-99
p3565
sg26
g27
sg28
(lp3566
VWalter McCarty
p3567
assbag1
(g2
g3
Ntp3568
Rp3569
(dp3570
g7
(dp3571
g9
V1998-99 SkyBox Premium Autographics Blue #85 Ron Mercer
p3572
sg11
I50
sg12
VSkyBox Premium Autographics Blue
p3573
sg14
(lp3574
Vhttp://www.beckett.com/basketball/1998-99/skybox-premium-autographics-blue/85-ron-mercer-3165640
p3575
asg17
g18
sg19
(lp3576
Vhttp://img.beckett.com/images/no-image.jpg
p3577
asg22
V#85
p3578
sg3522
I1
sg24
V1998-99
p3579
sg26
g27
sg28
(lp3580
VRon Mercer
p3581
assbag1
(g2
g3
Ntp3582
Rp3583
(dp3584
g7
(dp3585
g9
V1998-99 SkyBox Premium Autographics Blue #129 Antoine Walker
p3586
sg11
I50
sg12
VSkyBox Premium Autographics Blue
p3587
sg14
(lp3588
Vhttp://www.beckett.com/basketball/1998-99/skybox-premium-autographics-blue/129-antoine-walker-3165684
p3589
asg17
g18
sg19
(lp3590
Vhttp://img.beckett.com/images/no-image.jpg
p3591
asg22
V#129
p3592
sg3522
I1
sg24
V1998-99
p3593
sg26
g27
sg28
(lp3594
VAntoine Walker
p3595
assbag1
(g2
g3
Ntp3596
Rp3597
(dp3598
g7
(dp3599
g9
V1998-99 Topps Gold Label Red Label #GL4 Antoine Walker
p3600
sg11
I100
sg12
VTopps Gold Label Red Label
p3601
sg14
(lp3602
Vhttp://www.beckett.com/basketball/1998-99/topps-gold-label-red-label/gl4-antoine-walker-3159986
p3603
asg17
g18
sg19
(lp3604
Vhttp://img.beckett.com/images/no-image.jpg
p3605
asg22
V#GL4
p3606
sg24
V1998-99
p3607
sg26
g27
sg28
(lp3608
VAntoine Walker
p3609
assbag1
(g2
g3
Ntp3610
Rp3611
(dp3612
g7
(dp3613
g9
V1998-99 UD Choice StarQuest Gold #SQ2 Kenny Anderson
p3614
sg11
I100
sg12
VUD Choice StarQuest Gold
p3615
sg14
(lp3616
Vhttp://www.beckett.com/basketball/1998-99/ud-choice-starquest-gold/sq2-kenny-anderson-3159463
p3617
asg17
g18
sg19
(lp3618
Vhttp://img.beckett.com/images/no-image.jpg
p3619
asg22
V#SQ2
p3620
sg24
V1998-99
p3621
sg26
g27
sg28
(lp3622
VKenny Anderson
p3623
assbag1
(g2
g3
Ntp3624
Rp3625
(dp3626
g7
(dp3627
g9
V1998-99 Upper Deck AeroDynamics Bronze #A25 Antoine Walker
p3628
sg11
I2000
sg12
VUpper Deck AeroDynamics Bronze
p3629
sg14
(lp3630
Vhttp://www.beckett.com/basketball/1998-99/upper-deck-aerodynamics-bronze/a25-antoine-walker-3155744
p3631
asg17
g18
sg19
(lp3632
Vhttp://img.beckett.com/images/items_stock/185226/3155712/3155744/front.jpg
p3633
asg22
V#A25
p3634
sg24
V1998-99
p3635
sg26
g27
sg28
(lp3636
VAntoine Walker
p3637
assbag1
(g2
g3
Ntp3638
Rp3639
(dp3640
g7
(dp3641
g9
V1998-99 Upper Deck AeroDynamics Silver #A25 Antoine Walker
p3642
sg11
I100
sg12
VUpper Deck AeroDynamics Silver
p3643
sg14
(lp3644
Vhttp://www.beckett.com/basketball/1998-99/upper-deck-aerodynamics-silver/a25-antoine-walker-3155820
p3645
asg17
g18
sg19
(lp3646
Vhttp://img.beckett.com/images/items_stock/185226/3155788/3155820/front.jpg
p3647
asg22
V#A25
p3648
sg24
V1998-99
p3649
sg26
g27
sg28
(lp3650
VAntoine Walker
p3651
assbag1
(g2
g3
Ntp3652
Rp3653
(dp3654
g7
(dp3655
g9
V1998-99 Upper Deck AeroDynamics Gold #A25 Antoine Walker
p3656
sg11
I25
sg12
VUpper Deck AeroDynamics Gold
p3657
sg14
(lp3658
Vhttp://www.beckett.com/basketball/1998-99/upper-deck-aerodynamics-gold/a25-antoine-walker-3155782
p3659
asg17
g18
sg19
(lp3660
Vhttp://img.beckett.com/images/no-image.jpg
p3661
asg22
V#A25
p3662
sg24
V1998-99
p3663
sg26
g27
sg28
(lp3664
VAntoine Walker
p3665
assbag1
(g2
g3
Ntp3666
Rp3667
(dp3668
g7
(dp3669
g9
V1998-99 Upper Deck Forces Bronze #F23 Antoine Walker
p3670
sg11
I1000
sg12
VUpper Deck Forces Bronze
p3671
sg14
(lp3672
Vhttp://www.beckett.com/basketball/1998-99/upper-deck-forces-bronze/f23-antoine-walker-3155900
p3673
asg17
g18
sg19
(lp3674
Vhttp://img.beckett.com/images/no-image.jpg
p3675
asg22
V#F23
p3676
sg24
V1998-99
p3677
sg26
g27
sg28
(lp3678
VAntoine Walker
p3679
assbag1
(g2
g3
Ntp3680
Rp3681
(dp3682
g7
(dp3683
g9
V1998-99 Upper Deck Forces Silver #F23 Antoine Walker
p3684
sg11
I50
sg12
VUpper Deck Forces Silver
p3685
sg14
(lp3686
Vhttp://www.beckett.com/basketball/1998-99/upper-deck-forces-silver/f23-antoine-walker-3155976
p3687
asg17
g18
sg19
(lp3688
Vhttp://img.beckett.com/images/no-image.jpg
p3689
asg22
V#F23
p3690
sg24
V1998-99
p3691
sg26
g27
sg28
(lp3692
VAntoine Walker
p3693
assbag1
(g2
g3
Ntp3694
Rp3695
(dp3696
g7
(dp3697
g9
V1998-99 Upper Deck Forces Gold #F23 Antoine Walker
p3698
sg11
I25
sg12
VUpper Deck Forces Gold
p3699
sg14
(lp3700
Vhttp://www.beckett.com/basketball/1998-99/upper-deck-forces-gold/f23-antoine-walker-3155938
p3701
asg17
g18
sg19
(lp3702
Vhttp://img.beckett.com/images/no-image.jpg
p3703
asg22
V#F23
p3704
sg24
V1998-99
p3705
sg26
g27
sg28
(lp3706
VAntoine Walker
p3707
assbag1
(g2
g3
Ntp3708
Rp3709
(dp3710
g7
(dp3711
g9
V1998-99 Upper Deck Intensity Bronze #I3 Ron Mercer
p3712
sg11
I1500
sg12
VUpper Deck Intensity Bronze
p3713
sg14
(lp3714
Vhttp://www.beckett.com/basketball/1998-99/upper-deck-intensity-bronze/i3-ron-mercer-3156099
p3715
asg17
g18
sg19
(lp3716
Vhttp://img.beckett.com/images/items_stock/185226/3156089/3156099/front.jpg
p3717
asg22
V#I3
p3718
sg24
V1998-99
p3719
sg26
g27
sg28
(lp3720
VRon Mercer
p3721
assbag1
(g2
g3
Ntp3722
Rp3723
(dp3724
g7
(dp3725
g9
V1998-99 Upper Deck Intensity Silver #I3 Ron Mercer
p3726
sg11
I75
sg12
VUpper Deck Intensity Silver
p3727
sg14
(lp3728
Vhttp://www.beckett.com/basketball/1998-99/upper-deck-intensity-silver/i3-ron-mercer-3156175
p3729
asg17
g18
sg19
(lp3730
Vhttp://img.beckett.com/images/no-image.jpg
p3731
asg22
V#I3
p3732
sg24
V1998-99
p3733
sg26
g27
sg28
(lp3734
VRon Mercer
p3735
assbag1
(g2
g3
Ntp3736
Rp3737
(dp3738
g7
(dp3739
g9
V1998-99 Upper Deck Intensity Gold #I3 Ron Mercer
p3740
sg11
I25
sg12
VUpper Deck Intensity Gold
p3741
sg14
(lp3742
Vhttp://www.beckett.com/basketball/1998-99/upper-deck-intensity-gold/i3-ron-mercer-3156137
p3743
asg17
g18
sg19
(lp3744
Vhttp://img.beckett.com/images/no-image.jpg
p3745
asg22
V#I3
p3746
sg24
V1998-99
p3747
sg26
g27
sg28
(lp3748
VRon Mercer
p3749
assbag1
(g2
g3
Ntp3750
Rp3751
(dp3752
g7
(dp3753
g9
V1998-99 Upper Deck Next Wave Bronze #NW12 Ron Mercer
p3754
sg11
I1500
sg12
VUpper Deck Next Wave Bronze
p3755
sg14
(lp3756
Vhttp://www.beckett.com/basketball/1998-99/upper-deck-next-wave-bronze/nw12-ron-mercer-3156463
p3757
asg17
g18
sg19
(lp3758
Vhttp://img.beckett.com/images/items_stock/185226/3156444/3156463/front.jpg
p3759
asg22
V#NW12
p3760
sg24
V1998-99
p3761
sg26
g27
sg28
(lp3762
VRon Mercer
p3763
assbag1
(g2
g3
Ntp3764
Rp3765
(dp3766
g7
(dp3767
g9
V1998-99 Upper Deck Next Wave Silver #NW12 Ron Mercer
p3768
sg11
I200
sg12
VUpper Deck Next Wave Silver
p3769
sg14
(lp3770
Vhttp://www.beckett.com/basketball/1998-99/upper-deck-next-wave-silver/nw12-ron-mercer-3156539
p3771
asg17
g18
sg19
(lp3772
Vhttp://img.beckett.com/images/no-image.jpg
p3773
asg22
V#NW12
p3774
sg24
V1998-99
p3775
sg26
g27
sg28
(lp3776
VRon Mercer
p3777
assbag1
(g2
g3
Ntp3778
Rp3779
(dp3780
g7
(dp3781
g9
V1998-99 Upper Deck Next Wave Gold #NW12 Ron Mercer
p3782
sg11
I75
sg12
VUpper Deck Next Wave Gold
p3783
sg14
(lp3784
Vhttp://www.beckett.com/basketball/1998-99/upper-deck-next-wave-gold/nw12-ron-mercer-3156501
p3785
asg17
g18
sg19
(lp3786
Vhttp://img.beckett.com/images/no-image.jpg
p3787
asg22
V#NW12
p3788
sg24
V1998-99
p3789
sg26
g27
sg28
(lp3790
VRon Mercer
p3791
assbag1
(g2
g3
Ntp3792
Rp3793
(dp3794
g7
(dp3795
g9
V1998-99 Upper Deck Super Powers Bronze #S2 Ron Mercer
p3796
sg11
I1000
sg12
VUpper Deck Super Powers Bronze
p3797
sg14
(lp3798
Vhttp://www.beckett.com/basketball/1998-99/upper-deck-super-powers-bronze/s2-ron-mercer-3154809
p3799
asg17
g18
sg19
(lp3800
Vhttp://img.beckett.com/images/items_stock/185226/3154800/3154809/front.jpg
p3801
asg22
V#S2
p3802
sg24
V1998-99
p3803
sg26
g27
sg28
(lp3804
VRon Mercer
p3805
assbag1
(g2
g3
Ntp3806
Rp3807
(dp3808
g7
(dp3809
g9
V1998-99 Upper Deck Super Powers Silver #S2 Ron Mercer
p3810
sg11
I100
sg12
VUpper Deck Super Powers Silver
p3811
sg14
(lp3812
Vhttp://www.beckett.com/basketball/1998-99/upper-deck-super-powers-silver/s2-ron-mercer-3154885
p3813
asg17
g18
sg19
(lp3814
Vhttp://img.beckett.com/images/no-image.jpg
p3815
asg22
V#S2
p3816
sg24
V1998-99
p3817
sg26
g27
sg28
(lp3818
VRon Mercer
p3819
assbag1
(g2
g3
Ntp3820
Rp3821
(dp3822
g7
(dp3823
g9
V1998-99 Upper Deck Super Powers Gold #S2 Ron Mercer
p3824
sg11
I50
sg12
VUpper Deck Super Powers Gold
p3825
sg14
(lp3826
Vhttp://www.beckett.com/basketball/1998-99/upper-deck-super-powers-gold/s2-ron-mercer-3154847
p3827
asg17
g18
sg19
(lp3828
Vhttp://img.beckett.com/images/items_stock/185226/3154838/3154847/front.jpg
p3829
asg22
V#S2
p3830
sg24
V1998-99
p3831
sg26
g27
sg28
(lp3832
VRon Mercer
p3833
assbag1
(g2
g3
Ntp3834
Rp3835
(dp3836
g7
(dp3837
g9
V1998-99 Upper Deck Encore Driving Forces F/X #F7 Antoine Walker
p3838
sg11
I500
sg12
VUpper Deck Encore Driving Forces F/X
p3839
sg14
(lp3840
Vhttp://www.beckett.com/basketball/1998-99/upper-deck-encore-driving-forces-fx/f7-antoine-walker-3155292
p3841
asg17
g18
sg19
(lp3842
Vhttp://img.beckett.com/images/no-image.jpg
p3843
asg22
V#F7
p3844
sg24
V1998-99
p3845
sg26
g27
sg28
(lp3846
VAntoine Walker
p3847
assbag1
(g2
g3
Ntp3848
Rp3849
(dp3850
g7
(dp3851
g9
V1998-99 Upper Deck Encore Rookie Encore F/X #RE3 Paul Pierce
p3852
sg11
I1000
sg12
VUpper Deck Encore Rookie Encore F/X
p3853
sg14
(lp3854
Vhttp://www.beckett.com/basketball/1998-99/upper-deck-encore-rookie-encore-fx/re3-paul-pierce-3155442
p3855
asg17
g18
sg19
(lp3856
Vhttp://img.beckett.com/images/items_stock/185226/3155432/3155442/front.jpg
p3857
asg22
V#RE3
p3858
sg24
V1998-99
p3859
sg26
g27
sg28
(lp3860
VPaul Pierce
p3861
assba.