(lp0
Naccopy_reg
_reconstructor
p1
(ctutorial.items
BeckettItem
p2
c__builtin__
object
p3
Ntp4
Rp5
(dp6
S'_values'
p7
(dp8
S'originalItemDescription'
p9
V1998 Upper Deck Hardcourt Home Court Advantage Plus #35 Grant Hill
p10
sS'serialNumber'
p11
I500
sS'setName'
p12
VUpper Deck Hardcourt Home Court Advantage Plus
p13
sS'beckettLink'
p14
(lp15
Vhttp://www.beckett.com/basketball/1998/upper-deck-hardcourt-home-court-advantage-plus/35-grant-hill-3150447
p16
asS'team'
p17
S'Detroit Pistons'
p18
sS'imageLink'
p19
(lp20
Vhttp://img.beckett.com/images/no-image.jpg
p21
asS'cardNumber'
p22
V#35
p23
sS'year'
p24
V1998
p25
sS'sport'
p26
S'Basketball'
p27
sS'playerNames'
p28
(lp29
VGrant Hill
p30
assbag1
(g2
g3
Ntp31
Rp32
(dp33
g7
(dp34
g9
V1998 Upper Deck Hardcourt Home Court Advantage Plus #67 Jerry Stackhouse
p35
sg11
I500
sg12
VUpper Deck Hardcourt Home Court Advantage Plus
p36
sg14
(lp37
Vhttp://www.beckett.com/basketball/1998/upper-deck-hardcourt-home-court-advantage-plus/67-jerry-stackhouse-3150479
p38
asg17
g18
sg19
(lp39
Vhttp://img.beckett.com/images/no-image.jpg
p40
asg22
V#67
p41
sg24
V1998
p42
sg26
g27
sg28
(lp43
VJerry Stackhouse
p44
assbag1
(g2
g3
Ntp45
Rp46
(dp47
g7
(dp48
g9
V1998 Upper Deck Hardcourt High Court #H8 Grant Hill
p49
sg11
I1300
sg12
VUpper Deck Hardcourt High Court
p50
sg14
(lp51
Vhttp://www.beckett.com/basketball/1998/upper-deck-hardcourt-high-court/h8-grant-hill-3150517
p52
asg17
g18
sg19
(lp53
Vhttp://img.beckett.com/images/items_stock/185226/3150503/3150517/front.jpg
p54
asg22
V#H8
p55
sg24
V1998
p56
sg26
g27
sg28
(lp57
VGrant Hill
p58
assbag1
(g2
g3
Ntp59
Rp60
(dp61
g7
(dp62
g9
V1998 Upper Deck Hardcourt Jordan Holding Court Red #J8 Grant Hill/Michael Jordan
p63
sg11
I2300
sg12
VUpper Deck Hardcourt Jordan Holding Court Red
p64
sg14
(lp65
Vhttp://www.beckett.com/basketball/1998/upper-deck-hardcourt-jordan-holding-court-red/j8-grant-hillmichael-jordan-3150561
p66
asg17
g18
sg19
(lp67
Vhttp://img.beckett.com/images/no-image.jpg
p68
asg22
V#J8
p69
sg24
V1998
p70
sg26
g27
sg28
(lp71
VGrant Hill
p72
aVMichael Jordan
p73
assbag1
(g2
g3
Ntp74
Rp75
(dp76
g7
(dp77
g9
V1998 Upper Deck Hardcourt Jordan Holding Court Bronze #J8 Grant Hill/Michael Jordan
p78
sg11
I230
sg12
VUpper Deck Hardcourt Jordan Holding Court Bronze
p79
sg14
(lp80
Vhttp://www.beckett.com/basketball/1998/upper-deck-hardcourt-jordan-holding-court-bronze/j8-grant-hillmichael-jordan-3150599
p81
asg17
g18
sg19
(lp82
Vhttp://img.beckett.com/images/no-image.jpg
p83
asg22
V#J8
p84
sg24
V1998
p85
sg26
g27
sg28
(lp86
VGrant Hill
p87
aVMichael Jordan
p88
assbag1
(g2
g3
Ntp89
Rp90
(dp91
g7
(dp92
g9
V1998 Upper Deck Hardcourt Jordan Holding Court Silver #J8 Grant Hill/Michael Jordan
p93
sg11
I23
sg12
VUpper Deck Hardcourt Jordan Holding Court Silver
p94
sg14
(lp95
Vhttp://www.beckett.com/basketball/1998/upper-deck-hardcourt-jordan-holding-court-silver/j8-grant-hillmichael-jordan-3150674
p96
asg17
g18
sg19
(lp97
Vhttp://img.beckett.com/images/no-image.jpg
p98
asg22
V#J8
p99
sg24
V1998
p100
sg26
g27
sg28
(lp101
VGrant Hill
p102
aVMichael Jordan
p103
assbag1
(g2
g3
Ntp104
Rp105
(dp106
g7
(dp107
g9
V1998 Upper Deck Hardcourt Jordan Holding Court Gold #J8 Grant Hill/Michael Jordan
p108
sg11
I1
sg12
VUpper Deck Hardcourt Jordan Holding Court Gold
p109
sg14
(lp110
Vhttp://www.beckett.com/basketball/1998/upper-deck-hardcourt-jordan-holding-court-gold/j8-grant-hillmichael-jordan-3150636
p111
asg17
g18
sg19
(lp112
Vhttp://img.beckett.com/images/no-image.jpg
p113
asg22
V#J8
p114
sg24
V1998
p115
sg26
g27
sg28
(lp116
VGrant Hill
p117
aVMichael Jordan
p118
assbag1
(g2
g3
Ntp119
Rp120
(dp121
g7
(dp122
g9
V1998-99 Fleer Playmakers Theatre #7 Grant Hill
p123
sg11
I100
sg12
VFleer Playmakers Theatre
p124
sg14
(lp125
Vhttp://www.beckett.com/basketball/1998-99/fleer-playmakers-theatre/7-grant-hill-3168308
p126
asg17
g18
sg19
(lp127
Vhttp://img.beckett.com/images/no-image.jpg
p128
asg22
V#7
p129
sg24
V1998-99
p130
sg26
g27
sg28
(lp131
VGrant Hill
p132
assbag1
(g2
g3
Ntp133
Rp134
(dp135
g7
(dp136
g9
V1998-99 Metal Universe Grant Hill Blowup #1 Grant Hill
p137
sg11
I10000
sg12
VMetal Universe Grant Hill Blowup
p138
sg14
(lp139
Vhttp://www.beckett.com/basketball/1998-99/metal-universe-grant-hill-blowup/1-grant-hill-3172533
p140
asg17
g18
sg19
(lp141
Vhttp://img.beckett.com/images/no-image.jpg
p142
asg22
V#1
p143
sg24
V1998-99
p144
sg26
g27
sg28
(lp145
VGrant Hill
p146
assbag1
(g2
g3
Ntp147
Rp148
(dp149
g7
(dp150
g9
V1998-99 SPx Finite #13 Jerry Stackhouse
p151
sg11
I10000
sg12
VSPx Finite
p152
sg14
(lp153
Vhttp://www.beckett.com/basketball/1998-99/spx-finite/13-jerry-stackhouse-3163289
p154
asg17
g18
sg19
(lp155
Vhttp://img.beckett.com/images/items_stock/185226/3163241/3163289/front_old.jpg
p156
asg22
V#13
p157
sg24
V1998-99
p158
sg26
g27
sg28
(lp159
VJerry Stackhouse
p160
assbag1
(g2
g3
Ntp161
Rp162
(dp163
g7
(dp164
g9
V1998-99 SPx Finite #63 Brian Williams
p165
sg11
I10000
sg12
VSPx Finite
p166
sg14
(lp167
Vhttp://www.beckett.com/basketball/1998-99/spx-finite/63-brian-williams-3163339
p168
asg17
g18
sg19
(lp169
Vhttp://img.beckett.com/images/items_stock/185226/3163241/3163339/front.jpg
p170
asg22
V#63
p171
sg24
V1998-99
p172
sg26
g27
sg28
(lp173
VBrian Williams
p174
assbag1
(g2
g3
Ntp175
Rp176
(dp177
g7
(dp178
g9
V1998-99 SPx Finite #77 Grant Hill
p179
sg11
I10000
sg12
VSPx Finite
p180
sg14
(lp181
Vhttp://www.beckett.com/basketball/1998-99/spx-finite/77-grant-hill-3163353
p182
asg17
g18
sg19
(lp183
Vhttp://img.beckett.com/images/items_stock/185226/3163241/3163353/front.jpg
p184
asg22
V#77
p185
sg24
V1998-99
p186
sg26
g27
sg28
(lp187
VGrant Hill
p188
assbag1
(g2
g3
Ntp189
Rp190
(dp191
g7
(dp192
g9
V1998-99 SPx Finite #94 Grant Hill SP
p193
sg11
I5400
sg12
VSPx Finite
p194
sg14
(lp195
Vhttp://www.beckett.com/basketball/1998-99/spx-finite/94-grant-hill-sp-3163370
p196
asg17
g18
sg19
(lp197
Vhttp://img.beckett.com/images/items_stock/185226/3163241/3163370/front.jpg
p198
asg22
V#94
p199
sg24
V1998-99
p200
sS'subsetName'
p201
VSP
p202
sg26
g27
sg28
(lp203
VGrant Hill
p204
assbag1
(g2
g3
Ntp205
Rp206
(dp207
g7
(dp208
g9
V1998-99 SPx Finite #122 Brian Williams SP
p209
sg11
I5400
sg12
VSPx Finite
p210
sg14
(lp211
Vhttp://www.beckett.com/basketball/1998-99/spx-finite/122-brian-williams-sp-3163398
p212
asg17
g18
sg19
(lp213
Vhttp://img.beckett.com/images/items_stock/185226/3163241/3163398/front.jpg
p214
asg22
V#122
p215
sg24
V1998-99
p216
sg201
VSP
p217
sg26
g27
sg28
(lp218
VBrian Williams
p219
assbag1
(g2
g3
Ntp220
Rp221
(dp222
g7
(dp223
g9
V1998-99 SPx Finite #207 Grant Hill FE
p224
sg11
I1770
sg12
VSPx Finite
p225
sg14
(lp226
Vhttp://www.beckett.com/basketball/1998-99/spx-finite/207-grant-hill-fe-3163483
p227
asg17
g18
sg19
(lp228
Vhttp://img.beckett.com/images/items_stock/185226/3163241/3163483/front.jpg
p229
asg22
V#207
p230
sg24
V1998-99
p231
sg201
VFE
p232
sg26
g27
sg28
(lp233
VGrant Hill
p234
assbag1
(g2
g3
Ntp235
Rp236
(dp237
g7
(dp238
g9
V1998-99 Black Diamond Double Diamond #33 Grant Hill
p239
sg11
I3000
sg12
VBlack Diamond Double Diamond
p240
sg14
(lp241
Vhttp://www.beckett.com/basketball/1998-99/black-diamond-double-diamond/33-grant-hill-3171940
p242
asg17
g18
sg19
(lp243
Vhttp://img.beckett.com/images/items_stock/185226/3171898/3171940/front.jpg
p244
asg22
V#33
p245
sg24
V1998-99
p246
sg26
g27
sg28
(lp247
VGrant Hill
p248
assbag1
(g2
g3
Ntp249
Rp250
(dp251
g7
(dp252
g9
V1998-99 Black Diamond Double Diamond #34 Jerry Stackhouse
p253
sg11
I3000
sg12
VBlack Diamond Double Diamond
p254
sg14
(lp255
Vhttp://www.beckett.com/basketball/1998-99/black-diamond-double-diamond/34-jerry-stackhouse-3171941
p256
asg17
g18
sg19
(lp257
Vhttp://img.beckett.com/images/items_stock/185226/3171898/3171941/front.jpg
p258
asg22
V#34
p259
sg24
V1998-99
p260
sg26
g27
sg28
(lp261
VJerry Stackhouse
p262
assbag1
(g2
g3
Ntp263
Rp264
(dp265
g7
(dp266
g9
V1998-99 Black Diamond Double Diamond #35 Bison Dele
p267
sg11
I3000
sg12
VBlack Diamond Double Diamond
p268
sg14
(lp269
Vhttp://www.beckett.com/basketball/1998-99/black-diamond-double-diamond/35-bison-dele-3171942
p270
asg17
g18
sg19
(lp271
Vhttp://img.beckett.com/images/items_stock/185226/3171898/3171942/front.jpg
p272
asg22
V#35
p273
sg24
V1998-99
p274
sg26
g27
sg28
(lp275
VBison Dele
p276
assbag1
(g2
g3
Ntp277
Rp278
(dp279
g7
(dp280
g9
V1998-99 Black Diamond Triple Diamond #33 Grant Hill
p281
sg11
I1500
sg12
VBlack Diamond Triple Diamond
p282
sg14
(lp283
Vhttp://www.beckett.com/basketball/1998-99/black-diamond-triple-diamond/33-grant-hill-3172070
p284
asg17
g18
sg19
(lp285
Vhttp://img.beckett.com/images/items_stock/185226/3172028/3172070/front.jpg
p286
asg22
V#33
p287
sg24
V1998-99
p288
sg26
g27
sg28
(lp289
VGrant Hill
p290
assbag1
(g2
g3
Ntp291
Rp292
(dp293
g7
(dp294
g9
V1998-99 Black Diamond Triple Diamond #34 Jerry Stackhouse
p295
sg11
I1500
sg12
VBlack Diamond Triple Diamond
p296
sg14
(lp297
Vhttp://www.beckett.com/basketball/1998-99/black-diamond-triple-diamond/34-jerry-stackhouse-3172071
p298
asg17
g18
sg19
(lp299
Vhttp://img.beckett.com/images/items_stock/185226/3172028/3172071/front.jpg
p300
asg22
V#34
p301
sg24
V1998-99
p302
sg26
g27
sg28
(lp303
VJerry Stackhouse
p304
assbag1
(g2
g3
Ntp305
Rp306
(dp307
g7
(dp308
g9
V1998-99 Black Diamond Triple Diamond #35 Bison Dele
p309
sg11
I1500
sg12
VBlack Diamond Triple Diamond
p310
sg14
(lp311
Vhttp://www.beckett.com/basketball/1998-99/black-diamond-triple-diamond/35-bison-dele-3172072
p312
asg17
g18
sg19
(lp313
Vhttp://img.beckett.com/images/items_stock/185226/3172028/3172072/front.jpg
p314
asg22
V#35
p315
sg24
V1998-99
p316
sg26
g27
sg28
(lp317
VBison Dele
p318
assbag1
(g2
g3
Ntp319
Rp320
(dp321
g7
(dp322
g9
V1998-99 Black Diamond Quadruple Diamond #33 Grant Hill
p323
sg11
I150
sg12
VBlack Diamond Quadruple Diamond
p324
sg14
(lp325
Vhttp://www.beckett.com/basketball/1998-99/black-diamond-quadruple-diamond/33-grant-hill-3170741
p326
asg17
g18
sg19
(lp327
Vhttp://img.beckett.com/images/no-image.jpg
p328
asg22
V#33
p329
sg24
V1998-99
p330
sg26
g27
sg28
(lp331
VGrant Hill
p332
assbag1
(g2
g3
Ntp333
Rp334
(dp335
g7
(dp336
g9
V1998-99 Black Diamond Quadruple Diamond #34 Jerry Stackhouse
p337
sg11
I150
sg12
VBlack Diamond Quadruple Diamond
p338
sg14
(lp339
Vhttp://www.beckett.com/basketball/1998-99/black-diamond-quadruple-diamond/34-jerry-stackhouse-3170742
p340
asg17
g18
sg19
(lp341
Vhttp://img.beckett.com/images/items_stock/185226/3170697/3170742/front.jpg
p342
asg22
V#34
p343
sg24
V1998-99
p344
sg26
g27
sg28
(lp345
VJerry Stackhouse
p346
assbag1
(g2
g3
Ntp347
Rp348
(dp349
g7
(dp350
g9
V1998-99 Black Diamond Quadruple Diamond #35 Bison Dele
p351
sg11
I150
sg12
VBlack Diamond Quadruple Diamond
p352
sg14
(lp353
Vhttp://www.beckett.com/basketball/1998-99/black-diamond-quadruple-diamond/35-bison-dele-3170743
p354
asg17
g18
sg19
(lp355
Vhttp://img.beckett.com/images/no-image.jpg
p356
asg22
V#35
p357
sg24
V1998-99
p358
sg26
g27
sg28
(lp359
VBison Dele
p360
assbag1
(g2
g3
Ntp361
Rp362
(dp363
g7
(dp364
g9
V1998-99 Bowman's Best Refractors #20 Joe Dumars
p365
sg11
I400
sg12
VBowman's Best Refractors
p366
sg14
(lp367
Vhttp://www.beckett.com/basketball/1998-99/bowmans-best-refractors/20-joe-dumars-3171179
p368
asg17
g18
sg19
(lp369
Vhttp://img.beckett.com/images/items_stock/185226/3171150/3171179/front.jpg
p370
asg22
V#20
p371
sg24
V1998-99
p372
sg26
g27
sg28
(lp373
VJoe Dumars
p374
assbag1
(g2
g3
Ntp375
Rp376
(dp377
g7
(dp378
g9
V1998-99 Bowman's Best Refractors #78 Jerry Stackhouse
p379
sg11
I400
sg12
VBowman's Best Refractors
p380
sg14
(lp381
Vhttp://www.beckett.com/basketball/1998-99/bowmans-best-refractors/78-jerry-stackhouse-3171237
p382
asg17
g18
sg19
(lp383
Vhttp://img.beckett.com/images/items_stock/185226/3171150/3171237/front.jpg
p384
asg22
V#78
p385
sg24
V1998-99
p386
sg26
g27
sg28
(lp387
VJerry Stackhouse
p388
assbag1
(g2
g3
Ntp389
Rp390
(dp391
g7
(dp392
g9
V1998-99 Bowman's Best Refractors #94 Bison Dele
p393
sg11
I400
sg12
VBowman's Best Refractors
p394
sg14
(lp395
Vhttp://www.beckett.com/basketball/1998-99/bowmans-best-refractors/94-bison-dele-3171253
p396
asg17
g18
sg19
(lp397
Vhttp://img.beckett.com/images/no-image.jpg
p398
asg22
V#94
p399
sg24
V1998-99
p400
sg26
g27
sg28
(lp401
VBison Dele
p402
assbag1
(g2
g3
Ntp403
Rp404
(dp405
g7
(dp406
g9
V1998-99 Bowman's Best Refractors #99 Grant Hill
p407
sg11
I400
sg12
VBowman's Best Refractors
p408
sg14
(lp409
Vhttp://www.beckett.com/basketball/1998-99/bowmans-best-refractors/99-grant-hill-3171258
p410
asg17
g18
sg19
(lp411
Vhttp://img.beckett.com/images/items_stock/185226/3171150/3171258/front.jpg
p412
asg22
V#99
p413
sg24
V1998-99
p414
sg26
g27
sg28
(lp415
VGrant Hill
p416
assbag1
(g2
g3
Ntp417
Rp418
(dp419
g7
(dp420
g9
V1998-99 Bowman's Best Atomic Refractors #20 Joe Dumars
p421
sg11
I100
sg12
VBowman's Best Atomic Refractors
p422
sg14
(lp423
Vhttp://www.beckett.com/basketball/1998-99/bowmans-best-atomic-refractors/20-joe-dumars-3171314
p424
asg17
g18
sg19
(lp425
Vhttp://img.beckett.com/images/no-image.jpg
p426
asg22
V#20
p427
sg24
V1998-99
p428
sg26
g27
sg28
(lp429
VJoe Dumars
p430
assbag1
(g2
g3
Ntp431
Rp432
(dp433
g7
(dp434
g9
V1998-99 Bowman's Best Atomic Refractors #78 Jerry Stackhouse
p435
sg11
I100
sg12
VBowman's Best Atomic Refractors
p436
sg14
(lp437
Vhttp://www.beckett.com/basketball/1998-99/bowmans-best-atomic-refractors/78-jerry-stackhouse-3171372
p438
asg17
g18
sg19
(lp439
Vhttp://img.beckett.com/images/no-image.jpg
p440
asg22
V#78
p441
sg24
V1998-99
p442
sg26
g27
sg28
(lp443
VJerry Stackhouse
p444
assbag1
(g2
g3
Ntp445
Rp446
(dp447
g7
(dp448
g9
V1998-99 Bowman's Best Atomic Refractors #94 Bison Dele
p449
sg11
I100
sg12
VBowman's Best Atomic Refractors
p450
sg14
(lp451
Vhttp://www.beckett.com/basketball/1998-99/bowmans-best-atomic-refractors/94-bison-dele-3171388
p452
asg17
g18
sg19
(lp453
Vhttp://img.beckett.com/images/no-image.jpg
p454
asg22
V#94
p455
sg24
V1998-99
p456
sg26
g27
sg28
(lp457
VBison Dele
p458
assbag1
(g2
g3
Ntp459
Rp460
(dp461
g7
(dp462
g9
V1998-99 Bowman's Best Atomic Refractors #99 Grant Hill
p463
sg11
I100
sg12
VBowman's Best Atomic Refractors
p464
sg14
(lp465
Vhttp://www.beckett.com/basketball/1998-99/bowmans-best-atomic-refractors/99-grant-hill-3171393
p466
asg17
g18
sg19
(lp467
Vhttp://img.beckett.com/images/no-image.jpg
p468
asg22
V#99
p469
sg24
V1998-99
p470
sg26
g27
sg28
(lp471
VGrant Hill
p472
assbag1
(g2
g3
Ntp473
Rp474
(dp475
g7
(dp476
g9
V1998-99 Flair Showcase Row 1 #5 Grant Hill
p477
sg11
I1500
sg12
VFlair Showcase Row 1
p478
sg14
(lp479
Vhttp://www.beckett.com/basketball/1998-99/flair-showcase-row-1/5-grant-hill-3167628
p480
asg17
g18
sg19
(lp481
Vhttp://img.beckett.com/images/no-image.jpg
p482
asg22
V#5
p483
sg24
V1998-99
p484
sg26
g27
sg28
(lp485
VGrant Hill
p486
assbag1
(g2
g3
Ntp487
Rp488
(dp489
g7
(dp490
g9
V1998-99 Flair Showcase Row 1 #90 Joe Dumars
p491
sg11
I6000
sg12
VFlair Showcase Row 1
p492
sg14
(lp493
Vhttp://www.beckett.com/basketball/1998-99/flair-showcase-row-1/90-joe-dumars-3167713
p494
asg17
g18
sg19
(lp495
Vhttp://img.beckett.com/images/items_stock/185226/3167600/3167713/front.jpg
p496
asg22
V#90
p497
sg24
V1998-99
p498
sg26
g27
sg28
(lp499
VJoe Dumars
p500
assbag1
(g2
g3
Ntp501
Rp502
(dp503
g7
(dp504
g9
V1998-99 Flair Showcase Legacy Collection Row 3 #5 Grant Hill
p505
sg11
I99
sg12
VFlair Showcase Legacy Collection Row 3
p506
sg14
(lp507
Vhttp://www.beckett.com/basketball/1998-99/flair-showcase-legacy-collection-row-3/5-grant-hill-3172795
p508
asg17
g18
sg19
(lp509
Vhttp://img.beckett.com/images/no-image.jpg
p510
asg22
V#5
p511
sg24
V1998-99
p512
sg26
g27
sg28
(lp513
VGrant Hill
p514
assbag1
(g2
g3
Ntp515
Rp516
(dp517
g7
(dp518
g9
V1998-99 Flair Showcase Legacy Collection Row 3 #90 Joe Dumars
p519
sg11
I99
sg12
VFlair Showcase Legacy Collection Row 3
p520
sg14
(lp521
Vhttp://www.beckett.com/basketball/1998-99/flair-showcase-legacy-collection-row-3/90-joe-dumars-3172880
p522
asg17
g18
sg19
(lp523
Vhttp://img.beckett.com/images/items_stock/185226/3172778/3172880/front.jpg
p524
asg22
V#90
p525
sg24
V1998-99
p526
sg26
g27
sg28
(lp527
VJoe Dumars
p528
assbag1
(g2
g3
Ntp529
Rp530
(dp531
g7
(dp532
g9
V1998-99 Fleer Classic '61 #33 Grant Hill
p533
sg11
I61
sg12
VFleer Classic '61
p534
sg14
(lp535
Vhttp://www.beckett.com/basketball/1998-99/fleer-classic-61/33-grant-hill-3168127
p536
asg17
g18
sg19
(lp537
Vhttp://img.beckett.com/images/no-image.jpg
p538
asg22
V#33
p539
sg24
V1998-99
p540
sg26
g27
sg28
(lp541
VGrant Hill
p542
assbag1
(g2
g3
Ntp543
Rp544
(dp545
g7
(dp546
g9
V1998-99 Fleer Classic '61 #63 Brian Williams
p547
sg11
I61
sg12
VFleer Classic '61
p548
sg14
(lp549
Vhttp://www.beckett.com/basketball/1998-99/fleer-classic-61/63-brian-williams-3168157
p550
asg17
g18
sg19
(lp551
Vhttp://img.beckett.com/images/no-image.jpg
p552
asg22
V#63
p553
sg24
V1998-99
p554
sg26
g27
sg28
(lp555
VBrian Williams
p556
assbag1
(g2
g3
Ntp557
Rp558
(dp559
g7
(dp560
g9
V1998-99 Fleer Classic '61 #95 Lindsey Hunter
p561
sg11
I61
sg12
VFleer Classic '61
p562
sg14
(lp563
Vhttp://www.beckett.com/basketball/1998-99/fleer-classic-61/95-lindsey-hunter-3168189
p564
asg17
g18
sg19
(lp565
Vhttp://img.beckett.com/images/no-image.jpg
p566
asg22
V#95
p567
sg24
V1998-99
p568
sg26
g27
sg28
(lp569
VLindsey Hunter
p570
assbag1
(g2
g3
Ntp571
Rp572
(dp573
g7
(dp574
g9
V1998-99 Fleer Classic '61 #110 Jerome Williams
p575
sg11
I61
sg12
VFleer Classic '61
p576
sg14
(lp577
Vhttp://www.beckett.com/basketball/1998-99/fleer-classic-61/110-jerome-williams-3168204
p578
asg17
g18
sg19
(lp579
Vhttp://img.beckett.com/images/no-image.jpg
p580
asg22
V#110
p581
sg24
V1998-99
p582
sg26
g27
sg28
(lp583
VJerome Williams
p584
assbag1
(g2
g3
Ntp585
Rp586
(dp587
g7
(dp588
g9
V1998-99 Fleer Brilliants 24-Karat Gold #26 Joe Dumars
p589
sg11
I24
sg12
VFleer Brilliants 24-Karat Gold
p590
sg14
(lp591
Vhttp://www.beckett.com/basketball/1998-99/fleer-brilliants-24-karat-gold/26-joe-dumars-3168527
p592
asg17
g18
sg19
(lp593
Vhttp://img.beckett.com/images/no-image.jpg
p594
asg22
V#26
p595
sg24
V1998-99
p596
sg26
g27
sg28
(lp597
VJoe Dumars
p598
assbag1
(g2
g3
Ntp599
Rp600
(dp601
g7
(dp602
g9
V1998-99 Fleer Brilliants 24-Karat Gold #50 Grant Hill
p603
sg11
I24
sg12
VFleer Brilliants 24-Karat Gold
p604
sg14
(lp605
Vhttp://www.beckett.com/basketball/1998-99/fleer-brilliants-24-karat-gold/50-grant-hill-3168551
p606
asg17
g18
sg19
(lp607
Vhttp://img.beckett.com/images/no-image.jpg
p608
asg22
V#50
p609
sg24
V1998-99
p610
sg26
g27
sg28
(lp611
VGrant Hill
p612
assbag1
(g2
g3
Ntp613
Rp614
(dp615
g7
(dp616
g9
V1998-99 Fleer Brilliants 24-Karat Gold #59 Lindsey Hunter
p617
sg11
I24
sg12
VFleer Brilliants 24-Karat Gold
p618
sg14
(lp619
Vhttp://www.beckett.com/basketball/1998-99/fleer-brilliants-24-karat-gold/59-lindsey-hunter-3168560
p620
asg17
g18
sg19
(lp621
Vhttp://img.beckett.com/images/no-image.jpg
p622
asg22
V#59
p623
sg24
V1998-99
p624
sg26
g27
sg28
(lp625
VLindsey Hunter
p626
assbag1
(g2
g3
Ntp627
Rp628
(dp629
g7
(dp630
g9
V1998-99 Fleer Brilliants 24-Karat Gold #125 Korleone Young
p631
sg11
I24
sg12
VFleer Brilliants 24-Karat Gold
p632
sg14
(lp633
Vhttp://www.beckett.com/basketball/1998-99/fleer-brilliants-24-karat-gold/125-korleone-young-3168626
p634
asg17
g18
sg19
(lp635
Vhttp://img.beckett.com/images/no-image.jpg
p636
asg22
V#125
p637
sg24
V1998-99
p638
sg26
g27
sg28
(lp639
VKorleone Young
p640
assbag1
(g2
g3
Ntp641
Rp642
(dp643
g7
(dp644
g9
V1998-99 Fleer Brilliants Gold #26 Joe Dumars
p645
sg11
I99
sg12
VFleer Brilliants Gold
p646
sg14
(lp647
Vhttp://www.beckett.com/basketball/1998-99/fleer-brilliants-gold/26-joe-dumars-3168799
p648
asg17
g18
sg19
(lp649
Vhttp://img.beckett.com/images/no-image.jpg
p650
asg22
V#26
p651
sg24
V1998-99
p652
sg26
g27
sg28
(lp653
VJoe Dumars
p654
assbag1
(g2
g3
Ntp655
Rp656
(dp657
g7
(dp658
g9
V1998-99 Fleer Brilliants Gold #50 Grant Hill
p659
sg11
I99
sg12
VFleer Brilliants Gold
p660
sg14
(lp661
Vhttp://www.beckett.com/basketball/1998-99/fleer-brilliants-gold/50-grant-hill-3168823
p662
asg17
g18
sg19
(lp663
Vhttp://img.beckett.com/images/no-image.jpg
p664
asg22
V#50
p665
sg24
V1998-99
p666
sg26
g27
sg28
(lp667
VGrant Hill
p668
assbag1
(g2
g3
Ntp669
Rp670
(dp671
g7
(dp672
g9
V1998-99 Fleer Brilliants Gold #59 Lindsey Hunter
p673
sg11
I99
sg12
VFleer Brilliants Gold
p674
sg14
(lp675
Vhttp://www.beckett.com/basketball/1998-99/fleer-brilliants-gold/59-lindsey-hunter-3168832
p676
asg17
g18
sg19
(lp677
Vhttp://img.beckett.com/images/no-image.jpg
p678
asg22
V#59
p679
sg24
V1998-99
p680
sg26
g27
sg28
(lp681
VLindsey Hunter
p682
assbag1
(g2
g3
Ntp683
Rp684
(dp685
g7
(dp686
g9
V1998-99 Fleer Brilliants Gold #125 Korleone Young
p687
sg11
I99
sg12
VFleer Brilliants Gold
p688
sg14
(lp689
Vhttp://www.beckett.com/basketball/1998-99/fleer-brilliants-gold/125-korleone-young-3168898
p690
asg17
g18
sg19
(lp691
Vhttp://img.beckett.com/images/no-image.jpg
p692
asg22
V#125
p693
sg24
V1998-99
p694
sg26
g27
sg28
(lp695
VKorleone Young
p696
assbag1
(g2
g3
Ntp697
Rp698
(dp699
g7
(dp700
g9
V1998-99 Hoops Starting Five #11 Jerome Williams
p701
sg11
I5
sg12
VHoops Starting Five
p702
sg14
(lp703
Vhttp://www.beckett.com/basketball/1998-99/hoops-starting-five/11-jerome-williams-3166517
p704
asg17
g18
sg19
(lp705
Vhttp://img.beckett.com/images/no-image.jpg
p706
asg22
V#11
p707
sg24
V1998-99
p708
sg26
g27
sg28
(lp709
VJerome Williams
p710
assbag1
(g2
g3
Ntp711
Rp712
(dp713
g7
(dp714
g9
V1998-99 Hoops Starting Five #33 Grant Hill
p715
sg11
I5
sg12
VHoops Starting Five
p716
sg14
(lp717
Vhttp://www.beckett.com/basketball/1998-99/hoops-starting-five/33-grant-hill-3166539
p718
asg17
g18
sg19
(lp719
Vhttp://img.beckett.com/images/no-image.jpg
p720
asg22
V#33
p721
sg24
V1998-99
p722
sg26
g27
sg28
(lp723
VGrant Hill
p724
assbag1
(g2
g3
Ntp725
Rp726
(dp727
g7
(dp728
g9
V1998-99 Hoops Starting Five #45 Brian Williams
p729
sg11
I5
sg12
VHoops Starting Five
p730
sg14
(lp731
Vhttp://www.beckett.com/basketball/1998-99/hoops-starting-five/45-brian-williams-3166551
p732
asg17
g18
sg19
(lp733
Vhttp://img.beckett.com/images/no-image.jpg
p734
asg22
V#45
p735
sg24
V1998-99
p736
sg26
g27
sg28
(lp737
VBrian Williams
p738
assbag1
(g2
g3
Ntp739
Rp740
(dp741
g7
(dp742
g9
V1998-99 Hoops Starting Five #74 Scot Pollard
p743
sg11
I5
sg12
VHoops Starting Five
p744
sg14
(lp745
Vhttp://www.beckett.com/basketball/1998-99/hoops-starting-five/74-scot-pollard-3166580
p746
asg17
g18
sg19
(lp747
Vhttp://img.beckett.com/images/no-image.jpg
p748
asg22
V#74
p749
sg24
V1998-99
p750
sg26
g27
sg28
(lp751
VScot Pollard
p752
assbag1
(g2
g3
Ntp753
Rp754
(dp755
g7
(dp756
g9
V1998-99 Hoops Starting Five #120 Lindsey Hunter
p757
sg11
I5
sg12
VHoops Starting Five
p758
sg14
(lp759
Vhttp://www.beckett.com/basketball/1998-99/hoops-starting-five/120-lindsey-hunter-3166626
p760
asg17
g18
sg19
(lp761
Vhttp://img.beckett.com/images/no-image.jpg
p762
asg22
V#120
p763
sg24
V1998-99
p764
sg26
g27
sg28
(lp765
VLindsey Hunter
p766
assbag1
(g2
g3
Ntp767
Rp768
(dp769
g7
(dp770
g9
V1998-99 Hoops Starting Five #162 Jerry Stackhouse SO
p771
sg11
I5
sg12
VHoops Starting Five
p772
sg14
(lp773
Vhttp://www.beckett.com/basketball/1998-99/hoops-starting-five/162-jerry-stackhouse-so-3166668
p774
asg17
g18
sg19
(lp775
Vhttp://img.beckett.com/images/no-image.jpg
p776
asg22
V#162
p777
sg24
V1998-99
p778
sg201
VSO
p779
sg26
g27
sg28
(lp780
VJerry Stackhouse
p781
assbag1
(g2
g3
Ntp782
Rp783
(dp784
g7
(dp785
g9
V1998-99 Hoops Starting Five #165 Grant Hill SO
p786
sg11
I5
sg12
VHoops Starting Five
p787
sg14
(lp788
Vhttp://www.beckett.com/basketball/1998-99/hoops-starting-five/165-grant-hill-so-3166671
p789
asg17
g18
sg19
(lp790
Vhttp://img.beckett.com/images/no-image.jpg
p791
asg22
V#165
p792
sg24
V1998-99
p793
sg201
VSO
p794
sg26
g27
sg28
(lp795
VGrant Hill
p796
assbag1
(g2
g3
Ntp797
Rp798
(dp799
g7
(dp800
g9
V1998-99 Metal Universe Precious Metal Gems #47 Brian Williams
p801
sg11
I50
sg12
VMetal Universe Precious Metal Gems
p802
sg14
(lp803
Vhttp://www.beckett.com/basketball/1998-99/metal-universe-precious-metal-gems/47-brian-williams-3166990
p804
asg17
g18
sg19
(lp805
Vhttp://img.beckett.com/images/no-image.jpg
p806
asg22
V#47
p807
sg24
V1998-99
p808
sg26
g27
sg28
(lp809
VBrian Williams
p810
assbag1
(g2
g3
Ntp811
Rp812
(dp813
g7
(dp814
g9
V1998-99 Metal Universe Precious Metal Gems #50 Grant Hill
p815
sg11
I50
sg12
VMetal Universe Precious Metal Gems
p816
sg14
(lp817
Vhttp://www.beckett.com/basketball/1998-99/metal-universe-precious-metal-gems/50-grant-hill-3166993
p818
asg17
g18
sg19
(lp819
Vhttp://img.beckett.com/images/no-image.jpg
p820
asg22
V#50
p821
sg24
V1998-99
p822
sg26
g27
sg28
(lp823
VGrant Hill
p824
assbag1
(g2
g3
Ntp825
Rp826
(dp827
g7
(dp828
g9
V1998-99 Metal Universe Precious Metal Gems #57 Jerry Stackhouse
p829
sg11
I50
sg12
VMetal Universe Precious Metal Gems
p830
sg14
(lp831
Vhttp://www.beckett.com/basketball/1998-99/metal-universe-precious-metal-gems/57-jerry-stackhouse-3167000
p832
asg17
g18
sg19
(lp833
Vhttp://img.beckett.com/images/no-image.jpg
p834
asg22
V#57
p835
sg24
V1998-99
p836
sg26
g27
sg28
(lp837
VJerry Stackhouse
p838
assbag1
(g2
g3
Ntp839
Rp840
(dp841
g7
(dp842
g9
V1998-99 Metal Universe Precious Metal Gems #62 Joe Dumars
p843
sg11
I50
sg12
VMetal Universe Precious Metal Gems
p844
sg14
(lp845
Vhttp://www.beckett.com/basketball/1998-99/metal-universe-precious-metal-gems/62-joe-dumars-3167005
p846
asg17
g18
sg19
(lp847
Vhttp://img.beckett.com/images/no-image.jpg
p848
asg22
V#62
p849
sg24
V1998-99
p850
sg26
g27
sg28
(lp851
VJoe Dumars
p852
assbag1
(g2
g3
Ntp853
Rp854
(dp855
g7
(dp856
g9
V1998-99 Metal Universe Gem Masters #47 Brian Williams
p857
sg11
I1
sg12
VMetal Universe Gem Masters
p858
sg14
(lp859
Vhttp://www.beckett.com/basketball/1998-99/metal-universe-gem-masters/47-brian-williams-3166859
p860
asg17
g18
sg19
(lp861
Vhttp://img.beckett.com/images/no-image.jpg
p862
asg22
V#47
p863
sg24
V1998-99
p864
sg26
g27
sg28
(lp865
VBrian Williams
p866
assbag1
(g2
g3
Ntp867
Rp868
(dp869
g7
(dp870
g9
V1998-99 Metal Universe Gem Masters #50 Grant Hill
p871
sg11
I1
sg12
VMetal Universe Gem Masters
p872
sg14
(lp873
Vhttp://www.beckett.com/basketball/1998-99/metal-universe-gem-masters/50-grant-hill-3166862
p874
asg17
g18
sg19
(lp875
Vhttp://img.beckett.com/images/no-image.jpg
p876
asg22
V#50
p877
sg24
V1998-99
p878
sg26
g27
sg28
(lp879
VGrant Hill
p880
assbag1
(g2
g3
Ntp881
Rp882
(dp883
g7
(dp884
g9
V1998-99 Metal Universe Gem Masters #57 Jerry Stackhouse
p885
sg11
I1
sg12
VMetal Universe Gem Masters
p886
sg14
(lp887
Vhttp://www.beckett.com/basketball/1998-99/metal-universe-gem-masters/57-jerry-stackhouse-3166869
p888
asg17
g18
sg19
(lp889
Vhttp://img.beckett.com/images/no-image.jpg
p890
asg22
V#57
p891
sg24
V1998-99
p892
sg26
g27
sg28
(lp893
VJerry Stackhouse
p894
assbag1
(g2
g3
Ntp895
Rp896
(dp897
g7
(dp898
g9
V1998-99 Metal Universe Gem Masters #62 Joe Dumars
p899
sg11
I1
sg12
VMetal Universe Gem Masters
p900
sg14
(lp901
Vhttp://www.beckett.com/basketball/1998-99/metal-universe-gem-masters/62-joe-dumars-3166874
p902
asg17
g18
sg19
(lp903
Vhttp://img.beckett.com/images/no-image.jpg
p904
asg22
V#62
p905
sg24
V1998-99
p906
sg26
g27
sg28
(lp907
VJoe Dumars
p908
assbag1
(g2
g3
Ntp909
Rp910
(dp911
g7
(dp912
g9
V1998-99 SkyBox Premium Star Rubies #40 Grant Hill
p913
sg11
I50
sg12
VSkyBox Premium Star Rubies
p914
sg14
(lp915
Vhttp://www.beckett.com/basketball/1998-99/skybox-premium-star-rubies/40-grant-hill-3165145
p916
asg17
g18
sg19
(lp917
Vhttp://img.beckett.com/images/no-image.jpg
p918
asg22
V#40
p919
sg24
V1998-99
p920
sg26
g27
sg28
(lp921
VGrant Hill
p922
assbag1
(g2
g3
Ntp923
Rp924
(dp925
g7
(dp926
g9
V1998-99 SkyBox Premium Star Rubies #47 Jerry Stackhouse
p927
sg11
I50
sg12
VSkyBox Premium Star Rubies
p928
sg14
(lp929
Vhttp://www.beckett.com/basketball/1998-99/skybox-premium-star-rubies/47-jerry-stackhouse-3165152
p930
asg17
g18
sg19
(lp931
Vhttp://img.beckett.com/images/no-image.jpg
p932
asg22
V#47
p933
sg24
V1998-99
p934
sg26
g27
sg28
(lp935
VJerry Stackhouse
p936
assbag1
(g2
g3
Ntp937
Rp938
(dp939
g7
(dp940
g9
V1998-99 SkyBox Premium Star Rubies #51 Joe Dumars
p941
sg11
I50
sg12
VSkyBox Premium Star Rubies
p942
sg14
(lp943
Vhttp://www.beckett.com/basketball/1998-99/skybox-premium-star-rubies/51-joe-dumars-3165156
p944
asg17
g18
sg19
(lp945
Vhttp://img.beckett.com/images/no-image.jpg
p946
asg22
V#51
p947
sg24
V1998-99
p948
sg26
g27
sg28
(lp949
VJoe Dumars
p950
assbag1
(g2
g3
Ntp951
Rp952
(dp953
g7
(dp954
g9
V1998-99 SkyBox Premium Star Rubies #145 Jerome Williams
p955
sg11
I50
sg12
VSkyBox Premium Star Rubies
p956
sg14
(lp957
Vhttp://www.beckett.com/basketball/1998-99/skybox-premium-star-rubies/145-jerome-williams-3165250
p958
asg17
g18
sg19
(lp959
Vhttp://img.beckett.com/images/no-image.jpg
p960
asg22
V#145
p961
sg24
V1998-99
p962
sg26
g27
sg28
(lp963
VJerome Williams
p964
assbag1
(g2
g3
Ntp965
Rp966
(dp967
g7
(dp968
g9
V1998-99 SkyBox Premium Star Rubies #189 Jud Buechler
p969
sg11
I50
sg12
VSkyBox Premium Star Rubies
p970
sg14
(lp971
Vhttp://www.beckett.com/basketball/1998-99/skybox-premium-star-rubies/189-jud-buechler-3165294
p972
asg17
g18
sg19
(lp973
Vhttp://img.beckett.com/images/no-image.jpg
p974
asg22
V#189
p975
sg24
V1998-99
p976
sg26
g27
sg28
(lp977
VJud Buechler
p978
assbag1
(g2
g3
Ntp979
Rp980
(dp981
g7
(dp982
g9
V1998-99 SkyBox Premium Star Rubies #208 Grant Hill NF
p983
sg11
I50
sg12
VSkyBox Premium Star Rubies
p984
sg14
(lp985
Vhttp://www.beckett.com/basketball/1998-99/skybox-premium-star-rubies/208-grant-hill-nf-3165313
p986
asg17
g18
sg19
(lp987
Vhttp://img.beckett.com/images/no-image.jpg
p988
asg22
V#208
p989
sg24
V1998-99
p990
sg201
VNF
p991
sg26
g27
sg28
(lp992
VGrant Hill
p993
assbag1
(g2
g3
Ntp994
Rp995
(dp996
g7
(dp997
g9
V1998-99 SkyBox Thunder Rave #13 Brian Williams
p998
sg11
I150
sg12
VSkyBox Thunder Rave
p999
sg14
(lp1000
Vhttp://www.beckett.com/basketball/1998-99/skybox-thunder-rave/13-brian-williams-3166051
p1001
asg17
g18
sg19
(lp1002
Vhttp://img.beckett.com/images/no-image.jpg
p1003
asg22
V#13
p1004
sg24
V1998-99
p1005
sg26
g27
sg28
(lp1006
VBrian Williams
p1007
assbag1
(g2
g3
Ntp1008
Rp1009
(dp1010
g7
(dp1011
g9
V1998-99 SkyBox Thunder Rave #57 Jerome Williams
p1012
sg11
I150
sg12
VSkyBox Thunder Rave
p1013
sg14
(lp1014
Vhttp://www.beckett.com/basketball/1998-99/skybox-thunder-rave/57-jerome-williams-3166095
p1015
asg17
g18
sg19
(lp1016
Vhttp://img.beckett.com/images/no-image.jpg
p1017
asg22
V#57
p1018
sg24
V1998-99
p1019
sg26
g27
sg28
(lp1020
VJerome Williams
p1021
assbag1
(g2
g3
Ntp1022
Rp1023
(dp1024
g7
(dp1025
g9
V1998-99 SkyBox Thunder Rave #77 Lindsey Hunter
p1026
sg11
I150
sg12
VSkyBox Thunder Rave
p1027
sg14
(lp1028
Vhttp://www.beckett.com/basketball/1998-99/skybox-thunder-rave/77-lindsey-hunter-3166115
p1029
asg17
g18
sg19
(lp1030
Vhttp://img.beckett.com/images/no-image.jpg
p1031
asg22
V#77
p1032
sg24
V1998-99
p1033
sg26
g27
sg28
(lp1034
VLindsey Hunter
p1035
assbag1
(g2
g3
Ntp1036
Rp1037
(dp1038
g7
(dp1039
g9
V1998-99 SkyBox Thunder Rave #113 Grant Hill
p1040
sg11
I150
sg12
VSkyBox Thunder Rave
p1041
sg14
(lp1042
Vhttp://www.beckett.com/basketball/1998-99/skybox-thunder-rave/113-grant-hill-3166151
p1043
asg17
g18
sg19
(lp1044
Vhttp://img.beckett.com/images/no-image.jpg
p1045
asg22
V#113
p1046
sg24
V1998-99
p1047
sg26
g27
sg28
(lp1048
VGrant Hill
p1049
assbag1
(g2
g3
Ntp1050
Rp1051
(dp1052
g7
(dp1053
g9
V1998-99 SkyBox Thunder Super Rave #13 Brian Williams
p1054
sg11
I25
sg12
VSkyBox Thunder Super Rave
p1055
sg14
(lp1056
Vhttp://www.beckett.com/basketball/1998-99/skybox-thunder-super-rave/13-brian-williams-3162703
p1057
asg17
g18
sg19
(lp1058
Vhttp://img.beckett.com/images/no-image.jpg
p1059
asg22
V#13
p1060
sg24
V1998-99
p1061
sg26
g27
sg28
(lp1062
VBrian Williams
p1063
assbag1
(g2
g3
Ntp1064
Rp1065
(dp1066
g7
(dp1067
g9
V1998-99 SkyBox Thunder Super Rave #57 Jerome Williams
p1068
sg11
I25
sg12
VSkyBox Thunder Super Rave
p1069
sg14
(lp1070
Vhttp://www.beckett.com/basketball/1998-99/skybox-thunder-super-rave/57-jerome-williams-3162747
p1071
asg17
g18
sg19
(lp1072
Vhttp://img.beckett.com/images/no-image.jpg
p1073
asg22
V#57
p1074
sg24
V1998-99
p1075
sg26
g27
sg28
(lp1076
VJerome Williams
p1077
assbag1
(g2
g3
Ntp1078
Rp1079
(dp1080
g7
(dp1081
g9
V1998-99 SkyBox Thunder Super Rave #77 Lindsey Hunter
p1082
sg11
I25
sg12
VSkyBox Thunder Super Rave
p1083
sg14
(lp1084
Vhttp://www.beckett.com/basketball/1998-99/skybox-thunder-super-rave/77-lindsey-hunter-3162767
p1085
asg17
g18
sg19
(lp1086
Vhttp://img.beckett.com/images/no-image.jpg
p1087
asg22
V#77
p1088
sg24
V1998-99
p1089
sg26
g27
sg28
(lp1090
VLindsey Hunter
p1091
assbag1
(g2
g3
Ntp1092
Rp1093
(dp1094
g7
(dp1095
g9
V1998-99 SkyBox Thunder Super Rave #113 Grant Hill
p1096
sg11
I25
sg12
VSkyBox Thunder Super Rave
p1097
sg14
(lp1098
Vhttp://www.beckett.com/basketball/1998-99/skybox-thunder-super-rave/113-grant-hill-3162803
p1099
asg17
g18
sg19
(lp1100
Vhttp://img.beckett.com/images/no-image.jpg
p1101
asg22
V#113
p1102
sg24
V1998-99
p1103
sg26
g27
sg28
(lp1104
VGrant Hill
p1105
assbag1
(g2
g3
Ntp1106
Rp1107
(dp1108
g7
(dp1109
g9
V1998-99 SPx Finite Extreme #13 Jerry Stackhouse
p1110
sg11
I1
sg12
VSPx Finite Extreme
p1111
sg14
(lp1112
Vhttp://www.beckett.com/basketball/1998-99/spx-finite-extreme/13-jerry-stackhouse-3163535
p1113
asg17
g18
sg19
(lp1114
Vhttp://img.beckett.com/images/no-image.jpg
p1115
asg22
V#13
p1116
sg24
V1998-99
p1117
sg26
g27
sg28
(lp1118
VJerry Stackhouse
p1119
assbag1
(g2
g3
Ntp1120
Rp1121
(dp1122
g7
(dp1123
g9
V1998-99 SPx Finite Extreme #63 Brian Williams
p1124
sg11
I1
sg12
VSPx Finite Extreme
p1125
sg14
(lp1126
Vhttp://www.beckett.com/basketball/1998-99/spx-finite-extreme/63-brian-williams-3163585
p1127
asg17
g18
sg19
(lp1128
Vhttp://img.beckett.com/images/no-image.jpg
p1129
asg22
V#63
p1130
sg24
V1998-99
p1131
sg26
g27
sg28
(lp1132
VBrian Williams
p1133
assbag1
(g2
g3
Ntp1134
Rp1135
(dp1136
g7
(dp1137
g9
V1998-99 SPx Finite Extreme #77 Grant Hill
p1138
sg11
I1
sg12
VSPx Finite Extreme
p1139
sg14
(lp1140
Vhttp://www.beckett.com/basketball/1998-99/spx-finite-extreme/77-grant-hill-3163599
p1141
asg17
g18
sg19
(lp1142
Vhttp://img.beckett.com/images/no-image.jpg
p1143
asg22
V#77
p1144
sg24
V1998-99
p1145
sg26
g27
sg28
(lp1146
VGrant Hill
p1147
assbag1
(g2
g3
Ntp1148
Rp1149
(dp1150
g7
(dp1151
g9
V1998-99 SPx Finite Radiance #13 Jerry Stackhouse
p1152
sg11
I5000
sg12
VSPx Finite Radiance
p1153
sg14
(lp1154
Vhttp://www.beckett.com/basketball/1998-99/spx-finite-radiance/13-jerry-stackhouse-3163663
p1155
asg17
g18
sg19
(lp1156
Vhttp://img.beckett.com/images/items_stock/185226/3163613/3163663/front.jpg
p1157
asg22
V#13
p1158
sg24
V1998-99
p1159
sg26
g27
sg28
(lp1160
VJerry Stackhouse
p1161
assbag1
(g2
g3
Ntp1162
Rp1163
(dp1164
g7
(dp1165
g9
V1998-99 SPx Finite Radiance #63 Brian Williams
p1166
sg11
I5000
sg12
VSPx Finite Radiance
p1167
sg14
(lp1168
Vhttp://www.beckett.com/basketball/1998-99/spx-finite-radiance/63-brian-williams-3163713
p1169
asg17
g18
sg19
(lp1170
Vhttp://img.beckett.com/images/items_stock/185226/3163613/3163713/front.jpg
p1171
asg22
V#63
p1172
sg24
V1998-99
p1173
sg26
g27
sg28
(lp1174
VBrian Williams
p1175
assbag1
(g2
g3
Ntp1176
Rp1177
(dp1178
g7
(dp1179
g9
V1998-99 SPx Finite Radiance #77 Grant Hill
p1180
sg11
I5000
sg12
VSPx Finite Radiance
p1181
sg14
(lp1182
Vhttp://www.beckett.com/basketball/1998-99/spx-finite-radiance/77-grant-hill-3163727
p1183
asg17
g18
sg19
(lp1184
Vhttp://img.beckett.com/images/items_stock/185226/3163613/3163727/front.jpg
p1185
asg22
V#77
p1186
sg24
V1998-99
p1187
sg26
g27
sg28
(lp1188
VGrant Hill
p1189
assbag1
(g2
g3
Ntp1190
Rp1191
(dp1192
g7
(dp1193
g9
V1998-99 SPx Finite Radiance #94 Grant Hill SP
p1194
sg11
I2700
sg12
VSPx Finite Radiance
p1195
sg14
(lp1196
Vhttp://www.beckett.com/basketball/1998-99/spx-finite-radiance/94-grant-hill-sp-3163744
p1197
asg17
g18
sg19
(lp1198
Vhttp://img.beckett.com/images/items_stock/185226/3163613/3163744/front.jpg
p1199
asg22
V#94
p1200
sg24
V1998-99
p1201
sg201
VSP
p1202
sg26
g27
sg28
(lp1203
VGrant Hill
p1204
assbag1
(g2
g3
Ntp1205
Rp1206
(dp1207
g7
(dp1208
g9
V1998-99 SPx Finite Radiance #122 Brian Williams SP
p1209
sg11
I2700
sg12
VSPx Finite Radiance
p1210
sg14
(lp1211
Vhttp://www.beckett.com/basketball/1998-99/spx-finite-radiance/122-brian-williams-sp-3163772
p1212
asg17
g18
sg19
(lp1213
Vhttp://img.beckett.com/images/items_stock/185226/3163613/3163772/front.jpg
p1214
asg22
V#122
p1215
sg24
V1998-99
p1216
sg201
VSP
p1217
sg26
g27
sg28
(lp1218
VBrian Williams
p1219
assbag1
(g2
g3
Ntp1220
Rp1221
(dp1222
g7
(dp1223
g9
V1998-99 SPx Finite Radiance #207 Grant Hill FE
p1224
sg11
I590
sg12
VSPx Finite Radiance
p1225
sg14
(lp1226
Vhttp://www.beckett.com/basketball/1998-99/spx-finite-radiance/207-grant-hill-fe-3163857
p1227
asg17
g18
sg19
(lp1228
Vhttp://img.beckett.com/images/items_stock/185226/3163613/3163857/front.jpg
p1229
asg22
V#207
p1230
sg24
V1998-99
p1231
sg201
VFE
p1232
sg26
g27
sg28
(lp1233
VGrant Hill
p1234
assbag1
(g2
g3
Ntp1235
Rp1236
(dp1237
g7
(dp1238
g9
V1998-99 SPx Finite Spectrum #13 Jerry Stackhouse
p1239
sg11
I350
sg12
VSPx Finite Spectrum
p1240
sg14
(lp1241
Vhttp://www.beckett.com/basketball/1998-99/spx-finite-spectrum/13-jerry-stackhouse-3163941
p1242
asg17
g18
sg19
(lp1243
Vhttp://img.beckett.com/images/items_stock/185226/3163891/3163941/front.jpg
p1244
asg22
V#13
p1245
sg24
V1998-99
p1246
sg26
g27
sg28
(lp1247
VJerry Stackhouse
p1248
assbag1
(g2
g3
Ntp1249
Rp1250
(dp1251
g7
(dp1252
g9
V1998-99 SPx Finite Spectrum #63 Brian Williams
p1253
sg11
I350
sg12
VSPx Finite Spectrum
p1254
sg14
(lp1255
Vhttp://www.beckett.com/basketball/1998-99/spx-finite-spectrum/63-brian-williams-3163991
p1256
asg17
g18
sg19
(lp1257
Vhttp://img.beckett.com/images/items_stock/185226/3163891/3163991/front.jpg
p1258
asg22
V#63
p1259
sg24
V1998-99
p1260
sg26
g27
sg28
(lp1261
VBrian Williams
p1262
assbag1
(g2
g3
Ntp1263
Rp1264
(dp1265
g7
(dp1266
g9
V1998-99 SPx Finite Spectrum #77 Grant Hill
p1267
sg11
I350
sg12
VSPx Finite Spectrum
p1268
sg14
(lp1269
Vhttp://www.beckett.com/basketball/1998-99/spx-finite-spectrum/77-grant-hill-3164005
p1270
asg17
g18
sg19
(lp1271
Vhttp://img.beckett.com/images/no-image.jpg
p1272
asg22
V#77
p1273
sg24
V1998-99
p1274
sg26
g27
sg28
(lp1275
VGrant Hill
p1276
assbag1
(g2
g3
Ntp1277
Rp1278
(dp1279
g7
(dp1280
g9
V1998-99 SPx Finite Spectrum #94 Grant Hill SP
p1281
sg11
I250
sg12
VSPx Finite Spectrum
p1282
sg14
(lp1283
Vhttp://www.beckett.com/basketball/1998-99/spx-finite-spectrum/94-grant-hill-sp-3164022
p1284
asg17
g18
sg19
(lp1285
Vhttp://img.beckett.com/images/no-image.jpg
p1286
asg22
V#94
p1287
sg24
V1998-99
p1288
sg201
VSP
p1289
sg26
g27
sg28
(lp1290
VGrant Hill
p1291
assbag1
(g2
g3
Ntp1292
Rp1293
(dp1294
g7
(dp1295
g9
V1998-99 SPx Finite Spectrum #122 Brian Williams SP
p1296
sg11
I250
sg12
VSPx Finite Spectrum
p1297
sg14
(lp1298
Vhttp://www.beckett.com/basketball/1998-99/spx-finite-spectrum/122-brian-williams-sp-3164050
p1299
asg17
g18
sg19
(lp1300
Vhttp://img.beckett.com/images/items_stock/185226/3163891/3164050/front.jpg
p1301
asg22
V#122
p1302
sg24
V1998-99
p1303
sg201
VSP
p1304
sg26
g27
sg28
(lp1305
VBrian Williams
p1306
assbag1
(g2
g3
Ntp1307
Rp1308
(dp1309
g7
(dp1310
g9
V1998-99 SPx Finite Spectrum #207 Grant Hill FE
p1311
sg11
I25
sg12
VSPx Finite Spectrum
p1312
sg14
(lp1313
Vhttp://www.beckett.com/basketball/1998-99/spx-finite-spectrum/207-grant-hill-fe-3164135
p1314
asg17
g18
sg19
(lp1315
Vhttp://img.beckett.com/images/no-image.jpg
p1316
asg22
V#207
p1317
sg24
V1998-99
p1318
sg201
VFE
p1319
sg26
g27
sg28
(lp1320
VGrant Hill
p1321
assbag1
(g2
g3
Ntp1322
Rp1323
(dp1324
g7
(dp1325
g9
V1998-99 Stadium Club First Day Issue #6 Jerry Stackhouse
p1326
sg11
I200
sg12
VStadium Club First Day Issue
p1327
sg14
(lp1328
Vhttp://www.beckett.com/basketball/1998-99/stadium-club-first-day-issue/6-jerry-stackhouse-3164451
p1329
asg17
g18
sg19
(lp1330
Vhttp://img.beckett.com/images/items_stock/185226/3164434/3164451/front.jpg
p1331
asg22
V#6
p1332
sg24
V1998-99
p1333
sg26
g27
sg28
(lp1334
VJerry Stackhouse
p1335
assbag1
(g2
g3
Ntp1336
Rp1337
(dp1338
g7
(dp1339
g9
V1998-99 Stadium Club First Day Issue #53 Brian Williams
p1340
sg11
I200
sg12
VStadium Club First Day Issue
p1341
sg14
(lp1342
Vhttp://www.beckett.com/basketball/1998-99/stadium-club-first-day-issue/53-brian-williams-3164498
p1343
asg17
g18
sg19
(lp1344
Vhttp://img.beckett.com/images/no-image.jpg
p1345
asg22
V#53
p1346
sg24
V1998-99
p1347
sg26
g27
sg28
(lp1348
VBrian Williams
p1349
assbag1
(g2
g3
Ntp1350
Rp1351
(dp1352
g7
(dp1353
g9
V1998-99 Stadium Club First Day Issue #60 Lindsey Hunter
p1354
sg11
I200
sg12
VStadium Club First Day Issue
p1355
sg14
(lp1356
Vhttp://www.beckett.com/basketball/1998-99/stadium-club-first-day-issue/60-lindsey-hunter-3164505
p1357
asg17
g18
sg19
(lp1358
Vhttp://img.beckett.com/images/no-image.jpg
p1359
asg22
V#60
p1360
sg24
V1998-99
p1361
sg26
g27
sg28
(lp1362
VLindsey Hunter
p1363
assbag1
(g2
g3
Ntp1364
Rp1365
(dp1366
g7
(dp1367
g9
V1998-99 Stadium Club First Day Issue #130 Joe Dumars
p1368
sg11
I200
sg12
VStadium Club First Day Issue
p1369
sg14
(lp1370
Vhttp://www.beckett.com/basketball/1998-99/stadium-club-first-day-issue/130-joe-dumars-3164575
p1371
asg17
g18
sg19
(lp1372
Vhttp://img.beckett.com/images/no-image.jpg
p1373
asg22
V#130
p1374
sg24
V1998-99
p1375
sg26
g27
sg28
(lp1376
VJoe Dumars
p1377
assbag1
(g2
g3
Ntp1378
Rp1379
(dp1380
g7
(dp1381
g9
V1998-99 Stadium Club First Day Issue #155 Don Reid
p1382
sg11
I200
sg12
VStadium Club First Day Issue
p1383
sg14
(lp1384
Vhttp://www.beckett.com/basketball/1998-99/stadium-club-first-day-issue/155-don-reid-3164600
p1385
asg17
g18
sg19
(lp1386
Vhttp://img.beckett.com/images/no-image.jpg
p1387
asg22
V#155
p1388
sg24
V1998-99
p1389
sg26
g27
sg28
(lp1390
VDon Reid
p1391
assbag1
(g2
g3
Ntp1392
Rp1393
(dp1394
g7
(dp1395
g9
V1998-99 Stadium Club First Day Issue #165 Grant Hill
p1396
sg11
I200
sg12
VStadium Club First Day Issue
p1397
sg14
(lp1398
Vhttp://www.beckett.com/basketball/1998-99/stadium-club-first-day-issue/165-grant-hill-3164610
p1399
asg17
g18
sg19
(lp1400
Vhttp://img.beckett.com/images/no-image.jpg
p1401
asg22
V#165
p1402
sg24
V1998-99
p1403
sg26
g27
sg28
(lp1404
VGrant Hill
p1405
assbag1
(g2
g3
Ntp1406
Rp1407
(dp1408
g7
(dp1409
g9
V1998-99 Stadium Club One Of A Kind #6 Jerry Stackhouse
p1410
sg11
I150
sg12
VStadium Club One Of A Kind
p1411
sg14
(lp1412
Vhttp://www.beckett.com/basketball/1998-99/stadium-club-one-of-a-kind/6-jerry-stackhouse-3160706
p1413
asg17
g18
sg19
(lp1414
Vhttp://img.beckett.com/images/no-image.jpg
p1415
asg22
V#6
p1416
sg24
V1998-99
p1417
sg26
g27
sg28
(lp1418
VJerry Stackhouse
p1419
assbag1
(g2
g3
Ntp1420
Rp1421
(dp1422
g7
(dp1423
g9
V1998-99 Stadium Club One Of A Kind #53 Brian Williams
p1424
sg11
I150
sg12
VStadium Club One Of A Kind
p1425
sg14
(lp1426
Vhttp://www.beckett.com/basketball/1998-99/stadium-club-one-of-a-kind/53-brian-williams-3160753
p1427
asg17
g18
sg19
(lp1428
Vhttp://img.beckett.com/images/no-image.jpg
p1429
asg22
V#53
p1430
sg24
V1998-99
p1431
sg26
g27
sg28
(lp1432
VBrian Williams
p1433
assbag1
(g2
g3
Ntp1434
Rp1435
(dp1436
g7
(dp1437
g9
V1998-99 Stadium Club One Of A Kind #60 Lindsey Hunter
p1438
sg11
I150
sg12
VStadium Club One Of A Kind
p1439
sg14
(lp1440
Vhttp://www.beckett.com/basketball/1998-99/stadium-club-one-of-a-kind/60-lindsey-hunter-3160760
p1441
asg17
g18
sg19
(lp1442
Vhttp://img.beckett.com/images/items_stock/185226/3160688/3160760/front.jpg
p1443
asg22
V#60
p1444
sg24
V1998-99
p1445
sg26
g27
sg28
(lp1446
VLindsey Hunter
p1447
assbag1
(g2
g3
Ntp1448
Rp1449
(dp1450
g7
(dp1451
g9
V1998-99 Stadium Club One Of A Kind #130 Joe Dumars
p1452
sg11
I150
sg12
VStadium Club One Of A Kind
p1453
sg14
(lp1454
Vhttp://www.beckett.com/basketball/1998-99/stadium-club-one-of-a-kind/130-joe-dumars-3160830
p1455
asg17
g18
sg19
(lp1456
Vhttp://img.beckett.com/images/no-image.jpg
p1457
asg22
V#130
p1458
sg24
V1998-99
p1459
sg26
g27
sg28
(lp1460
VJoe Dumars
p1461
assbag1
(g2
g3
Ntp1462
Rp1463
(dp1464
g7
(dp1465
g9
V1998-99 Stadium Club One Of A Kind #155 Don Reid
p1466
sg11
I150
sg12
VStadium Club One Of A Kind
p1467
sg14
(lp1468
Vhttp://www.beckett.com/basketball/1998-99/stadium-club-one-of-a-kind/155-don-reid-3160855
p1469
asg17
g18
sg19
(lp1470
Vhttp://img.beckett.com/images/no-image.jpg
p1471
asg22
V#155
p1472
sg24
V1998-99
p1473
sg26
g27
sg28
(lp1474
VDon Reid
p1475
assbag1
(g2
g3
Ntp1476
Rp1477
(dp1478
g7
(dp1479
g9
V1998-99 Stadium Club One Of A Kind #165 Grant Hill
p1480
sg11
I150
sg12
VStadium Club One Of A Kind
p1481
sg14
(lp1482
Vhttp://www.beckett.com/basketball/1998-99/stadium-club-one-of-a-kind/165-grant-hill-3160865
p1483
asg17
g18
sg19
(lp1484
Vhttp://img.beckett.com/images/items_stock/185226/3160688/3160865/front.jpg
p1485
asg22
V#165
p1486
sg24
V1998-99
p1487
sg26
g27
sg28
(lp1488
VGrant Hill
p1489
assbag1
(g2
g3
Ntp1490
Rp1491
(dp1492
g7
(dp1493
g9
V1998-99 Stadium Club Printing Plates #6 Jerry Stackhouse Black
p1494
sg11
I1
sg12
VStadium Club Printing Plates
p1495
sg14
(lp1496
Vhttp://www.beckett.com/basketball/1998-99/stadium-club-printing-plates/6-jerry-stackhouse-black-3160970
p1497
asg17
g18
sg19
(lp1498
Vhttp://img.beckett.com/images/no-image.jpg
p1499
asg22
V#6
p1500
sg24
V1998-99
p1501
sg26
g27
sg28
(lp1502
VJerry Stackhouse
p1503
assbag1
(g2
g3
Ntp1504
Rp1505
(dp1506
g7
(dp1507
g9
V1998-99 Stadium Club Printing Plates #6A Jerry Stackhouse Cyan
p1508
sg11
I1
sg12
VStadium Club Printing Plates
p1509
sg14
(lp1510
Vhttp://www.beckett.com/basketball/1998-99/stadium-club-printing-plates/6a-jerry-stackhouse-cyan-3160971
p1511
asg17
g18
sg19
(lp1512
Vhttp://img.beckett.com/images/no-image.jpg
p1513
asg22
V#6A
p1514
sg24
V1998-99
p1515
sg26
g27
sg28
(lp1516
g1503
assbag1
(g2
g3
Ntp1517
Rp1518
(dp1519
g7
(dp1520
g9
V1998-99 Stadium Club Printing Plates #6B Jerry Stackhouse Magenta
p1521
sg11
I1
sg12
VStadium Club Printing Plates
p1522
sg14
(lp1523
Vhttp://www.beckett.com/basketball/1998-99/stadium-club-printing-plates/6b-jerry-stackhouse-magenta-3160972
p1524
asg17
g18
sg19
(lp1525
Vhttp://img.beckett.com/images/no-image.jpg
p1526
asg22
V#6B
p1527
sg24
V1998-99
p1528
sg26
g27
sg28
(lp1529
g1503
assbag1
(g2
g3
Ntp1530
Rp1531
(dp1532
g7
(dp1533
g9
V1998-99 Stadium Club Printing Plates #6C Jerry Stackhouse Yellow
p1534
sg11
I1
sg12
VStadium Club Printing Plates
p1535
sg14
(lp1536
Vhttp://www.beckett.com/basketball/1998-99/stadium-club-printing-plates/6c-jerry-stackhouse-yellow-3160973
p1537
asg17
g18
sg19
(lp1538
Vhttp://img.beckett.com/images/no-image.jpg
p1539
asg22
V#6C
p1540
sg24
V1998-99
p1541
sg26
g27
sg28
(lp1542
g1503
assbag1
(g2
g3
Ntp1543
Rp1544
(dp1545
g7
(dp1546
g9
V1998-99 Stadium Club Printing Plates #53 Brian Williams Black
p1547
sg11
I1
sg12
VStadium Club Printing Plates
p1548
sg14
(lp1549
Vhttp://www.beckett.com/basketball/1998-99/stadium-club-printing-plates/53-brian-williams-black-3161158
p1550
asg17
g18
sg19
(lp1551
Vhttp://img.beckett.com/images/no-image.jpg
p1552
asg22
V#53
p1553
sg24
V1998-99
p1554
sg26
g27
sg28
(lp1555
VBrian Williams
p1556
assbag1
(g2
g3
Ntp1557
Rp1558
(dp1559
g7
(dp1560
g9
V1998-99 Stadium Club Printing Plates #53A Brian Williams Cyan
p1561
sg11
I1
sg12
VStadium Club Printing Plates
p1562
sg14
(lp1563
Vhttp://www.beckett.com/basketball/1998-99/stadium-club-printing-plates/53a-brian-williams-cyan-3161159
p1564
asg17
g18
sg19
(lp1565
Vhttp://img.beckett.com/images/no-image.jpg
p1566
asg22
V#53A
p1567
sg24
V1998-99
p1568
sg26
g27
sg28
(lp1569
g1556
assbag1
(g2
g3
Ntp1570
Rp1571
(dp1572
g7
(dp1573
g9
V1998-99 Stadium Club Printing Plates #53B Brian Williams Magenta
p1574
sg11
I1
sg12
VStadium Club Printing Plates
p1575
sg14
(lp1576
Vhttp://www.beckett.com/basketball/1998-99/stadium-club-printing-plates/53b-brian-williams-magenta-3161160
p1577
asg17
g18
sg19
(lp1578
Vhttp://img.beckett.com/images/no-image.jpg
p1579
asg22
V#53B
p1580
sg24
V1998-99
p1581
sg26
g27
sg28
(lp1582
g1556
assbag1
(g2
g3
Ntp1583
Rp1584
(dp1585
g7
(dp1586
g9
V1998-99 Stadium Club Printing Plates #53C Brian Williams Yellow
p1587
sg11
I1
sg12
VStadium Club Printing Plates
p1588
sg14
(lp1589
Vhttp://www.beckett.com/basketball/1998-99/stadium-club-printing-plates/53c-brian-williams-yellow-3161161
p1590
asg17
g18
sg19
(lp1591
Vhttp://img.beckett.com/images/no-image.jpg
p1592
asg22
V#53C
p1593
sg24
V1998-99
p1594
sg26
g27
sg28
(lp1595
g1556
assbag1
(g2
g3
Ntp1596
Rp1597
(dp1598
g7
(dp1599
g9
V1998-99 Stadium Club Printing Plates #60 Lindsey Hunter Black
p1600
sg11
I1
sg12
VStadium Club Printing Plates
p1601
sg14
(lp1602
Vhttp://www.beckett.com/basketball/1998-99/stadium-club-printing-plates/60-lindsey-hunter-black-3161186
p1603
asg17
g18
sg19
(lp1604
Vhttp://img.beckett.com/images/no-image.jpg
p1605
asg22
V#60
p1606
sg24
V1998-99
p1607
sg26
g27
sg28
(lp1608
VLindsey Hunter
p1609
assbag1
(g2
g3
Ntp1610
Rp1611
(dp1612
g7
(dp1613
g9
V1998-99 Stadium Club Printing Plates #60A Lindsey Hunter Cyan
p1614
sg11
I1
sg12
VStadium Club Printing Plates
p1615
sg14
(lp1616
Vhttp://www.beckett.com/basketball/1998-99/stadium-club-printing-plates/60a-lindsey-hunter-cyan-3161187
p1617
asg17
g18
sg19
(lp1618
Vhttp://img.beckett.com/images/no-image.jpg
p1619
asg22
V#60A
p1620
sg24
V1998-99
p1621
sg26
g27
sg28
(lp1622
g1609
assbag1
(g2
g3
Ntp1623
Rp1624
(dp1625
g7
(dp1626
g9
V1998-99 Stadium Club Printing Plates #60B Lindsey Hunter Magenta
p1627
sg11
I1
sg12
VStadium Club Printing Plates
p1628
sg14
(lp1629
Vhttp://www.beckett.com/basketball/1998-99/stadium-club-printing-plates/60b-lindsey-hunter-magenta-3161188
p1630
asg17
g18
sg19
(lp1631
Vhttp://img.beckett.com/images/no-image.jpg
p1632
asg22
V#60B
p1633
sg24
V1998-99
p1634
sg26
g27
sg28
(lp1635
g1609
assbag1
(g2
g3
Ntp1636
Rp1637
(dp1638
g7
(dp1639
g9
V1998-99 Stadium Club Printing Plates #60C Lindsey Hunter Yellow
p1640
sg11
I1
sg12
VStadium Club Printing Plates
p1641
sg14
(lp1642
Vhttp://www.beckett.com/basketball/1998-99/stadium-club-printing-plates/60c-lindsey-hunter-yellow-3161189
p1643
asg17
g18
sg19
(lp1644
Vhttp://img.beckett.com/images/no-image.jpg
p1645
asg22
V#60C
p1646
sg24
V1998-99
p1647
sg26
g27
sg28
(lp1648
g1609
assbag1
(g2
g3
Ntp1649
Rp1650
(dp1651
g7
(dp1652
g9
V1998-99 Stadium Club Printing Plates #130 Joe Dumars Black
p1653
sg11
I1
sg12
VStadium Club Printing Plates
p1654
sg14
(lp1655
Vhttp://www.beckett.com/basketball/1998-99/stadium-club-printing-plates/130-joe-dumars-black-3161466
p1656
asg17
g18
sg19
(lp1657
Vhttp://img.beckett.com/images/no-image.jpg
p1658
asg22
V#130
p1659
sg24
V1998-99
p1660
sg26
g27
sg28
(lp1661
VJoe Dumars
p1662
assbag1
(g2
g3
Ntp1663
Rp1664
(dp1665
g7
(dp1666
g9
V1998-99 Stadium Club Printing Plates #130A Joe Dumars Cyan
p1667
sg11
I1
sg12
VStadium Club Printing Plates
p1668
sg14
(lp1669
Vhttp://www.beckett.com/basketball/1998-99/stadium-club-printing-plates/130a-joe-dumars-cyan-3161467
p1670
asg17
g18
sg19
(lp1671
Vhttp://img.beckett.com/images/no-image.jpg
p1672
asg22
V#130A
p1673
sg24
V1998-99
p1674
sg26
g27
sg28
(lp1675
g1662
assbag1
(g2
g3
Ntp1676
Rp1677
(dp1678
g7
(dp1679
g9
V1998-99 Stadium Club Printing Plates #130B Joe Dumars Magenta
p1680
sg11
I1
sg12
VStadium Club Printing Plates
p1681
sg14
(lp1682
Vhttp://www.beckett.com/basketball/1998-99/stadium-club-printing-plates/130b-joe-dumars-magenta-3161468
p1683
asg17
g18
sg19
(lp1684
Vhttp://img.beckett.com/images/no-image.jpg
p1685
asg22
V#130B
p1686
sg24
V1998-99
p1687
sg26
g27
sg28
(lp1688
g1662
assbag1
(g2
g3
Ntp1689
Rp1690
(dp1691
g7
(dp1692
g9
V1998-99 Stadium Club Printing Plates #130C Joe Dumars Yellow
p1693
sg11
I1
sg12
VStadium Club Printing Plates
p1694
sg14
(lp1695
Vhttp://www.beckett.com/basketball/1998-99/stadium-club-printing-plates/130c-joe-dumars-yellow-3161469
p1696
asg17
g18
sg19
(lp1697
Vhttp://img.beckett.com/images/no-image.jpg
p1698
asg22
V#130C
p1699
sg24
V1998-99
p1700
sg26
g27
sg28
(lp1701
g1662
assbag1
(g2
g3
Ntp1702
Rp1703
(dp1704
g7
(dp1705
g9
V1998-99 Stadium Club Printing Plates #155 Don Reid Black
p1706
sg11
I1
sg12
VStadium Club Printing Plates
p1707
sg14
(lp1708
Vhttp://www.beckett.com/basketball/1998-99/stadium-club-printing-plates/155-don-reid-black-3161566
p1709
asg17
g18
sg19
(lp1710
Vhttp://img.beckett.com/images/no-image.jpg
p1711
asg22
V#155
p1712
sg24
V1998-99
p1713
sg26
g27
sg28
(lp1714
VDon Reid
p1715
assbag1
(g2
g3
Ntp1716
Rp1717
(dp1718
g7
(dp1719
g9
V1998-99 Stadium Club Printing Plates #155A Don Reid Cyan
p1720
sg11
I1
sg12
VStadium Club Printing Plates
p1721
sg14
(lp1722
Vhttp://www.beckett.com/basketball/1998-99/stadium-club-printing-plates/155a-don-reid-cyan-3161567
p1723
asg17
g18
sg19
(lp1724
Vhttp://img.beckett.com/images/no-image.jpg
p1725
asg22
V#155A
p1726
sg24
V1998-99
p1727
sg26
g27
sg28
(lp1728
g1715
assbag1
(g2
g3
Ntp1729
Rp1730
(dp1731
g7
(dp1732
g9
V1998-99 Stadium Club Printing Plates #155B Don Reid Magenta
p1733
sg11
I1
sg12
VStadium Club Printing Plates
p1734
sg14
(lp1735
Vhttp://www.beckett.com/basketball/1998-99/stadium-club-printing-plates/155b-don-reid-magenta-3161568
p1736
asg17
g18
sg19
(lp1737
Vhttp://img.beckett.com/images/no-image.jpg
p1738
asg22
V#155B
p1739
sg24
V1998-99
p1740
sg26
g27
sg28
(lp1741
g1715
assbag1
(g2
g3
Ntp1742
Rp1743
(dp1744
g7
(dp1745
g9
V1998-99 Stadium Club Printing Plates #155C Don Reid Yellow
p1746
sg11
I1
sg12
VStadium Club Printing Plates
p1747
sg14
(lp1748
Vhttp://www.beckett.com/basketball/1998-99/stadium-club-printing-plates/155c-don-reid-yellow-3161569
p1749
asg17
g18
sg19
(lp1750
Vhttp://img.beckett.com/images/no-image.jpg
p1751
asg22
V#155C
p1752
sg24
V1998-99
p1753
sg26
g27
sg28
(lp1754
g1715
assbag1
(g2
g3
Ntp1755
Rp1756
(dp1757
g7
(dp1758
g9
V1998-99 Stadium Club Printing Plates #165 Grant Hill Black
p1759
sg11
I1
sg12
VStadium Club Printing Plates
p1760
sg14
(lp1761
Vhttp://www.beckett.com/basketball/1998-99/stadium-club-printing-plates/165-grant-hill-black-3161606
p1762
asg17
g18
sg19
(lp1763
Vhttp://img.beckett.com/images/no-image.jpg
p1764
asg22
V#165
p1765
sg24
V1998-99
p1766
sg26
g27
sg28
(lp1767
VGrant Hill
p1768
assbag1
(g2
g3
Ntp1769
Rp1770
(dp1771
g7
(dp1772
g9
V1998-99 Stadium Club Printing Plates #165A Grant Hill Cyan
p1773
sg11
I1
sg12
VStadium Club Printing Plates
p1774
sg14
(lp1775
Vhttp://www.beckett.com/basketball/1998-99/stadium-club-printing-plates/165a-grant-hill-cyan-3161607
p1776
asg17
g18
sg19
(lp1777
Vhttp://img.beckett.com/images/no-image.jpg
p1778
asg22
V#165A
p1779
sg24
V1998-99
p1780
sg26
g27
sg28
(lp1781
g1768
assbag1
(g2
g3
Ntp1782
Rp1783
(dp1784
g7
(dp1785
g9
V1998-99 Stadium Club Printing Plates #165B Grant Hill Magenta
p1786
sg11
I1
sg12
VStadium Club Printing Plates
p1787
sg14
(lp1788
Vhttp://www.beckett.com/basketball/1998-99/stadium-club-printing-plates/165b-grant-hill-magenta-3161608
p1789
asg17
g18
sg19
(lp1790
Vhttp://img.beckett.com/images/no-image.jpg
p1791
asg22
V#165B
p1792
sg24
V1998-99
p1793
sg26
g27
sg28
(lp1794
g1768
assbag1
(g2
g3
Ntp1795
Rp1796
(dp1797
g7
(dp1798
g9
V1998-99 Stadium Club Printing Plates #165C Grant Hill Yellow
p1799
sg11
I1
sg12
VStadium Club Printing Plates
p1800
sg14
(lp1801
Vhttp://www.beckett.com/basketball/1998-99/stadium-club-printing-plates/165c-grant-hill-yellow-3161609
p1802
asg17
g18
sg19
(lp1803
Vhttp://img.beckett.com/images/no-image.jpg
p1804
asg22
V#165C
p1805
sg24
V1998-99
p1806
sg26
g27
sg28
(lp1807
g1768
assbag1
(g2
g3
Ntp1808
Rp1809
(dp1810
g7
(dp1811
g9
V1998-99 UD Choice Premium Choice Reserve #40 Brian Williams
p1812
sg11
I100
sg12
VUD Choice Premium Choice Reserve
p1813
sg14
(lp1814
Vhttp://www.beckett.com/basketball/1998-99/ud-choice-premium-choice-reserve/40-brian-williams-3159213
p1815
asg17
g18
sg19
(lp1816
Vhttp://img.beckett.com/images/no-image.jpg
p1817
asg22
V#40
p1818
sg24
V1998-99
p1819
sg26
g27
sg28
(lp1820
VBrian Williams
p1821
assbag1
(g2
g3
Ntp1822
Rp1823
(dp1824
g7
(dp1825
g9
V1998-99 UD Choice Premium Choice Reserve #41 Grant Hill
p1826
sg11
I100
sg12
VUD Choice Premium Choice Reserve
p1827
sg14
(lp1828
Vhttp://www.beckett.com/basketball/1998-99/ud-choice-premium-choice-reserve/41-grant-hill-3159214
p1829
asg17
g18
sg19
(lp1830
Vhttp://img.beckett.com/images/no-image.jpg
p1831
asg22
V#41
p1832
sg24
V1998-99
p1833
sg26
g27
sg28
(lp1834
VGrant Hill
p1835
assbag1
(g2
g3
Ntp1836
Rp1837
(dp1838
g7
(dp1839
g9
V1998-99 UD Choice Premium Choice Reserve #42 Lindsey Hunter
p1840
sg11
I100
sg12
VUD Choice Premium Choice Reserve
p1841
sg14
(lp1842
Vhttp://www.beckett.com/basketball/1998-99/ud-choice-premium-choice-reserve/42-lindsey-hunter-3159215
p1843
asg17
g18
sg19
(lp1844
Vhttp://img.beckett.com/images/no-image.jpg
p1845
asg22
V#42
p1846
sg24
V1998-99
p1847
sg26
g27
sg28
(lp1848
VLindsey Hunter
p1849
assbag1
(g2
g3
Ntp1850
Rp1851
(dp1852
g7
(dp1853
g9
V1998-99 UD Choice Premium Choice Reserve #43 Jerome Williams
p1854
sg11
I100
sg12
VUD Choice Premium Choice Reserve
p1855
sg14
(lp1856
Vhttp://www.beckett.com/basketball/1998-99/ud-choice-premium-choice-reserve/43-jerome-williams-3159216
p1857
asg17
g18
sg19
(lp1858
Vhttp://img.beckett.com/images/no-image.jpg
p1859
asg22
V#43
p1860
sg24
V1998-99
p1861
sg26
g27
sg28
(lp1862
VJerome Williams
p1863
assbag1
(g2
g3
Ntp1864
Rp1865
(dp1866
g7
(dp1867
g9
V1998-99 UD Choice Premium Choice Reserve #44 Eric Montross
p1868
sg11
I100
sg12
VUD Choice Premium Choice Reserve
p1869
sg14
(lp1870
Vhttp://www.beckett.com/basketball/1998-99/ud-choice-premium-choice-reserve/44-eric-montross-3159217
p1871
asg17
g18
sg19
(lp1872
Vhttp://img.beckett.com/images/no-image.jpg
p1873
asg22
V#44
p1874
sg24
V1998-99
p1875
sg26
g27
sg28
(lp1876
VEric Montross
p1877
assbag1
(g2
g3
Ntp1878
Rp1879
(dp1880
g7
(dp1881
g9
V1998-99 UD Choice Premium Choice Reserve #163 Jerry Stackhouse FS
p1882
sg11
I100
sg12
VUD Choice Premium Choice Reserve
p1883
sg14
(lp1884
Vhttp://www.beckett.com/basketball/1998-99/ud-choice-premium-choice-reserve/163-jerry-stackhouse-fs-3159336
p1885
asg17
g18
sg19
(lp1886
Vhttp://img.beckett.com/images/no-image.jpg
p1887
asg22
V#163
p1888
sg24
V1998-99
p1889
sg201
VFS
p1890
sg26
g27
sg28
(lp1891
VJerry Stackhouse
p1892
assbag1
(g2
g3
Ntp1893
Rp1894
(dp1895
g7
(dp1896
g9
V1998-99 UD Ionix Reciprocal #21 Grant Hill
p1897
sg11
I750
sg12
VUD Ionix Reciprocal
p1898
sg14
(lp1899
Vhttp://www.beckett.com/basketball/1998-99/ud-ionix-reciprocal/21-grant-hill-3159697
p1900
asg17
g18
sg19
(lp1901
Vhttp://img.beckett.com/images/no-image.jpg
p1902
asg22
V#21
p1903
sg24
V1998-99
p1904
sg26
g27
sg28
(lp1905
VGrant Hill
p1906
assbag1
(g2
g3
Ntp1907
Rp1908
(dp1909
g7
(dp1910
g9
V1998-99 UD Ionix Reciprocal #22 Jerry Stackhouse
p1911
sg11
I750
sg12
VUD Ionix Reciprocal
p1912
sg14
(lp1913
Vhttp://www.beckett.com/basketball/1998-99/ud-ionix-reciprocal/22-jerry-stackhouse-3159698
p1914
asg17
g18
sg19
(lp1915
Vhttp://img.beckett.com/images/items_stock/185226/3159665/3159698/front.jpg
p1916
asg22
V#22
p1917
sg24
V1998-99
p1918
sg26
g27
sg28
(lp1919
VJerry Stackhouse
p1920
assbag1
(g2
g3
Ntp1921
Rp1922
(dp1923
g7
(dp1924
g9
V1998-99 Ultra Masterpieces #25 Joe Dumars
p1925
sg11
I1
sg12
VUltra Masterpieces
p1926
sg14
(lp1927
Vhttp://www.beckett.com/basketball/1998-99/ultra-masterpieces/25-joe-dumars-3156981
p1928
asg17
g18
sg19
(lp1929
Vhttp://img.beckett.com/images/no-image.jpg
p1930
asg22
V#25
p1931
sg24
V1998-99
p1932
sg26
g27
sg28
(lp1933
VJoe Dumars
p1934
assbag1
(g2
g3
Ntp1935
Rp1936
(dp1937
g7
(dp1938
g9
V1998-99 Ultra Masterpieces #50 Jerry Stackhouse
p1939
sg11
I1
sg12
VUltra Masterpieces
p1940
sg14
(lp1941
Vhttp://www.beckett.com/basketball/1998-99/ultra-masterpieces/50-jerry-stackhouse-3157006
p1942
asg17
g18
sg19
(lp1943
Vhttp://img.beckett.com/images/no-image.jpg
p1944
asg22
V#50
p1945
sg24
V1998-99
p1946
sg26
g27
sg28
(lp1947
VJerry Stackhouse
p1948
assbag1
(g2
g3
Ntp1949
Rp1950
(dp1951
g7
(dp1952
g9
V1998-99 Ultra Masterpieces #79 Grant Hill
p1953
sg11
I1
sg12
VUltra Masterpieces
p1954
sg14
(lp1955
Vhttp://www.beckett.com/basketball/1998-99/ultra-masterpieces/79-grant-hill-3157035
p1956
asg17
g18
sg19
(lp1957
Vhttp://img.beckett.com/images/no-image.jpg
p1958
asg22
V#79
p1959
sg24
V1998-99
p1960
sg26
g27
sg28
(lp1961
VGrant Hill
p1962
assbag1
(g2
g3
Ntp1963
Rp1964
(dp1965
g7
(dp1966
g9
V1998-99 Ultra Platinum Medallion #25 Joe Dumars
p1967
sg11
I99
sg12
VUltra Platinum Medallion
p1968
sg14
(lp1969
Vhttp://www.beckett.com/basketball/1998-99/ultra-platinum-medallion/25-joe-dumars-3157117
p1970
asg17
g18
sg19
(lp1971
Vhttp://img.beckett.com/images/no-image.jpg
p1972
asg22
V#25
p1973
sg24
V1998-99
p1974
sg26
g27
sg28
(lp1975
VJoe Dumars
p1976
assbag1
(g2
g3
Ntp1977
Rp1978
(dp1979
g7
(dp1980
g9
V1998-99 Ultra Platinum Medallion #50 Jerry Stackhouse
p1981
sg11
I99
sg12
VUltra Platinum Medallion
p1982
sg14
(lp1983
Vhttp://www.beckett.com/basketball/1998-99/ultra-platinum-medallion/50-jerry-stackhouse-3157142
p1984
asg17
g18
sg19
(lp1985
Vhttp://img.beckett.com/images/no-image.jpg
p1986
asg22
V#50
p1987
sg24
V1998-99
p1988
sg26
g27
sg28
(lp1989
VJerry Stackhouse
p1990
assbag1
(g2
g3
Ntp1991
Rp1992
(dp1993
g7
(dp1994
g9
V1998-99 Ultra Platinum Medallion #79 Grant Hill
p1995
sg11
I99
sg12
VUltra Platinum Medallion
p1996
sg14
(lp1997
Vhttp://www.beckett.com/basketball/1998-99/ultra-platinum-medallion/79-grant-hill-3157171
p1998
asg17
g18
sg19
(lp1999
Vhttp://img.beckett.com/images/no-image.jpg
p2000
asg22
V#79
p2001
sg24
V1998-99
p2002
sg26
g27
sg28
(lp2003
VGrant Hill
p2004
assbag1
(g2
g3
Ntp2005
Rp2006
(dp2007
g7
(dp2008
g9
V1998-99 Upper Deck Bronze #45 Grant Hill
p2009
sg11
I100
sg12
VUpper Deck Bronze
p2010
sg14
(lp2011
Vhttp://www.beckett.com/basketball/1998-99/upper-deck-bronze/45-grant-hill-3157776
p2012
asg17
g18
sg19
(lp2013
Vhttp://img.beckett.com/images/no-image.jpg
p2014
asg22
V#45
p2015
sg24
V1998-99
p2016
sg26
g27
sg28
(lp2017
VGrant Hill
p2018
assbag1
(g2
g3
Ntp2019
Rp2020
(dp2021
g7
(dp2022
g9
V1998-99 Upper Deck Bronze #46 Lindsey Hunter
p2023
sg11
I100
sg12
VUpper Deck Bronze
p2024
sg14
(lp2025
Vhttp://www.beckett.com/basketball/1998-99/upper-deck-bronze/46-lindsey-hunter-3157777
p2026
asg17
g18
sg19
(lp2027
Vhttp://img.beckett.com/images/items_stock/185226/3157718/3157777/front.jpg
p2028
asg22
V#46
p2029
sg24
V1998-99
p2030
sg26
g27
sg28
(lp2031
VLindsey Hunter
p2032
assbag1
(g2
g3
Ntp2033
Rp2034
(dp2035
g7
(dp2036
g9
V1998-99 Upper Deck Bronze #47 Brian Williams
p2037
sg11
I100
sg12
VUpper Deck Bronze
p2038
sg14
(lp2039
Vhttp://www.beckett.com/basketball/1998-99/upper-deck-bronze/47-brian-williams-3157778
p2040
asg17
g18
sg19
(lp2041
Vhttp://img.beckett.com/images/no-image.jpg
p2042
asg22
V#47
p2043
sg24
V1998-99
p2044
sg26
g27
sg28
(lp2045
VBrian Williams
p2046
assbag1
(g2
g3
Ntp2047
Rp2048
(dp2049
g7
(dp2050
g9
V1998-99 Upper Deck Bronze #48 Scot Pollard
p2051
sg11
I100
sg12
VUpper Deck Bronze
p2052
sg14
(lp2053
Vhttp://www.beckett.com/basketball/1998-99/upper-deck-bronze/48-scot-pollard-3157779
p2054
asg17
g18
sg19
(lp2055
Vhttp://img.beckett.com/images/items_stock/185226/3157718/3157779/front.jpg
p2056
asg22
V#48
p2057
sg24
V1998-99
p2058
sg26
g27
sg28
(lp2059
VScot Pollard
p2060
assbag1
(g2
g3
Ntp2061
Rp2062
(dp2063
g7
(dp2064
g9
V1998-99 Upper Deck Bronze #49 Grant Hill/Brian Williams HS
p2065
sg11
I100
sg12
VUpper Deck Bronze
p2066
sg14
(lp2067
Vhttp://www.beckett.com/basketball/1998-99/upper-deck-bronze/49-grant-hillbrian-williams-hs-3157780
p2068
asg17
g18
sg19
(lp2069
Vhttp://img.beckett.com/images/no-image.jpg
p2070
asg22
V#49
p2071
sg24
V1998-99
p2072
sg201
VHS
p2073
sg26
g27
sg28
(lp2074
VGrant Hill
p2075
aVBrian Williams
p2076
assbag1
(g2
g3
Ntp2077
Rp2078
(dp2079
g7
(dp2080
g9
V1998-99 Upper Deck Bronze #179 Jerry Stackhouse
p2081
sg11
I100
sg12
VUpper Deck Bronze
p2082
sg14
(lp2083
Vhttp://www.beckett.com/basketball/1998-99/upper-deck-bronze/179-jerry-stackhouse-3157910
p2084
asg17
g18
sg19
(lp2085
Vhttp://img.beckett.com/images/no-image.jpg
p2086
asg22
V#179
p2087
sg24
V1998-99
p2088
sg26
g27
sg28
(lp2089
VJerry Stackhouse
p2090
assbag1
(g2
g3
Ntp2091
Rp2092
(dp2093
g7
(dp2094
g9
V1998-99 Upper Deck Bronze #217 Jerome Williams
p2095
sg11
I100
sg12
VUpper Deck Bronze
p2096
sg14
(lp2097
Vhttp://www.beckett.com/basketball/1998-99/upper-deck-bronze/217-jerome-williams-3157948
p2098
asg17
g18
sg19
(lp2099
Vhttp://img.beckett.com/images/items_stock/185226/3157718/3157948/front.jpg
p2100
asg22
V#217
p2101
sg24
V1998-99
p2102
sg26
g27
sg28
(lp2103
VJerome Williams
p2104
assbag1
(g2
g3
Ntp2105
Rp2106
(dp2107
g7
(dp2108
g9
V1998-99 Upper Deck Bronze #260 Joe Dumars
p2109
sg11
I100
sg12
VUpper Deck Bronze
p2110
sg14
(lp2111
Vhttp://www.beckett.com/basketball/1998-99/upper-deck-bronze/260-joe-dumars-3158013
p2112
asg17
g18
sg19
(lp2113
Vhttp://img.beckett.com/images/items_stock/185226/3157718/3158013/front.jpg
p2114
asg22
V#260
p2115
sg24
V1998-99
p2116
sg26
g27
sg28
(lp2117
VJoe Dumars
p2118
assbag1
(g2
g3
Ntp2119
Rp2120
(dp2121
g7
(dp2122
g9
V1998-99 Upper Deck Bronze #262 Eric Montross
p2123
sg11
I100
sg12
VUpper Deck Bronze
p2124
sg14
(lp2125
Vhttp://www.beckett.com/basketball/1998-99/upper-deck-bronze/262-eric-montross-3158015
p2126
asg17
g18
sg19
(lp2127
Vhttp://img.beckett.com/images/items_stock/185226/3157718/3158015/front.jpg
p2128
asg22
V#262
p2129
sg24
V1998-99
p2130
sg26
g27
sg28
(lp2131
VEric Montross
p2132
assbag1
(g2
g3
Ntp2133
Rp2134
(dp2135
g7
(dp2136
g9
V1998-99 Upper Deck Gold #45 Grant Hill
p2137
sg11
I1
sg12
VUpper Deck Gold
p2138
sg14
(lp2139
Vhttp://www.beckett.com/basketball/1998-99/upper-deck-gold/45-grant-hill-3158141
p2140
asg17
g18
sg19
(lp2141
Vhttp://img.beckett.com/images/no-image.jpg
p2142
asg22
V#45
p2143
sg24
V1998-99
p2144
sg26
g27
sg28
(lp2145
VGrant Hill
p2146
assbag1
(g2
g3
Ntp2147
Rp2148
(dp2149
g7
(dp2150
g9
V1998-99 Upper Deck Gold #46 Lindsey Hunter
p2151
sg11
I1
sg12
VUpper Deck Gold
p2152
sg14
(lp2153
Vhttp://www.beckett.com/basketball/1998-99/upper-deck-gold/46-lindsey-hunter-3158142
p2154
asg17
g18
sg19
(lp2155
Vhttp://img.beckett.com/images/no-image.jpg
p2156
asg22
V#46
p2157
sg24
V1998-99
p2158
sg26
g27
sg28
(lp2159
VLindsey Hunter
p2160
assbag1
(g2
g3
Ntp2161
Rp2162
(dp2163
g7
(dp2164
g9
V1998-99 Upper Deck Gold #47 Brian Williams
p2165
sg11
I1
sg12
VUpper Deck Gold
p2166
sg14
(lp2167
Vhttp://www.beckett.com/basketball/1998-99/upper-deck-gold/47-brian-williams-3158143
p2168
asg17
g18
sg19
(lp2169
Vhttp://img.beckett.com/images/no-image.jpg
p2170
asg22
V#47
p2171
sg24
V1998-99
p2172
sg26
g27
sg28
(lp2173
VBrian Williams
p2174
assbag1
(g2
g3
Ntp2175
Rp2176
(dp2177
g7
(dp2178
g9
V1998-99 Upper Deck Gold #48 Scot Pollard
p2179
sg11
I1
sg12
VUpper Deck Gold
p2180
sg14
(lp2181
Vhttp://www.beckett.com/basketball/1998-99/upper-deck-gold/48-scot-pollard-3158144
p2182
asg17
g18
sg19
(lp2183
Vhttp://img.beckett.com/images/no-image.jpg
p2184
asg22
V#48
p2185
sg24
V1998-99
p2186
sg26
g27
sg28
(lp2187
VScot Pollard
p2188
assbag1
(g2
g3
Ntp2189
Rp2190
(dp2191
g7
(dp2192
g9
V1998-99 Upper Deck Gold #49 Grant Hill/Brian Williams HS
p2193
sg11
I1
sg12
VUpper Deck Gold
p2194
sg14
(lp2195
Vhttp://www.beckett.com/basketball/1998-99/upper-deck-gold/49-grant-hillbrian-williams-hs-3158145
p2196
asg17
g18
sg19
(lp2197
Vhttp://img.beckett.com/images/no-image.jpg
p2198
asg22
V#49
p2199
sg24
V1998-99
p2200
sg201
VHS
p2201
sg26
g27
sg28
(lp2202
VGrant Hill
p2203
aVBrian Williams
p2204
assbag1
(g2
g3
Ntp2205
Rp2206
(dp2207
g7
(dp2208
g9
V1998-99 Upper Deck Gold #179 Jerry Stackhouse
p2209
sg11
I1
sg12
VUpper Deck Gold
p2210
sg14
(lp2211
Vhttp://www.beckett.com/basketball/1998-99/upper-deck-gold/179-jerry-stackhouse-3158275
p2212
asg17
g18
sg19
(lp2213
Vhttp://img.beckett.com/images/no-image.jpg
p2214
asg22
V#179
p2215
sg24
V1998-99
p2216
sg26
g27
sg28
(lp2217
VJerry Stackhouse
p2218
assbag1
(g2
g3
Ntp2219
Rp2220
(dp2221
g7
(dp2222
g9
V1998-99 Upper Deck Gold #217 Jerome Williams
p2223
sg11
I1
sg12
VUpper Deck Gold
p2224
sg14
(lp2225
Vhttp://www.beckett.com/basketball/1998-99/upper-deck-gold/217-jerome-williams-3158313
p2226
asg17
g18
sg19
(lp2227
Vhttp://img.beckett.com/images/no-image.jpg
p2228
asg22
V#217
p2229
sg24
V1998-99
p2230
sg26
g27
sg28
(lp2231
VJerome Williams
p2232
assbag1
(g2
g3
Ntp2233
Rp2234
(dp2235
g7
(dp2236
g9
V1998-99 Upper Deck Gold #260 Joe Dumars
p2237
sg11
I1
sg12
VUpper Deck Gold
p2238
sg14
(lp2239
Vhttp://www.beckett.com/basketball/1998-99/upper-deck-gold/260-joe-dumars-3158378
p2240
asg17
g18
sg19
(lp2241
Vhttp://img.beckett.com/images/no-image.jpg
p2242
asg22
V#260
p2243
sg24
V1998-99
p2244
sg26
g27
sg28
(lp2245
VJoe Dumars
p2246
assbag1
(g2
g3
Ntp2247
Rp2248
(dp2249
g7
(dp2250
g9
V1998-99 Upper Deck Gold #262 Eric Montross
p2251
sg11
I1
sg12
VUpper Deck Gold
p2252
sg14
(lp2253
Vhttp://www.beckett.com/basketball/1998-99/upper-deck-gold/262-eric-montross-3158380
p2254
asg17
g18
sg19
(lp2255
Vhttp://img.beckett.com/images/no-image.jpg
p2256
asg22
V#262
p2257
sg24
V1998-99
p2258
sg26
g27
sg28
(lp2259
VEric Montross
p2260
assbag1
(g2
g3
Ntp2261
Rp2262
(dp2263
g7
(dp2264
g9
V1998-99 Upper Deck Encore F/X #22 Grant Hill
p2265
sg11
I125
sg12
VUpper Deck Encore F/X
p2266
sg14
(lp2267
Vhttp://www.beckett.com/basketball/1998-99/upper-deck-encore-fx/22-grant-hill-3155123
p2268
asg17
g18
sg19
(lp2269
Vhttp://img.beckett.com/images/no-image.jpg
p2270
asg22
V#22
p2271
sg24
V1998-99
p2272
sg26
g27
sg28
(lp2273
VGrant Hill
p2274
assbag1
(g2
g3
Ntp2275
Rp2276
(dp2277
g7
(dp2278
g9
V1998-99 Upper Deck Encore F/X #23 Jerry Stackhouse
p2279
sg11
I125
sg12
VUpper Deck Encore F/X
p2280
sg14
(lp2281
Vhttp://www.beckett.com/basketball/1998-99/upper-deck-encore-fx/23-jerry-stackhouse-3155124
p2282
asg17
g18
sg19
(lp2283
Vhttp://img.beckett.com/images/items_stock/185226/3155089/3155124/front.jpg
p2284
asg22
V#23
p2285
sg24
V1998-99
p2286
sg26
g27
sg28
(lp2287
VJerry Stackhouse
p2288
assbag1
(g2
g3
Ntp2289
Rp2290
(dp2291
g7
(dp2292
g9
V1998-99 Upper Deck Encore F/X #24 Bison Dele
p2293
sg11
I125
sg12
VUpper Deck Encore F/X
p2294
sg14
(lp2295
Vhttp://www.beckett.com/basketball/1998-99/upper-deck-encore-fx/24-bison-dele-3155125
p2296
asg17
g18
sg19
(lp2297
Vhttp://img.beckett.com/images/items_stock/185226/3155089/3155125/front.jpg
p2298
asg22
V#24
p2299
sg24
V1998-99
p2300
sg26
g27
sg28
(lp2301
VBison Dele
p2302
assbag1
(g2
g3
Ntp2303
Rp2304
(dp2305
g7
(dp2306
g9
V1998-99 Upper Deck Ovation Gold #18 Grant Hill
p2307
sg11
I1000
sg12
VUpper Deck Ovation Gold
p2308
sg14
(lp2309
Vhttp://www.beckett.com/basketball/1998-99/upper-deck-ovation-gold/18-grant-hill-3155574
p2310
asg17
g18
sg19
(lp2311
Vhttp://img.beckett.com/images/items_stock/185226/3155547/3155574/front.jpg
p2312
asg22
V#18
p2313
sg24
V1998-99
p2314
sg26
g27
sg28
(lp2315
VGrant Hill
p2316
assbag1
(g2
g3
Ntp2317
Rp2318
(dp2319
g7
(dp2320
g9
V1998-99 Upper Deck Ovation Gold #19 Jerry Stackhouse
p2321
sg11
I1000
sg12
VUpper Deck Ovation Gold
p2322
sg14
(lp2323
Vhttp://www.beckett.com/basketball/1998-99/upper-deck-ovation-gold/19-jerry-stackhouse-3155575
p2324
asg17
g18
sg19
(lp2325
Vhttp://img.beckett.com/images/items_stock/185226/3155547/3155575/front.jpg
p2326
asg22
V#19
p2327
sg24
V1998-99
p2328
sg26
g27
sg28
(lp2329
VJerry Stackhouse
p2330
assbag1
(g2
g3
Ntp2331
Rp2332
(dp2333
g7
(dp2334
g9
V1998-99 Black Diamond Diamond Dominance #D8 Grant Hill
p2335
sg11
I1000
sg12
VBlack Diamond Diamond Dominance
p2336
sg14
(lp2337
Vhttp://www.beckett.com/basketball/1998-99/black-diamond-diamond-dominance/d8-grant-hill-3170849
p2338
asg17
g18
sg19
(lp2339
Vhttp://img.beckett.com/images/no-image.jpg
p2340
asg22
V#D8
p2341
sg24
V1998-99
p2342
sg26
g27
sg28
(lp2343
VGrant Hill
p2344
assbag1
(g2
g3
Ntp2345
Rp2346
(dp2347
g7
(dp2348
g9
V1998-99 Finest Centurions #C1 Grant Hill
p2349
sg11
I500
sg12
VFinest Centurions
p2350
sg14
(lp2351
Vhttp://www.beckett.com/basketball/1998-99/finest-centurions/c1-grant-hill-3170301
p2352
asg17
g18
sg19
(lp2353
Vhttp://img.beckett.com/images/no-image.jpg
p2354
asg22
V#C1
p2355
sg24
V1998-99
p2356
sg26
g27
sg28
(lp2357
VGrant Hill
p2358
assbag1
(g2
g3
Ntp2359
Rp2360
(dp2361
g7
(dp2362
g9
V1998-99 Finest Court Control #CC7 Grant Hill
p2363
sg11
I750
sg12
VFinest Court Control
p2364
sg14
(lp2365
Vhttp://www.beckett.com/basketball/1998-99/finest-court-control/cc7-grant-hill-3170367
p2366
asg17
g18
sg19
(lp2367
Vhttp://img.beckett.com/images/no-image.jpg
p2368
asg22
V#CC7
p2369
sg24
V1998-99
p2370
sg26
g27
sg28
(lp2371
VGrant Hill
p2372
assbag1
(g2
g3
Ntp2373
Rp2374
(dp2375
g7
(dp2376
g9
V1998-99 Flair Showcase takeit2.net #4 Grant Hill
p2377
sg11
I1000
sg12
VFlair Showcase takeit2.net
p2378
sg14
(lp2379
Vhttp://www.beckett.com/basketball/1998-99/flair-showcase-takeit2net/4-grant-hill-3167759
p2380
asg17
g18
sg19
(lp2381
Vhttp://img.beckett.com/images/no-image.jpg
p2382
asg22
V#4
p2383
sg24
V1998-99
p2384
sg26
g27
sg28
(lp2385
VGrant Hill
p2386
assbag1
(g2
g3
Ntp2387
Rp2388
(dp2389
g7
(dp2390
g9
V1998-99 Hoops Bams #8 Grant Hill
p2391
sg11
I250
sg12
VHoops Bams
p2392
sg14
(lp2393
Vhttp://www.beckett.com/basketball/1998-99/hoops-bams/8-grant-hill-3166376
p2394
asg17
g18
sg19
(lp2395
Vhttp://img.beckett.com/images/no-image.jpg
p2396
asg22
V#8
p2397
sg24
V1998-99
p2398
sg26
g27
sg28
(lp2399
VGrant Hill
p2400
assbag1
(g2
g3
Ntp2401
Rp2402
(dp2403
g7
(dp2404
g9
V1998-99 Black Diamond Diamond Dominance Emerald #D8 Grant Hill
p2405
sg11
I100
sg12
VBlack Diamond Diamond Dominance Emerald
p2406
sg14
(lp2407
Vhttp://www.beckett.com/basketball/1998-99/black-diamond-diamond-dominance-emerald/d8-grant-hill-3170888
p2408
asg17
g18
sg19
(lp2409
Vhttp://img.beckett.com/images/no-image.jpg
p2410
asg22
V#D8
p2411
sg24
V1998-99
p2412
sg26
g27
sg28
(lp2413
VGrant Hill
p2414
assbag1
(g2
g3
Ntp2415
Rp2416
(dp2417
g7
(dp2418
g9
V1998-99 Bowman's Best Mirror Image Atomic Refractors #MI11 Grant Hill/Tim Thomas
p2419
sg11
I25
sg12
VBowman's Best Mirror Image Atomic Refractors
p2420
sg14
(lp2421
Vhttp://www.beckett.com/basketball/1998-99/bowmans-best-mirror-image-atomic-refractors/mi11-grant-hilltim-thomas-3171554
p2422
asg17
g18
sg19
(lp2423
Vhttp://img.beckett.com/images/no-image.jpg
p2424
asg22
V#MI11
p2425
sg24
V1998-99
p2426
sg26
g27
sg28
(lp2427
VGrant Hill
p2428
aVTim Thomas
p2429
assbag1
(g2
g3
Ntp2430
Rp2431
(dp2432
g7
(dp2433
g9
V1998-99 Bowman's Best Mirror Image Refractors #MI11 Grant Hill/Tim Thomas
p2434
sg11
I100
sg12
VBowman's Best Mirror Image Refractors
p2435
sg14
(lp2436
Vhttp://www.beckett.com/basketball/1998-99/bowmans-best-mirror-image-refractors/mi11-grant-hilltim-thomas-3171582
p2437
asg17
g18
sg19
(lp2438
Vhttp://img.beckett.com/images/no-image.jpg
p2439
asg22
V#MI11
p2440
sg24
V1998-99
p2441
sg26
g27
sg28
(lp2442
VGrant Hill
p2443
aVTim Thomas
p2444
assbag1
(g2
g3
Ntp2445
Rp2446
(dp2447
g7
(dp2448
g9
V1998-99 Bowman's Best Performers Atomic Refractors #BP4 Grant Hill
p2449
sg11
I50
sg12
VBowman's Best Performers Atomic Refractors
p2450
sg14
(lp2451
Vhttp://www.beckett.com/basketball/1998-99/bowmans-best-performers-atomic-refractors/bp4-grant-hill-3171629
p2452
asg17
g18
sg19
(lp2453
Vhttp://img.beckett.com/images/no-image.jpg
p2454
asg22
V#BP4
p2455
sg24
V1998-99
p2456
sg26
g27
sg28
(lp2457
VGrant Hill
p2458
assbag1
(g2
g3
Ntp2459
Rp2460
(dp2461
g7
(dp2462
g9
V1998-99 Bowman's Best Performers Refractors #BP4 Grant Hill
p2463
sg11
I200
sg12
VBowman's Best Performers Refractors
p2464
sg14
(lp2465
Vhttp://www.beckett.com/basketball/1998-99/bowmans-best-performers-refractors/bp4-grant-hill-3171647
p2466
asg17
g18
sg19
(lp2467
Vhttp://img.beckett.com/images/no-image.jpg
p2468
asg22
V#BP4
p2469
sg24
V1998-99
p2470
sg26
g27
sg28
(lp2471
VGrant Hill
p2472
assbag1
(g2
g3
Ntp2473
Rp2474
(dp2475
g7
(dp2476
g9
V1998-99 E-X Century Essential Credentials Future #6 Grant Hill/85
p2477
sg11
I85
sg12
VE-X Century Essential Credentials Future
p2478
sg14
(lp2479
Vhttp://www.beckett.com/basketball/1998-99/e-x-century-essential-credentials-future/6-grant-hill85-3168957
p2480
asg17
g18
sg19
(lp2481
Vhttp://img.beckett.com/images/no-image.jpg
p2482
asg22
V#6
p2483
sg24
V1998-99
p2484
sg26
g27
sg28
(lp2485
VGrant Hill
p2486
assbag1
(g2
g3
Ntp2487
Rp2488
(dp2489
g7
(dp2490
g9
V1998-99 E-X Century Essential Credentials Future #46 Jerry Stackhouse/45
p2491
sg11
I45
sg12
VE-X Century Essential Credentials Future
p2492
sg14
(lp2493
Vhttp://www.beckett.com/basketball/1998-99/e-x-century-essential-credentials-future/46-jerry-stackhouse45-3168997
p2494
asg17
g18
sg19
(lp2495
Vhttp://img.beckett.com/images/no-image.jpg
p2496
asg22
V#46
p2497
sg24
V1998-99
p2498
sg26
g27
sg28
(lp2499
VJerry Stackhouse
p2500
assbag1
(g2
g3
Ntp2501
Rp2502
(dp2503
g7
(dp2504
g9
V1998-99 E-X Century Essential Credentials Future #57 Joe Dumars/34
p2505
sg11
I34
sg12
VE-X Century Essential Credentials Future
p2506
sg14
(lp2507
Vhttp://www.beckett.com/basketball/1998-99/e-x-century-essential-credentials-future/57-joe-dumars34-3169008
p2508
asg17
g18
sg19
(lp2509
Vhttp://img.beckett.com/images/no-image.jpg
p2510
asg22
V#57
p2511
sg24
V1998-99
p2512
sg26
g27
sg28
(lp2513
VJoe Dumars
p2514
assbag1
(g2
g3
Ntp2515
Rp2516
(dp2517
g7
(dp2518
g9
V1998-99 E-X Century Essential Credentials Now #6 Grant Hill/6
p2519
sg11
I6
sg12
VE-X Century Essential Credentials Now
p2520
sg14
(lp2521
Vhttp://www.beckett.com/basketball/1998-99/e-x-century-essential-credentials-now/6-grant-hill6-3169054
p2522
asg17
g18
sg19
(lp2523
Vhttp://img.beckett.com/images/no-image.jpg
p2524
asg22
V#6
p2525
sg24
V1998-99
p2526
sg26
g27
sg28
(lp2527
VGrant Hill
p2528
assbag1
(g2
g3
Ntp2529
Rp2530
(dp2531
g7
(dp2532
g9
V1998-99 E-X Century Essential Credentials Now #46 Jerry Stackhouse/46
p2533
sg11
I46
sg12
VE-X Century Essential Credentials Now
p2534
sg14
(lp2535
Vhttp://www.beckett.com/basketball/1998-99/e-x-century-essential-credentials-now/46-jerry-stackhouse46-3169094
p2536
asg17
g18
sg19
(lp2537
Vhttp://img.beckett.com/images/no-image.jpg
p2538
asg22
V#46
p2539
sg24
V1998-99
p2540
sg26
g27
sg28
(lp2541
VJerry Stackhouse
p2542
assbag1
(g2
g3
Ntp2543
Rp2544
(dp2545
g7
(dp2546
g9
V1998-99 E-X Century Essential Credentials Now #57 Joe Dumars/57
p2547
sg11
I57
sg12
VE-X Century Essential Credentials Now
p2548
sg14
(lp2549
Vhttp://www.beckett.com/basketball/1998-99/e-x-century-essential-credentials-now/57-joe-dumars57-3169105
p2550
asg17
g18
sg19
(lp2551
Vhttp://img.beckett.com/images/no-image.jpg
p2552
asg22
V#57
p2553
sg24
V1998-99
p2554
sg26
g27
sg28
(lp2555
VJoe Dumars
p2556
assbag1
(g2
g3
Ntp2557
Rp2558
(dp2559
g7
(dp2560
g9
V1998-99 Finest Centurions Refractors #C1 Grant Hill
p2561
sg11
I75
sg12
VFinest Centurions Refractors
p2562
sg14
(lp2563
Vhttp://www.beckett.com/basketball/1998-99/finest-centurions-refractors/c1-grant-hill-3170329
p2564
asg17
g18
sg19
(lp2565
Vhttp://img.beckett.com/images/no-image.jpg
p2566
asg22
V#C1
p2567
sg24
V1998-99
p2568
sg26
g27
sg28
(lp2569
VGrant Hill
p2570
assbag1
(g2
g3
Ntp2571
Rp2572
(dp2573
g7
(dp2574
g9
V1998-99 Finest Court Control Refractors #CC7 Grant Hill
p2575
sg11
I150
sg12
VFinest Court Control Refractors
p2576
sg14
(lp2577
Vhttp://www.beckett.com/basketball/1998-99/finest-court-control-refractors/cc7-grant-hill-3170395
p2578
asg17
g18
sg19
(lp2579
Vhttp://img.beckett.com/images/items_stock/185226/3170381/3170395/front.jpg
p2580
asg22
V#CC7
p2581
sg24
V1998-99
p2582
sg26
g27
sg28
(lp2583
VGrant Hill
p2584
assbag1
(g2
g3
Ntp2585
Rp2586
(dp2587
g7
(dp2588
g9
V1998-99 Hoops Slam Bams #8 Grant Hill
p2589
sg11
I100
sg12
VHoops Slam Bams
p2590
sg14
(lp2591
Vhttp://www.beckett.com/basketball/1998-99/hoops-slam-bams/8-grant-hill-3166394
p2592
asg17
g18
sg19
(lp2593
Vhttp://img.beckett.com/images/no-image.jpg
p2594
asg22
V#8
p2595
sg24
V1998-99
p2596
sg26
g27
sg28
(lp2597
VGrant Hill
p2598
assbag1
(g2
g3
Ntp2599
Rp2600
(dp2601
g7
(dp2602
g9
V1998-99 SkyBox Molten Metal Fusion #37 Grant Hill
p2603
sg11
I250
sg12
VSkyBox Molten Metal Fusion
p2604
sg14
(lp2605
Vhttp://www.beckett.com/basketball/1998-99/skybox-molten-metal-fusion/37-grant-hill-3164734
p2606
asg17
g18
sg19
(lp2607
Vhttp://img.beckett.com/images/no-image.jpg
p2608
asg22
V#37
p2609
sg24
V1998-99
p2610
sg26
g27
sg28
(lp2611
VGrant Hill
p2612
assbag1
(g2
g3
Ntp2613
Rp2614
(dp2615
g7
(dp2616
g9
V1998-99 SkyBox Molten Metal Fusion Titanium #37 Grant Hill
p2617
sg11
I40
sg12
VSkyBox Molten Metal Fusion Titanium
p2618
sg14
(lp2619
Vhttp://www.beckett.com/basketball/1998-99/skybox-molten-metal-fusion-titanium/37-grant-hill-3164796
p2620
asg17
g18
sg19
(lp2621
Vhttp://img.beckett.com/images/no-image.jpg
p2622
asg22
V#37
p2623
sg24
V1998-99
p2624
sg26
g27
sg28
(lp2625
VGrant Hill
p2626
assbag1
(g2
g3
Ntp2627
Rp2628
(dp2629
g7
(dp2630
g9
V1998-99 SkyBox Premium Autographics Blue #54 Grant Hill
p2631
sg11
I50
sg12
VSkyBox Premium Autographics Blue
p2632
sg14
(lp2633
Vhttp://www.beckett.com/basketball/1998-99/skybox-premium-autographics-blue/54-grant-hill-3165609
p2634
asg17
g18
sg19
(lp2635
Vhttp://img.beckett.com/images/no-image.jpg
p2636
asg22
V#54
p2637
sS'autograph'
p2638
I1
sg24
V1998-99
p2639
sg26
g27
sg28
(lp2640
VGrant Hill
p2641
assbag1
(g2
g3
Ntp2642
Rp2643
(dp2644
g7
(dp2645
g9
V1998-99 SkyBox Premium Autographics Blue #97 Scot Pollard
p2646
sg11
I50
sg12
VSkyBox Premium Autographics Blue
p2647
sg14
(lp2648
Vhttp://www.beckett.com/basketball/1998-99/skybox-premium-autographics-blue/97-scot-pollard-3165652
p2649
asg17
g18
sg19
(lp2650
Vhttp://img.beckett.com/images/no-image.jpg
p2651
asg22
V#97
p2652
sg2638
I1
sg24
V1998-99
p2653
sg26
g27
sg28
(lp2654
VScot Pollard
p2655
assbag1
(g2
g3
Ntp2656
Rp2657
(dp2658
g7
(dp2659
g9
V1998-99 SkyBox Premium Autographics Blue #117 Jerry Stackhouse
p2660
sg11
I50
sg12
VSkyBox Premium Autographics Blue
p2661
sg14
(lp2662
Vhttp://www.beckett.com/basketball/1998-99/skybox-premium-autographics-blue/117-jerry-stackhouse-3165672
p2663
asg17
g18
sg19
(lp2664
Vhttp://img.beckett.com/images/no-image.jpg
p2665
asg22
V#117
p2666
sg2638
I1
sg24
V1998-99
p2667
sg26
g27
sg28
(lp2668
VJerry Stackhouse
p2669
assbag1
(g2
g3
Ntp2670
Rp2671
(dp2672
g7
(dp2673
g9
V1998-99 UD Choice StarQuest Gold #SQ8 Grant Hill
p2674
sg11
I100
sg12
VUD Choice StarQuest Gold
p2675
sg14
(lp2676
Vhttp://www.beckett.com/basketball/1998-99/ud-choice-starquest-gold/sq8-grant-hill-3159469
p2677
asg17
g18
sg19
(lp2678
Vhttp://img.beckett.com/images/no-image.jpg
p2679
asg22
V#SQ8
p2680
sg24
V1998-99
p2681
sg26
g27
sg28
(lp2682
VGrant Hill
p2683
assbag1
(g2
g3
Ntp2684
Rp2685
(dp2686
g7
(dp2687
g9
V1998-99 Upper Deck AeroDynamics Bronze #A9 Grant Hill
p2688
sg11
I2000
sg12
VUpper Deck AeroDynamics Bronze
p2689
sg14
(lp2690
Vhttp://www.beckett.com/basketball/1998-99/upper-deck-aerodynamics-bronze/a9-grant-hill-3155728
p2691
asg17
g18
sg19
(lp2692
Vhttp://img.beckett.com/images/items_stock/185226/3155712/3155728/front.jpg
p2693
asg22
V#A9
p2694
sg24
V1998-99
p2695
sg26
g27
sg28
(lp2696
VGrant Hill
p2697
assbag1
(g2
g3
Ntp2698
Rp2699
(dp2700
g7
(dp2701
g9
V1998-99 Upper Deck AeroDynamics Silver #A9 Grant Hill
p2702
sg11
I100
sg12
VUpper Deck AeroDynamics Silver
p2703
sg14
(lp2704
Vhttp://www.beckett.com/basketball/1998-99/upper-deck-aerodynamics-silver/a9-grant-hill-3155804
p2705
asg17
g18
sg19
(lp2706
Vhttp://img.beckett.com/images/no-image.jpg
p2707
asg22
V#A9
p2708
sg24
V1998-99
p2709
sg26
g27
sg28
(lp2710
VGrant Hill
p2711
assbag1
(g2
g3
Ntp2712
Rp2713
(dp2714
g7
(dp2715
g9
V1998-99 Upper Deck AeroDynamics Gold #A9 Grant Hill
p2716
sg11
I25
sg12
VUpper Deck AeroDynamics Gold
p2717
sg14
(lp2718
Vhttp://www.beckett.com/basketball/1998-99/upper-deck-aerodynamics-gold/a9-grant-hill-3155766
p2719
asg17
g18
sg19
(lp2720
Vhttp://img.beckett.com/images/no-image.jpg
p2721
asg22
V#A9
p2722
sg24
V1998-99
p2723
sg26
g27
sg28
(lp2724
VGrant Hill
p2725
assbag1
(g2
g3
Ntp2726
Rp2727
(dp2728
g7
(dp2729
g9
V1998-99 Upper Deck Forces Bronze #F22 Grant Hill
p2730
sg11
I1000
sg12
VUpper Deck Forces Bronze
p2731
sg14
(lp2732
Vhttp://www.beckett.com/basketball/1998-99/upper-deck-forces-bronze/f22-grant-hill-3155899
p2733
asg17
g18
sg19
(lp2734
Vhttp://img.beckett.com/images/items_stock/185226/3155870/3155899/front.jpg
p2735
asg22
V#F22
p2736
sg24
V1998-99
p2737
sg26
g27
sg28
(lp2738
VGrant Hill
p2739
assbag1
(g2
g3
Ntp2740
Rp2741
(dp2742
g7
(dp2743
g9
V1998-99 Upper Deck Forces Silver #F22 Grant Hill
p2744
sg11
I50
sg12
VUpper Deck Forces Silver
p2745
sg14
(lp2746
Vhttp://www.beckett.com/basketball/1998-99/upper-deck-forces-silver/f22-grant-hill-3155975
p2747
asg17
g18
sg19
(lp2748
Vhttp://img.beckett.com/images/no-image.jpg
p2749
asg22
V#F22
p2750
sg24
V1998-99
p2751
sg26
g27
sg28
(lp2752
VGrant Hill
p2753
assbag1
(g2
g3
Ntp2754
Rp2755
(dp2756
g7
(dp2757
g9
V1998-99 Upper Deck Forces Gold #F22 Grant Hill
p2758
sg11
I25
sg12
VUpper Deck Forces Gold
p2759
sg14
(lp2760
Vhttp://www.beckett.com/basketball/1998-99/upper-deck-forces-gold/f22-grant-hill-3155937
p2761
asg17
g18
sg19
(lp2762
Vhttp://img.beckett.com/images/no-image.jpg
p2763
asg22
V#F22
p2764
sg24
V1998-99
p2765
sg26
g27
sg28
(lp2766
VGrant Hill
p2767
assbag1
(g2
g3
Ntp2768
Rp2769
(dp2770
g7
(dp2771
g9
V1998-99 Upper Deck Intensity Bronze #I18 Jerry Stackhouse
p2772
sg11
I1500
sg12
VUpper Deck Intensity Bronze
p2773
sg14
(lp2774
Vhttp://www.beckett.com/basketball/1998-99/upper-deck-intensity-bronze/i18-jerry-stackhouse-3156114
p2775
asg17
g18
sg19
(lp2776
Vhttp://img.beckett.com/images/items_stock/185226/3156089/3156114/front.jpg
p2777
asg22
V#I18
p2778
sg24
V1998-99
p2779
sg26
g27
sg28
(lp2780
VJerry Stackhouse
p2781
assbag1
(g2
g3
Ntp2782
Rp2783
(dp2784
g7
(dp2785
g9
V1998-99 Upper Deck Intensity Silver #I18 Jerry Stackhouse
p2786
sg11
I75
sg12
VUpper Deck Intensity Silver
p2787
sg14
(lp2788
Vhttp://www.beckett.com/basketball/1998-99/upper-deck-intensity-silver/i18-jerry-stackhouse-3156190
p2789
asg17
g18
sg19
(lp2790
Vhttp://img.beckett.com/images/no-image.jpg
p2791
asg22
V#I18
p2792
sg24
V1998-99
p2793
sg26
g27
sg28
(lp2794
VJerry Stackhouse
p2795
assbag1
(g2
g3
Ntp2796
Rp2797
(dp2798
g7
(dp2799
g9
V1998-99 Upper Deck Intensity Gold #I18 Jerry Stackhouse
p2800
sg11
I25
sg12
VUpper Deck Intensity Gold
p2801
sg14
(lp2802
Vhttp://www.beckett.com/basketball/1998-99/upper-deck-intensity-gold/i18-jerry-stackhouse-3156152
p2803
asg17
g18
sg19
(lp2804
Vhttp://img.beckett.com/images/no-image.jpg
p2805
asg22
V#I18
p2806
sg24
V1998-99
p2807
sg26
g27
sg28
(lp2808
VJerry Stackhouse
p2809
assbag1
(g2
g3
Ntp2810
Rp2811
(dp2812
g7
(dp2813
g9
V1998-99 Upper Deck Super Powers Bronze #S8 Grant Hill
p2814
sg11
I1000
sg12
VUpper Deck Super Powers Bronze
p2815
sg14
(lp2816
Vhttp://www.beckett.com/basketball/1998-99/upper-deck-super-powers-bronze/s8-grant-hill-3154815
p2817
asg17
g18
sg19
(lp2818
Vhttp://img.beckett.com/images/items_stock/185226/3154800/3154815/front.jpg
p2819
asg22
V#S8
p2820
sg24
V1998-99
p2821
sg26
g27
sg28
(lp2822
VGrant Hill
p2823
assbag1
(g2
g3
Ntp2824
Rp2825
(dp2826
g7
(dp2827
g9
V1998-99 Upper Deck Super Powers Silver #S8 Grant Hill
p2828
sg11
I100
sg12
VUpper Deck Super Powers Silver
p2829
sg14
(lp2830
Vhttp://www.beckett.com/basketball/1998-99/upper-deck-super-powers-silver/s8-grant-hill-3154891
p2831
asg17
g18
sg19
(lp2832
Vhttp://img.beckett.com/images/no-image.jpg
p2833
asg22
V#S8
p2834
sg24
V1998-99
p2835
sg26
g27
sg28
(lp2836
VGrant Hill
p2837
assbag1
(g2
g3
Ntp2838
Rp2839
(dp2840
g7
(dp2841
g9
V1998-99 Upper Deck Super Powers Gold #S8 Grant Hill
p2842
sg11
I50
sg12
VUpper Deck Super Powers Gold
p2843
sg14
(lp2844
Vhttp://www.beckett.com/basketball/1998-99/upper-deck-super-powers-gold/s8-grant-hill-3154853
p2845
asg17
g18
sg19
(lp2846
Vhttp://img.beckett.com/images/no-image.jpg
p2847
asg22
V#S8
p2848
sg24
V1998-99
p2849
sg26
g27
sg28
(lp2850
VGrant Hill
p2851
assbag1
(g2
g3
Ntp2852
Rp2853
(dp2854
g7
(dp2855
g9
V1998-99 Upper Deck Encore Driving Forces F/X #F8 Grant Hill
p2856
sg11
I500
sg12
VUpper Deck Encore Driving Forces F/X
p2857
sg14
(lp2858
Vhttp://www.beckett.com/basketball/1998-99/upper-deck-encore-driving-forces-fx/f8-grant-hill-3155293
p2859
asg17
g18
sg19
(lp2860
Vhttp://img.beckett.com/images/items_stock/185226/3155278/3155293/front.jpg
p2861
asg22
V#F8
p2862
sg24
V1998-99
p2863
sg26
g27
sg28
(lp2864
VGrant Hill
p2865
assba.