(lp0
Naccopy_reg
_reconstructor
p1
(ctutorial.items
BeckettItem
p2
c__builtin__
object
p3
Ntp4
Rp5
(dp6
S'_values'
p7
(dp8
S'originalItemDescription'
p9
V1998 Collector's Edge Air Apparent Jumbos #NNO Kobe Bryant/1998
p10
sS'serialNumber'
p11
I1998
sS'setName'
p12
VCollector's Edge Air Apparent Jumbos
p13
sS'beckettLink'
p14
(lp15
Vhttp://www.beckett.com/basketball/1998/collectors-edge-air-apparent-jumbos/nno-kobe-bryant1998-8880871
p16
asS'team'
p17
S'Los Angeles Lakers'
p18
sS'imageLink'
p19
(lp20
Vhttp://img.beckett.com/images/no-image.jpg
p21
asS'cardNumber'
p22
V#NNO
p23
sS'year'
p24
V1998
p25
sS'sport'
p26
S'Basketball'
p27
sS'playerNames'
p28
(lp29
VKobe Bryant
p30
assbag1
(g2
g3
Ntp31
Rp32
(dp33
g7
(dp34
g9
V1998 Upper Deck Hardcourt Home Court Advantage Plus #1 Kobe Bryant
p35
sg11
I500
sg12
VUpper Deck Hardcourt Home Court Advantage Plus
p36
sg14
(lp37
Vhttp://www.beckett.com/basketball/1998/upper-deck-hardcourt-home-court-advantage-plus/1-kobe-bryant-3150413
p38
asg17
g18
sg19
(lp39
Vhttp://img.beckett.com/images/no-image.jpg
p40
asg22
V#1
p41
sg24
V1998
p42
sg26
g27
sg28
(lp43
VKobe Bryant
p44
assbag1
(g2
g3
Ntp45
Rp46
(dp47
g7
(dp48
g9
V1998 Upper Deck Hardcourt Home Court Advantage Plus #53 Shaquille O'Neal
p49
sg11
I500
sg12
VUpper Deck Hardcourt Home Court Advantage Plus
p50
sg14
(lp51
Vhttp://www.beckett.com/basketball/1998/upper-deck-hardcourt-home-court-advantage-plus/53-shaquille-oneal-3150465
p52
asg17
g18
sg19
(lp53
Vhttp://img.beckett.com/images/no-image.jpg
p54
asg22
V#53
p55
sg24
V1998
p56
sg26
g27
sg28
(lp57
VShaquille O'Neal
p58
assbag1
(g2
g3
Ntp59
Rp60
(dp61
g7
(dp62
g9
V1998 Collector's Edge Impulse Jersey City '99 Gold #26 Kobe Bryant
p63
sg11
I5000
sg12
VCollector's Edge Impulse Jersey City '99 Gold
p64
sg14
(lp65
Vhttp://www.beckett.com/basketball/1998/collectors-edge-impulse-jersey-city-99-gold/26-kobe-bryant-3151252
p66
asg17
g18
sg19
(lp67
Vhttp://img.beckett.com/images/no-image.jpg
p68
asg22
V#26
p69
sg24
V1998
p70
sg26
g27
sg28
(lp71
VKobe Bryant
p72
assbag1
(g2
g3
Ntp73
Rp74
(dp75
g7
(dp76
g9
V1998 Collector's Edge Impulse Jersey City '99 Gold #51 Paul Pierce/Kobe Bryant
p77
sg11
I5000
sg12
VCollector's Edge Impulse Jersey City '99 Gold
p78
sg14
(lp79
Vhttp://www.beckett.com/basketball/1998/collectors-edge-impulse-jersey-city-99-gold/51-paul-piercekobe-bryant-3151277
p80
asg17
g18
sg19
(lp81
Vhttp://img.beckett.com/images/no-image.jpg
p82
asg22
V#51
p83
sg24
V1998
p84
sg26
g27
sg28
(lp85
VPaul Pierce
p86
aVKobe Bryant
p87
assbag1
(g2
g3
Ntp88
Rp89
(dp90
g7
(dp91
g9
V1998 Collector's Edge Impulse Jersey City '99 Gold #56 Michael Olowokandi/Kobe Bryant
p92
sg11
I5000
sg12
VCollector's Edge Impulse Jersey City '99 Gold
p93
sg14
(lp94
Vhttp://www.beckett.com/basketball/1998/collectors-edge-impulse-jersey-city-99-gold/56-michael-olowokandikobe-bryant-3151282
p95
asg17
g18
sg19
(lp96
Vhttp://img.beckett.com/images/no-image.jpg
p97
asg22
V#56
p98
sg24
V1998
p99
sg26
g27
sg28
(lp100
VMichael Olowokandi
p101
aVKobe Bryant
p102
assbag1
(g2
g3
Ntp103
Rp104
(dp105
g7
(dp106
g9
V1998 Collector's Edge Impulse Jersey City '99 Gold #61 Corey Benjamin/Kobe Bryant
p107
sg11
I5000
sg12
VCollector's Edge Impulse Jersey City '99 Gold
p108
sg14
(lp109
Vhttp://www.beckett.com/basketball/1998/collectors-edge-impulse-jersey-city-99-gold/61-corey-benjaminkobe-bryant-3151287
p110
asg17
g18
sg19
(lp111
Vhttp://img.beckett.com/images/no-image.jpg
p112
asg22
V#61
p113
sg24
V1998
p114
sg26
g27
sg28
(lp115
VCorey Benjamin
p116
aVKobe Bryant
p117
assbag1
(g2
g3
Ntp118
Rp119
(dp120
g7
(dp121
g9
V1998 Collector's Edge Impulse Jersey City '99 Gold #66 Rashard Lewis/Kobe Bryant
p122
sg11
I5000
sg12
VCollector's Edge Impulse Jersey City '99 Gold
p123
sg14
(lp124
Vhttp://www.beckett.com/basketball/1998/collectors-edge-impulse-jersey-city-99-gold/66-rashard-lewiskobe-bryant-3151292
p125
asg17
g18
sg19
(lp126
Vhttp://img.beckett.com/images/no-image.jpg
p127
asg22
V#66
p128
sg24
V1998
p129
sg26
g27
sg28
(lp130
VRashard Lewis
p131
aVKobe Bryant
p132
assbag1
(g2
g3
Ntp133
Rp134
(dp135
g7
(dp136
g9
V1998 Collector's Edge Impulse Jersey City '99 Gold #71 Toby Bailey/Kobe Bryant
p137
sg11
I5000
sg12
VCollector's Edge Impulse Jersey City '99 Gold
p138
sg14
(lp139
Vhttp://www.beckett.com/basketball/1998/collectors-edge-impulse-jersey-city-99-gold/71-toby-baileykobe-bryant-3151297
p140
asg17
g18
sg19
(lp141
Vhttp://img.beckett.com/images/no-image.jpg
p142
asg22
V#71
p143
sg24
V1998
p144
sg26
g27
sg28
(lp145
VToby Bailey
p146
aVKobe Bryant
p147
assbag1
(g2
g3
Ntp148
Rp149
(dp150
g7
(dp151
g9
V1998 Collector's Edge Impulse Jersey City '99 Gold #76 Radoslav Nesterovic/Kobe Bryant
p152
sg11
I5000
sg12
VCollector's Edge Impulse Jersey City '99 Gold
p153
sg14
(lp154
Vhttp://www.beckett.com/basketball/1998/collectors-edge-impulse-jersey-city-99-gold/76-radoslav-nesterovickobe-bryant-3151302
p155
asg17
g18
sg19
(lp156
Vhttp://img.beckett.com/images/no-image.jpg
p157
asg22
V#76
p158
sg24
V1998
p159
sg26
g27
sg28
(lp160
VRadoslav Nesterovic
p161
aVKobe Bryant
p162
assbag1
(g2
g3
Ntp163
Rp164
(dp165
g7
(dp166
g9
V1998 Collector's Edge Impulse Jersey City '99 Gold #81 Felipe Lopez/Kobe Bryant
p167
sg11
I5000
sg12
VCollector's Edge Impulse Jersey City '99 Gold
p168
sg14
(lp169
Vhttp://www.beckett.com/basketball/1998/collectors-edge-impulse-jersey-city-99-gold/81-felipe-lopezkobe-bryant-3151307
p170
asg17
g18
sg19
(lp171
Vhttp://img.beckett.com/images/no-image.jpg
p172
asg22
V#81
p173
sg24
V1998
p174
sg26
g27
sg28
(lp175
VFelipe Lopez
p176
aVKobe Bryant
p177
assbag1
(g2
g3
Ntp178
Rp179
(dp180
g7
(dp181
g9
V1998 Collector's Edge Impulse Jersey City '99 Gold #86 Zendon Hamilton/Kobe Bryant
p182
sg11
I5000
sg12
VCollector's Edge Impulse Jersey City '99 Gold
p183
sg14
(lp184
Vhttp://www.beckett.com/basketball/1998/collectors-edge-impulse-jersey-city-99-gold/86-zendon-hamiltonkobe-bryant-3151312
p185
asg17
g18
sg19
(lp186
Vhttp://img.beckett.com/images/no-image.jpg
p187
asg22
V#86
p188
sg24
V1998
p189
sg26
g27
sg28
(lp190
VZendon Hamilton
p191
aVKobe Bryant
p192
assbag1
(g2
g3
Ntp193
Rp194
(dp195
g7
(dp196
g9
V1998 Collector's Edge Impulse Jersey City '99 Gold #91 Korleone Young/Kobe Bryant
p197
sg11
I5000
sg12
VCollector's Edge Impulse Jersey City '99 Gold
p198
sg14
(lp199
Vhttp://www.beckett.com/basketball/1998/collectors-edge-impulse-jersey-city-99-gold/91-korleone-youngkobe-bryant-3151317
p200
asg17
g18
sg19
(lp201
Vhttp://img.beckett.com/images/no-image.jpg
p202
asg22
V#91
p203
sg24
V1998
p204
sg26
g27
sg28
(lp205
VKorleone Young
p206
aVKobe Bryant
p207
assbag1
(g2
g3
Ntp208
Rp209
(dp210
g7
(dp211
g9
V1998 Collector's Edge Impulse Jersey City '99 Gold #96 Al Harrington/Kobe Bryant
p212
sg11
I5000
sg12
VCollector's Edge Impulse Jersey City '99 Gold
p213
sg14
(lp214
Vhttp://www.beckett.com/basketball/1998/collectors-edge-impulse-jersey-city-99-gold/96-al-harringtonkobe-bryant-3151322
p215
asg17
g18
sg19
(lp216
Vhttp://img.beckett.com/images/no-image.jpg
p217
asg22
V#96
p218
sg24
V1998
p219
sg26
g27
sg28
(lp220
VAl Harrington
p221
aVKobe Bryant
p222
assbag1
(g2
g3
Ntp223
Rp224
(dp225
g7
(dp226
g9
V1998 Collector's Edge Impulse Jersey City '99 Parallel 50 #26 Kobe Bryant
p227
sg11
I50
sg12
VCollector's Edge Impulse Jersey City '99 Parallel 50
p228
sg14
(lp229
Vhttp://www.beckett.com/basketball/1998/collectors-edge-impulse-jersey-city-99-parallel-50/26-kobe-bryant-3151359
p230
asg17
g18
sg19
(lp231
Vhttp://img.beckett.com/images/no-image.jpg
p232
asg22
V#26
p233
sg24
V1998
p234
sg26
g27
sg28
(lp235
VKobe Bryant
p236
assbag1
(g2
g3
Ntp237
Rp238
(dp239
g7
(dp240
g9
V1998 Collector's Edge Impulse Jersey City '99 Parallel 50 #51 Paul Pierce/Kobe Bryant
p241
sg11
I50
sg12
VCollector's Edge Impulse Jersey City '99 Parallel 50
p242
sg14
(lp243
Vhttp://www.beckett.com/basketball/1998/collectors-edge-impulse-jersey-city-99-parallel-50/51-paul-piercekobe-bryant-3151384
p244
asg17
g18
sg19
(lp245
Vhttp://img.beckett.com/images/no-image.jpg
p246
asg22
V#51
p247
sg24
V1998
p248
sg26
g27
sg28
(lp249
VPaul Pierce
p250
aVKobe Bryant
p251
assbag1
(g2
g3
Ntp252
Rp253
(dp254
g7
(dp255
g9
V1998 Collector's Edge Impulse Jersey City '99 Parallel 50 #56 Michael Olowokandi/Kobe Bryant
p256
sg11
I50
sg12
VCollector's Edge Impulse Jersey City '99 Parallel 50
p257
sg14
(lp258
Vhttp://www.beckett.com/basketball/1998/collectors-edge-impulse-jersey-city-99-parallel-50/56-michael-olowokandikobe-bryant-3151389
p259
asg17
g18
sg19
(lp260
Vhttp://img.beckett.com/images/no-image.jpg
p261
asg22
V#56
p262
sg24
V1998
p263
sg26
g27
sg28
(lp264
VMichael Olowokandi
p265
aVKobe Bryant
p266
assbag1
(g2
g3
Ntp267
Rp268
(dp269
g7
(dp270
g9
V1998 Collector's Edge Impulse Jersey City '99 Parallel 50 #61 Corey Benjamin/Kobe Bryant
p271
sg11
I50
sg12
VCollector's Edge Impulse Jersey City '99 Parallel 50
p272
sg14
(lp273
Vhttp://www.beckett.com/basketball/1998/collectors-edge-impulse-jersey-city-99-parallel-50/61-corey-benjaminkobe-bryant-3151394
p274
asg17
g18
sg19
(lp275
Vhttp://img.beckett.com/images/no-image.jpg
p276
asg22
V#61
p277
sg24
V1998
p278
sg26
g27
sg28
(lp279
VCorey Benjamin
p280
aVKobe Bryant
p281
assbag1
(g2
g3
Ntp282
Rp283
(dp284
g7
(dp285
g9
V1998 Collector's Edge Impulse Jersey City '99 Parallel 50 #66 Rashard Lewis/Kobe Bryant
p286
sg11
I50
sg12
VCollector's Edge Impulse Jersey City '99 Parallel 50
p287
sg14
(lp288
Vhttp://www.beckett.com/basketball/1998/collectors-edge-impulse-jersey-city-99-parallel-50/66-rashard-lewiskobe-bryant-3151399
p289
asg17
g18
sg19
(lp290
Vhttp://img.beckett.com/images/no-image.jpg
p291
asg22
V#66
p292
sg24
V1998
p293
sg26
g27
sg28
(lp294
VRashard Lewis
p295
aVKobe Bryant
p296
assbag1
(g2
g3
Ntp297
Rp298
(dp299
g7
(dp300
g9
V1998 Collector's Edge Impulse Jersey City '99 Parallel 50 #71 Toby Bailey/Kobe Bryant
p301
sg11
I50
sg12
VCollector's Edge Impulse Jersey City '99 Parallel 50
p302
sg14
(lp303
Vhttp://www.beckett.com/basketball/1998/collectors-edge-impulse-jersey-city-99-parallel-50/71-toby-baileykobe-bryant-3151404
p304
asg17
g18
sg19
(lp305
Vhttp://img.beckett.com/images/no-image.jpg
p306
asg22
V#71
p307
sg24
V1998
p308
sg26
g27
sg28
(lp309
VToby Bailey
p310
aVKobe Bryant
p311
assbag1
(g2
g3
Ntp312
Rp313
(dp314
g7
(dp315
g9
V1998 Collector's Edge Impulse Jersey City '99 Parallel 50 #76 Radoslav Nesterovic/Kobe Bryant
p316
sg11
I50
sg12
VCollector's Edge Impulse Jersey City '99 Parallel 50
p317
sg14
(lp318
Vhttp://www.beckett.com/basketball/1998/collectors-edge-impulse-jersey-city-99-parallel-50/76-radoslav-nesterovickobe-bryant-3151409
p319
asg17
g18
sg19
(lp320
Vhttp://img.beckett.com/images/no-image.jpg
p321
asg22
V#76
p322
sg24
V1998
p323
sg26
g27
sg28
(lp324
VRadoslav Nesterovic
p325
aVKobe Bryant
p326
assbag1
(g2
g3
Ntp327
Rp328
(dp329
g7
(dp330
g9
V1998 Collector's Edge Impulse Jersey City '99 Parallel 50 #81 Felipe Lopez/Kobe Bryant
p331
sg11
I50
sg12
VCollector's Edge Impulse Jersey City '99 Parallel 50
p332
sg14
(lp333
Vhttp://www.beckett.com/basketball/1998/collectors-edge-impulse-jersey-city-99-parallel-50/81-felipe-lopezkobe-bryant-3151414
p334
asg17
g18
sg19
(lp335
Vhttp://img.beckett.com/images/no-image.jpg
p336
asg22
V#81
p337
sg24
V1998
p338
sg26
g27
sg28
(lp339
VFelipe Lopez
p340
aVKobe Bryant
p341
assbag1
(g2
g3
Ntp342
Rp343
(dp344
g7
(dp345
g9
V1998 Collector's Edge Impulse Jersey City '99 Parallel 50 #86 Zendon Hamilton/Kobe Bryant
p346
sg11
I50
sg12
VCollector's Edge Impulse Jersey City '99 Parallel 50
p347
sg14
(lp348
Vhttp://www.beckett.com/basketball/1998/collectors-edge-impulse-jersey-city-99-parallel-50/86-zendon-hamiltonkobe-bryant-3151419
p349
asg17
g18
sg19
(lp350
Vhttp://img.beckett.com/images/no-image.jpg
p351
asg22
V#86
p352
sg24
V1998
p353
sg26
g27
sg28
(lp354
VZendon Hamilton
p355
aVKobe Bryant
p356
assbag1
(g2
g3
Ntp357
Rp358
(dp359
g7
(dp360
g9
V1998 Collector's Edge Impulse Jersey City '99 Parallel 50 #91 Korleone Young/Kobe Bryant
p361
sg11
I50
sg12
VCollector's Edge Impulse Jersey City '99 Parallel 50
p362
sg14
(lp363
Vhttp://www.beckett.com/basketball/1998/collectors-edge-impulse-jersey-city-99-parallel-50/91-korleone-youngkobe-bryant-3151424
p364
asg17
g18
sg19
(lp365
Vhttp://img.beckett.com/images/no-image.jpg
p366
asg22
V#91
p367
sg24
V1998
p368
sg26
g27
sg28
(lp369
VKorleone Young
p370
aVKobe Bryant
p371
assbag1
(g2
g3
Ntp372
Rp373
(dp374
g7
(dp375
g9
V1998 Collector's Edge Impulse Jersey City '99 Parallel 50 #96 Al Harrington/Kobe Bryant
p376
sg11
I50
sg12
VCollector's Edge Impulse Jersey City '99 Parallel 50
p377
sg14
(lp378
Vhttp://www.beckett.com/basketball/1998/collectors-edge-impulse-jersey-city-99-parallel-50/96-al-harringtonkobe-bryant-3151429
p379
asg17
g18
sg19
(lp380
Vhttp://img.beckett.com/images/no-image.jpg
p381
asg22
V#96
p382
sg24
V1998
p383
sg26
g27
sg28
(lp384
VAl Harrington
p385
aVKobe Bryant
p386
assbag1
(g2
g3
Ntp387
Rp388
(dp389
g7
(dp390
g9
V1998 Upper Deck Hardcourt High Court #H13 Kobe Bryant
p391
sg11
I1300
sg12
VUpper Deck Hardcourt High Court
p392
sg14
(lp393
Vhttp://www.beckett.com/basketball/1998/upper-deck-hardcourt-high-court/h13-kobe-bryant-3150522
p394
asg17
g18
sg19
(lp395
Vhttp://img.beckett.com/images/items_stock/185226/3150503/3150522/front.jpg
p396
asg22
V#H13
p397
sg24
V1998
p398
sg26
g27
sg28
(lp399
VKobe Bryant
p400
assbag1
(g2
g3
Ntp401
Rp402
(dp403
g7
(dp404
g9
V1998 Upper Deck Hardcourt Jordan Holding Court Red #J13 Kobe Bryant/Michael Jordan
p405
sg11
I2300
sg12
VUpper Deck Hardcourt Jordan Holding Court Red
p406
sg14
(lp407
Vhttp://www.beckett.com/basketball/1998/upper-deck-hardcourt-jordan-holding-court-red/j13-kobe-bryantmichael-jordan-3150566
p408
asg17
g18
sg19
(lp409
Vhttp://img.beckett.com/images/no-image.jpg
p410
asg22
V#J13
p411
sg24
V1998
p412
sg26
g27
sg28
(lp413
VKobe Bryant
p414
aVMichael Jordan
p415
assbag1
(g2
g3
Ntp416
Rp417
(dp418
g7
(dp419
g9
V1998 SAGE Autographs #A6 Kobe Bryant/129
p420
sg11
I129
sg12
VSAGE Autographs
p421
sg14
(lp422
Vhttp://www.beckett.com/basketball/1998/sage-autographs/a6-kobe-bryant129-3152633
p423
asg17
g18
sg19
(lp424
Vhttp://img.beckett.com/images/no-image.jpg
p425
asg22
V#A6
p426
sS'autograph'
p427
I1
sg24
V1998
p428
sg26
g27
sg28
(lp429
VKobe Bryant
p430
assbag1
(g2
g3
Ntp431
Rp432
(dp433
g7
(dp434
g9
V1998 SAGE Autographs Bronze #A6 Kobe Bryant/85
p435
sg11
I85
sg12
VSAGE Autographs Bronze
p436
sg14
(lp437
Vhttp://www.beckett.com/basketball/1998/sage-autographs-bronze/a6-kobe-bryant85-3152693
p438
asg17
g18
sg19
(lp439
Vhttp://img.beckett.com/images/no-image.jpg
p440
asg22
V#A6
p441
sg427
I1
sg24
V1998
p442
sg26
g27
sg28
(lp443
VKobe Bryant
p444
assbag1
(g2
g3
Ntp445
Rp446
(dp447
g7
(dp448
g9
V1998 SAGE Autographs Gold #A6 Kobe Bryant/30
p449
sg11
I30
sg12
VSAGE Autographs Gold
p450
sg14
(lp451
Vhttp://www.beckett.com/basketball/1998/sage-autographs-gold/a6-kobe-bryant30-3152811
p452
asg17
g18
sg19
(lp453
Vhttp://img.beckett.com/images/no-image.jpg
p454
asg22
V#A6
p455
sg427
I1
sg24
V1998
p456
sg26
g27
sg28
(lp457
VKobe Bryant
p458
assbag1
(g2
g3
Ntp459
Rp460
(dp461
g7
(dp462
g9
V1998 SAGE Autographs Master Edition #A6 Kobe Bryant
p463
sg11
I1
sg12
VSAGE Autographs Master Edition
p464
sg14
(lp465
Vhttp://www.beckett.com/basketball/1998/sage-autographs-master-edition/a6-kobe-bryant-3152099
p466
asg17
g18
sg19
(lp467
Vhttp://img.beckett.com/images/no-image.jpg
p468
asg22
V#A6
p469
sg427
I1
sg24
V1998
p470
sg26
g27
sg28
(lp471
VKobe Bryant
p472
assbag1
(g2
g3
Ntp473
Rp474
(dp475
g7
(dp476
g9
V1998 SAGE Autographs Platinum #A6 Kobe Bryant/5
p477
sg11
I5
sg12
VSAGE Autographs Platinum
p478
sg14
(lp479
Vhttp://www.beckett.com/basketball/1998/sage-autographs-platinum/a6-kobe-bryant5-3152871
p480
asg17
g18
sg19
(lp481
Vhttp://img.beckett.com/images/no-image.jpg
p482
asg22
V#A6
p483
sg427
I1
sg24
V1998
p484
sg26
g27
sg28
(lp485
VKobe Bryant
p486
assbag1
(g2
g3
Ntp487
Rp488
(dp489
g7
(dp490
g9
V1998 SAGE Autographs Silver #A6 Kobe Bryant/50
p491
sg11
I50
sg12
VSAGE Autographs Silver
p492
sg14
(lp493
Vhttp://www.beckett.com/basketball/1998/sage-autographs-silver/a6-kobe-bryant50-3152752
p494
asg17
g18
sg19
(lp495
Vhttp://img.beckett.com/images/no-image.jpg
p496
asg22
V#A6
p497
sg427
I1
sg24
V1998
p498
sg26
g27
sg28
(lp499
VKobe Bryant
p500
assbag1
(g2
g3
Ntp501
Rp502
(dp503
g7
(dp504
g9
V1998 Upper Deck Hardcourt Jordan Holding Court Bronze #J13 Kobe Bryant/Michael Jordan
p505
sg11
I230
sg12
VUpper Deck Hardcourt Jordan Holding Court Bronze
p506
sg14
(lp507
Vhttp://www.beckett.com/basketball/1998/upper-deck-hardcourt-jordan-holding-court-bronze/j13-kobe-bryantmichael-jordan-3150604
p508
asg17
g18
sg19
(lp509
Vhttp://img.beckett.com/images/no-image.jpg
p510
asg22
V#J13
p511
sg24
V1998
p512
sg26
g27
sg28
(lp513
VKobe Bryant
p514
aVMichael Jordan
p515
assbag1
(g2
g3
Ntp516
Rp517
(dp518
g7
(dp519
g9
V1998 Upper Deck Hardcourt Jordan Holding Court Silver #J13 Kobe Bryant/Michael Jordan
p520
sg11
I23
sg12
VUpper Deck Hardcourt Jordan Holding Court Silver
p521
sg14
(lp522
Vhttp://www.beckett.com/basketball/1998/upper-deck-hardcourt-jordan-holding-court-silver/j13-kobe-bryantmichael-jordan-3150679
p523
asg17
g18
sg19
(lp524
Vhttp://img.beckett.com/images/no-image.jpg
p525
asg22
V#J13
p526
sg24
V1998
p527
sg26
g27
sg28
(lp528
VKobe Bryant
p529
aVMichael Jordan
p530
assbag1
(g2
g3
Ntp531
Rp532
(dp533
g7
(dp534
g9
V1998 Upper Deck Hardcourt Jordan Holding Court Gold #J13 Kobe Bryant/Michael Jordan
p535
sg11
I1
sg12
VUpper Deck Hardcourt Jordan Holding Court Gold
p536
sg14
(lp537
Vhttp://www.beckett.com/basketball/1998/upper-deck-hardcourt-jordan-holding-court-gold/j13-kobe-bryantmichael-jordan-3150641
p538
asg17
g18
sg19
(lp539
Vhttp://img.beckett.com/images/no-image.jpg
p540
asg22
V#J13
p541
sg24
V1998
p542
sg26
g27
sg28
(lp543
VKobe Bryant
p544
aVMichael Jordan
p545
assbag1
(g2
g3
Ntp546
Rp547
(dp548
g7
(dp549
g9
V1998-99 SP Authentic #111 Tyronn Lue RC
p550
sg11
I3500
sg12
VSP Authentic
p551
sg14
(lp552
Vhttp://www.beckett.com/basketball/1998-99/sp-authentic/111-tyronn-lue-rc-3163033
p553
asg17
g18
sS'rookieCard'
p554
I1
sg19
(lp555
Vhttp://img.beckett.com/images/no-image.jpg
p556
asg22
V#111
p557
sg24
V1998-99
p558
sg26
g27
sg28
(lp559
VTyronn Lue
p560
assbag1
(g2
g3
Ntp561
Rp562
(dp563
g7
(dp564
g9
V1998-99 SP Authentic #114 Sam Jacobson RC
p565
sg11
I3500
sg12
VSP Authentic
p566
sg14
(lp567
Vhttp://www.beckett.com/basketball/1998-99/sp-authentic/114-sam-jacobson-rc-3163036
p568
asg17
g18
sg554
I1
sg19
(lp569
Vhttp://img.beckett.com/images/no-image.jpg
p570
asg22
V#114
p571
sg24
V1998-99
p572
sg26
g27
sg28
(lp573
VSam Jacobson
p574
assbag1
(g2
g3
Ntp575
Rp576
(dp577
g7
(dp578
g9
V1998-99 SPx Finite #50 Kobe Bryant
p579
sg11
I10000
sg12
VSPx Finite
p580
sg14
(lp581
Vhttp://www.beckett.com/basketball/1998-99/spx-finite/50-kobe-bryant-3163326
p582
asg17
g18
sg19
(lp583
Vhttp://img.beckett.com/images/items_stock/185226/3163241/3163326/front.jpg
p584
asg22
V#50
p585
sg24
V1998-99
p586
sg26
g27
sg28
(lp587
VKobe Bryant
p588
assbag1
(g2
g3
Ntp589
Rp590
(dp591
g7
(dp592
g9
V1998-99 SPx Finite #83 Shaquille O'Neal
p593
sg11
I10000
sg12
VSPx Finite
p594
sg14
(lp595
Vhttp://www.beckett.com/basketball/1998-99/spx-finite/83-shaquille-oneal-3163359
p596
asg17
g18
sg19
(lp597
Vhttp://img.beckett.com/images/items_stock/185226/3163241/3163359/front.jpg
p598
asg22
V#83
p599
sg24
V1998-99
p600
sg26
g27
sg28
(lp601
VShaquille O'Neal
p602
assbag1
(g2
g3
Ntp603
Rp604
(dp605
g7
(dp606
g9
V1998-99 SPx Finite #139 Shaquille O'Neal SP
p607
sg11
I5400
sg12
VSPx Finite
p608
sg14
(lp609
Vhttp://www.beckett.com/basketball/1998-99/spx-finite/139-shaquille-oneal-sp-3163415
p610
asg17
g18
sg19
(lp611
Vhttp://img.beckett.com/images/items_stock/185226/3163241/3163415/front.jpg
p612
asg22
V#139
p613
sg24
V1998-99
p614
sS'subsetName'
p615
VSP
p616
sg26
g27
sg28
(lp617
VShaquille O'Neal
p618
assbag1
(g2
g3
Ntp619
Rp620
(dp621
g7
(dp622
g9
V1998-99 SPx Finite #151 Kobe Bryant SPx
p623
sg11
I4050
sg12
VSPx Finite
p624
sg14
(lp625
Vhttp://www.beckett.com/basketball/1998-99/spx-finite/151-kobe-bryant-spx-3163427
p626
asg17
g18
sg19
(lp627
Vhttp://img.beckett.com/images/items_stock/185226/3163241/3163427/front.jpg
p628
asg22
V#151
p629
sg24
V1998-99
p630
sg615
VSPx
p631
sg26
g27
sg28
(lp632
VKobe Bryant
p633
assbag1
(g2
g3
Ntp634
Rp635
(dp636
g7
(dp637
g9
V1998-99 SPx Finite #200 Kobe Bryant TF
p638
sg11
I3390
sg12
VSPx Finite
p639
sg14
(lp640
Vhttp://www.beckett.com/basketball/1998-99/spx-finite/200-kobe-bryant-tf-3163476
p641
asg17
g18
sg19
(lp642
Vhttp://img.beckett.com/images/items_stock/185226/3163241/3163476/front.jpg
p643
asg22
V#200
p644
sg24
V1998-99
p645
sg615
VTF
p646
sg26
g27
sg28
(lp647
VKobe Bryant
p648
assbag1
(g2
g3
Ntp649
Rp650
(dp651
g7
(dp652
g9
V1998-99 SPx Finite #205 Shaquille O'Neal FE
p653
sg11
I1770
sg12
VSPx Finite
p654
sg14
(lp655
Vhttp://www.beckett.com/basketball/1998-99/spx-finite/205-shaquille-oneal-fe-3163481
p656
asg17
g18
sg19
(lp657
Vhttp://img.beckett.com/images/items_stock/185226/3163241/3163481/front.jpg
p658
asg22
V#205
p659
sg24
V1998-99
p660
sg615
VFE
p661
sg26
g27
sg28
(lp662
VShaquille O'Neal
p663
assbag1
(g2
g3
Ntp664
Rp665
(dp666
g7
(dp667
g9
V1998-99 SPx Finite #233 Tyronn Lue RC
p668
sg11
I2500
sg12
VSPx Finite
p669
sg14
(lp670
Vhttp://www.beckett.com/basketball/1998-99/spx-finite/233-tyronn-lue-rc-3163509
p671
asg17
g18
sg554
I1
sg19
(lp672
Vhttp://img.beckett.com/images/items_stock/185226/3163241/3163509/front.jpg
p673
asg22
V#233
p674
sg24
V1998-99
p675
sg26
g27
sg28
(lp676
VTyronn Lue
p677
assbag1
(g2
g3
Ntp678
Rp679
(dp680
g7
(dp681
g9
V1998-99 SPx Finite #236 Ruben Patterson RC
p682
sg11
I2500
sg12
VSPx Finite
p683
sg14
(lp684
Vhttp://www.beckett.com/basketball/1998-99/spx-finite/236-ruben-patterson-rc-3163512
p685
asg17
g18
sg554
I1
sg19
(lp686
Vhttp://img.beckett.com/images/items_stock/185226/3163241/3163512/front.jpg
p687
asg22
V#236
p688
sg24
V1998-99
p689
sg26
g27
sg28
(lp690
VRuben Patterson
p691
assbag1
(g2
g3
Ntp692
Rp693
(dp694
g7
(dp695
g9
V1998-99 Black Diamond Double Diamond #45 Shaquille O'Neal
p696
sg11
I3000
sg12
VBlack Diamond Double Diamond
p697
sg14
(lp698
Vhttp://www.beckett.com/basketball/1998-99/black-diamond-double-diamond/45-shaquille-oneal-3171952
p699
asg17
g18
sg19
(lp700
Vhttp://img.beckett.com/images/items_stock/185226/3171898/3171952/front_old.jpg
p701
asg22
V#45
p702
sg24
V1998-99
p703
sg26
g27
sg28
(lp704
VShaquille O'Neal
p705
assbag1
(g2
g3
Ntp706
Rp707
(dp708
g7
(dp709
g9
V1998-99 Black Diamond Double Diamond #46 Kobe Bryant
p710
sg11
I3000
sg12
VBlack Diamond Double Diamond
p711
sg14
(lp712
Vhttp://www.beckett.com/basketball/1998-99/black-diamond-double-diamond/46-kobe-bryant-3171953
p713
asg17
g18
sg19
(lp714
Vhttp://img.beckett.com/images/items_stock/185226/3171898/3171953/front.jpg
p715
asg22
V#46
p716
sg24
V1998-99
p717
sg26
g27
sg28
(lp718
VKobe Bryant
p719
assbag1
(g2
g3
Ntp720
Rp721
(dp722
g7
(dp723
g9
V1998-99 Black Diamond Double Diamond #110 Tyronn Lue
p724
sg11
I2500
sg12
VBlack Diamond Double Diamond
p725
sg14
(lp726
Vhttp://www.beckett.com/basketball/1998-99/black-diamond-double-diamond/110-tyronn-lue-3172017
p727
asg17
g18
sg19
(lp728
Vhttp://img.beckett.com/images/items_stock/185226/3171898/3172017/front.jpg
p729
asg22
V#110
p730
sg24
V1998-99
p731
sg26
g27
sg28
(lp732
VTyronn Lue
p733
assbag1
(g2
g3
Ntp734
Rp735
(dp736
g7
(dp737
g9
V1998-99 Black Diamond Double Diamond #115 Ruben Patterson
p738
sg11
I2500
sg12
VBlack Diamond Double Diamond
p739
sg14
(lp740
Vhttp://www.beckett.com/basketball/1998-99/black-diamond-double-diamond/115-ruben-patterson-3172022
p741
asg17
g18
sg19
(lp742
Vhttp://img.beckett.com/images/items_stock/185226/3171898/3172022/front.jpg
p743
asg22
V#115
p744
sg24
V1998-99
p745
sg26
g27
sg28
(lp746
VRuben Patterson
p747
assbag1
(g2
g3
Ntp748
Rp749
(dp750
g7
(dp751
g9
V1998-99 Black Diamond Double Diamond #117 Sam Jacobson
p752
sg11
I2500
sg12
VBlack Diamond Double Diamond
p753
sg14
(lp754
Vhttp://www.beckett.com/basketball/1998-99/black-diamond-double-diamond/117-sam-jacobson-3172024
p755
asg17
g18
sg19
(lp756
Vhttp://img.beckett.com/images/items_stock/185226/3171898/3172024/front.jpg
p757
asg22
V#117
p758
sg24
V1998-99
p759
sg26
g27
sg28
(lp760
VSam Jacobson
p761
assbag1
(g2
g3
Ntp762
Rp763
(dp764
g7
(dp765
g9
V1998-99 Black Diamond Triple Diamond #45 Shaquille O'Neal
p766
sg11
I1500
sg12
VBlack Diamond Triple Diamond
p767
sg14
(lp768
Vhttp://www.beckett.com/basketball/1998-99/black-diamond-triple-diamond/45-shaquille-oneal-3172082
p769
asg17
g18
sg19
(lp770
Vhttp://img.beckett.com/images/items_stock/185226/3172028/3172082/front.jpg
p771
asg22
V#45
p772
sg24
V1998-99
p773
sg26
g27
sg28
(lp774
VShaquille O'Neal
p775
assbag1
(g2
g3
Ntp776
Rp777
(dp778
g7
(dp779
g9
V1998-99 Black Diamond Triple Diamond #46 Kobe Bryant
p780
sg11
I1500
sg12
VBlack Diamond Triple Diamond
p781
sg14
(lp782
Vhttp://www.beckett.com/basketball/1998-99/black-diamond-triple-diamond/46-kobe-bryant-3172083
p783
asg17
g18
sg19
(lp784
Vhttp://img.beckett.com/images/items_stock/185226/3172028/3172083/front.jpg
p785
asg22
V#46
p786
sg24
V1998-99
p787
sg26
g27
sg28
(lp788
VKobe Bryant
p789
assbag1
(g2
g3
Ntp790
Rp791
(dp792
g7
(dp793
g9
V1998-99 Black Diamond Triple Diamond #110 Tyronn Lue
p794
sg11
I1000
sg12
VBlack Diamond Triple Diamond
p795
sg14
(lp796
Vhttp://www.beckett.com/basketball/1998-99/black-diamond-triple-diamond/110-tyronn-lue-3172147
p797
asg17
g18
sg19
(lp798
Vhttp://img.beckett.com/images/no-image.jpg
p799
asg22
V#110
p800
sg24
V1998-99
p801
sg26
g27
sg28
(lp802
VTyronn Lue
p803
assbag1
(g2
g3
Ntp804
Rp805
(dp806
g7
(dp807
g9
V1998-99 Black Diamond Triple Diamond #115 Ruben Patterson
p808
sg11
I1000
sg12
VBlack Diamond Triple Diamond
p809
sg14
(lp810
Vhttp://www.beckett.com/basketball/1998-99/black-diamond-triple-diamond/115-ruben-patterson-3172152
p811
asg17
g18
sg19
(lp812
Vhttp://img.beckett.com/images/items_stock/185226/3172028/3172152/front.jpg
p813
asg22
V#115
p814
sg24
V1998-99
p815
sg26
g27
sg28
(lp816
VRuben Patterson
p817
assbag1
(g2
g3
Ntp818
Rp819
(dp820
g7
(dp821
g9
V1998-99 Black Diamond Triple Diamond #117 Sam Jacobson
p822
sg11
I1000
sg12
VBlack Diamond Triple Diamond
p823
sg14
(lp824
Vhttp://www.beckett.com/basketball/1998-99/black-diamond-triple-diamond/117-sam-jacobson-3172154
p825
asg17
g18
sg19
(lp826
Vhttp://img.beckett.com/images/items_stock/185226/3172028/3172154/front.jpg
p827
asg22
V#117
p828
sg24
V1998-99
p829
sg26
g27
sg28
(lp830
VSam Jacobson
p831
assbag1
(g2
g3
Ntp832
Rp833
(dp834
g7
(dp835
g9
V1998-99 Black Diamond Quadruple Diamond #45 Shaquille O'Neal
p836
sg11
I150
sg12
VBlack Diamond Quadruple Diamond
p837
sg14
(lp838
Vhttp://www.beckett.com/basketball/1998-99/black-diamond-quadruple-diamond/45-shaquille-oneal-3170753
p839
asg17
g18
sg19
(lp840
Vhttp://img.beckett.com/images/no-image.jpg
p841
asg22
V#45
p842
sg24
V1998-99
p843
sg26
g27
sg28
(lp844
VShaquille O'Neal
p845
assbag1
(g2
g3
Ntp846
Rp847
(dp848
g7
(dp849
g9
V1998-99 Black Diamond Quadruple Diamond #46 Kobe Bryant
p850
sg11
I150
sg12
VBlack Diamond Quadruple Diamond
p851
sg14
(lp852
Vhttp://www.beckett.com/basketball/1998-99/black-diamond-quadruple-diamond/46-kobe-bryant-3170754
p853
asg17
g18
sg19
(lp854
Vhttp://img.beckett.com/images/no-image.jpg
p855
asg22
V#46
p856
sg24
V1998-99
p857
sg26
g27
sg28
(lp858
VKobe Bryant
p859
assbag1
(g2
g3
Ntp860
Rp861
(dp862
g7
(dp863
g9
V1998-99 Black Diamond Quadruple Diamond #110 Tyronn Lue
p864
sg11
I50
sg12
VBlack Diamond Quadruple Diamond
p865
sg14
(lp866
Vhttp://www.beckett.com/basketball/1998-99/black-diamond-quadruple-diamond/110-tyronn-lue-3170818
p867
asg17
g18
sg19
(lp868
Vhttp://img.beckett.com/images/no-image.jpg
p869
asg22
V#110
p870
sg24
V1998-99
p871
sg26
g27
sg28
(lp872
VTyronn Lue
p873
assbag1
(g2
g3
Ntp874
Rp875
(dp876
g7
(dp877
g9
V1998-99 Black Diamond Quadruple Diamond #115 Ruben Patterson
p878
sg11
I50
sg12
VBlack Diamond Quadruple Diamond
p879
sg14
(lp880
Vhttp://www.beckett.com/basketball/1998-99/black-diamond-quadruple-diamond/115-ruben-patterson-3170823
p881
asg17
g18
sg19
(lp882
Vhttp://img.beckett.com/images/no-image.jpg
p883
asg22
V#115
p884
sg24
V1998-99
p885
sg26
g27
sg28
(lp886
VRuben Patterson
p887
assbag1
(g2
g3
Ntp888
Rp889
(dp890
g7
(dp891
g9
V1998-99 Black Diamond Quadruple Diamond #117 Sam Jacobson
p892
sg11
I50
sg12
VBlack Diamond Quadruple Diamond
p893
sg14
(lp894
Vhttp://www.beckett.com/basketball/1998-99/black-diamond-quadruple-diamond/117-sam-jacobson-3170825
p895
asg17
g18
sg19
(lp896
Vhttp://img.beckett.com/images/no-image.jpg
p897
asg22
V#117
p898
sg24
V1998-99
p899
sg26
g27
sg28
(lp900
VSam Jacobson
p901
assbag1
(g2
g3
Ntp902
Rp903
(dp904
g7
(dp905
g9
V1998-99 Bowman's Best Refractors #25 Glen Rice
p906
sg11
I400
sg12
VBowman's Best Refractors
p907
sg14
(lp908
Vhttp://www.beckett.com/basketball/1998-99/bowmans-best-refractors/25-glen-rice-3171184
p909
asg17
g18
sg19
(lp910
Vhttp://img.beckett.com/images/no-image.jpg
p911
asg22
V#25
p912
sg24
V1998-99
p913
sg26
g27
sg28
(lp914
VGlen Rice
p915
assbag1
(g2
g3
Ntp916
Rp917
(dp918
g7
(dp919
g9
V1998-99 Bowman's Best Refractors #88 Kobe Bryant
p920
sg11
I400
sg12
VBowman's Best Refractors
p921
sg14
(lp922
Vhttp://www.beckett.com/basketball/1998-99/bowmans-best-refractors/88-kobe-bryant-3171247
p923
asg17
g18
sg19
(lp924
Vhttp://img.beckett.com/images/no-image.jpg
p925
asg22
V#88
p926
sg24
V1998-99
p927
sg26
g27
sg28
(lp928
VKobe Bryant
p929
assbag1
(g2
g3
Ntp930
Rp931
(dp932
g7
(dp933
g9
V1998-99 Bowman's Best Refractors #100 Shaquille O'Neal
p934
sg11
I400
sg12
VBowman's Best Refractors
p935
sg14
(lp936
Vhttp://www.beckett.com/basketball/1998-99/bowmans-best-refractors/100-shaquille-oneal-3171259
p937
asg17
g18
sg19
(lp938
Vhttp://img.beckett.com/images/items_stock/185226/3171150/3171259/front.jpg
p939
asg22
V#100
p940
sg24
V1998-99
p941
sg26
g27
sg28
(lp942
VShaquille O'Neal
p943
assbag1
(g2
g3
Ntp944
Rp945
(dp946
g7
(dp947
g9
V1998-99 Bowman's Best Refractors #121 Tyronn Lue
p948
sg11
I400
sg12
VBowman's Best Refractors
p949
sg14
(lp950
Vhttp://www.beckett.com/basketball/1998-99/bowmans-best-refractors/121-tyronn-lue-3171280
p951
asg17
g18
sg19
(lp952
Vhttp://img.beckett.com/images/items_stock/185226/3171150/3171280/front.jpg
p953
asg22
V#121
p954
sg24
V1998-99
p955
sg26
g27
sg28
(lp956
VTyronn Lue
p957
assbag1
(g2
g3
Ntp958
Rp959
(dp960
g7
(dp961
g9
V1998-99 Bowman's Best Atomic Refractors #25 Glen Rice
p962
sg11
I100
sg12
VBowman's Best Atomic Refractors
p963
sg14
(lp964
Vhttp://www.beckett.com/basketball/1998-99/bowmans-best-atomic-refractors/25-glen-rice-3171319
p965
asg17
g18
sg19
(lp966
Vhttp://img.beckett.com/images/no-image.jpg
p967
asg22
V#25
p968
sg24
V1998-99
p969
sg26
g27
sg28
(lp970
VGlen Rice
p971
assbag1
(g2
g3
Ntp972
Rp973
(dp974
g7
(dp975
g9
V1998-99 Bowman's Best Atomic Refractors #88 Kobe Bryant
p976
sg11
I100
sg12
VBowman's Best Atomic Refractors
p977
sg14
(lp978
Vhttp://www.beckett.com/basketball/1998-99/bowmans-best-atomic-refractors/88-kobe-bryant-3171382
p979
asg17
g18
sg19
(lp980
Vhttp://img.beckett.com/images/no-image.jpg
p981
asg22
V#88
p982
sg24
V1998-99
p983
sg26
g27
sg28
(lp984
VKobe Bryant
p985
assbag1
(g2
g3
Ntp986
Rp987
(dp988
g7
(dp989
g9
V1998-99 Bowman's Best Atomic Refractors #100 Shaquille O'Neal
p990
sg11
I100
sg12
VBowman's Best Atomic Refractors
p991
sg14
(lp992
Vhttp://www.beckett.com/basketball/1998-99/bowmans-best-atomic-refractors/100-shaquille-oneal-3171394
p993
asg17
g18
sg19
(lp994
Vhttp://img.beckett.com/images/no-image.jpg
p995
asg22
V#100
p996
sg24
V1998-99
p997
sg26
g27
sg28
(lp998
VShaquille O'Neal
p999
assbag1
(g2
g3
Ntp1000
Rp1001
(dp1002
g7
(dp1003
g9
V1998-99 Bowman's Best Atomic Refractors #121 Tyronn Lue
p1004
sg11
I100
sg12
VBowman's Best Atomic Refractors
p1005
sg14
(lp1006
Vhttp://www.beckett.com/basketball/1998-99/bowmans-best-atomic-refractors/121-tyronn-lue-3171415
p1007
asg17
g18
sg19
(lp1008
Vhttp://img.beckett.com/images/no-image.jpg
p1009
asg22
V#121
p1010
sg24
V1998-99
p1011
sg26
g27
sg28
(lp1012
VTyronn Lue
p1013
assbag1
(g2
g3
Ntp1014
Rp1015
(dp1016
g7
(dp1017
g9
V1998-99 Flair Showcase Row 1 #2 Kobe Bryant
p1018
sg11
I1500
sg12
VFlair Showcase Row 1
p1019
sg14
(lp1020
Vhttp://www.beckett.com/basketball/1998-99/flair-showcase-row-1/2-kobe-bryant-3167625
p1021
asg17
g18
sg19
(lp1022
Vhttp://img.beckett.com/images/no-image.jpg
p1023
asg22
V#2
p1024
sg24
V1998-99
p1025
sg26
g27
sg28
(lp1026
VKobe Bryant
p1027
assbag1
(g2
g3
Ntp1028
Rp1029
(dp1030
g7
(dp1031
g9
V1998-99 Flair Showcase Row 1 #7 Shaquille O'Neal
p1032
sg11
I1500
sg12
VFlair Showcase Row 1
p1033
sg14
(lp1034
Vhttp://www.beckett.com/basketball/1998-99/flair-showcase-row-1/7-shaquille-oneal-3167630
p1035
asg17
g18
sg19
(lp1036
Vhttp://img.beckett.com/images/no-image.jpg
p1037
asg22
V#7
p1038
sg24
V1998-99
p1039
sg26
g27
sg28
(lp1040
VShaquille O'Neal
p1041
assbag1
(g2
g3
Ntp1042
Rp1043
(dp1044
g7
(dp1045
g9
V1998-99 Flair Showcase Legacy Collection Row 3 #2 Kobe Bryant
p1046
sg11
I99
sg12
VFlair Showcase Legacy Collection Row 3
p1047
sg14
(lp1048
Vhttp://www.beckett.com/basketball/1998-99/flair-showcase-legacy-collection-row-3/2-kobe-bryant-3172792
p1049
asg17
g18
sg19
(lp1050
Vhttp://img.beckett.com/images/no-image.jpg
p1051
asg22
V#2
p1052
sg24
V1998-99
p1053
sg26
g27
sg28
(lp1054
VKobe Bryant
p1055
assbag1
(g2
g3
Ntp1056
Rp1057
(dp1058
g7
(dp1059
g9
V1998-99 Flair Showcase Legacy Collection Row 3 #7 Shaquille O'Neal
p1060
sg11
I99
sg12
VFlair Showcase Legacy Collection Row 3
p1061
sg14
(lp1062
Vhttp://www.beckett.com/basketball/1998-99/flair-showcase-legacy-collection-row-3/7-shaquille-oneal-3172797
p1063
asg17
g18
sg19
(lp1064
Vhttp://img.beckett.com/images/no-image.jpg
p1065
asg22
V#7
p1066
sg24
V1998-99
p1067
sg26
g27
sg28
(lp1068
VShaquille O'Neal
p1069
assbag1
(g2
g3
Ntp1070
Rp1071
(dp1072
g7
(dp1073
g9
V1998-99 Flair Showcase Legacy Collection Row 2 #2 Kobe Bryant
p1074
sg11
I99
sg12
VFlair Showcase Legacy Collection Row 2
p1075
sg14
(lp1076
Vhttp://www.beckett.com/basketball/1998-99/flair-showcase-legacy-collection-row-2/2-kobe-bryant-3172689
p1077
asg17
g18
sg19
(lp1078
Vhttp://img.beckett.com/images/no-image.jpg
p1079
asg22
V#2
p1080
sg24
V1998-99
p1081
sg26
g27
sg28
(lp1082
VKobe Bryant
p1083
assbag1
(g2
g3
Ntp1084
Rp1085
(dp1086
g7
(dp1087
g9
V1998-99 Flair Showcase Legacy Collection Row 1 #2 Kobe Bryant
p1088
sg11
I99
sg12
VFlair Showcase Legacy Collection Row 1
p1089
sg14
(lp1090
Vhttp://www.beckett.com/basketball/1998-99/flair-showcase-legacy-collection-row-1/2-kobe-bryant-3173223
p1091
asg17
g18
sg19
(lp1092
Vhttp://img.beckett.com/images/no-image.jpg
p1093
asg22
V#2
p1094
sg24
V1998-99
p1095
sg26
g27
sg28
(lp1096
VKobe Bryant
p1097
assbag1
(g2
g3
Ntp1098
Rp1099
(dp1100
g7
(dp1101
g9
V1998-99 Fleer Classic '61 #1 Kobe Bryant
p1102
sg11
I61
sg12
VFleer Classic '61
p1103
sg14
(lp1104
Vhttp://www.beckett.com/basketball/1998-99/fleer-classic-61/1-kobe-bryant-3168095
p1105
asg17
g18
sg19
(lp1106
Vhttp://img.beckett.com/images/no-image.jpg
p1107
asg22
V#1
p1108
sg24
V1998-99
p1109
sg26
g27
sg28
(lp1110
VKobe Bryant
p1111
assbag1
(g2
g3
Ntp1112
Rp1113
(dp1114
g7
(dp1115
g9
V1998-99 Fleer Classic '61 #98 Rick Fox
p1116
sg11
I61
sg12
VFleer Classic '61
p1117
sg14
(lp1118
Vhttp://www.beckett.com/basketball/1998-99/fleer-classic-61/98-rick-fox-3168192
p1119
asg17
g18
sg19
(lp1120
Vhttp://img.beckett.com/images/no-image.jpg
p1121
asg22
V#98
p1122
sg24
V1998-99
p1123
sg26
g27
sg28
(lp1124
VRick Fox
p1125
assbag1
(g2
g3
Ntp1126
Rp1127
(dp1128
g7
(dp1129
g9
V1998-99 Fleer Classic '61 #143 Shaquille O'Neal PF
p1130
sg11
I61
sg12
VFleer Classic '61
p1131
sg14
(lp1132
Vhttp://www.beckett.com/basketball/1998-99/fleer-classic-61/143-shaquille-oneal-pf-3168237
p1133
asg17
g18
sg19
(lp1134
Vhttp://img.beckett.com/images/no-image.jpg
p1135
asg22
V#143
p1136
sg24
V1998-99
p1137
sg615
VPF
p1138
sg26
g27
sg28
(lp1139
VShaquille O'Neal
p1140
assbag1
(g2
g3
Ntp1141
Rp1142
(dp1143
g7
(dp1144
g9
V1998-99 Fleer Brilliants 24-Karat Gold #70 Kobe Bryant
p1145
sg11
I24
sg12
VFleer Brilliants 24-Karat Gold
p1146
sg14
(lp1147
Vhttp://www.beckett.com/basketball/1998-99/fleer-brilliants-24-karat-gold/70-kobe-bryant-3168571
p1148
asg17
g18
sg19
(lp1149
Vhttp://img.beckett.com/images/no-image.jpg
p1150
asg22
V#70
p1151
sg24
V1998-99
p1152
sg26
g27
sg28
(lp1153
VKobe Bryant
p1154
assbag1
(g2
g3
Ntp1155
Rp1156
(dp1157
g7
(dp1158
g9
V1998-99 Fleer Brilliants 24-Karat Gold #100 Shaquille O'Neal
p1159
sg11
I24
sg12
VFleer Brilliants 24-Karat Gold
p1160
sg14
(lp1161
Vhttp://www.beckett.com/basketball/1998-99/fleer-brilliants-24-karat-gold/100-shaquille-oneal-3168601
p1162
asg17
g18
sg19
(lp1163
Vhttp://img.beckett.com/images/no-image.jpg
p1164
asg22
V#100
p1165
sg24
V1998-99
p1166
sg26
g27
sg28
(lp1167
VShaquille O'Neal
p1168
assbag1
(g2
g3
Ntp1169
Rp1170
(dp1171
g7
(dp1172
g9
V1998-99 Fleer Brilliants 24-Karat Gold #121 Tyronn Lue
p1173
sg11
I24
sg12
VFleer Brilliants 24-Karat Gold
p1174
sg14
(lp1175
Vhttp://www.beckett.com/basketball/1998-99/fleer-brilliants-24-karat-gold/121-tyronn-lue-3168622
p1176
asg17
g18
sg19
(lp1177
Vhttp://img.beckett.com/images/no-image.jpg
p1178
asg22
V#121
p1179
sg24
V1998-99
p1180
sg26
g27
sg28
(lp1181
VTyronn Lue
p1182
assbag1
(g2
g3
Ntp1183
Rp1184
(dp1185
g7
(dp1186
g9
V1998-99 Fleer Brilliants Gold #70 Kobe Bryant
p1187
sg11
I99
sg12
VFleer Brilliants Gold
p1188
sg14
(lp1189
Vhttp://www.beckett.com/basketball/1998-99/fleer-brilliants-gold/70-kobe-bryant-3168843
p1190
asg17
g18
sg19
(lp1191
Vhttp://img.beckett.com/images/no-image.jpg
p1192
asg22
V#70
p1193
sg24
V1998-99
p1194
sg26
g27
sg28
(lp1195
VKobe Bryant
p1196
assbag1
(g2
g3
Ntp1197
Rp1198
(dp1199
g7
(dp1200
g9
V1998-99 Fleer Brilliants Gold #100 Shaquille O'Neal
p1201
sg11
I99
sg12
VFleer Brilliants Gold
p1202
sg14
(lp1203
Vhttp://www.beckett.com/basketball/1998-99/fleer-brilliants-gold/100-shaquille-oneal-3168873
p1204
asg17
g18
sg19
(lp1205
Vhttp://img.beckett.com/images/no-image.jpg
p1206
asg22
V#100
p1207
sg24
V1998-99
p1208
sg26
g27
sg28
(lp1209
VShaquille O'Neal
p1210
assbag1
(g2
g3
Ntp1211
Rp1212
(dp1213
g7
(dp1214
g9
V1998-99 Fleer Brilliants Gold #121 Tyronn Lue
p1215
sg11
I99
sg12
VFleer Brilliants Gold
p1216
sg14
(lp1217
Vhttp://www.beckett.com/basketball/1998-99/fleer-brilliants-gold/121-tyronn-lue-3168894
p1218
asg17
g18
sg19
(lp1219
Vhttp://img.beckett.com/images/no-image.jpg
p1220
asg22
V#121
p1221
sg24
V1998-99
p1222
sg26
g27
sg28
(lp1223
VTyronn Lue
p1224
assbag1
(g2
g3
Ntp1225
Rp1226
(dp1227
g7
(dp1228
g9
V1998-99 Hoops Starting Five #1 Kobe Bryant
p1229
sg11
I5
sg12
VHoops Starting Five
p1230
sg14
(lp1231
Vhttp://www.beckett.com/basketball/1998-99/hoops-starting-five/1-kobe-bryant-3166507
p1232
asg17
g18
sg19
(lp1233
Vhttp://img.beckett.com/images/no-image.jpg
p1234
asg22
V#1
p1235
sg24
V1998-99
p1236
sg26
g27
sg28
(lp1237
VKobe Bryant
p1238
assbag1
(g2
g3
Ntp1239
Rp1240
(dp1241
g7
(dp1242
g9
V1998-99 Hoops Starting Five #38 Corie Blount
p1243
sg11
I5
sg12
VHoops Starting Five
p1244
sg14
(lp1245
Vhttp://www.beckett.com/basketball/1998-99/hoops-starting-five/38-corie-blount-3166544
p1246
asg17
g18
sg19
(lp1247
Vhttp://img.beckett.com/images/no-image.jpg
p1248
asg22
V#38
p1249
sg24
V1998-99
p1250
sg26
g27
sg28
(lp1251
VCorie Blount
p1252
assbag1
(g2
g3
Ntp1253
Rp1254
(dp1255
g7
(dp1256
g9
V1998-99 Hoops Starting Five #100 Shaquille O'Neal
p1257
sg11
I5
sg12
VHoops Starting Five
p1258
sg14
(lp1259
Vhttp://www.beckett.com/basketball/1998-99/hoops-starting-five/100-shaquille-oneal-3166606
p1260
asg17
g18
sg19
(lp1261
Vhttp://img.beckett.com/images/no-image.jpg
p1262
asg22
V#100
p1263
sg24
V1998-99
p1264
sg26
g27
sg28
(lp1265
VShaquille O'Neal
p1266
assbag1
(g2
g3
Ntp1267
Rp1268
(dp1269
g7
(dp1270
g9
V1998-99 Hoops Starting Five #116 Robert Horry
p1271
sg11
I5
sg12
VHoops Starting Five
p1272
sg14
(lp1273
Vhttp://www.beckett.com/basketball/1998-99/hoops-starting-five/116-robert-horry-3166622
p1274
asg17
g18
sg19
(lp1275
Vhttp://img.beckett.com/images/no-image.jpg
p1276
asg22
V#116
p1277
sg24
V1998-99
p1278
sg26
g27
sg28
(lp1279
VRobert Horry
p1280
assbag1
(g2
g3
Ntp1281
Rp1282
(dp1283
g7
(dp1284
g9
V1998-99 Hoops Starting Five #164 Shaquille O'Neal SO
p1285
sg11
I5
sg12
VHoops Starting Five
p1286
sg14
(lp1287
Vhttp://www.beckett.com/basketball/1998-99/hoops-starting-five/164-shaquille-oneal-so-3166670
p1288
asg17
g18
sg19
(lp1289
Vhttp://img.beckett.com/images/no-image.jpg
p1290
asg22
V#164
p1291
sg24
V1998-99
p1292
sg615
VSO
p1293
sg26
g27
sg28
(lp1294
VShaquille O'Neal
p1295
assbag1
(g2
g3
Ntp1296
Rp1297
(dp1298
g7
(dp1299
g9
V1998-99 Metal Universe Precious Metal Gems #25 Shaquille O'Neal
p1300
sg11
I50
sg12
VMetal Universe Precious Metal Gems
p1301
sg14
(lp1302
Vhttp://www.beckett.com/basketball/1998-99/metal-universe-precious-metal-gems/25-shaquille-oneal-3166968
p1303
asg17
g18
sg19
(lp1304
Vhttp://img.beckett.com/images/no-image.jpg
p1305
asg22
V#25
p1306
sg24
V1998-99
p1307
sg26
g27
sg28
(lp1308
VShaquille O'Neal
p1309
assbag1
(g2
g3
Ntp1310
Rp1311
(dp1312
g7
(dp1313
g9
V1998-99 Metal Universe Precious Metal Gems #38 Derek Fisher
p1314
sg11
I50
sg12
VMetal Universe Precious Metal Gems
p1315
sg14
(lp1316
Vhttp://www.beckett.com/basketball/1998-99/metal-universe-precious-metal-gems/38-derek-fisher-3166981
p1317
asg17
g18
sg19
(lp1318
Vhttp://img.beckett.com/images/no-image.jpg
p1319
asg22
V#38
p1320
sg24
V1998-99
p1321
sg26
g27
sg28
(lp1322
VDerek Fisher
p1323
assbag1
(g2
g3
Ntp1324
Rp1325
(dp1326
g7
(dp1327
g9
V1998-99 Metal Universe Precious Metal Gems #48 Elden Campbell
p1328
sg11
I50
sg12
VMetal Universe Precious Metal Gems
p1329
sg14
(lp1330
Vhttp://www.beckett.com/basketball/1998-99/metal-universe-precious-metal-gems/48-elden-campbell-3166991
p1331
asg17
g18
sg19
(lp1332
Vhttp://img.beckett.com/images/no-image.jpg
p1333
asg22
V#48
p1334
sg24
V1998-99
p1335
sg26
g27
sg28
(lp1336
VElden Campbell
p1337
assbag1
(g2
g3
Ntp1338
Rp1339
(dp1340
g7
(dp1341
g9
V1998-99 Metal Universe Precious Metal Gems #53 Kobe Bryant
p1342
sg11
I50
sg12
VMetal Universe Precious Metal Gems
p1343
sg14
(lp1344
Vhttp://www.beckett.com/basketball/1998-99/metal-universe-precious-metal-gems/53-kobe-bryant-3166996
p1345
asg17
g18
sg19
(lp1346
Vhttp://img.beckett.com/images/no-image.jpg
p1347
asg22
V#53
p1348
sg24
V1998-99
p1349
sg26
g27
sg28
(lp1350
VKobe Bryant
p1351
assbag1
(g2
g3
Ntp1352
Rp1353
(dp1354
g7
(dp1355
g9
V1998-99 Metal Universe Gem Masters #25 Shaquille O'Neal
p1356
sg11
I1
sg12
VMetal Universe Gem Masters
p1357
sg14
(lp1358
Vhttp://www.beckett.com/basketball/1998-99/metal-universe-gem-masters/25-shaquille-oneal-3166837
p1359
asg17
g18
sg19
(lp1360
Vhttp://img.beckett.com/images/no-image.jpg
p1361
asg22
V#25
p1362
sg24
V1998-99
p1363
sg26
g27
sg28
(lp1364
VShaquille O'Neal
p1365
assbag1
(g2
g3
Ntp1366
Rp1367
(dp1368
g7
(dp1369
g9
V1998-99 Metal Universe Gem Masters #38 Derek Fisher
p1370
sg11
I1
sg12
VMetal Universe Gem Masters
p1371
sg14
(lp1372
Vhttp://www.beckett.com/basketball/1998-99/metal-universe-gem-masters/38-derek-fisher-3166850
p1373
asg17
g18
sg19
(lp1374
Vhttp://img.beckett.com/images/no-image.jpg
p1375
asg22
V#38
p1376
sg24
V1998-99
p1377
sg26
g27
sg28
(lp1378
VDerek Fisher
p1379
assbag1
(g2
g3
Ntp1380
Rp1381
(dp1382
g7
(dp1383
g9
V1998-99 Metal Universe Gem Masters #48 Elden Campbell
p1384
sg11
I1
sg12
VMetal Universe Gem Masters
p1385
sg14
(lp1386
Vhttp://www.beckett.com/basketball/1998-99/metal-universe-gem-masters/48-elden-campbell-3166860
p1387
asg17
g18
sg19
(lp1388
Vhttp://img.beckett.com/images/no-image.jpg
p1389
asg22
V#48
p1390
sg24
V1998-99
p1391
sg26
g27
sg28
(lp1392
VElden Campbell
p1393
assbag1
(g2
g3
Ntp1394
Rp1395
(dp1396
g7
(dp1397
g9
V1998-99 Metal Universe Gem Masters #53 Kobe Bryant
p1398
sg11
I1
sg12
VMetal Universe Gem Masters
p1399
sg14
(lp1400
Vhttp://www.beckett.com/basketball/1998-99/metal-universe-gem-masters/53-kobe-bryant-3166865
p1401
asg17
g18
sg19
(lp1402
Vhttp://img.beckett.com/images/no-image.jpg
p1403
asg22
V#53
p1404
sg24
V1998-99
p1405
sg26
g27
sg28
(lp1406
VKobe Bryant
p1407
assbag1
(g2
g3
Ntp1408
Rp1409
(dp1410
g7
(dp1411
g9
V1998-99 SkyBox Premium Star Rubies #21 Shaquille O'Neal
p1412
sg11
I50
sg12
VSkyBox Premium Star Rubies
p1413
sg14
(lp1414
Vhttp://www.beckett.com/basketball/1998-99/skybox-premium-star-rubies/21-shaquille-oneal-3165126
p1415
asg17
g18
sg19
(lp1416
Vhttp://img.beckett.com/images/no-image.jpg
p1417
asg22
V#21
p1418
sg24
V1998-99
p1419
sg26
g27
sg28
(lp1420
VShaquille O'Neal
p1421
assbag1
(g2
g3
Ntp1422
Rp1423
(dp1424
g7
(dp1425
g9
V1998-99 SkyBox Premium Star Rubies #39 Elden Campbell
p1426
sg11
I50
sg12
VSkyBox Premium Star Rubies
p1427
sg14
(lp1428
Vhttp://www.beckett.com/basketball/1998-99/skybox-premium-star-rubies/39-elden-campbell-3165144
p1429
asg17
g18
sg19
(lp1430
Vhttp://img.beckett.com/images/no-image.jpg
p1431
asg22
V#39
p1432
sg24
V1998-99
p1433
sg26
g27
sg28
(lp1434
VElden Campbell
p1435
assbag1
(g2
g3
Ntp1436
Rp1437
(dp1438
g7
(dp1439
g9
V1998-99 SkyBox Premium Star Rubies #44 Kobe Bryant
p1440
sg11
I50
sg12
VSkyBox Premium Star Rubies
p1441
sg14
(lp1442
Vhttp://www.beckett.com/basketball/1998-99/skybox-premium-star-rubies/44-kobe-bryant-3165149
p1443
asg17
g18
sg19
(lp1444
Vhttp://img.beckett.com/images/no-image.jpg
p1445
asg22
V#44
p1446
sg24
V1998-99
p1447
sg26
g27
sg28
(lp1448
VKobe Bryant
p1449
assbag1
(g2
g3
Ntp1450
Rp1451
(dp1452
g7
(dp1453
g9
V1998-99 SkyBox Premium Star Rubies #111 Derek Fisher
p1454
sg11
I50
sg12
VSkyBox Premium Star Rubies
p1455
sg14
(lp1456
Vhttp://www.beckett.com/basketball/1998-99/skybox-premium-star-rubies/111-derek-fisher-3165216
p1457
asg17
g18
sg19
(lp1458
Vhttp://img.beckett.com/images/no-image.jpg
p1459
asg22
V#111
p1460
sg24
V1998-99
p1461
sg26
g27
sg28
(lp1462
VDerek Fisher
p1463
assbag1
(g2
g3
Ntp1464
Rp1465
(dp1466
g7
(dp1467
g9
V1998-99 SkyBox Premium Star Rubies #205 Kobe Bryant NF
p1468
sg11
I50
sg12
VSkyBox Premium Star Rubies
p1469
sg14
(lp1470
Vhttp://www.beckett.com/basketball/1998-99/skybox-premium-star-rubies/205-kobe-bryant-nf-3165310
p1471
asg17
g18
sg19
(lp1472
Vhttp://img.beckett.com/images/no-image.jpg
p1473
asg22
V#205
p1474
sg24
V1998-99
p1475
sg615
VNF
p1476
sg26
g27
sg28
(lp1477
VKobe Bryant
p1478
assbag1
(g2
g3
Ntp1479
Rp1480
(dp1481
g7
(dp1482
g9
V1998-99 SkyBox Premium Star Rubies #212 Shaquille O'Neal NF
p1483
sg11
I50
sg12
VSkyBox Premium Star Rubies
p1484
sg14
(lp1485
Vhttp://www.beckett.com/basketball/1998-99/skybox-premium-star-rubies/212-shaquille-oneal-nf-3165317
p1486
asg17
g18
sg19
(lp1487
Vhttp://img.beckett.com/images/no-image.jpg
p1488
asg22
V#212
p1489
sg24
V1998-99
p1490
sg615
VNF
p1491
sg26
g27
sg28
(lp1492
VShaquille O'Neal
p1493
assbag1
(g2
g3
Ntp1494
Rp1495
(dp1496
g7
(dp1497
g9
V1998-99 SkyBox Premium Star Rubies #238 Sam Jacobson
p1498
sg11
I25
sg12
VSkyBox Premium Star Rubies
p1499
sg14
(lp1500
Vhttp://www.beckett.com/basketball/1998-99/skybox-premium-star-rubies/238-sam-jacobson-3165343
p1501
asg17
g18
sg19
(lp1502
Vhttp://img.beckett.com/images/no-image.jpg
p1503
asg22
V#238
p1504
sg24
V1998-99
p1505
sg26
g27
sg28
(lp1506
VSam Jacobson
p1507
assbag1
(g2
g3
Ntp1508
Rp1509
(dp1510
g7
(dp1511
g9
V1998-99 SkyBox Premium Star Rubies #240 Ruben Patterson
p1512
sg11
I25
sg12
VSkyBox Premium Star Rubies
p1513
sg14
(lp1514
Vhttp://www.beckett.com/basketball/1998-99/skybox-premium-star-rubies/240-ruben-patterson-3165345
p1515
asg17
g18
sg19
(lp1516
Vhttp://img.beckett.com/images/no-image.jpg
p1517
asg22
V#240
p1518
sg24
V1998-99
p1519
sg26
g27
sg28
(lp1520
VRuben Patterson
p1521
assbag1
(g2
g3
Ntp1522
Rp1523
(dp1524
g7
(dp1525
g9
V1998-99 SkyBox Premium Star Rubies #254 Tyronn Lue
p1526
sg11
I25
sg12
VSkyBox Premium Star Rubies
p1527
sg14
(lp1528
Vhttp://www.beckett.com/basketball/1998-99/skybox-premium-star-rubies/254-tyronn-lue-3165359
p1529
asg17
g18
sg19
(lp1530
Vhttp://img.beckett.com/images/no-image.jpg
p1531
asg22
V#254
p1532
sg24
V1998-99
p1533
sg26
g27
sg28
(lp1534
VTyronn Lue
p1535
assbag1
(g2
g3
Ntp1536
Rp1537
(dp1538
g7
(dp1539
g9
V1998-99 SkyBox Thunder Rave #80 Elden Campbell
p1540
sg11
I150
sg12
VSkyBox Thunder Rave
p1541
sg14
(lp1542
Vhttp://www.beckett.com/basketball/1998-99/skybox-thunder-rave/80-elden-campbell-3166118
p1543
asg17
g18
sg19
(lp1544
Vhttp://img.beckett.com/images/no-image.jpg
p1545
asg22
V#80
p1546
sg24
V1998-99
p1547
sg26
g27
sg28
(lp1548
VElden Campbell
p1549
assbag1
(g2
g3
Ntp1550
Rp1551
(dp1552
g7
(dp1553
g9
V1998-99 SkyBox Thunder Rave #108 Kobe Bryant
p1554
sg11
I150
sg12
VSkyBox Thunder Rave
p1555
sg14
(lp1556
Vhttp://www.beckett.com/basketball/1998-99/skybox-thunder-rave/108-kobe-bryant-3166146
p1557
asg17
g18
sg19
(lp1558
Vhttp://img.beckett.com/images/no-image.jpg
p1559
asg22
V#108
p1560
sg24
V1998-99
p1561
sg26
g27
sg28
(lp1562
VKobe Bryant
p1563
assbag1
(g2
g3
Ntp1564
Rp1565
(dp1566
g7
(dp1567
g9
V1998-99 SkyBox Thunder Rave #118 Shaquille O'Neal
p1568
sg11
I150
sg12
VSkyBox Thunder Rave
p1569
sg14
(lp1570
Vhttp://www.beckett.com/basketball/1998-99/skybox-thunder-rave/118-shaquille-oneal-3166156
p1571
asg17
g18
sg19
(lp1572
Vhttp://img.beckett.com/images/no-image.jpg
p1573
asg22
V#118
p1574
sg24
V1998-99
p1575
sg26
g27
sg28
(lp1576
VShaquille O'Neal
p1577
assbag1
(g2
g3
Ntp1578
Rp1579
(dp1580
g7
(dp1581
g9
V1998-99 SkyBox Thunder Super Rave #80 Elden Campbell
p1582
sg11
I25
sg12
VSkyBox Thunder Super Rave
p1583
sg14
(lp1584
Vhttp://www.beckett.com/basketball/1998-99/skybox-thunder-super-rave/80-elden-campbell-3162770
p1585
asg17
g18
sg19
(lp1586
Vhttp://img.beckett.com/images/no-image.jpg
p1587
asg22
V#80
p1588
sg24
V1998-99
p1589
sg26
g27
sg28
(lp1590
VElden Campbell
p1591
assbag1
(g2
g3
Ntp1592
Rp1593
(dp1594
g7
(dp1595
g9
V1998-99 SkyBox Thunder Super Rave #108 Kobe Bryant
p1596
sg11
I25
sg12
VSkyBox Thunder Super Rave
p1597
sg14
(lp1598
Vhttp://www.beckett.com/basketball/1998-99/skybox-thunder-super-rave/108-kobe-bryant-3162798
p1599
asg17
g18
sg19
(lp1600
Vhttp://img.beckett.com/images/no-image.jpg
p1601
asg22
V#108
p1602
sg24
V1998-99
p1603
sg26
g27
sg28
(lp1604
VKobe Bryant
p1605
assbag1
(g2
g3
Ntp1606
Rp1607
(dp1608
g7
(dp1609
g9
V1998-99 SkyBox Thunder Super Rave #118 Shaquille O'Neal
p1610
sg11
I25
sg12
VSkyBox Thunder Super Rave
p1611
sg14
(lp1612
Vhttp://www.beckett.com/basketball/1998-99/skybox-thunder-super-rave/118-shaquille-oneal-3162808
p1613
asg17
g18
sg19
(lp1614
Vhttp://img.beckett.com/images/no-image.jpg
p1615
asg22
V#118
p1616
sg24
V1998-99
p1617
sg26
g27
sg28
(lp1618
VShaquille O'Neal
p1619
assbag1
(g2
g3
Ntp1620
Rp1621
(dp1622
g7
(dp1623
g9
V1998-99 SPx Finite Extreme #50 Kobe Bryant
p1624
sg11
I1
sg12
VSPx Finite Extreme
p1625
sg14
(lp1626
Vhttp://www.beckett.com/basketball/1998-99/spx-finite-extreme/50-kobe-bryant-3163572
p1627
asg17
g18
sg19
(lp1628
Vhttp://img.beckett.com/images/no-image.jpg
p1629
asg22
V#50
p1630
sg24
V1998-99
p1631
sg26
g27
sg28
(lp1632
VKobe Bryant
p1633
assbag1
(g2
g3
Ntp1634
Rp1635
(dp1636
g7
(dp1637
g9
V1998-99 SPx Finite Extreme #83 Shaquille O'Neal
p1638
sg11
I1
sg12
VSPx Finite Extreme
p1639
sg14
(lp1640
Vhttp://www.beckett.com/basketball/1998-99/spx-finite-extreme/83-shaquille-oneal-3163605
p1641
asg17
g18
sg19
(lp1642
Vhttp://img.beckett.com/images/no-image.jpg
p1643
asg22
V#83
p1644
sg24
V1998-99
p1645
sg26
g27
sg28
(lp1646
VShaquille O'Neal
p1647
assbag1
(g2
g3
Ntp1648
Rp1649
(dp1650
g7
(dp1651
g9
V1998-99 SPx Finite Radiance #50 Kobe Bryant
p1652
sg11
I5000
sg12
VSPx Finite Radiance
p1653
sg14
(lp1654
Vhttp://www.beckett.com/basketball/1998-99/spx-finite-radiance/50-kobe-bryant-3163700
p1655
asg17
g18
sg19
(lp1656
Vhttp://img.beckett.com/images/items_stock/185226/3163613/3163700/front_old.jpg
p1657
asg22
V#50
p1658
sg24
V1998-99
p1659
sg26
g27
sg28
(lp1660
VKobe Bryant
p1661
assbag1
(g2
g3
Ntp1662
Rp1663
(dp1664
g7
(dp1665
g9
V1998-99 SPx Finite Radiance #83 Shaquille O'Neal
p1666
sg11
I5000
sg12
VSPx Finite Radiance
p1667
sg14
(lp1668
Vhttp://www.beckett.com/basketball/1998-99/spx-finite-radiance/83-shaquille-oneal-3163733
p1669
asg17
g18
sg19
(lp1670
Vhttp://img.beckett.com/images/items_stock/185226/3163613/3163733/front.jpg
p1671
asg22
V#83
p1672
sg24
V1998-99
p1673
sg26
g27
sg28
(lp1674
VShaquille O'Neal
p1675
assbag1
(g2
g3
Ntp1676
Rp1677
(dp1678
g7
(dp1679
g9
V1998-99 SPx Finite Radiance #139 Shaquille O'Neal SP
p1680
sg11
I2700
sg12
VSPx Finite Radiance
p1681
sg14
(lp1682
Vhttp://www.beckett.com/basketball/1998-99/spx-finite-radiance/139-shaquille-oneal-sp-3163789
p1683
asg17
g18
sg19
(lp1684
Vhttp://img.beckett.com/images/items_stock/185226/3163613/3163789/front.jpg
p1685
asg22
V#139
p1686
sg24
V1998-99
p1687
sg615
VSP
p1688
sg26
g27
sg28
(lp1689
VShaquille O'Neal
p1690
assbag1
(g2
g3
Ntp1691
Rp1692
(dp1693
g7
(dp1694
g9
V1998-99 SPx Finite Radiance #151 Kobe Bryant SPx
p1695
sg11
I2025
sg12
VSPx Finite Radiance
p1696
sg14
(lp1697
Vhttp://www.beckett.com/basketball/1998-99/spx-finite-radiance/151-kobe-bryant-spx-3163801
p1698
asg17
g18
sg19
(lp1699
Vhttp://img.beckett.com/images/items_stock/185226/3163613/3163801/front.jpg
p1700
asg22
V#151
p1701
sg24
V1998-99
p1702
sg615
VSPx
p1703
sg26
g27
sg28
(lp1704
VKobe Bryant
p1705
assbag1
(g2
g3
Ntp1706
Rp1707
(dp1708
g7
(dp1709
g9
V1998-99 SPx Finite Radiance #200 Kobe Bryant TF
p1710
sg11
I1130
sg12
VSPx Finite Radiance
p1711
sg14
(lp1712
Vhttp://www.beckett.com/basketball/1998-99/spx-finite-radiance/200-kobe-bryant-tf-3163850
p1713
asg17
g18
sg19
(lp1714
Vhttp://img.beckett.com/images/items_stock/185226/3163613/3163850/front.jpg
p1715
asg22
V#200
p1716
sg24
V1998-99
p1717
sg615
VTF
p1718
sg26
g27
sg28
(lp1719
VKobe Bryant
p1720
assbag1
(g2
g3
Ntp1721
Rp1722
(dp1723
g7
(dp1724
g9
V1998-99 SPx Finite Radiance #205 Shaquille O'Neal FE
p1725
sg11
I590
sg12
VSPx Finite Radiance
p1726
sg14
(lp1727
Vhttp://www.beckett.com/basketball/1998-99/spx-finite-radiance/205-shaquille-oneal-fe-3163855
p1728
asg17
g18
sg19
(lp1729
Vhttp://img.beckett.com/images/items_stock/185226/3163613/3163855/front.jpg
p1730
asg22
V#205
p1731
sg24
V1998-99
p1732
sg615
VFE
p1733
sg26
g27
sg28
(lp1734
VShaquille O'Neal
p1735
assbag1
(g2
g3
Ntp1736
Rp1737
(dp1738
g7
(dp1739
g9
V1998-99 SPx Finite Radiance #233 Tyronn Lue
p1740
sg11
I1500
sg12
VSPx Finite Radiance
p1741
sg14
(lp1742
Vhttp://www.beckett.com/basketball/1998-99/spx-finite-radiance/233-tyronn-lue-3163883
p1743
asg17
g18
sg19
(lp1744
Vhttp://img.beckett.com/images/items_stock/185226/3163613/3163883/front.jpg
p1745
asg22
V#233
p1746
sg24
V1998-99
p1747
sg26
g27
sg28
(lp1748
VTyronn Lue
p1749
assbag1
(g2
g3
Ntp1750
Rp1751
(dp1752
g7
(dp1753
g9
V1998-99 SPx Finite Radiance #236 Ruben Patterson
p1754
sg11
I1500
sg12
VSPx Finite Radiance
p1755
sg14
(lp1756
Vhttp://www.beckett.com/basketball/1998-99/spx-finite-radiance/236-ruben-patterson-3163886
p1757
asg17
g18
sg19
(lp1758
Vhttp://img.beckett.com/images/items_stock/185226/3163613/3163886/front.jpg
p1759
asg22
V#236
p1760
sg24
V1998-99
p1761
sg26
g27
sg28
(lp1762
VRuben Patterson
p1763
assbag1
(g2
g3
Ntp1764
Rp1765
(dp1766
g7
(dp1767
g9
V1998-99 SPx Finite Spectrum #50 Kobe Bryant
p1768
sg11
I350
sg12
VSPx Finite Spectrum
p1769
sg14
(lp1770
Vhttp://www.beckett.com/basketball/1998-99/spx-finite-spectrum/50-kobe-bryant-3163978
p1771
asg17
g18
sg19
(lp1772
Vhttp://img.beckett.com/images/no-image.jpg
p1773
asg22
V#50
p1774
sg24
V1998-99
p1775
sg26
g27
sg28
(lp1776
VKobe Bryant
p1777
assbag1
(g2
g3
Ntp1778
Rp1779
(dp1780
g7
(dp1781
g9
V1998-99 SPx Finite Spectrum #83 Shaquille O'Neal
p1782
sg11
I350
sg12
VSPx Finite Spectrum
p1783
sg14
(lp1784
Vhttp://www.beckett.com/basketball/1998-99/spx-finite-spectrum/83-shaquille-oneal-3164011
p1785
asg17
g18
sg19
(lp1786
Vhttp://img.beckett.com/images/no-image.jpg
p1787
asg22
V#83
p1788
sg24
V1998-99
p1789
sg26
g27
sg28
(lp1790
VShaquille O'Neal
p1791
assbag1
(g2
g3
Ntp1792
Rp1793
(dp1794
g7
(dp1795
g9
V1998-99 SPx Finite Spectrum #139 Shaquille O'Neal SP
p1796
sg11
I250
sg12
VSPx Finite Spectrum
p1797
sg14
(lp1798
Vhttp://www.beckett.com/basketball/1998-99/spx-finite-spectrum/139-shaquille-oneal-sp-3164067
p1799
asg17
g18
sg19
(lp1800
Vhttp://img.beckett.com/images/items_stock/185226/3163891/3164067/front.jpg
p1801
asg22
V#139
p1802
sg24
V1998-99
p1803
sg615
VSP
p1804
sg26
g27
sg28
(lp1805
VShaquille O'Neal
p1806
assbag1
(g2
g3
Ntp1807
Rp1808
(dp1809
g7
(dp1810
g9
V1998-99 SPx Finite Spectrum #151 Kobe Bryant SPx
p1811
sg11
I75
sg12
VSPx Finite Spectrum
p1812
sg14
(lp1813
Vhttp://www.beckett.com/basketball/1998-99/spx-finite-spectrum/151-kobe-bryant-spx-3164079
p1814
asg17
g18
sg19
(lp1815
Vhttp://img.beckett.com/images/no-image.jpg
p1816
asg22
V#151
p1817
sg24
V1998-99
p1818
sg615
VSPx
p1819
sg26
g27
sg28
(lp1820
VKobe Bryant
p1821
assbag1
(g2
g3
Ntp1822
Rp1823
(dp1824
g7
(dp1825
g9
V1998-99 SPx Finite Spectrum #200 Kobe Bryant TF
p1826
sg11
I50
sg12
VSPx Finite Spectrum
p1827
sg14
(lp1828
Vhttp://www.beckett.com/basketball/1998-99/spx-finite-spectrum/200-kobe-bryant-tf-3164128
p1829
asg17
g18
sg19
(lp1830
Vhttp://img.beckett.com/images/no-image.jpg
p1831
asg22
V#200
p1832
sg24
V1998-99
p1833
sg615
VTF
p1834
sg26
g27
sg28
(lp1835
VKobe Bryant
p1836
assbag1
(g2
g3
Ntp1837
Rp1838
(dp1839
g7
(dp1840
g9
V1998-99 SPx Finite Spectrum #205 Shaquille O'Neal FE
p1841
sg11
I25
sg12
VSPx Finite Spectrum
p1842
sg14
(lp1843
Vhttp://www.beckett.com/basketball/1998-99/spx-finite-spectrum/205-shaquille-oneal-fe-3164133
p1844
asg17
g18
sg19
(lp1845
Vhttp://img.beckett.com/images/no-image.jpg
p1846
asg22
V#205
p1847
sg24
V1998-99
p1848
sg615
VFE
p1849
sg26
g27
sg28
(lp1850
VShaquille O'Neal
p1851
assbag1
(g2
g3
Ntp1852
Rp1853
(dp1854
g7
(dp1855
g9
V1998-99 SPx Finite Spectrum #233 Tyronn Lue
p1856
sg11
I25
sg12
VSPx Finite Spectrum
p1857
sg14
(lp1858
Vhttp://www.beckett.com/basketball/1998-99/spx-finite-spectrum/233-tyronn-lue-3164161
p1859
asg17
g18
sg19
(lp1860
Vhttp://img.beckett.com/images/no-image.jpg
p1861
asg22
V#233
p1862
sg24
V1998-99
p1863
sg26
g27
sg28
(lp1864
VTyronn Lue
p1865
assbag1
(g2
g3
Ntp1866
Rp1867
(dp1868
g7
(dp1869
g9
V1998-99 SPx Finite Spectrum #236 Ruben Patterson
p1870
sg11
I25
sg12
VSPx Finite Spectrum
p1871
sg14
(lp1872
Vhttp://www.beckett.com/basketball/1998-99/spx-finite-spectrum/236-ruben-patterson-3164164
p1873
asg17
g18
sg19
(lp1874
Vhttp://img.beckett.com/images/items_stock/185226/3163891/3164164/front.jpg
p1875
asg22
V#236
p1876
sg24
V1998-99
p1877
sg26
g27
sg28
(lp1878
VRuben Patterson
p1879
assbag1
(g2
g3
Ntp1880
Rp1881
(dp1882
g7
(dp1883
g9
V1998-99 Stadium Club First Day Issue #56 Rick Fox
p1884
sg11
I200
sg12
VStadium Club First Day Issue
p1885
sg14
(lp1886
Vhttp://www.beckett.com/basketball/1998-99/stadium-club-first-day-issue/56-rick-fox-3164501
p1887
asg17
g18
sg19
(lp1888
Vhttp://img.beckett.com/images/no-image.jpg
p1889
asg22
V#56
p1890
sg24
V1998-99
p1891
sg26
g27
sg28
(lp1892
VRick Fox
p1893
assbag1
(g2
g3
Ntp1894
Rp1895
(dp1896
g7
(dp1897
g9
V1998-99 Stadium Club First Day Issue #71 Shaquille O'Neal
p1898
sg11
I200
sg12
VStadium Club First Day Issue
p1899
sg14
(lp1900
Vhttp://www.beckett.com/basketball/1998-99/stadium-club-first-day-issue/71-shaquille-oneal-3164516
p1901
asg17
g18
sg19
(lp1902
Vhttp://img.beckett.com/images/no-image.jpg
p1903
asg22
V#71
p1904
sg24
V1998-99
p1905
sg26
g27
sg28
(lp1906
VShaquille O'Neal
p1907
assbag1
(g2
g3
Ntp1908
Rp1909
(dp1910
g7
(dp1911
g9
V1998-99 Stadium Club First Day Issue #84 Robert Horry
p1912
sg11
I200
sg12
VStadium Club First Day Issue
p1913
sg14
(lp1914
Vhttp://www.beckett.com/basketball/1998-99/stadium-club-first-day-issue/84-robert-horry-3164529
p1915
asg17
g18
sg19
(lp1916
Vhttp://img.beckett.com/images/no-image.jpg
p1917
asg22
V#84
p1918
sg24
V1998-99
p1919
sg26
g27
sg28
(lp1920
VRobert Horry
p1921
assbag1
(g2
g3
Ntp1922
Rp1923
(dp1924
g7
(dp1925
g9
V1998-99 Stadium Club First Day Issue #154 Elden Campbell
p1926
sg11
I200
sg12
VStadium Club First Day Issue
p1927
sg14
(lp1928
Vhttp://www.beckett.com/basketball/1998-99/stadium-club-first-day-issue/154-elden-campbell-3164599
p1929
asg17
g18
sg19
(lp1930
Vhttp://img.beckett.com/images/no-image.jpg
p1931
asg22
V#154
p1932
sg24
V1998-99
p1933
sg26
g27
sg28
(lp1934
VElden Campbell
p1935
assbag1
(g2
g3
Ntp1936
Rp1937
(dp1938
g7
(dp1939
g9
V1998-99 Stadium Club First Day Issue #170 Kobe Bryant
p1940
sg11
I200
sg12
VStadium Club First Day Issue
p1941
sg14
(lp1942
Vhttp://www.beckett.com/basketball/1998-99/stadium-club-first-day-issue/170-kobe-bryant-3164615
p1943
asg17
g18
sg19
(lp1944
Vhttp://img.beckett.com/images/no-image.jpg
p1945
asg22
V#170
p1946
sg24
V1998-99
p1947
sg26
g27
sg28
(lp1948
VKobe Bryant
p1949
assbag1
(g2
g3
Ntp1950
Rp1951
(dp1952
g7
(dp1953
g9
V1998-99 Stadium Club First Day Issue #176 Derek Fisher
p1954
sg11
I200
sg12
VStadium Club First Day Issue
p1955
sg14
(lp1956
Vhttp://www.beckett.com/basketball/1998-99/stadium-club-first-day-issue/176-derek-fisher-3164621
p1957
asg17
g18
sg19
(lp1958
Vhttp://img.beckett.com/images/no-image.jpg
p1959
asg22
V#176
p1960
sg24
V1998-99
p1961
sg26
g27
sg28
(lp1962
VDerek Fisher
p1963
assbag1
(g2
g3
Ntp1964
Rp1965
(dp1966
g7
(dp1967
g9
V1998-99 Stadium Club First Day Issue #214 Tyronn Lue
p1968
sg11
I200
sg12
VStadium Club First Day Issue
p1969
sg14
(lp1970
Vhttp://www.beckett.com/basketball/1998-99/stadium-club-first-day-issue/214-tyronn-lue-3164659
p1971
asg17
g18
sg19
(lp1972
Vhttp://img.beckett.com/images/no-image.jpg
p1973
asg22
V#214
p1974
sg24
V1998-99
p1975
sg26
g27
sg28
(lp1976
VTyronn Lue
p1977
assbag1
(g2
g3
Ntp1978
Rp1979
(dp1980
g7
(dp1981
g9
V1998-99 Stadium Club First Day Issue #217 Sam Jacobson
p1982
sg11
I200
sg12
VStadium Club First Day Issue
p1983
sg14
(lp1984
Vhttp://www.beckett.com/basketball/1998-99/stadium-club-first-day-issue/217-sam-jacobson-3164662
p1985
asg17
g18
sg19
(lp1986
Vhttp://img.beckett.com/images/no-image.jpg
p1987
asg22
V#217
p1988
sg24
V1998-99
p1989
sg26
g27
sg28
(lp1990
VSam Jacobson
p1991
assbag1
(g2
g3
Ntp1992
Rp1993
(dp1994
g7
(dp1995
g9
V1998-99 Stadium Club One Of A Kind #56 Rick Fox
p1996
sg11
I150
sg12
VStadium Club One Of A Kind
p1997
sg14
(lp1998
Vhttp://www.beckett.com/basketball/1998-99/stadium-club-one-of-a-kind/56-rick-fox-3160756
p1999
asg17
g18
sg19
(lp2000
Vhttp://img.beckett.com/images/items_stock/185226/3160688/3160756/front.jpg
p2001
asg22
V#56
p2002
sg24
V1998-99
p2003
sg26
g27
sg28
(lp2004
VRick Fox
p2005
assbag1
(g2
g3
Ntp2006
Rp2007
(dp2008
g7
(dp2009
g9
V1998-99 Stadium Club One Of A Kind #71 Shaquille O'Neal
p2010
sg11
I150
sg12
VStadium Club One Of A Kind
p2011
sg14
(lp2012
Vhttp://www.beckett.com/basketball/1998-99/stadium-club-one-of-a-kind/71-shaquille-oneal-3160771
p2013
asg17
g18
sg19
(lp2014
Vhttp://img.beckett.com/images/items_stock/185226/3160688/3160771/front.jpg
p2015
asg22
V#71
p2016
sg24
V1998-99
p2017
sg26
g27
sg28
(lp2018
VShaquille O'Neal
p2019
assbag1
(g2
g3
Ntp2020
Rp2021
(dp2022
g7
(dp2023
g9
V1998-99 Stadium Club One Of A Kind #84 Robert Horry
p2024
sg11
I150
sg12
VStadium Club One Of A Kind
p2025
sg14
(lp2026
Vhttp://www.beckett.com/basketball/1998-99/stadium-club-one-of-a-kind/84-robert-horry-3160784
p2027
asg17
g18
sg19
(lp2028
Vhttp://img.beckett.com/images/no-image.jpg
p2029
asg22
V#84
p2030
sg24
V1998-99
p2031
sg26
g27
sg28
(lp2032
VRobert Horry
p2033
assbag1
(g2
g3
Ntp2034
Rp2035
(dp2036
g7
(dp2037
g9
V1998-99 Stadium Club One Of A Kind #154 Elden Campbell
p2038
sg11
I150
sg12
VStadium Club One Of A Kind
p2039
sg14
(lp2040
Vhttp://www.beckett.com/basketball/1998-99/stadium-club-one-of-a-kind/154-elden-campbell-3160854
p2041
asg17
g18
sg19
(lp2042
Vhttp://img.beckett.com/images/no-image.jpg
p2043
asg22
V#154
p2044
sg24
V1998-99
p2045
sg26
g27
sg28
(lp2046
VElden Campbell
p2047
assbag1
(g2
g3
Ntp2048
Rp2049
(dp2050
g7
(dp2051
g9
V1998-99 Stadium Club One Of A Kind #170 Kobe Bryant
p2052
sg11
I150
sg12
VStadium Club One Of A Kind
p2053
sg14
(lp2054
Vhttp://www.beckett.com/basketball/1998-99/stadium-club-one-of-a-kind/170-kobe-bryant-3160870
p2055
asg17
g18
sg19
(lp2056
Vhttp://img.beckett.com/images/no-image.jpg
p2057
asg22
V#170
p2058
sg24
V1998-99
p2059
sg26
g27
sg28
(lp2060
VKobe Bryant
p2061
assbag1
(g2
g3
Ntp2062
Rp2063
(dp2064
g7
(dp2065
g9
V1998-99 Stadium Club One Of A Kind #176 Derek Fisher
p2066
sg11
I150
sg12
VStadium Club One Of A Kind
p2067
sg14
(lp2068
Vhttp://www.beckett.com/basketball/1998-99/stadium-club-one-of-a-kind/176-derek-fisher-3160876
p2069
asg17
g18
sg19
(lp2070
Vhttp://img.beckett.com/images/no-image.jpg
p2071
asg22
V#176
p2072
sg24
V1998-99
p2073
sg26
g27
sg28
(lp2074
VDerek Fisher
p2075
assbag1
(g2
g3
Ntp2076
Rp2077
(dp2078
g7
(dp2079
g9
V1998-99 Stadium Club One Of A Kind #214 Tyronn Lue
p2080
sg11
I150
sg12
VStadium Club One Of A Kind
p2081
sg14
(lp2082
Vhttp://www.beckett.com/basketball/1998-99/stadium-club-one-of-a-kind/214-tyronn-lue-3160914
p2083
asg17
g18
sg19
(lp2084
Vhttp://img.beckett.com/images/no-image.jpg
p2085
asg22
V#214
p2086
sg24
V1998-99
p2087
sg26
g27
sg28
(lp2088
VTyronn Lue
p2089
assbag1
(g2
g3
Ntp2090
Rp2091
(dp2092
g7
(dp2093
g9
V1998-99 Stadium Club One Of A Kind #217 Sam Jacobson
p2094
sg11
I150
sg12
VStadium Club One Of A Kind
p2095
sg14
(lp2096
Vhttp://www.beckett.com/basketball/1998-99/stadium-club-one-of-a-kind/217-sam-jacobson-3160917
p2097
asg17
g18
sg19
(lp2098
Vhttp://img.beckett.com/images/no-image.jpg
p2099
asg22
V#217
p2100
sg24
V1998-99
p2101
sg26
g27
sg28
(lp2102
VSam Jacobson
p2103
assbag1
(g2
g3
Ntp2104
Rp2105
(dp2106
g7
(dp2107
g9
V1998-99 Stadium Club Printing Plates #56 Rick Fox Black
p2108
sg11
I1
sg12
VStadium Club Printing Plates
p2109
sg14
(lp2110
Vhttp://www.beckett.com/basketball/1998-99/stadium-club-printing-plates/56-rick-fox-black-3161170
p2111
asg17
g18
sg19
(lp2112
Vhttp://img.beckett.com/images/no-image.jpg
p2113
asg22
V#56
p2114
sg24
V1998-99
p2115
sg26
g27
sg28
(lp2116
VRick Fox
p2117
assbag1
(g2
g3
Ntp2118
Rp2119
(dp2120
g7
(dp2121
g9
V1998-99 Stadium Club Printing Plates #56A Rick Fox Cyan
p2122
sg11
I1
sg12
VStadium Club Printing Plates
p2123
sg14
(lp2124
Vhttp://www.beckett.com/basketball/1998-99/stadium-club-printing-plates/56a-rick-fox-cyan-3161171
p2125
asg17
g18
sg19
(lp2126
Vhttp://img.beckett.com/images/no-image.jpg
p2127
asg22
V#56A
p2128
sg24
V1998-99
p2129
sg26
g27
sg28
(lp2130
g2117
assbag1
(g2
g3
Ntp2131
Rp2132
(dp2133
g7
(dp2134
g9
V1998-99 Stadium Club Printing Plates #56B Rick Fox Magenta
p2135
sg11
I1
sg12
VStadium Club Printing Plates
p2136
sg14
(lp2137
Vhttp://www.beckett.com/basketball/1998-99/stadium-club-printing-plates/56b-rick-fox-magenta-3161172
p2138
asg17
g18
sg19
(lp2139
Vhttp://img.beckett.com/images/no-image.jpg
p2140
asg22
V#56B
p2141
sg24
V1998-99
p2142
sg26
g27
sg28
(lp2143
g2117
assbag1
(g2
g3
Ntp2144
Rp2145
(dp2146
g7
(dp2147
g9
V1998-99 Stadium Club Printing Plates #56C Rick Fox Yellow
p2148
sg11
I1
sg12
VStadium Club Printing Plates
p2149
sg14
(lp2150
Vhttp://www.beckett.com/basketball/1998-99/stadium-club-printing-plates/56c-rick-fox-yellow-3161173
p2151
asg17
g18
sg19
(lp2152
Vhttp://img.beckett.com/images/no-image.jpg
p2153
asg22
V#56C
p2154
sg24
V1998-99
p2155
sg26
g27
sg28
(lp2156
g2117
assbag1
(g2
g3
Ntp2157
Rp2158
(dp2159
g7
(dp2160
g9
V1998-99 Stadium Club Printing Plates #71 Shaquille O'Neal Black
p2161
sg11
I1
sg12
VStadium Club Printing Plates
p2162
sg14
(lp2163
Vhttp://www.beckett.com/basketball/1998-99/stadium-club-printing-plates/71-shaquille-oneal-black-3161230
p2164
asg17
g18
sg19
(lp2165
Vhttp://img.beckett.com/images/no-image.jpg
p2166
asg22
V#71
p2167
sg24
V1998-99
p2168
sg26
g27
sg28
(lp2169
VShaquille O'Neal
p2170
assbag1
(g2
g3
Ntp2171
Rp2172
(dp2173
g7
(dp2174
g9
V1998-99 Stadium Club Printing Plates #71A Shaquille O'Neal Cyan
p2175
sg11
I1
sg12
VStadium Club Printing Plates
p2176
sg14
(lp2177
Vhttp://www.beckett.com/basketball/1998-99/stadium-club-printing-plates/71a-shaquille-oneal-cyan-3161231
p2178
asg17
g18
sg19
(lp2179
Vhttp://img.beckett.com/images/no-image.jpg
p2180
asg22
V#71A
p2181
sg24
V1998-99
p2182
sg26
g27
sg28
(lp2183
g2170
assbag1
(g2
g3
Ntp2184
Rp2185
(dp2186
g7
(dp2187
g9
V1998-99 Stadium Club Printing Plates #71B Shaquille O'Neal Magenta
p2188
sg11
I1
sg12
VStadium Club Printing Plates
p2189
sg14
(lp2190
Vhttp://www.beckett.com/basketball/1998-99/stadium-club-printing-plates/71b-shaquille-oneal-magenta-3161232
p2191
asg17
g18
sg19
(lp2192
Vhttp://img.beckett.com/images/no-image.jpg
p2193
asg22
V#71B
p2194
sg24
V1998-99
p2195
sg26
g27
sg28
(lp2196
g2170
assbag1
(g2
g3
Ntp2197
Rp2198
(dp2199
g7
(dp2200
g9
V1998-99 Stadium Club Printing Plates #71C Shaquille O'Neal Yellow
p2201
sg11
I1
sg12
VStadium Club Printing Plates
p2202
sg14
(lp2203
Vhttp://www.beckett.com/basketball/1998-99/stadium-club-printing-plates/71c-shaquille-oneal-yellow-3161233
p2204
asg17
g18
sg19
(lp2205
Vhttp://img.beckett.com/images/no-image.jpg
p2206
asg22
V#71C
p2207
sg24
V1998-99
p2208
sg26
g27
sg28
(lp2209
g2170
assbag1
(g2
g3
Ntp2210
Rp2211
(dp2212
g7
(dp2213
g9
V1998-99 Stadium Club Printing Plates #84 Robert Horry Black
p2214
sg11
I1
sg12
VStadium Club Printing Plates
p2215
sg14
(lp2216
Vhttp://www.beckett.com/basketball/1998-99/stadium-club-printing-plates/84-robert-horry-black-3161282
p2217
asg17
g18
sg19
(lp2218
Vhttp://img.beckett.com/images/no-image.jpg
p2219
asg22
V#84
p2220
sg24
V1998-99
p2221
sg26
g27
sg28
(lp2222
VRobert Horry
p2223
assbag1
(g2
g3
Ntp2224
Rp2225
(dp2226
g7
(dp2227
g9
V1998-99 Stadium Club Printing Plates #84A Robert Horry Cyan
p2228
sg11
I1
sg12
VStadium Club Printing Plates
p2229
sg14
(lp2230
Vhttp://www.beckett.com/basketball/1998-99/stadium-club-printing-plates/84a-robert-horry-cyan-3161283
p2231
asg17
g18
sg19
(lp2232
Vhttp://img.beckett.com/images/no-image.jpg
p2233
asg22
V#84A
p2234
sg24
V1998-99
p2235
sg26
g27
sg28
(lp2236
g2223
assbag1
(g2
g3
Ntp2237
Rp2238
(dp2239
g7
(dp2240
g9
V1998-99 Stadium Club Printing Plates #84B Robert Horry Magenta
p2241
sg11
I1
sg12
VStadium Club Printing Plates
p2242
sg14
(lp2243
Vhttp://www.beckett.com/basketball/1998-99/stadium-club-printing-plates/84b-robert-horry-magenta-3161284
p2244
asg17
g18
sg19
(lp2245
Vhttp://img.beckett.com/images/no-image.jpg
p2246
asg22
V#84B
p2247
sg24
V1998-99
p2248
sg26
g27
sg28
(lp2249
g2223
assbag1
(g2
g3
Ntp2250
Rp2251
(dp2252
g7
(dp2253
g9
V1998-99 Stadium Club Printing Plates #84C Robert Horry Yellow
p2254
sg11
I1
sg12
VStadium Club Printing Plates
p2255
sg14
(lp2256
Vhttp://www.beckett.com/basketball/1998-99/stadium-club-printing-plates/84c-robert-horry-yellow-3161285
p2257
asg17
g18
sg19
(lp2258
Vhttp://img.beckett.com/images/no-image.jpg
p2259
asg22
V#84C
p2260
sg24
V1998-99
p2261
sg26
g27
sg28
(lp2262
g2223
assbag1
(g2
g3
Ntp2263
Rp2264
(dp2265
g7
(dp2266
g9
V1998-99 Stadium Club Printing Plates #154 Elden Campbell Black
p2267
sg11
I1
sg12
VStadium Club Printing Plates
p2268
sg14
(lp2269
Vhttp://www.beckett.com/basketball/1998-99/stadium-club-printing-plates/154-elden-campbell-black-3161562
p2270
asg17
g18
sg19
(lp2271
Vhttp://img.beckett.com/images/no-image.jpg
p2272
asg22
V#154
p2273
sg24
V1998-99
p2274
sg26
g27
sg28
(lp2275
VElden Campbell
p2276
assbag1
(g2
g3
Ntp2277
Rp2278
(dp2279
g7
(dp2280
g9
V1998-99 Stadium Club Printing Plates #154A Elden Campbell Cyan
p2281
sg11
I1
sg12
VStadium Club Printing Plates
p2282
sg14
(lp2283
Vhttp://www.beckett.com/basketball/1998-99/stadium-club-printing-plates/154a-elden-campbell-cyan-3161563
p2284
asg17
g18
sg19
(lp2285
Vhttp://img.beckett.com/images/no-image.jpg
p2286
asg22
V#154A
p2287
sg24
V1998-99
p2288
sg26
g27
sg28
(lp2289
g2276
assbag1
(g2
g3
Ntp2290
Rp2291
(dp2292
g7
(dp2293
g9
V1998-99 Stadium Club Printing Plates #154B Elden Campbell Magenta
p2294
sg11
I1
sg12
VStadium Club Printing Plates
p2295
sg14
(lp2296
Vhttp://www.beckett.com/basketball/1998-99/stadium-club-printing-plates/154b-elden-campbell-magenta-3161564
p2297
asg17
g18
sg19
(lp2298
Vhttp://img.beckett.com/images/no-image.jpg
p2299
asg22
V#154B
p2300
sg24
V1998-99
p2301
sg26
g27
sg28
(lp2302
g2276
assbag1
(g2
g3
Ntp2303
Rp2304
(dp2305
g7
(dp2306
g9
V1998-99 Stadium Club Printing Plates #154C Elden Campbell Yellow
p2307
sg11
I1
sg12
VStadium Club Printing Plates
p2308
sg14
(lp2309
Vhttp://www.beckett.com/basketball/1998-99/stadium-club-printing-plates/154c-elden-campbell-yellow-3161565
p2310
asg17
g18
sg19
(lp2311
Vhttp://img.beckett.com/images/no-image.jpg
p2312
asg22
V#154C
p2313
sg24
V1998-99
p2314
sg26
g27
sg28
(lp2315
g2276
assbag1
(g2
g3
Ntp2316
Rp2317
(dp2318
g7
(dp2319
g9
V1998-99 Stadium Club Printing Plates #170 Kobe Bryant Black
p2320
sg11
I1
sg12
VStadium Club Printing Plates
p2321
sg14
(lp2322
Vhttp://www.beckett.com/basketball/1998-99/stadium-club-printing-plates/170-kobe-bryant-black-3161626
p2323
asg17
g18
sg19
(lp2324
Vhttp://img.beckett.com/images/no-image.jpg
p2325
asg22
V#170
p2326
sg24
V1998-99
p2327
sg26
g27
sg28
(lp2328
VKobe Bryant
p2329
assbag1
(g2
g3
Ntp2330
Rp2331
(dp2332
g7
(dp2333
g9
V1998-99 Stadium Club Printing Plates #170A Kobe Bryant Cyan
p2334
sg11
I1
sg12
VStadium Club Printing Plates
p2335
sg14
(lp2336
Vhttp://www.beckett.com/basketball/1998-99/stadium-club-printing-plates/170a-kobe-bryant-cyan-3161627
p2337
asg17
g18
sg19
(lp2338
Vhttp://img.beckett.com/images/no-image.jpg
p2339
asg22
V#170A
p2340
sg24
V1998-99
p2341
sg26
g27
sg28
(lp2342
g2329
assbag1
(g2
g3
Ntp2343
Rp2344
(dp2345
g7
(dp2346
g9
V1998-99 Stadium Club Printing Plates #170B Kobe Bryant Magenta
p2347
sg11
I1
sg12
VStadium Club Printing Plates
p2348
sg14
(lp2349
Vhttp://www.beckett.com/basketball/1998-99/stadium-club-printing-plates/170b-kobe-bryant-magenta-3161628
p2350
asg17
g18
sg19
(lp2351
Vhttp://img.beckett.com/images/no-image.jpg
p2352
asg22
V#170B
p2353
sg24
V1998-99
p2354
sg26
g27
sg28
(lp2355
g2329
assbag1
(g2
g3
Ntp2356
Rp2357
(dp2358
g7
(dp2359
g9
V1998-99 Stadium Club Printing Plates #170C Kobe Bryant Yellow
p2360
sg11
I1
sg12
VStadium Club Printing Plates
p2361
sg14
(lp2362
Vhttp://www.beckett.com/basketball/1998-99/stadium-club-printing-plates/170c-kobe-bryant-yellow-3161629
p2363
asg17
g18
sg19
(lp2364
Vhttp://img.beckett.com/images/no-image.jpg
p2365
asg22
V#170C
p2366
sg24
V1998-99
p2367
sg26
g27
sg28
(lp2368
g2329
assbag1
(g2
g3
Ntp2369
Rp2370
(dp2371
g7
(dp2372
g9
V1998-99 Stadium Club Printing Plates #176 Derek Fisher Black
p2373
sg11
I1
sg12
VStadium Club Printing Plates
p2374
sg14
(lp2375
Vhttp://www.beckett.com/basketball/1998-99/stadium-club-printing-plates/176-derek-fisher-black-3161650
p2376
asg17
g18
sg19
(lp2377
Vhttp://img.beckett.com/images/no-image.jpg
p2378
asg22
V#176
p2379
sg24
V1998-99
p2380
sg26
g27
sg28
(lp2381
VDerek Fisher
p2382
assbag1
(g2
g3
Ntp2383
Rp2384
(dp2385
g7
(dp2386
g9
V1998-99 Stadium Club Printing Plates #176A Derek Fisher Cyan
p2387
sg11
I1
sg12
VStadium Club Printing Plates
p2388
sg14
(lp2389
Vhttp://www.beckett.com/basketball/1998-99/stadium-club-printing-plates/176a-derek-fisher-cyan-3161651
p2390
asg17
g18
sg19
(lp2391
Vhttp://img.beckett.com/images/no-image.jpg
p2392
asg22
V#176A
p2393
sg24
V1998-99
p2394
sg26
g27
sg28
(lp2395
g2382
assbag1
(g2
g3
Ntp2396
Rp2397
(dp2398
g7
(dp2399
g9
V1998-99 Stadium Club Printing Plates #176B Derek Fisher Magenta
p2400
sg11
I1
sg12
VStadium Club Printing Plates
p2401
sg14
(lp2402
Vhttp://www.beckett.com/basketball/1998-99/stadium-club-printing-plates/176b-derek-fisher-magenta-3161652
p2403
asg17
g18
sg19
(lp2404
Vhttp://img.beckett.com/images/no-image.jpg
p2405
asg22
V#176B
p2406
sg24
V1998-99
p2407
sg26
g27
sg28
(lp2408
g2382
assbag1
(g2
g3
Ntp2409
Rp2410
(dp2411
g7
(dp2412
g9
V1998-99 Stadium Club Printing Plates #176C Derek Fisher Yellow
p2413
sg11
I1
sg12
VStadium Club Printing Plates
p2414
sg14
(lp2415
Vhttp://www.beckett.com/basketball/1998-99/stadium-club-printing-plates/176c-derek-fisher-yellow-3161653
p2416
asg17
g18
sg19
(lp2417
Vhttp://img.beckett.com/images/no-image.jpg
p2418
asg22
V#176C
p2419
sg24
V1998-99
p2420
sg26
g27
sg28
(lp2421
g2382
assbag1
(g2
g3
Ntp2422
Rp2423
(dp2424
g7
(dp2425
g9
V1998-99 Stadium Club Printing Plates #214 Tyronn Lue Black
p2426
sg11
I1
sg12
VStadium Club Printing Plates
p2427
sg14
(lp2428
Vhttp://www.beckett.com/basketball/1998-99/stadium-club-printing-plates/214-tyronn-lue-black-3161802
p2429
asg17
g18
sg19
(lp2430
Vhttp://img.beckett.com/images/no-image.jpg
p2431
asg22
V#214
p2432
sg24
V1998-99
p2433
sg26
g27
sg28
(lp2434
VTyronn Lue
p2435
assbag1
(g2
g3
Ntp2436
Rp2437
(dp2438
g7
(dp2439
g9
V1998-99 Stadium Club Printing Plates #214A Tyronn Lue Cyan
p2440
sg11
I1
sg12
VStadium Club Printing Plates
p2441
sg14
(lp2442
Vhttp://www.beckett.com/basketball/1998-99/stadium-club-printing-plates/214a-tyronn-lue-cyan-3161803
p2443
asg17
g18
sg19
(lp2444
Vhttp://img.beckett.com/images/no-image.jpg
p2445
asg22
V#214A
p2446
sg24
V1998-99
p2447
sg26
g27
sg28
(lp2448
g2435
assbag1
(g2
g3
Ntp2449
Rp2450
(dp2451
g7
(dp2452
g9
V1998-99 Stadium Club Printing Plates #214B Tyronn Lue Magenta
p2453
sg11
I1
sg12
VStadium Club Printing Plates
p2454
sg14
(lp2455
Vhttp://www.beckett.com/basketball/1998-99/stadium-club-printing-plates/214b-tyronn-lue-magenta-3161804
p2456
asg17
g18
sg19
(lp2457
Vhttp://img.beckett.com/images/no-image.jpg
p2458
asg22
V#214B
p2459
sg24
V1998-99
p2460
sg26
g27
sg28
(lp2461
g2435
assbag1
(g2
g3
Ntp2462
Rp2463
(dp2464
g7
(dp2465
g9
V1998-99 Stadium Club Printing Plates #214C Tyronn Lue Yellow
p2466
sg11
I1
sg12
VStadium Club Printing Plates
p2467
sg14
(lp2468
Vhttp://www.beckett.com/basketball/1998-99/stadium-club-printing-plates/214c-tyronn-lue-yellow-3161805
p2469
asg17
g18
sg19
(lp2470
Vhttp://img.beckett.com/images/no-image.jpg
p2471
asg22
V#214C
p2472
sg24
V1998-99
p2473
sg26
g27
sg28
(lp2474
g2435
assbag1
(g2
g3
Ntp2475
Rp2476
(dp2477
g7
(dp2478
g9
V1998-99 Stadium Club Printing Plates #217 Sam Jacobson Black
p2479
sg11
I1
sg12
VStadium Club Printing Plates
p2480
sg14
(lp2481
Vhttp://www.beckett.com/basketball/1998-99/stadium-club-printing-plates/217-sam-jacobson-black-3161814
p2482
asg17
g18
sg19
(lp2483
Vhttp://img.beckett.com/images/no-image.jpg
p2484
asg22
V#217
p2485
sg24
V1998-99
p2486
sg26
g27
sg28
(lp2487
VSam Jacobson
p2488
assbag1
(g2
g3
Ntp2489
Rp2490
(dp2491
g7
(dp2492
g9
V1998-99 Stadium Club Printing Plates #217A Sam Jacobson Cyan
p2493
sg11
I1
sg12
VStadium Club Printing Plates
p2494
sg14
(lp2495
Vhttp://www.beckett.com/basketball/1998-99/stadium-club-printing-plates/217a-sam-jacobson-cyan-3161815
p2496
asg17
g18
sg19
(lp2497
Vhttp://img.beckett.com/images/no-image.jpg
p2498
asg22
V#217A
p2499
sg24
V1998-99
p2500
sg26
g27
sg28
(lp2501
g2488
assbag1
(g2
g3
Ntp2502
Rp2503
(dp2504
g7
(dp2505
g9
V1998-99 Stadium Club Printing Plates #217B Sam Jacobson Magenta
p2506
sg11
I1
sg12
VStadium Club Printing Plates
p2507
sg14
(lp2508
Vhttp://www.beckett.com/basketball/1998-99/stadium-club-printing-plates/217b-sam-jacobson-magenta-3161816
p2509
asg17
g18
sg19
(lp2510
Vhttp://img.beckett.com/images/no-image.jpg
p2511
asg22
V#217B
p2512
sg24
V1998-99
p2513
sg26
g27
sg28
(lp2514
g2488
assbag1
(g2
g3
Ntp2515
Rp2516
(dp2517
g7
(dp2518
g9
V1998-99 Stadium Club Printing Plates #217C Sam Jacobson Yellow
p2519
sg11
I1
sg12
VStadium Club Printing Plates
p2520
sg14
(lp2521
Vhttp://www.beckett.com/basketball/1998-99/stadium-club-printing-plates/217c-sam-jacobson-yellow-3161817
p2522
asg17
g18
sg19
(lp2523
Vhttp://img.beckett.com/images/no-image.jpg
p2524
asg22
V#217C
p2525
sg24
V1998-99
p2526
sg26
g27
sg28
(lp2527
g2488
assbag1
(g2
g3
Ntp2528
Rp2529
(dp2530
g7
(dp2531
g9
V1998-99 UD Choice Premium Choice Reserve #67 Corie Blount
p2532
sg11
I100
sg12
VUD Choice Premium Choice Reserve
p2533
sg14
(lp2534
Vhttp://www.beckett.com/basketball/1998-99/ud-choice-premium-choice-reserve/67-corie-blount-3159240
p2535
asg17
g18
sg19
(lp2536
Vhttp://img.beckett.com/images/no-image.jpg
p2537
asg22
V#67
p2538
sg24
V1998-99
p2539
sg26
g27
sg28
(lp2540
VCorie Blount
p2541
assbag1
(g2
g3
Ntp2542
Rp2543
(dp2544
g7
(dp2545
g9
V1998-99 UD Choice Premium Choice Reserve #68 Shaquille O'Neal
p2546
sg11
I100
sg12
VUD Choice Premium Choice Reserve
p2547
sg14
(lp2548
Vhttp://www.beckett.com/basketball/1998-99/ud-choice-premium-choice-reserve/68-shaquille-oneal-3159241
p2549
asg17
g18
sg19
(lp2550
Vhttp://img.beckett.com/images/no-image.jpg
p2551
asg22
V#68
p2552
sg24
V1998-99
p2553
sg26
g27
sg28
(lp2554
VShaquille O'Neal
p2555
assbag1
(g2
g3
Ntp2556
Rp2557
(dp2558
g7
(dp2559
g9
V1998-99 UD Choice Premium Choice Reserve #69 Kobe Bryant
p2560
sg11
I100
sg12
VUD Choice Premium Choice Reserve
p2561
sg14
(lp2562
Vhttp://www.beckett.com/basketball/1998-99/ud-choice-premium-choice-reserve/69-kobe-bryant-3159242
p2563
asg17
g18
sg19
(lp2564
Vhttp://img.beckett.com/images/no-image.jpg
p2565
asg22
V#69
p2566
sg24
V1998-99
p2567
sg26
g27
sg28
(lp2568
VKobe Bryant
p2569
assbag1
(g2
g3
Ntp2570
Rp2571
(dp2572
g7
(dp2573
g9
V1998-99 UD Choice Premium Choice Reserve #70 Robert Horry
p2574
sg11
I100
sg12
VUD Choice Premium Choice Reserve
p2575
sg14
(lp2576
Vhttp://www.beckett.com/basketball/1998-99/ud-choice-premium-choice-reserve/70-robert-horry-3159243
p2577
asg17
g18
sg19
(lp2578
Vhttp://img.beckett.com/images/no-image.jpg
p2579
asg22
V#70
p2580
sg24
V1998-99
p2581
sg26
g27
sg28
(lp2582
VRobert Horry
p2583
assbag1
(g2
g3
Ntp2584
Rp2585
(dp2586
g7
(dp2587
g9
V1998-99 UD Choice Premium Choice Reserve #71 Sean Rooks
p2588
sg11
I100
sg12
VUD Choice Premium Choice Reserve
p2589
sg14
(lp2590
Vhttp://www.beckett.com/basketball/1998-99/ud-choice-premium-choice-reserve/71-sean-rooks-3159244
p2591
asg17
g18
sg19
(lp2592
Vhttp://img.beckett.com/images/no-image.jpg
p2593
asg22
V#71
p2594
sg24
V1998-99
p2595
sg26
g27
sg28
(lp2596
VSean Rooks
p2597
assbag1
(g2
g3
Ntp2598
Rp2599
(dp2600
g7
(dp2601
g9
V1998-99 UD Choice Premium Choice Reserve #72 Derek Fisher
p2602
sg11
I100
sg12
VUD Choice Premium Choice Reserve
p2603
sg14
(lp2604
Vhttp://www.beckett.com/basketball/1998-99/ud-choice-premium-choice-reserve/72-derek-fisher-3159245
p2605
asg17
g18
sg19
(lp2606
Vhttp://img.beckett.com/images/no-image.jpg
p2607
asg22
V#72
p2608
sg24
V1998-99
p2609
sg26
g27
sg28
(lp2610
VDerek Fisher
p2611
assbag1
(g2
g3
Ntp2612
Rp2613
(dp2614
g7
(dp2615
g9
V1998-99 UD Choice Premium Choice Reserve #168 Shaquille O'Neal FS
p2616
sg11
I100
sg12
VUD Choice Premium Choice Reserve
p2617
sg14
(lp2618
Vhttp://www.beckett.com/basketball/1998-99/ud-choice-premium-choice-reserve/168-shaquille-oneal-fs-3159341
p2619
asg17
g18
sg19
(lp2620
Vhttp://img.beckett.com/images/no-image.jpg
p2621
asg22
V#168
p2622
sg24
V1998-99
p2623
sg615
VFS
p2624
sg26
g27
sg28
(lp2625
VShaquille O'Neal
p2626
assbag1
(g2
g3
Ntp2627
Rp2628
(dp2629
g7
(dp2630
g9
V1998-99 UD Choice Premium Choice Reserve #186 Kobe Bryant YIR
p2631
sg11
I100
sg12
VUD Choice Premium Choice Reserve
p2632
sg14
(lp2633
Vhttp://www.beckett.com/basketball/1998-99/ud-choice-premium-choice-reserve/186-kobe-bryant-yir-3159359
p2634
asg17
g18
sg19
(lp2635
Vhttp://img.beckett.com/images/no-image.jpg
p2636
asg22
V#186
p2637
sg24
V1998-99
p2638
sg615
VYIR
p2639
sg26
g27
sg28
(lp2640
VKobe Bryant
p2641
assbag1
(g2
g3
Ntp2642
Rp2643
(dp2644
g7
(dp2645
g9
V1998-99 UD Choice Premium Choice Reserve #197 Los Angeles Lakers YIR/Kobe Bryant/Eddie Jones/Shaquille O'Neal/Nick Van Exel
p2646
sg11
I100
sg12
VUD Choice Premium Choice Reserve
p2647
sg14
(lp2648
Vhttp://www.beckett.com/basketball/1998-99/ud-choice-premium-choice-reserve/197-los-angeles-lakers-yirkobe-bryanteddie-jonesshaquille-onealnick-van-exel-3159370
p2649
asg17
g18
sg19
(lp2650
Vhttp://img.beckett.com/images/no-image.jpg
p2651
asg22
V#197
p2652
sg24
V1998-99
p2653
sg26
g27
sg28
(lp2654
VLos Angeles Lakers
p2655
aVKobe Bryant
p2656
aVEddie Jones
p2657
aVShaquille O'Neal
p2658
aVNick Van Exel
p2659
assbag1
(g2
g3
Ntp2660
Rp2661
(dp2662
g7
(dp2663
g9
V1998-99 UD Ionix Reciprocal #31 Kobe Bryant
p2664
sg11
I750
sg12
VUD Ionix Reciprocal
p2665
sg14
(lp2666
Vhttp://www.beckett.com/basketball/1998-99/ud-ionix-reciprocal/31-kobe-bryant-3159707
p2667
asg17
g18
sg19
(lp2668
Vhttp://img.beckett.com/images/no-image.jpg
p2669
asg22
V#31
p2670
sg24
V1998-99
p2671
sg26
g27
sg28
(lp2672
VKobe Bryant
p2673
assbag1
(g2
g3
Ntp2674
Rp2675
(dp2676
g7
(dp2677
g9
V1998-99 UD Ionix Reciprocal #32 Shaquille O'Neal
p2678
sg11
I750
sg12
VUD Ionix Reciprocal
p2679
sg14
(lp2680
Vhttp://www.beckett.com/basketball/1998-99/ud-ionix-reciprocal/32-shaquille-oneal-3159708
p2681
asg17
g18
sg19
(lp2682
Vhttp://img.beckett.com/images/no-image.jpg
p2683
asg22
V#32
p2684
sg24
V1998-99
p2685
sg26
g27
sg28
(lp2686
VShaquille O'Neal
p2687
assbag1
(g2
g3
Ntp2688
Rp2689
(dp2690
g7
(dp2691
g9
V1998-99 Ultra Masterpieces #61 Kobe Bryant
p2692
sg11
I1
sg12
VUltra Masterpieces
p2693
sg14
(lp2694
Vhttp://www.beckett.com/basketball/1998-99/ultra-masterpieces/61-kobe-bryant-3157017
p2695
asg17
g18
sg19
(lp2696
Vhttp://img.beckett.com/images/no-image.jpg
p2697
asg22
V#61
p2698
sg24
V1998-99
p2699
sg26
g27
sg28
(lp2700
VKobe Bryant
p2701
assbag1
(g2
g3
Ntp2702
Rp2703
(dp2704
g7
(dp2705
g9
V1998-99 Ultra Masterpieces #93 Shaquille O'Neal
p2706
sg11
I1
sg12
VUltra Masterpieces
p2707
sg14
(lp2708
Vhttp://www.beckett.com/basketball/1998-99/ultra-masterpieces/93-shaquille-oneal-3157049
p2709
asg17
g18
sg19
(lp2710
Vhttp://img.beckett.com/images/no-image.jpg
p2711
asg22
V#93
p2712
sg24
V1998-99
p2713
sg26
g27
sg28
(lp2714
VShaquille O'Neal
p2715
assbag1
(g2
g3
Ntp2716
Rp2717
(dp2718
g7
(dp2719
g9
V1998-99 Ultra Masterpieces #105 Tyronn Lue
p2720
sg11
I1
sg12
VUltra Masterpieces
p2721
sg14
(lp2722
Vhttp://www.beckett.com/basketball/1998-99/ultra-masterpieces/105-tyronn-lue-3157061
p2723
asg17
g18
sg19
(lp2724
Vhttp://img.beckett.com/images/no-image.jpg
p2725
asg22
V#105
p2726
sg24
V1998-99
p2727
sg26
g27
sg28
(lp2728
VTyronn Lue
p2729
assbag1
(g2
g3
Ntp2730
Rp2731
(dp2732
g7
(dp2733
g9
V1998-99 Ultra Platinum Medallion #61 Kobe Bryant
p2734
sg11
I99
sg12
VUltra Platinum Medallion
p2735
sg14
(lp2736
Vhttp://www.beckett.com/basketball/1998-99/ultra-platinum-medallion/61-kobe-bryant-3157153
p2737
asg17
g18
sg19
(lp2738
Vhttp://img.beckett.com/images/no-image.jpg
p2739
asg22
V#61
p2740
sg24
V1998-99
p2741
sg26
g27
sg28
(lp2742
VKobe Bryant
p2743
assbag1
(g2
g3
Ntp2744
Rp2745
(dp2746
g7
(dp2747
g9
V1998-99 Ultra Platinum Medallion #93 Shaquille O'Neal
p2748
sg11
I99
sg12
VUltra Platinum Medallion
p2749
sg14
(lp2750
Vhttp://www.beckett.com/basketball/1998-99/ultra-platinum-medallion/93-shaquille-oneal-3157185
p2751
asg17
g18
sg19
(lp2752
Vhttp://img.beckett.com/images/no-image.jpg
p2753
asg22
V#93
p2754
sg24
V1998-99
p2755
sg26
g27
sg28
(lp2756
VShaquille O'Neal
p2757
assbag1
(g2
g3
Ntp2758
Rp2759
(dp2760
g7
(dp2761
g9
V1998-99 Ultra Platinum Medallion #105 Tyronn Lue
p2762
sg11
I66
sg12
VUltra Platinum Medallion
p2763
sg14
(lp2764
Vhttp://www.beckett.com/basketball/1998-99/ultra-platinum-medallion/105-tyronn-lue-3157197
p2765
asg17
g18
sg19
(lp2766
Vhttp://img.beckett.com/images/no-image.jpg
p2767
asg22
V#105
p2768
sg24
V1998-99
p2769
sg26
g27
sg28
(lp2770
VTyronn Lue
p2771
assbag1
(g2
g3
Ntp2772
Rp2773
(dp2774
g7
(dp2775
g9
V1998-99 Upper Deck Bronze #75 Kobe Bryant
p2776
sg11
I100
sg12
VUpper Deck Bronze
p2777
sg14
(lp2778
Vhttp://www.beckett.com/basketball/1998-99/upper-deck-bronze/75-kobe-bryant-3157806
p2779
asg17
g18
sg19
(lp2780
Vhttp://img.beckett.com/images/no-image.jpg
p2781
asg22
V#75
p2782
sg24
V1998-99
p2783
sg26
g27
sg28
(lp2784
VKobe Bryant
p2785
assbag1
(g2
g3
Ntp2786
Rp2787
(dp2788
g7
(dp2789
g9
V1998-99 Upper Deck Bronze #76 Shaquille O'Neal
p2790
sg11
I100
sg12
VUpper Deck Bronze
p2791
sg14
(lp2792
Vhttp://www.beckett.com/basketball/1998-99/upper-deck-bronze/76-shaquille-oneal-3157807
p2793
asg17
g18
sg19
(lp2794
Vhttp://img.beckett.com/images/no-image.jpg
p2795
asg22
V#76
p2796
sg24
V1998-99
p2797
sg26
g27
sg28
(lp2798
VShaquille O'Neal
p2799
assbag1
(g2
g3
Ntp2800
Rp2801
(dp2802
g7
(dp2803
g9
V1998-99 Upper Deck Bronze #77 Derek Fisher
p2804
sg11
I100
sg12
VUpper Deck Bronze
p2805
sg14
(lp2806
Vhttp://www.beckett.com/basketball/1998-99/upper-deck-bronze/77-derek-fisher-3157808
p2807
asg17
g18
sg19
(lp2808
Vhttp://img.beckett.com/images/items_stock/185226/3157718/3157808/front.jpg
p2809
asg22
V#77
p2810
sg24
V1998-99
p2811
sg26
g27
sg28
(lp2812
VDerek Fisher
p2813
assbag1
(g2
g3
Ntp2814
Rp2815
(dp2816
g7
(dp2817
g9
V1998-99 Upper Deck Bronze #78 Elden Campbell
p2818
sg11
I100
sg12
VUpper Deck Bronze
p2819
sg14
(lp2820
Vhttp://www.beckett.com/basketball/1998-99/upper-deck-bronze/78-elden-campbell-3157809
p2821
asg17
g18
sg19
(lp2822
Vhttp://img.beckett.com/images/items_stock/185226/3157718/3157809/front.jpg
p2823
asg22
V#78
p2824
sg24
V1998-99
p2825
sg26
g27
sg28
(lp2826
VElden Campbell
p2827
assbag1
(g2
g3
Ntp2828
Rp2829
(dp2830
g7
(dp2831
g9
V1998-99 Upper Deck Bronze #79 Corie Blount
p2832
sg11
I100
sg12
VUpper Deck Bronze
p2833
sg14
(lp2834
Vhttp://www.beckett.com/basketball/1998-99/upper-deck-bronze/79-corie-blount-3157810
p2835
asg17
g18
sg19
(lp2836
Vhttp://img.beckett.com/images/items_stock/185226/3157718/3157810/front.jpg
p2837
asg22
V#79
p2838
sg24
V1998-99
p2839
sg26
g27
sg28
(lp2840
VCorie Blount
p2841
assbag1
(g2
g3
Ntp2842
Rp2843
(dp2844
g7
(dp2845
g9
V1998-99 Upper Deck Bronze #80 Shaquille O'Neal/Kobe Bryant HS
p2846
sg11
I100
sg12
VUpper Deck Bronze
p2847
sg14
(lp2848
Vhttp://www.beckett.com/basketball/1998-99/upper-deck-bronze/80-shaquille-onealkobe-bryant-hs-3157811
p2849
asg17
g18
sg19
(lp2850
Vhttp://img.beckett.com/images/no-image.jpg
p2851
asg22
V#80
p2852
sg24
V1998-99
p2853
sg615
VHS
p2854
sg26
g27
sg28
(lp2855
VShaquille O'Neal
p2856
aVKobe Bryant
p2857
assbag1
(g2
g3
Ntp2858
Rp2859
(dp2860
g7
(dp2861
g9
V1998-99 Upper Deck Bronze #164 Shaquille O'Neal TN
p2862
sg11
I100
sg12
VUpper Deck Bronze
p2863
sg14
(lp2864
Vhttp://www.beckett.com/basketball/1998-99/upper-deck-bronze/164-shaquille-oneal-tn-3157895
p2865
asg17
g18
sg19
(lp2866
Vhttp://img.beckett.com/images/no-image.jpg
p2867
asg22
V#164
p2868
sg24
V1998-99
p2869
sg615
VTN
p2870
sg26
g27
sg28
(lp2871
VShaquille O'Neal
p2872
assbag1
(g2
g3
Ntp2873
Rp2874
(dp2875
g7
(dp2876
g9
V1998-99 Upper Deck Bronze #172 Kobe Bryant TN
p2877
sg11
I100
sg12
VUpper Deck Bronze
p2878
sg14
(lp2879
Vhttp://www.beckett.com/basketball/1998-99/upper-deck-bronze/172-kobe-bryant-tn-3157903
p2880
asg17
g18
sg19
(lp2881
Vhttp://img.beckett.com/images/no-image.jpg
p2882
asg22
V#172
p2883
sg24
V1998-99
p2884
sg615
VTN
p2885
sg26
g27
sg28
(lp2886
VKobe Bryant
p2887
assbag1
(g2
g3
Ntp2888
Rp2889
(dp2890
g7
(dp2891
g9
V1998-99 Upper Deck Bronze #226 Robert Horry
p2892
sg11
I100
sg12
VUpper Deck Bronze
p2893
sg14
(lp2894
Vhttp://www.beckett.com/basketball/1998-99/upper-deck-bronze/226-robert-horry-3157957
p2895
asg17
g18
sg19
(lp2896
Vhttp://img.beckett.com/images/no-image.jpg
p2897
asg22
V#226
p2898
sg24
V1998-99
p2899
sg26
g27
sg28
(lp2900
VRobert Horry
p2901
assbag1
(g2
g3
Ntp2902
Rp2903
(dp2904
g7
(dp2905
g9
V1998-99 Upper Deck Bronze #261 Sean Rooks
p2906
sg11
I100
sg12
VUpper Deck Bronze
p2907
sg14
(lp2908
Vhttp://www.beckett.com/basketball/1998-99/upper-deck-bronze/261-sean-rooks-3158014
p2909
asg17
g18
sg19
(lp2910
Vhttp://img.beckett.com/images/no-image.jpg
p2911
asg22
V#261
p2912
sg24
V1998-99
p2913
sg26
g27
sg28
(lp2914
VSean Rooks
p2915
assbag1
(g2
g3
Ntp2916
Rp2917
(dp2918
g7
(dp2919
g9
V1998-99 Upper Deck Bronze #309 Shaquille O'Neal H99
p2920
sg11
I100
sg12
VUpper Deck Bronze
p2921
sg14
(lp2922
Vhttp://www.beckett.com/basketball/1998-99/upper-deck-bronze/309-shaquille-oneal-h99-3158062
p2923
asg17
g18
sg19
(lp2924
Vhttp://img.beckett.com/images/no-image.jpg
p2925
asg22
V#309
p2926
sg24
V1998-99
p2927
sg26
g27
sg28
(lp2928
VShaquille O'Neal
p2929
assbag1
(g2
g3
Ntp2930
Rp2931
(dp2932
g7
(dp2933
g9
V1998-99 Upper Deck Gold #75 Kobe Bryant
p2934
sg11
I1
sg12
VUpper Deck Gold
p2935
sg14
(lp2936
Vhttp://www.beckett.com/basketball/1998-99/upper-deck-gold/75-kobe-bryant-3158171
p2937
asg17
g18
sg19
(lp2938
Vhttp://img.beckett.com/images/no-image.jpg
p2939
asg22
V#75
p2940
sg24
V1998-99
p2941
sg26
g27
sg28
(lp2942
VKobe Bryant
p2943
assbag1
(g2
g3
Ntp2944
Rp2945
(dp2946
g7
(dp2947
g9
V1998-99 Upper Deck Gold #76 Shaquille O'Neal
p2948
sg11
I1
sg12
VUpper Deck Gold
p2949
sg14
(lp2950
Vhttp://www.beckett.com/basketball/1998-99/upper-deck-gold/76-shaquille-oneal-3158172
p2951
asg17
g18
sg19
(lp2952
Vhttp://img.beckett.com/images/no-image.jpg
p2953
asg22
V#76
p2954
sg24
V1998-99
p2955
sg26
g27
sg28
(lp2956
VShaquille O'Neal
p2957
assbag1
(g2
g3
Ntp2958
Rp2959
(dp2960
g7
(dp2961
g9
V1998-99 Upper Deck Gold #77 Derek Fisher
p2962
sg11
I1
sg12
VUpper Deck Gold
p2963
sg14
(lp2964
Vhttp://www.beckett.com/basketball/1998-99/upper-deck-gold/77-derek-fisher-3158173
p2965
asg17
g18
sg19
(lp2966
Vhttp://img.beckett.com/images/no-image.jpg
p2967
asg22
V#77
p2968
sg24
V1998-99
p2969
sg26
g27
sg28
(lp2970
VDerek Fisher
p2971
assbag1
(g2
g3
Ntp2972
Rp2973
(dp2974
g7
(dp2975
g9
V1998-99 Upper Deck Gold #78 Elden Campbell
p2976
sg11
I1
sg12
VUpper Deck Gold
p2977
sg14
(lp2978
Vhttp://www.beckett.com/basketball/1998-99/upper-deck-gold/78-elden-campbell-3158174
p2979
asg17
g18
sg19
(lp2980
Vhttp://img.beckett.com/images/no-image.jpg
p2981
asg22
V#78
p2982
sg24
V1998-99
p2983
sg26
g27
sg28
(lp2984
VElden Campbell
p2985
assbag1
(g2
g3
Ntp2986
Rp2987
(dp2988
g7
(dp2989
g9
V1998-99 Upper Deck Gold #79 Corie Blount
p2990
sg11
I1
sg12
VUpper Deck Gold
p2991
sg14
(lp2992
Vhttp://www.beckett.com/basketball/1998-99/upper-deck-gold/79-corie-blount-3158175
p2993
asg17
g18
sg19
(lp2994
Vhttp://img.beckett.com/images/no-image.jpg
p2995
asg22
V#79
p2996
sg24
V1998-99
p2997
sg26
g27
sg28
(lp2998
VCorie Blount
p2999
assbag1
(g2
g3
Ntp3000
Rp3001
(dp3002
g7
(dp3003
g9
V1998-99 Upper Deck Gold #80 Shaquille O'Neal/Kobe Bryant HS
p3004
sg11
I1
sg12
VUpper Deck Gold
p3005
sg14
(lp3006
Vhttp://www.beckett.com/basketball/1998-99/upper-deck-gold/80-shaquille-onealkobe-bryant-hs-3158176
p3007
asg17
g18
sg19
(lp3008
Vhttp://img.beckett.com/images/no-image.jpg
p3009
asg22
V#80
p3010
sg24
V1998-99
p3011
sg615
VHS
p3012
sg26
g27
sg28
(lp3013
VShaquille O'Neal
p3014
aVKobe Bryant
p3015
assbag1
(g2
g3
Ntp3016
Rp3017
(dp3018
g7
(dp3019
g9
V1998-99 Upper Deck Gold #164 Shaquille O'Neal TN
p3020
sg11
I1
sg12
VUpper Deck Gold
p3021
sg14
(lp3022
Vhttp://www.beckett.com/basketball/1998-99/upper-deck-gold/164-shaquille-oneal-tn-3158260
p3023
asg17
g18
sg19
(lp3024
Vhttp://img.beckett.com/images/no-image.jpg
p3025
asg22
V#164
p3026
sg24
V1998-99
p3027
sg615
VTN
p3028
sg26
g27
sg28
(lp3029
VShaquille O'Neal
p3030
assbag1
(g2
g3
Ntp3031
Rp3032
(dp3033
g7
(dp3034
g9
V1998-99 Upper Deck Gold #172 Kobe Bryant TN
p3035
sg11
I1
sg12
VUpper Deck Gold
p3036
sg14
(lp3037
Vhttp://www.beckett.com/basketball/1998-99/upper-deck-gold/172-kobe-bryant-tn-3158268
p3038
asg17
g18
sg19
(lp3039
Vhttp://img.beckett.com/images/no-image.jpg
p3040
asg22
V#172
p3041
sg24
V1998-99
p3042
sg615
VTN
p3043
sg26
g27
sg28
(lp3044
VKobe Bryant
p3045
assbag1
(g2
g3
Ntp3046
Rp3047
(dp3048
g7
(dp3049
g9
V1998-99 Upper Deck Gold #226 Robert Horry
p3050
sg11
I1
sg12
VUpper Deck Gold
p3051
sg14
(lp3052
Vhttp://www.beckett.com/basketball/1998-99/upper-deck-gold/226-robert-horry-3158322
p3053
asg17
g18
sg19
(lp3054
Vhttp://img.beckett.com/images/no-image.jpg
p3055
asg22
V#226
p3056
sg24
V1998-99
p3057
sg26
g27
sg28
(lp3058
VRobert Horry
p3059
assbag1
(g2
g3
Ntp3060
Rp3061
(dp3062
g7
(dp3063
g9
V1998-99 Upper Deck Gold #261 Sean Rooks
p3064
sg11
I1
sg12
VUpper Deck Gold
p3065
sg14
(lp3066
Vhttp://www.beckett.com/basketball/1998-99/upper-deck-gold/261-sean-rooks-3158379
p3067
asg17
g18
sg19
(lp3068
Vhttp://img.beckett.com/images/no-image.jpg
p3069
asg22
V#261
p3070
sg24
V1998-99
p3071
sg26
g27
sg28
(lp3072
VSean Rooks
p3073
assbag1
(g2
g3
Ntp3074
Rp3075
(dp3076
g7
(dp3077
g9
V1998-99 Upper Deck Gold #309 Shaquille O'Neal H99
p3078
sg11
I1
sg12
VUpper Deck Gold
p3079
sg14
(lp3080
Vhttp://www.beckett.com/basketball/1998-99/upper-deck-gold/309-shaquille-oneal-h99-3158427
p3081
asg17
g18
sg19
(lp3082
Vhttp://img.beckett.com/images/no-image.jpg
p3083
asg22
V#309
p3084
sg24
V1998-99
p3085
sg26
g27
sg28
(lp3086
VShaquille O'Neal
p3087
assbag1
(g2
g3
Ntp3088
Rp3089
(dp3090
g7
(dp3091
g9
V1998-99 Upper Deck Encore F/X #8 Elden Campbell
p3092
sg11
I125
sg12
VUpper Deck Encore F/X
p3093
sg14
(lp3094
Vhttp://www.beckett.com/basketball/1998-99/upper-deck-encore-fx/8-elden-campbell-3155109
p3095
asg17
g18
sg19
(lp3096
Vhttp://img.beckett.com/images/items_stock/185226/3155089/3155109/front.jpg
p3097
asg22
V#8
p3098
sg24
V1998-99
p3099
sg26
g27
sg28
(lp3100
VElden Campbell
p3101
assbag1
(g2
g3
Ntp3102
Rp3103
(dp3104
g7
(dp3105
g9
V1998-99 Upper Deck Encore F/X #39 Kobe Bryant
p3106
sg11
I125
sg12
VUpper Deck Encore F/X
p3107
sg14
(lp3108
Vhttp://www.beckett.com/basketball/1998-99/upper-deck-encore-fx/39-kobe-bryant-3155140
p3109
asg17
g18
sg19
(lp3110
Vhttp://img.beckett.com/images/no-image.jpg
p3111
asg22
V#39
p3112
sg24
V1998-99
p3113
sg26
g27
sg28
(lp3114
VKobe Bryant
p3115
assbag1
(g2
g3
Ntp3116
Rp3117
(dp3118
g7
(dp3119
g9
V1998-99 Upper Deck Encore F/X #40 Shaquillie O'Neal
p3120
sg11
I125
sg12
VUpper Deck Encore F/X
p3121
sg14
(lp3122
Vhttp://www.beckett.com/basketball/1998-99/upper-deck-encore-fx/40-shaquillie-oneal-3155141
p3123
asg17
g18
sg19
(lp3124
Vhttp://img.beckett.com/images/no-image.jpg
p3125
asg22
V#40
p3126
sg24
V1998-99
p3127
sg26
g27
sg28
(lp3128
g2170
assbag1
(g2
g3
Ntp3129
Rp3130
(dp3131
g7
(dp3132
g9
V1998-99 Upper Deck Encore F/X #41 Derek Fisher
p3133
sg11
I125
sg12
VUpper Deck Encore F/X
p3134
sg14
(lp3135
Vhttp://www.beckett.com/basketball/1998-99/upper-deck-encore-fx/41-derek-fisher-3155142
p3136
asg17
g18
sg19
(lp3137
Vhttp://img.beckett.com/images/items_stock/185226/3155089/3155142/front.jpg
p3138
asg22
V#41
p3139
sg24
V1998-99
p3140
sg26
g27
sg28
(lp3141
VDerek Fisher
p3142
assbag1
(g2
g3
Ntp3143
Rp3144
(dp3145
g7
(dp3146
g9
V1998-99 Upper Deck Encore F/X #135 Ruben Patterson
p3147
sg11
I125
sg12
VUpper Deck Encore F/X
p3148
sg14
(lp3149
Vhttp://www.beckett.com/basketball/1998-99/upper-deck-encore-fx/135-ruben-patterson-3155236
p3150
asg17
g18
sg19
(lp3151
Vhttp://img.beckett.com/images/no-image.jpg
p3152
asg22
V#135
p3153
sg24
V1998-99
p3154
sg26
g27
sg28
(lp3155
VRuben Patterson
p3156
assbag1
(g2
g3
Ntp3157
Rp3158
(dp3159
g7
(dp3160
g9
V1998-99 Upper Deck Encore F/X #137 Tyronn Lue
p3161
sg11
I125
sg12
VUpper Deck Encore F/X
p3162
sg14
(lp3163
Vhttp://www.beckett.com/basketball/1998-99/upper-deck-encore-fx/137-tyronn-lue-3155238
p3164
asg17
g18
sg19
(lp3165
Vhttp://img.beckett.com/images/no-image.jpg
p3166
asg22
V#137
p3167
sg24
V1998-99
p3168
sg26
g27
sg28
(lp3169
VTyronn Lue
p3170
assbag1
(g2
g3
Ntp3171
Rp3172
(dp3173
g7
(dp3174
g9
V1998-99 Upper Deck Ovation Gold #29 Kobe Bryant
p3175
sg11
I1000
sg12
VUpper Deck Ovation Gold
p3176
sg14
(lp3177
Vhttp://www.beckett.com/basketball/1998-99/upper-deck-ovation-gold/29-kobe-bryant-3155585
p3178
asg17
g18
sg19
(lp3179
Vhttp://img.beckett.com/images/no-image.jpg
p3180
asg22
V#29
p3181
sg24
V1998-99
p3182
sg26
g27
sg28
(lp3183
VKobe Bryant
p3184
assbag1
(g2
g3
Ntp3185
Rp3186
(dp3187
g7
(dp3188
g9
V1998-99 Upper Deck Ovation Gold #31 Shaquille O'Neal
p3189
sg11
I1000
sg12
VUpper Deck Ovation Gold
p3190
sg14
(lp3191
Vhttp://www.beckett.com/basketball/1998-99/upper-deck-ovation-gold/31-shaquille-oneal-3155587
p3192
asg17
g18
sg19
(lp3193
Vhttp://img.beckett.com/images/items_stock/185226/3155547/3155587/front.jpg
p3194
asg22
V#31
p3195
sg24
V1998-99
p3196
sg26
g27
sg28
(lp3197
VShaquille O'Neal
p3198
assbag1
(g2
g3
Ntp3199
Rp3200
(dp3201
g7
(dp3202
g9
V1998-99 Black Diamond Diamond Dominance #D13 Shaquille O'Neal
p3203
sg11
I1000
sg12
VBlack Diamond Diamond Dominance
p3204
sg14
(lp3205
Vhttp://www.beckett.com/basketball/1998-99/black-diamond-diamond-dominance/d13-shaquille-oneal-3170854
p3206
asg17
g18
sg19
(lp3207
Vhttp://img.beckett.com/images/no-image.jpg
p3208
asg22
V#D13
p3209
sg24
V1998-99
p3210
sg26
g27
sg28
(lp3211
VShaquille O'Neal
p3212
assbag1
(g2
g3
Ntp3213
Rp3214
(dp3215
g7
(dp3216
g9
V1998-99 Finest Centurions #C5 Shaquille O'Neal
p3217
sg11
I500
sg12
VFinest Centurions
p3218
sg14
(lp3219
Vhttp://www.beckett.com/basketball/1998-99/finest-centurions/c5-shaquille-oneal-3170305
p3220
asg17
g18
sg19
(lp3221
Vhttp://img.beckett.com/images/no-image.jpg
p3222
asg22
V#C5
p3223
sg24
V1998-99
p3224
sg26
g27
sg28
(lp3225
VShaquille O'Neal
p3226
assbag1
(g2
g3
Ntp3227
Rp3228
(dp3229
g7
(dp3230
g9
V1998-99 Finest Centurions #C6 Kobe Bryant
p3231
sg11
I500
sg12
VFinest Centurions
p3232
sg14
(lp3233
Vhttp://www.beckett.com/basketball/1998-99/finest-centurions/c6-kobe-bryant-3170306
p3234
asg17
g18
sg19
(lp3235
Vhttp://img.beckett.com/images/no-image.jpg
p3236
asg22
V#C6
p3237
sg24
V1998-99
p3238
sg26
g27
sg28
(lp3239
VKobe Bryant
p3240
assbag1
(g2
g3
Ntp3241
Rp3242
(dp3243
g7
(dp3244
g9
V1998-99 Flair Showcase takeit2.net #5 Kobe Bryant
p3245
sg11
I1000
sg12
VFlair Showcase takeit2.net
p3246
sg14
(lp3247
Vhttp://www.beckett.com/basketball/1998-99/flair-showcase-takeit2net/5-kobe-bryant-3167760
p3248
asg17
g18
sg19
(lp3249
Vhttp://img.beckett.com/images/no-image.jpg
p3250
asg22
V#5
p3251
sg24
V1998-99
p3252
sg26
g27
sg28
(lp3253
VKobe Bryant
p3254
assbag1
(g2
g3
Ntp3255
Rp3256
(dp3257
g7
(dp3258
g9
V1998-99 Flair Showcase takeit2.net #14 Shaquille O'Neal
p3259
sg11
I1000
sg12
VFlair Showcase takeit2.net
p3260
sg14
(lp3261
Vhttp://www.beckett.com/basketball/1998-99/flair-showcase-takeit2net/14-shaquille-oneal-3167769
p3262
asg17
g18
sg19
(lp3263
Vhttp://img.beckett.com/images/no-image.jpg
p3264
asg22
V#14
p3265
sg24
V1998-99
p3266
sg26
g27
sg28
(lp3267
VShaquille O'Neal
p3268
assbag1
(g2
g3
Ntp3269
Rp3270
(dp3271
g7
(dp3272
g9
V1998-99 Fleer Playmakers Theatre #3 Kobe Bryant
p3273
sg11
I100
sg12
VFleer Playmakers Theatre
p3274
sg14
(lp3275
Vhttp://www.beckett.com/basketball/1998-99/fleer-playmakers-theatre/3-kobe-bryant-3168304
p3276
asg17
g18
sg19
(lp3277
Vhttp://img.beckett.com/images/no-image.jpg
p3278
asg22
V#3
p3279
sg24
V1998-99
p3280
sg26
g27
sg28
(lp3281
VKobe Bryant
p3282
assbag1
(g2
g3
Ntp3283
Rp3284
(dp3285
g7
(dp3286
g9
V1998-99 Fleer Playmakers Theatre #12 Shaquille O'Neal
p3287
sg11
I100
sg12
VFleer Playmakers Theatre
p3288
sg14
(lp3289
Vhttp://www.beckett.com/basketball/1998-99/fleer-playmakers-theatre/12-shaquille-oneal-3168313
p3290
asg17
g18
sg19
(lp3291
Vhttp://img.beckett.com/images/no-image.jpg
p3292
asg22
V#12
p3293
sg24
V1998-99
p3294
sg26
g27
sg28
(lp3295
VShaquille O'Neal
p3296
assbag1
(g2
g3
Ntp3297
Rp3298
(dp3299
g7
(dp3300
g9
V1998-99 Hoops Bams #2 Kobe Bryant
p3301
sg11
I250
sg12
VHoops Bams
p3302
sg14
(lp3303
Vhttp://www.beckett.com/basketball/1998-99/hoops-bams/2-kobe-bryant-3166370
p3304
asg17
g18
sg19
(lp3305
Vhttp://img.beckett.com/images/no-image.jpg
p3306
asg22
V#2
p3307
sg24
V1998-99
p3308
sg26
g27
sg28
(lp3309
VKobe Bryant
p3310
assbag1
(g2
g3
Ntp3311
Rp3312
(dp3313
g7
(dp3314
g9
V1998-99 Hoops Bams #4 Shaquille O'Neal
p3315
sg11
I250
sg12
VHoops Bams
p3316
sg14
(lp3317
Vhttp://www.beckett.com/basketball/1998-99/hoops-bams/4-shaquille-oneal-3166372
p3318
asg17
g18
sg19
(lp3319
Vhttp://img.beckett.com/images/no-image.jpg
p3320
asg22
V#4
p3321
sg24
V1998-99
p3322
sg26
g27
sg28
(lp3323
VShaquille O'Neal
p3324
assbag1
(g2
g3
Ntp3325
Rp3326
(dp3327
g7
(dp3328
g9
V1998-99 Hoops Rejectors #3 Shaquille O'Neal
p3329
sg11
I2500
sg12
VHoops Rejectors
p3330
sg14
(lp3331
Vhttp://www.beckett.com/basketball/1998-99/hoops-rejectors/3-shaquille-oneal-3166456
p3332
asg17
g18
sg19
(lp3333
Vhttp://img.beckett.com/images/no-image.jpg
p3334
asg22
V#3
p3335
sg24
V1998-99
p3336
sg26
g27
sg28
(lp3337
VShaquille O'Neal
p3338
assbag1
(g2
g3
Ntp3339
Rp3340
(dp3341
g7
(dp3342
g9
V1998-99 Black Diamond Diamond Dominance Emerald #D13 Shaquille O'Neal
p3343
sg11
I100
sg12
VBlack Diamond Diamond Dominance Emerald
p3344
sg14
(lp3345
Vhttp://www.beckett.com/basketball/1998-99/black-diamond-diamond-dominance-emerald/d13-shaquille-oneal-3170893
p3346
asg17
g18
sg19
(lp3347
Vhttp://img.beckett.com/images/no-image.jpg
p3348
asg22
V#D13
p3349
sg24
V1998-99
p3350
sg26
g27
sg28
(lp3351
VShaquille O'Neal
p3352
assbag1
(g2
g3
Ntp3353
Rp3354
(dp3355
g7
(dp3356
g9
V1998-99 Bowman's Best Mirror Image Atomic Refractors #MI6 Eddie Jones/Kobe Bryant
p3357
sg11
I25
sg12
VBowman's Best Mirror Image Atomic Refractors
p3358
sg14
(lp3359
Vhttp://www.beckett.com/basketball/1998-99/bowmans-best-mirror-image-atomic-refractors/mi6-eddie-joneskobe-bryant-3171549
p3360
asg17
g18
sg19
(lp3361
Vhttp://img.beckett.com/images/no-image.jpg
p3362
asg22
V#MI6
p3363
sg24
V1998-99
p3364
sg26
g27
sg28
(lp3365
VEddie Jones
p3366
aVKobe Bryant
p3367
assbag1
(g2
g3
Ntp3368
Rp3369
(dp3370
g7
(dp3371
g9
V1998-99 Bowman's Best Mirror Image Atomic Refractors #MI18 Shaquille O'Neal/Bryant Reeves
p3372
sg11
I25
sg12
VBowman's Best Mirror Image Atomic Refractors
p3373
sg14
(lp3374
Vhttp://www.beckett.com/basketball/1998-99/bowmans-best-mirror-image-atomic-refractors/mi18-shaquille-onealbryant-reeves-3171561
p3375
asg17
g18
sg19
(lp3376
Vhttp://img.beckett.com/images/no-image.jpg
p3377
asg22
V#MI18
p3378
sg24
V1998-99
p3379
sg26
g27
sg28
(lp3380
VShaquille O'Neal
p3381
aVBryant Reeves
p3382
assbag1
(g2
g3
Ntp3383
Rp3384
(dp3385
g7
(dp3386
g9
V1998-99 Bowman's Best Mirror Image Refractors #MI6 Eddie Jones/Kobe Bryant
p3387
sg11
I100
sg12
VBowman's Best Mirror Image Refractors
p3388
sg14
(lp3389
Vhttp://www.beckett.com/basketball/1998-99/bowmans-best-mirror-image-refractors/mi6-eddie-joneskobe-bryant-3171577
p3390
asg17
g18
sg19
(lp3391
Vhttp://img.beckett.com/images/no-image.jpg
p3392
asg22
V#MI6
p3393
sg24
V1998-99
p3394
sg26
g27
sg28
(lp3395
VEddie Jones
p3396
aVKobe Bryant
p3397
assbag1
(g2
g3
Ntp3398
Rp3399
(dp3400
g7
(dp3401
g9
V1998-99 Bowman's Best Mirror Image Refractors #MI18 Shaquille O'Neal/Bryant Reeves
p3402
sg11
I100
sg12
VBowman's Best Mirror Image Refractors
p3403
sg14
(lp3404
Vhttp://www.beckett.com/basketball/1998-99/bowmans-best-mirror-image-refractors/mi18-shaquille-onealbryant-reeves-3171589
p3405
asg17
g18
sg19
(lp3406
Vhttp://img.beckett.com/images/no-image.jpg
p3407
asg22
V#MI18
p3408
sg24
V1998-99
p3409
sg26
g27
sg28
(lp3410
VShaquille O'Neal
p3411
aVBryant Reeves
p3412
assbag1
(g2
g3
Ntp3413
Rp3414
(dp3415
g7
(dp3416
g9
V1998-99 Bowman's Best Performers Atomic Refractors #BP1 Shaquille O'Neal
p3417
sg11
I50
sg12
VBowman's Best Performers Atomic Refractors
p3418
sg14
(lp3419
Vhttp://www.beckett.com/basketball/1998-99/bowmans-best-performers-atomic-refractors/bp1-shaquille-oneal-3171626
p3420
asg17
g18
sg19
(lp3421
Vhttp://img.beckett.com/images/no-image.jpg
p3422
asg22
V#BP1
p3423
sg24
V1998-99
p3424
sg26
g27
sg28
(lp3425
VShaquille O'Neal
p3426
assbag1
(g2
g3
Ntp3427
Rp3428
(dp3429
g7
(dp3430
g9
V1998-99 Bowman's Best Performers Refractors #BP1 Shaquille O'Neal
p3431
sg11
I200
sg12
VBowman's Best Performers Refractors
p3432
sg14
(lp3433
Vhttp://www.beckett.com/basketball/1998-99/bowmans-best-performers-refractors/bp1-shaquille-oneal-3171644
p3434
asg17
g18
sg19
(lp3435
Vhttp://img.beckett.com/images/items_stock/185226/3171636/3171644/front.jpg
p3436
asg22
V#BP1
p3437
sg24
V1998-99
p3438
sg26
g27
sg28
(lp3439
VShaquille O'Neal
p3440
assbag1
(g2
g3
Ntp3441
Rp3442
(dp3443
g7
(dp3444
g9
V1998-99 E-X Century Essential Credentials Future #10 Kobe Bryant/81
p3445
sg11
I81
sg12
VE-X Century Essential Credentials Future
p3446
sg14
(lp3447
Vhttp://www.beckett.com/basketball/1998-99/e-x-century-essential-credentials-future/10-kobe-bryant81-3168961
p3448
asg17
g18
sg19
(lp3449
Vhttp://img.beckett.com/images/no-image.jpg
p3450
asg22
V#10
p3451
sg24
V1998-99
p3452
sg26
g27
sg28
(lp3453
VKobe Bryant
p3454
assbag1
(g2
g3
Ntp3455
Rp3456
(dp3457
g7
(dp3458
g9
V1998-99 E-X Century Essential Credentials Future #14 Shaquille O'Neal/77
p3459
sg11
I77
sg12
VE-X Century Essential Credentials Future
p3460
sg14
(lp3461
Vhttp://www.beckett.com/basketball/1998-99/e-x-century-essential-credentials-future/14-shaquille-oneal77-3168965
p3462
asg17
g18
sg19
(lp3463
Vhttp://img.beckett.com/images/no-image.jpg
p3464
asg22
V#14
p3465
sg24
V1998-99
p3466
sg26
g27
sg28
(lp3467
VShaquille O'Neal
p3468
assbag1
(g2
g3
Ntp3469
Rp3470
(dp3471
g7
(dp3472
g9
V1998-99 E-X Century Essential Credentials Now #10 Kobe Bryant/10
p3473
sg11
I10
sg12
VE-X Century Essential Credentials Now
p3474
sg14
(lp3475
Vhttp://www.beckett.com/basketball/1998-99/e-x-century-essential-credentials-now/10-kobe-bryant10-3169058
p3476
asg17
g18
sg19
(lp3477
Vhttp://img.beckett.com/images/no-image.jpg
p3478
asg22
V#10
p3479
sg24
V1998-99
p3480
sg26
g27
sg28
(lp3481
VKobe Bryant
p3482
assbag1
(g2
g3
Ntp3483
Rp3484
(dp3485
g7
(dp3486
g9
V1998-99 E-X Century Essential Credentials Now #14 Shaquille O'Neal/14
p3487
sg11
I14
sg12
VE-X Century Essential Credentials Now
p3488
sg14
(lp3489
Vhttp://www.beckett.com/basketball/1998-99/e-x-century-essential-credentials-now/14-shaquille-oneal14-3169062
p3490
asg17
g18
sg19
(lp3491
Vhttp://img.beckett.com/images/no-image.jpg
p3492
asg22
V#14
p3493
sg24
V1998-99
p3494
sg26
g27
sg28
(lp3495
VShaquille O'Neal
p3496
assbag1
(g2
g3
Ntp3497
Rp3498
(dp3499
g7
(dp3500
g9
V1998-99 Finest Centurions Refractors #C5 Shaquille O'Neal
p3501
sg11
I75
sg12
VFinest Centurions Refractors
p3502
sg14
(lp3503
Vhttp://www.beckett.com/basketball/1998-99/finest-centurions-refractors/c5-shaquille-oneal-3170333
p3504
asg17
g18
sg19
(lp3505
Vhttp://img.beckett.com/images/no-image.jpg
p3506
asg22
V#C5
p3507
sg24
V1998-99
p3508
sg26
g27
sg28
(lp3509
VShaquille O'Neal
p3510
assbag1
(g2
g3
Ntp3511
Rp3512
(dp3513
g7
(dp3514
g9
V1998-99 Finest Centurions Refractors #C6 Kobe Bryant
p3515
sg11
I75
sg12
VFinest Centurions Refractors
p3516
sg14
(lp3517
Vhttp://www.beckett.com/basketball/1998-99/finest-centurions-refractors/c6-kobe-bryant-3170334
p3518
asg17
g18
sg19
(lp3519
Vhttp://img.beckett.com/images/no-image.jpg
p3520
asg22
V#C6
p3521
sg24
V1998-99
p3522
sg26
g27
sg28
(lp3523
VKobe Bryant
p3524
assbag1
(g2
g3
Ntp3525
Rp3526
(dp3527
g7
(dp3528
g9
V1998-99 Flair Showcase Masterpieces Row 3 #2 Kobe Bryant
p3529
sg11
I1
sg12
VFlair Showcase Masterpieces Row 3
p3530
sg14
(lp3531
Vhttp://www.beckett.com/basketball/1998-99/flair-showcase-masterpieces-row-3/2-kobe-bryant-3173077
p3532
asg17
g18
sg19
(lp3533
Vhttp://img.beckett.com/images/no-image.jpg
p3534
asg22
V#2
p3535
sg24
V1998-99
p3536
sg26
g27
sg28
(lp3537
VKobe Bryant
p3538
assbag1
(g2
g3
Ntp3539
Rp3540
(dp3541
g7
(dp3542
g9
V1998-99 Flair Showcase Masterpieces Row 2 #2 Kobe Bryant
p3543
sg11
I1
sg12
VFlair Showcase Masterpieces Row 2
p3544
sg14
(lp3545
Vhttp://www.beckett.com/basketball/1998-99/flair-showcase-masterpieces-row-2/2-kobe-bryant-3172982
p3546
asg17
g18
sg19
(lp3547
Vhttp://img.beckett.com/images/no-image.jpg
p3548
asg22
V#2
p3549
sg24
V1998-99
p3550
sg26
g27
sg28
(lp3551
VKobe Bryant
p3552
assbag1
(g2
g3
Ntp3553
Rp3554
(dp3555
g7
(dp3556
g9
V1998-99 Flair Showcase Masterpieces Row 1 #2 Kobe Bryant
p3557
sg11
I1
sg12
VFlair Showcase Masterpieces Row 1
p3558
sg14
(lp3559
Vhttp://www.beckett.com/basketball/1998-99/flair-showcase-masterpieces-row-1/2-kobe-bryant-3172887
p3560
asg17
g18
sg19
(lp3561
Vhttp://img.beckett.com/images/no-image.jpg
p3562
asg22
V#2
p3563
sg24
V1998-99
p3564
sg26
g27
sg28
(lp3565
VKobe Bryant
p3566
assbag1
(g2
g3
Ntp3567
Rp3568
(dp3569
g7
(dp3570
g9
V1998-99 Hoops Slam Bams #2 Kobe Bryant
p3571
sg11
I100
sg12
VHoops Slam Bams
p3572
sg14
(lp3573
Vhttp://www.beckett.com/basketball/1998-99/hoops-slam-bams/2-kobe-bryant-3166388
p3574
asg17
g18
sg19
(lp3575
Vhttp://img.beckett.com/images/no-image.jpg
p3576
asg22
V#2
p3577
sg24
V1998-99
p3578
sg26
g27
sg28
(lp3579
VKobe Bryant
p3580
assbag1
(g2
g3
Ntp3581
Rp3582
(dp3583
g7
(dp3584
g9
V1998-99 Hoops Slam Bams #4 Shaquille O'Neal
p3585
sg11
I100
sg12
VHoops Slam Bams
p3586
sg14
(lp3587
Vhttp://www.beckett.com/basketball/1998-99/hoops-slam-bams/4-shaquille-oneal-3166390
p3588
asg17
g18
sg19
(lp3589
Vhttp://img.beckett.com/images/no-image.jpg
p3590
asg22
V#4
p3591
sg24
V1998-99
p3592
sg26
g27
sg28
(lp3593
VShaquille O'Neal
p3594
assbag1
(g2
g3
Ntp3595
Rp3596
(dp3597
g7
(dp3598
g9
V1998-99 SkyBox Molten Metal Fusion #33 Kobe Bryant
p3599
sg11
I40
sg12
VSkyBox Molten Metal Fusion
p3600
sg14
(lp3601
Vhttp://www.beckett.com/basketball/1998-99/skybox-molten-metal-fusion/33-kobe-bryant-3164730
p3602
asg17
g18
sg19
(lp3603
Vhttp://img.beckett.com/images/no-image.jpg
p3604
asg22
V#33
p3605
sg24
V1998-99
p3606
sg26
g27
sg28
(lp3607
VKobe Bryant
p3608
assbag1
(g2
g3
Ntp3609
Rp3610
(dp3611
g7
(dp3612
g9
V1998-99 SkyBox Molten Metal Fusion #45 Shaquille O'Neal
p3613
sg11
I40
sg12
VSkyBox Molten Metal Fusion
p3614
sg14
(lp3615
Vhttp://www.beckett.com/basketball/1998-99/skybox-molten-metal-fusion/45-shaquille-oneal-3164742
p3616
asg17
g18
sg19
(lp3617
Vhttp://img.beckett.com/images/no-image.jpg
p3618
asg22
V#45
p3619
sg24
V1998-99
p3620
sg26
g27
sg28
(lp3621
VShaquille O'Neal
p3622
assbag1
(g2
g3
Ntp3623
Rp3624
(dp3625
g7
(dp3626
g9
V1998-99 SkyBox Molten Metal Fusion Titanium #33 Kobe Bryant
p3627
sg11
I250
sg12
VSkyBox Molten Metal Fusion Titanium
p3628
sg14
(lp3629
Vhttp://www.beckett.com/basketball/1998-99/skybox-molten-metal-fusion-titanium/33-kobe-bryant-3164792
p3630
asg17
g18
sg19
(lp3631
Vhttp://img.beckett.com/images/no-image.jpg
p3632
asg22
V#33
p3633
sg24
V1998-99
p3634
sg26
g27
sg28
(lp3635
VKobe Bryant
p3636
assbag1
(g2
g3
Ntp3637
Rp3638
(dp3639
g7
(dp3640
g9
V1998-99 SkyBox Molten Metal Fusion Titanium #45 Shaquille O'Neal
p3641
sg11
I250
sg12
VSkyBox Molten Metal Fusion Titanium
p3642
sg14
(lp3643
Vhttp://www.beckett.com/basketball/1998-99/skybox-molten-metal-fusion-titanium/45-shaquille-oneal-3164804
p3644
asg17
g18
sg19
(lp3645
Vhttp://img.beckett.com/images/no-image.jpg
p3646
asg22
V#45
p3647
sg24
V1998-99
p3648
sg26
g27
sg28
(lp3649
VShaquille O'Neal
p3650
assbag1
(g2
g3
Ntp3651
Rp3652
(dp3653
g7
(dp3654
g9
V1998-99 SkyBox Premium Autographics Blue #16 Corie Blount
p3655
sg11
I50
sg12
VSkyBox Premium Autographics Blue
p3656
sg14
(lp3657
Vhttp://www.beckett.com/basketball/1998-99/skybox-premium-autographics-blue/16-corie-blount-3165571
p3658
asg17
g18
sg19
(lp3659
Vhttp://img.beckett.com/images/no-image.jpg
p3660
asg22
V#16
p3661
sg427
I1
sg24
V1998-99
p3662
sg26
g27
sg28
(lp3663
VCorie Blount
p3664
assbag1
(g2
g3
Ntp3665
Rp3666
(dp3667
g7
(dp3668
g9
V1998-99 SkyBox Premium Autographics Blue #22 Elden Campbell
p3669
sg11
I50
sg12
VSkyBox Premium Autographics Blue
p3670
sg14
(lp3671
Vhttp://www.beckett.com/basketball/1998-99/skybox-premium-autographics-blue/22-elden-campbell-3165577
p3672
asg17
g18
sg19
(lp3673
Vhttp://img.beckett.com/images/no-image.jpg
p3674
asg22
V#22
p3675
sg427
I1
sg24
V1998-99
p3676
sg26
g27
sg28
(lp3677
VElden Campbell
p3678
assbag1
(g2
g3
Ntp3679
Rp3680
(dp3681
g7
(dp3682
g9
V1998-99 SkyBox Premium Autographics Blue #40 Derek Fisher
p3683
sg11
I50
sg12
VSkyBox Premium Autographics Blue
p3684
sg14
(lp3685
Vhttp://www.beckett.com/basketball/1998-99/skybox-premium-autographics-blue/40-derek-fisher-3165595
p3686
asg17
g18
sg19
(lp3687
Vhttp://img.beckett.com/images/no-image.jpg
p3688
asg22
V#40
p3689
sg427
I1
sg24
V1998-99
p3690
sg26
g27
sg28
(lp3691
VDerek Fisher
p3692
assbag1
(g2
g3
Ntp3693
Rp3694
(dp3695
g7
(dp3696
g9
V1998-99 Topps Gold Label Red Label #GL2 Shaquille O'Neal
p3697
sg11
I100
sg12
VTopps Gold Label Red Label
p3698
sg14
(lp3699
Vhttp://www.beckett.com/basketball/1998-99/topps-gold-label-red-label/gl2-shaquille-oneal-3159984
p3700
asg17
g18
sg19
(lp3701
Vhttp://img.beckett.com/images/no-image.jpg
p3702
asg22
V#GL2
p3703
sg24
V1998-99
p3704
sg26
g27
sg28
(lp3705
VShaquille O'Neal
p3706
assbag1
(g2
g3
Ntp3707
Rp3708
(dp3709
g7
(dp3710
g9
V1998-99 Topps Gold Label Red Label #GL3 Kobe Bryant
p3711
sg11
I100
sg12
VTopps Gold Label Red Label
p3712
sg14
(lp3713
Vhttp://www.beckett.com/basketball/1998-99/topps-gold-label-red-label/gl3-kobe-bryant-3159985
p3714
asg17
g18
sg19
(lp3715
Vhttp://img.beckett.com/images/no-image.jpg
p3716
asg22
V#GL3
p3717
sg24
V1998-99
p3718
sg26
g27
sg28
(lp3719
VKobe Bryant
p3720
assbag1
(g2
g3
Ntp3721
Rp3722
(dp3723
g7
(dp3724
g9
V1998-99 Topps Chrome Apparitions Refractors #A1 Kobe Bryant
p3725
sg11
I100
sg12
VTopps Chrome Apparitions Refractors
p3726
sg14
(lp3727
Vhttp://www.beckett.com/basketball/1998-99/topps-chrome-apparitions-refractors/a1-kobe-bryant-3160661
p3728
asg17
g18
sg19
(lp3729
Vhttp://img.beckett.com/images/no-image.jpg
p3730
asg22
V#A1
p3731
sg24
V1998-99
p3732
sg26
g27
sg28
(lp3733
VKobe Bryant
p3734
assbag1
(g2
g3
Ntp3735
Rp3736
(dp3737
g7
(dp3738
g9
V1998-99 Topps Chrome Apparitions Refractors #A5 Shaquille O'Neal
p3739
sg11
I100
sg12
VTopps Chrome Apparitions Refractors
p3740
sg14
(lp3741
Vhttp://www.beckett.com/basketball/1998-99/topps-chrome-apparitions-refractors/a5-shaquille-oneal-3160665
p3742
asg17
g18
sg19
(lp3743
Vhttp://img.beckett.com/images/no-image.jpg
p3744
asg22
V#A5
p3745
sg24
V1998-99
p3746
sg26
g27
sg28
(lp3747
VShaquille O'Neal
p3748
assbag1
(g2
g3
Ntp3749
Rp3750
(dp3751
g7
(dp3752
g9
V1998-99 UD Choice StarQuest Gold #SQ13 Kobe Bryant
p3753
sg11
I100
sg12
VUD Choice StarQuest Gold
p3754
sg14
(lp3755
Vhttp://www.beckett.com/basketball/1998-99/ud-choice-starquest-gold/sq13-kobe-bryant-3159474
p3756
asg17
g18
sg19
(lp3757
Vhttp://img.beckett.com/images/no-image.jpg
p3758
asg22
V#SQ13
p3759
sg24
V1998-99
p3760
sg26
g27
sg28
(lp3761
VKobe Bryant
p3762
assbag1
(g2
g3
Ntp3763
Rp3764
(dp3765
g7
(dp3766
g9
V1998-99 Upper Deck AeroDynamics Bronze #A14 Kobe Bryant
p3767
sg11
I2000
sg12
VUpper Deck AeroDynamics Bronze
p3768
sg14
(lp3769
Vhttp://www.beckett.com/basketball/1998-99/upper-deck-aerodynamics-bronze/a14-kobe-bryant-3155733
p3770
asg17
g18
sg19
(lp3771
Vhttp://img.beckett.com/images/items_stock/185226/3155712/3155733/front.jpg
p3772
asg22
V#A14
p3773
sg24
V1998-99
p3774
sg26
g27
sg28
(lp3775
VKobe Bryant
p3776
assbag1
(g2
g3
Ntp3777
Rp3778
(dp3779
g7
(dp3780
g9
V1998-99 Upper Deck AeroDynamics Silver #A14 Kobe Bryant
p3781
sg11
I100
sg12
VUpper Deck AeroDynamics Silver
p3782
sg14
(lp3783
Vhttp://www.beckett.com/basketball/1998-99/upper-deck-aerodynamics-silver/a14-kobe-bryant-3155809
p3784
asg17
g18
sg19
(lp3785
Vhttp://img.beckett.com/images/no-image.jpg
p3786
asg22
V#A14
p3787
sg24
V1998-99
p3788
sg26
g27
sg28
(lp3789
VKobe Bryant
p3790
assbag1
(g2
g3
Ntp3791
Rp3792
(dp3793
g7
(dp3794
g9
V1998-99 Upper Deck AeroDynamics Gold #A14 Kobe Bryant
p3795
sg11
I25
sg12
VUpper Deck AeroDynamics Gold
p3796
sg14
(lp3797
Vhttp://www.beckett.com/basketball/1998-99/upper-deck-aerodynamics-gold/a14-kobe-bryant-3155771
p3798
asg17
g18
sg19
(lp3799
Vhttp://img.beckett.com/images/no-image.jpg
p3800
asg22
V#A14
p3801
sg24
V1998-99
p3802
sg26
g27
sg28
(lp3803
VKobe Bryant
p3804
assbag1
(g2
g3
Ntp3805
Rp3806
(dp3807
g7
(dp3808
g9
V1998-99 Upper Deck Forces Bronze #F3 Shaquille O'Neal
p3809
sg11
I1000
sg12
VUpper Deck Forces Bronze
p3810
sg14
(lp3811
Vhttp://www.beckett.com/basketball/1998-99/upper-deck-forces-bronze/f3-shaquille-oneal-3155880
p3812
asg17
g18
sg19
(lp3813
Vhttp://img.beckett.com/images/no-image.jpg
p3814
asg22
V#F3
p3815
sg24
V1998-99
p3816
sg26
g27
sg28
(lp3817
VShaquille O'Neal
p3818
assbag1
(g2
g3
Ntp3819
Rp3820
(dp3821
g7
(dp3822
g9
V1998-99 Upper Deck Forces Silver #F3 Shaquille O'Neal
p3823
sg11
I50
sg12
VUpper Deck Forces Silver
p3824
sg14
(lp3825
Vhttp://www.beckett.com/basketball/1998-99/upper-deck-forces-silver/f3-shaquille-oneal-3155956
p3826
asg17
g18
sg19
(lp3827
Vhttp://img.beckett.com/images/no-image.jpg
p3828
asg22
V#F3
p3829
sg24
V1998-99
p3830
sg26
g27
sg28
(lp3831
VShaquille O'Neal
p3832
assbag1
(g2
g3
Ntp3833
Rp3834
(dp3835
g7
(dp3836
g9
V1998-99 Upper Deck Forces Gold #F3 Shaquille O'Neal
p3837
sg11
I25
sg12
VUpper Deck Forces Gold
p3838
sg14
(lp3839
Vhttp://www.beckett.com/basketball/1998-99/upper-deck-forces-gold/f3-shaquille-oneal-3155918
p3840
asg17
g18
sg19
(lp3841
Vhttp://img.beckett.com/images/no-image.jpg
p3842
asg22
V#F3
p3843
sg24
V1998-99
p3844
sg26
g27
sg28
(lp3845
VShaquille O'Neal
p3846
assbag1
(g2
g3
Ntp3847
Rp3848
(dp3849
g7
(dp3850
g9
V1998-99 Upper Deck Next Wave Bronze #NW1 Kobe Bryant
p3851
sg11
I1500
sg12
VUpper Deck Next Wave Bronze
p3852
sg14
(lp3853
Vhttp://www.beckett.com/basketball/1998-99/upper-deck-next-wave-bronze/nw1-kobe-bryant-3156452
p3854
asg17
g18
sg19
(lp3855
Vhttp://img.beckett.com/images/items_stock/185226/3156444/3156452/front.jpg
p3856
asg22
V#NW1
p3857
sg24
V1998-99
p3858
sg26
g27
sg28
(lp3859
VKobe Bryant
p3860
assbag1
(g2
g3
Ntp3861
Rp3862
(dp3863
g7
(dp3864
g9
V1998-99 Upper Deck Next Wave Bronze #NW27 Derek Fisher
p3865
sg11
I1500
sg12
VUpper Deck Next Wave Bronze
p3866
sg14
(lp3867
Vhttp://www.beckett.com/basketball/1998-99/upper-deck-next-wave-bronze/nw27-derek-fisher-3156478
p3868
asg17
g18
sg19
(lp3869
Vhttp://img.beckett.com/images/items_stock/185226/3156444/3156478/front.jpg
p3870
asg22
V#NW27
p3871
sg24
V1998-99
p3872
sg26
g27
sg28
(lp3873
VDerek Fisher
p3874
assbag1
(g2
g3
Ntp3875
Rp3876
(dp3877
g7
(dp3878
g9
V1998-99 Upper Deck Next Wave Silver #NW1 Kobe Bryant
p3879
sg11
I200
sg12
VUpper Deck Next Wave Silver
p3880
sg14
(lp3881
Vhttp://www.beckett.com/basketball/1998-99/upper-deck-next-wave-silver/nw1-kobe-bryant-3156528
p3882
asg17
g18
sg19
(lp3883
Vhttp://img.beckett.com/images/no-image.jpg
p3884
asg22
V#NW1
p3885
sg24
V1998-99
p3886
sg26
g27
sg28
(lp3887
VKobe Bryant
p3888
assbag1
(g2
g3
Ntp3889
Rp3890
(dp3891
g7
(dp3892
g9
V1998-99 Upper Deck Next Wave Silver #NW27 Derek Fisher
p3893
sg11
I200
sg12
VUpper Deck Next Wave Silver
p3894
sg14
(lp3895
Vhttp://www.beckett.com/basketball/1998-99/upper-deck-next-wave-silver/nw27-derek-fisher-3156554
p3896
asg17
g18
sg19
(lp3897
Vhttp://img.beckett.com/images/no-image.jpg
p3898
asg22
V#NW27
p3899
sg24
V1998-99
p3900
sg26
g27
sg28
(lp3901
VDerek Fisher
p3902
assbag1
(g2
g3
Ntp3903
Rp3904
(dp3905
g7
(dp3906
g9
V1998-99 Upper Deck Next Wave Gold #NW1 Kobe Bryant
p3907
sg11
I75
sg12
VUpper Deck Next Wave Gold
p3908
sg14
(lp3909
Vhttp://www.beckett.com/basketball/1998-99/upper-deck-next-wave-gold/nw1-kobe-bryant-3156490
p3910
asg17
g18
sg19
(lp3911
Vhttp://img.beckett.com/images/no-image.jpg
p3912
asg22
V#NW1
p3913
sg24
V1998-99
p3914
sg26
g27
sg28
(lp3915
VKobe Bryant
p3916
assbag1
(g2
g3
Ntp3917
Rp3918
(dp3919
g7
(dp3920
g9
V1998-99 Upper Deck Next Wave Gold #NW27 Derek Fisher
p3921
sg11
I75
sg12
VUpper Deck Next Wave Gold
p3922
sg14
(lp3923
Vhttp://www.beckett.com/basketball/1998-99/upper-deck-next-wave-gold/nw27-derek-fisher-3156516
p3924
asg17
g18
sg19
(lp3925
Vhttp://img.beckett.com/images/no-image.jpg
p3926
asg22
V#NW27
p3927
sg24
V1998-99
p3928
sg26
g27
sg28
(lp3929
VDerek Fisher
p3930
assbag1
(g2
g3
Ntp3931
Rp3932
(dp3933
g7
(dp3934
g9
V1998-99 Upper Deck Super Powers Bronze #S13 Kobe Bryant
p3935
sg11
I1000
sg12
VUpper Deck Super Powers Bronze
p3936
sg14
(lp3937
Vhttp://www.beckett.com/basketball/1998-99/upper-deck-super-powers-bronze/s13-kobe-bryant-3154820
p3938
asg17
g18
sg19
(lp3939
Vhttp://img.beckett.com/images/items_stock/185226/3154800/3154820/front.jpg
p3940
asg22
V#S13
p3941
sg24
V1998-99
p3942
sg26
g27
sg28
(lp3943
VKobe Bryant
p3944
assbag1
(g2
g3
Ntp3945
Rp3946
(dp3947
g7
(dp3948
g9
V1998-99 Upper Deck Super Powers Silver #S13 Kobe Bryant
p3949
sg11
I100
sg12
VUpper Deck Super Powers Silver
p3950
sg14
(lp3951
Vhttp://www.beckett.com/basketball/1998-99/upper-deck-super-powers-silver/s13-kobe-bryant-3154896
p3952
asg17
g18
sg19
(lp3953
Vhttp://img.beckett.com/images/no-image.jpg
p3954
asg22
V#S13
p3955
sg24
V1998-99
p3956
sg26
g27
sg28
(lp3957
VKobe Bryant
p3958
assbag1
(g2
g3
Ntp3959
Rp3960
(dp3961
g7
(dp3962
g9
V1998-99 Upper Deck Super Powers Gold #S13 Kobe Bryant
p3963
sg11
I50
sg12
VUpper Deck Super Powers Gold
p3964
sg14
(lp3965
Vhttp://www.beckett.com/basketball/1998-99/upper-deck-super-powers-gold/s13-kobe-bryant-3154858
p3966
asg17
g18
sg19
(lp3967
Vhttp://img.beckett.com/images/no-image.jpg
p3968
asg22
V#S13
p3969
sg24
V1998-99
p3970
sg26
g27
sg28
(lp3971
VKobe Bryant
p3972
assbag1
(g2
g3
Ntp3973
Rp3974
(dp3975
g7
(dp3976
g9
V1998-99 Upper Deck Encore Driving Forces F/X #F2 Kobe Bryant
p3977
sg11
I500
sg12
VUpper Deck Encore Driving Forces F/X
p3978
sg14
(lp3979
Vhttp://www.beckett.com/basketball/1998-99/upper-deck-encore-driving-forces-fx/f2-kobe-bryant-3155287
p3980
asg17
g18
sg19
(lp3981
Vhttp://img.beckett.com/images/items_stock/185226/3155278/3155287/front.jpg
p3982
asg22
V#F2
p3983
sg24
V1998-99
p3984
sg26
g27
sg28
(lp3985
VKobe Bryant
p3986
assba.