(lp0
Naccopy_reg
_reconstructor
p1
(ctutorial.items
BeckettItem
p2
c__builtin__
object
p3
Ntp4
Rp5
(dp6
S'_values'
p7
(dp8
S'originalItemDescription'
p9
V1998 Upper Deck Hardcourt Home Court Advantage Plus #37 Allan Houston
p10
sS'serialNumber'
p11
I500
sS'setName'
p12
VUpper Deck Hardcourt Home Court Advantage Plus
p13
sS'beckettLink'
p14
(lp15
Vhttp://www.beckett.com/basketball/1998/upper-deck-hardcourt-home-court-advantage-plus/37-allan-houston-3150449
p16
asS'team'
p17
S'New York Knicks'
p18
sS'imageLink'
p19
(lp20
Vhttp://img.beckett.com/images/no-image.jpg
p21
asS'cardNumber'
p22
V#37
p23
sS'year'
p24
V1998
p25
sS'sport'
p26
S'Basketball'
p27
sS'playerNames'
p28
(lp29
VAllan Houston
p30
assbag1
(g2
g3
Ntp31
Rp32
(dp33
g7
(dp34
g9
V1998 Upper Deck Hardcourt Home Court Advantage Plus #44 Patrick Ewing
p35
sg11
I500
sg12
VUpper Deck Hardcourt Home Court Advantage Plus
p36
sg14
(lp37
Vhttp://www.beckett.com/basketball/1998/upper-deck-hardcourt-home-court-advantage-plus/44-patrick-ewing-3150456
p38
asg17
g18
sg19
(lp39
Vhttp://img.beckett.com/images/no-image.jpg
p40
asg22
V#44
p41
sg24
V1998
p42
sg26
g27
sg28
(lp43
VPatrick Ewing
p44
assbag1
(g2
g3
Ntp45
Rp46
(dp47
g7
(dp48
g9
V1998 Upper Deck Hardcourt High Court #H18 Allan Houston
p49
sg11
I1300
sg12
VUpper Deck Hardcourt High Court
p50
sg14
(lp51
Vhttp://www.beckett.com/basketball/1998/upper-deck-hardcourt-high-court/h18-allan-houston-3150527
p52
asg17
g18
sg19
(lp53
Vhttp://img.beckett.com/images/items_stock/185226/3150503/3150527/front.jpg
p54
asg22
V#H18
p55
sg24
V1998
p56
sg26
g27
sg28
(lp57
VAllan Houston
p58
assbag1
(g2
g3
Ntp59
Rp60
(dp61
g7
(dp62
g9
V1998 Upper Deck Hardcourt Jordan Holding Court Red #J18 Patrick Ewing/Michael Jordan
p63
sg11
I2300
sg12
VUpper Deck Hardcourt Jordan Holding Court Red
p64
sg14
(lp65
Vhttp://www.beckett.com/basketball/1998/upper-deck-hardcourt-jordan-holding-court-red/j18-patrick-ewingmichael-jordan-3150571
p66
asg17
g18
sg19
(lp67
Vhttp://img.beckett.com/images/no-image.jpg
p68
asg22
V#J18
p69
sg24
V1998
p70
sg26
g27
sg28
(lp71
VPatrick Ewing
p72
aVMichael Jordan
p73
assbag1
(g2
g3
Ntp74
Rp75
(dp76
g7
(dp77
g9
V1998 Upper Deck Hardcourt Jordan Holding Court Bronze #J18 Patrick Ewing/Michael Jordan
p78
sg11
I230
sg12
VUpper Deck Hardcourt Jordan Holding Court Bronze
p79
sg14
(lp80
Vhttp://www.beckett.com/basketball/1998/upper-deck-hardcourt-jordan-holding-court-bronze/j18-patrick-ewingmichael-jordan-3150609
p81
asg17
g18
sg19
(lp82
Vhttp://img.beckett.com/images/no-image.jpg
p83
asg22
V#J18
p84
sg24
V1998
p85
sg26
g27
sg28
(lp86
VPatrick Ewing
p87
aVMichael Jordan
p88
assbag1
(g2
g3
Ntp89
Rp90
(dp91
g7
(dp92
g9
V1998 Upper Deck Hardcourt Jordan Holding Court Silver #J18 Patrick Ewing/Michael Jordan
p93
sg11
I23
sg12
VUpper Deck Hardcourt Jordan Holding Court Silver
p94
sg14
(lp95
Vhttp://www.beckett.com/basketball/1998/upper-deck-hardcourt-jordan-holding-court-silver/j18-patrick-ewingmichael-jordan-3150684
p96
asg17
g18
sg19
(lp97
Vhttp://img.beckett.com/images/no-image.jpg
p98
asg22
V#J18
p99
sg24
V1998
p100
sg26
g27
sg28
(lp101
VPatrick Ewing
p102
aVMichael Jordan
p103
assbag1
(g2
g3
Ntp104
Rp105
(dp106
g7
(dp107
g9
V1998 Upper Deck Hardcourt Jordan Holding Court Gold #J18 Patrick Ewing/Michael Jordan
p108
sg11
I1
sg12
VUpper Deck Hardcourt Jordan Holding Court Gold
p109
sg14
(lp110
Vhttp://www.beckett.com/basketball/1998/upper-deck-hardcourt-jordan-holding-court-gold/j18-patrick-ewingmichael-jordan-3150646
p111
asg17
g18
sg19
(lp112
Vhttp://img.beckett.com/images/no-image.jpg
p113
asg22
V#J18
p114
sg24
V1998
p115
sg26
g27
sg28
(lp116
VPatrick Ewing
p117
aVMichael Jordan
p118
assbag1
(g2
g3
Ntp119
Rp120
(dp121
g7
(dp122
g9
V1998-99 SPx Finite #15 Larry Johnson
p123
sg11
I10000
sg12
VSPx Finite
p124
sg14
(lp125
Vhttp://www.beckett.com/basketball/1998-99/spx-finite/15-larry-johnson-3163291
p126
asg17
g18
sg19
(lp127
Vhttp://img.beckett.com/images/items_stock/185226/3163241/3163291/front.jpg
p128
asg22
V#15
p129
sg24
V1998-99
p130
sg26
g27
sg28
(lp131
VLarry Johnson
p132
assbag1
(g2
g3
Ntp133
Rp134
(dp135
g7
(dp136
g9
V1998-99 SPx Finite #32 Allan Houston
p137
sg11
I10000
sg12
VSPx Finite
p138
sg14
(lp139
Vhttp://www.beckett.com/basketball/1998-99/spx-finite/32-allan-houston-3163308
p140
asg17
g18
sg19
(lp141
Vhttp://img.beckett.com/images/items_stock/185226/3163241/3163308/front.jpg
p142
asg22
V#32
p143
sg24
V1998-99
p144
sg26
g27
sg28
(lp145
VAllan Houston
p146
assbag1
(g2
g3
Ntp147
Rp148
(dp149
g7
(dp150
g9
V1998-99 SPx Finite #49 Patrick Ewing
p151
sg11
I10000
sg12
VSPx Finite
p152
sg14
(lp153
Vhttp://www.beckett.com/basketball/1998-99/spx-finite/49-patrick-ewing-3163325
p154
asg17
g18
sg19
(lp155
Vhttp://img.beckett.com/images/items_stock/185226/3163241/3163325/front.jpg
p156
asg22
V#49
p157
sg24
V1998-99
p158
sg26
g27
sg28
(lp159
VPatrick Ewing
p160
assbag1
(g2
g3
Ntp161
Rp162
(dp163
g7
(dp164
g9
V1998-99 SPx Finite #137 Patrick Ewing SP
p165
sg11
I5400
sg12
VSPx Finite
p166
sg14
(lp167
Vhttp://www.beckett.com/basketball/1998-99/spx-finite/137-patrick-ewing-sp-3163413
p168
asg17
g18
sg19
(lp169
Vhttp://img.beckett.com/images/items_stock/185226/3163241/3163413/front.jpg
p170
asg22
V#137
p171
sg24
V1998-99
p172
sS'subsetName'
p173
VSP
p174
sg26
g27
sg28
(lp175
VPatrick Ewing
p176
assbag1
(g2
g3
Ntp177
Rp178
(dp179
g7
(dp180
g9
V1998-99 SPx Finite #178 Allan Houston SPx
p181
sg11
I4050
sg12
VSPx Finite
p182
sg14
(lp183
Vhttp://www.beckett.com/basketball/1998-99/spx-finite/178-allan-houston-spx-3163454
p184
asg17
g18
sg19
(lp185
Vhttp://img.beckett.com/images/items_stock/185226/3163241/3163454/front.jpg
p186
asg22
V#178
p187
sg24
V1998-99
p188
sg173
VSPx
p189
sg26
g27
sg28
(lp190
VAllan Houston
p191
assbag1
(g2
g3
Ntp192
Rp193
(dp194
g7
(dp195
g9
V1998-99 SPx Finite #192 Allan Houston TF
p196
sg11
I3390
sg12
VSPx Finite
p197
sg14
(lp198
Vhttp://www.beckett.com/basketball/1998-99/spx-finite/192-allan-houston-tf-3163468
p199
asg17
g18
sg19
(lp200
Vhttp://img.beckett.com/images/items_stock/185226/3163241/3163468/front.jpg
p201
asg22
V#192
p202
sg24
V1998-99
p203
sg173
VTF
p204
sg26
g27
sg28
(lp205
VAllan Houston
p206
assbag1
(g2
g3
Ntp207
Rp208
(dp209
g7
(dp210
g9
V1998-99 Black Diamond Double Diamond #61 Patrick Ewing
p211
sg11
I3000
sg12
VBlack Diamond Double Diamond
p212
sg14
(lp213
Vhttp://www.beckett.com/basketball/1998-99/black-diamond-double-diamond/61-patrick-ewing-3171968
p214
asg17
g18
sg19
(lp215
Vhttp://img.beckett.com/images/items_stock/185226/3171898/3171968/front.jpg
p216
asg22
V#61
p217
sg24
V1998-99
p218
sg26
g27
sg28
(lp219
VPatrick Ewing
p220
assbag1
(g2
g3
Ntp221
Rp222
(dp223
g7
(dp224
g9
V1998-99 Black Diamond Double Diamond #62 Allan Houston
p225
sg11
I3000
sg12
VBlack Diamond Double Diamond
p226
sg14
(lp227
Vhttp://www.beckett.com/basketball/1998-99/black-diamond-double-diamond/62-allan-houston-3171969
p228
asg17
g18
sg19
(lp229
Vhttp://img.beckett.com/images/items_stock/185226/3171898/3171969/front.jpg
p230
asg22
V#62
p231
sg24
V1998-99
p232
sg26
g27
sg28
(lp233
VAllan Houston
p234
assbag1
(g2
g3
Ntp235
Rp236
(dp237
g7
(dp238
g9
V1998-99 Black Diamond Double Diamond #63 Latrell Sprewell
p239
sg11
I3000
sg12
VBlack Diamond Double Diamond
p240
sg14
(lp241
Vhttp://www.beckett.com/basketball/1998-99/black-diamond-double-diamond/63-latrell-sprewell-3171970
p242
asg17
g18
sg19
(lp243
Vhttp://img.beckett.com/images/no-image.jpg
p244
asg22
V#63
p245
sg24
V1998-99
p246
sg26
g27
sg28
(lp247
VLatrell Sprewell
p248
assbag1
(g2
g3
Ntp249
Rp250
(dp251
g7
(dp252
g9
V1998-99 Black Diamond Triple Diamond #61 Patrick Ewing
p253
sg11
I1500
sg12
VBlack Diamond Triple Diamond
p254
sg14
(lp255
Vhttp://www.beckett.com/basketball/1998-99/black-diamond-triple-diamond/61-patrick-ewing-3172098
p256
asg17
g18
sg19
(lp257
Vhttp://img.beckett.com/images/items_stock/185226/3172028/3172098/front.jpg
p258
asg22
V#61
p259
sg24
V1998-99
p260
sg26
g27
sg28
(lp261
VPatrick Ewing
p262
assbag1
(g2
g3
Ntp263
Rp264
(dp265
g7
(dp266
g9
V1998-99 Black Diamond Triple Diamond #62 Allan Houston
p267
sg11
I1500
sg12
VBlack Diamond Triple Diamond
p268
sg14
(lp269
Vhttp://www.beckett.com/basketball/1998-99/black-diamond-triple-diamond/62-allan-houston-3172099
p270
asg17
g18
sg19
(lp271
Vhttp://img.beckett.com/images/items_stock/185226/3172028/3172099/front.jpg
p272
asg22
V#62
p273
sg24
V1998-99
p274
sg26
g27
sg28
(lp275
VAllan Houston
p276
assbag1
(g2
g3
Ntp277
Rp278
(dp279
g7
(dp280
g9
V1998-99 Black Diamond Triple Diamond #63 Latrell Sprewell
p281
sg11
I1500
sg12
VBlack Diamond Triple Diamond
p282
sg14
(lp283
Vhttp://www.beckett.com/basketball/1998-99/black-diamond-triple-diamond/63-latrell-sprewell-3172100
p284
asg17
g18
sg19
(lp285
Vhttp://img.beckett.com/images/no-image.jpg
p286
asg22
V#63
p287
sg24
V1998-99
p288
sg26
g27
sg28
(lp289
VLatrell Sprewell
p290
assbag1
(g2
g3
Ntp291
Rp292
(dp293
g7
(dp294
g9
V1998-99 Black Diamond Quadruple Diamond #61 Patrick Ewing
p295
sg11
I150
sg12
VBlack Diamond Quadruple Diamond
p296
sg14
(lp297
Vhttp://www.beckett.com/basketball/1998-99/black-diamond-quadruple-diamond/61-patrick-ewing-3170769
p298
asg17
g18
sg19
(lp299
Vhttp://img.beckett.com/images/items_stock/185226/3170697/3170769/front.jpg
p300
asg22
V#61
p301
sg24
V1998-99
p302
sg26
g27
sg28
(lp303
VPatrick Ewing
p304
assbag1
(g2
g3
Ntp305
Rp306
(dp307
g7
(dp308
g9
V1998-99 Black Diamond Quadruple Diamond #62 Allan Houston
p309
sg11
I150
sg12
VBlack Diamond Quadruple Diamond
p310
sg14
(lp311
Vhttp://www.beckett.com/basketball/1998-99/black-diamond-quadruple-diamond/62-allan-houston-3170770
p312
asg17
g18
sg19
(lp313
Vhttp://img.beckett.com/images/no-image.jpg
p314
asg22
V#62
p315
sg24
V1998-99
p316
sg26
g27
sg28
(lp317
VAllan Houston
p318
assbag1
(g2
g3
Ntp319
Rp320
(dp321
g7
(dp322
g9
V1998-99 Black Diamond Quadruple Diamond #63 Latrell Sprewell
p323
sg11
I150
sg12
VBlack Diamond Quadruple Diamond
p324
sg14
(lp325
Vhttp://www.beckett.com/basketball/1998-99/black-diamond-quadruple-diamond/63-latrell-sprewell-3170771
p326
asg17
g18
sg19
(lp327
Vhttp://img.beckett.com/images/no-image.jpg
p328
asg22
V#63
p329
sg24
V1998-99
p330
sg26
g27
sg28
(lp331
VLatrell Sprewell
p332
assbag1
(g2
g3
Ntp333
Rp334
(dp335
g7
(dp336
g9
V1998-99 Bowman's Best Refractors #38 Allan Houston
p337
sg11
I400
sg12
VBowman's Best Refractors
p338
sg14
(lp339
Vhttp://www.beckett.com/basketball/1998-99/bowmans-best-refractors/38-allan-houston-3171197
p340
asg17
g18
sg19
(lp341
Vhttp://img.beckett.com/images/items_stock/185226/3171150/3171197/front.jpg
p342
asg22
V#38
p343
sg24
V1998-99
p344
sg26
g27
sg28
(lp345
VAllan Houston
p346
assbag1
(g2
g3
Ntp347
Rp348
(dp349
g7
(dp350
g9
V1998-99 Bowman's Best Refractors #44 Larry Johnson
p351
sg11
I400
sg12
VBowman's Best Refractors
p352
sg14
(lp353
Vhttp://www.beckett.com/basketball/1998-99/bowmans-best-refractors/44-larry-johnson-3171203
p354
asg17
g18
sg19
(lp355
Vhttp://img.beckett.com/images/items_stock/185226/3171150/3171203/front.jpg
p356
asg22
V#44
p357
sg24
V1998-99
p358
sg26
g27
sg28
(lp359
VLarry Johnson
p360
assbag1
(g2
g3
Ntp361
Rp362
(dp363
g7
(dp364
g9
V1998-99 Bowman's Best Refractors #54 Patrick Ewing
p365
sg11
I400
sg12
VBowman's Best Refractors
p366
sg14
(lp367
Vhttp://www.beckett.com/basketball/1998-99/bowmans-best-refractors/54-patrick-ewing-3171213
p368
asg17
g18
sg19
(lp369
Vhttp://img.beckett.com/images/no-image.jpg
p370
asg22
V#54
p371
sg24
V1998-99
p372
sg26
g27
sg28
(lp373
VPatrick Ewing
p374
assbag1
(g2
g3
Ntp375
Rp376
(dp377
g7
(dp378
g9
V1998-99 Bowman's Best Atomic Refractors #38 Allan Houston
p379
sg11
I100
sg12
VBowman's Best Atomic Refractors
p380
sg14
(lp381
Vhttp://www.beckett.com/basketball/1998-99/bowmans-best-atomic-refractors/38-allan-houston-3171332
p382
asg17
g18
sg19
(lp383
Vhttp://img.beckett.com/images/no-image.jpg
p384
asg22
V#38
p385
sg24
V1998-99
p386
sg26
g27
sg28
(lp387
VAllan Houston
p388
assbag1
(g2
g3
Ntp389
Rp390
(dp391
g7
(dp392
g9
V1998-99 Bowman's Best Atomic Refractors #44 Larry Johnson
p393
sg11
I100
sg12
VBowman's Best Atomic Refractors
p394
sg14
(lp395
Vhttp://www.beckett.com/basketball/1998-99/bowmans-best-atomic-refractors/44-larry-johnson-3171338
p396
asg17
g18
sg19
(lp397
Vhttp://img.beckett.com/images/no-image.jpg
p398
asg22
V#44
p399
sg24
V1998-99
p400
sg26
g27
sg28
(lp401
VLarry Johnson
p402
assbag1
(g2
g3
Ntp403
Rp404
(dp405
g7
(dp406
g9
V1998-99 Bowman's Best Atomic Refractors #54 Patrick Ewing
p407
sg11
I100
sg12
VBowman's Best Atomic Refractors
p408
sg14
(lp409
Vhttp://www.beckett.com/basketball/1998-99/bowmans-best-atomic-refractors/54-patrick-ewing-3171348
p410
asg17
g18
sg19
(lp411
Vhttp://img.beckett.com/images/no-image.jpg
p412
asg22
V#54
p413
sg24
V1998-99
p414
sg26
g27
sg28
(lp415
VPatrick Ewing
p416
assbag1
(g2
g3
Ntp417
Rp418
(dp419
g7
(dp420
g9
V1998-99 Flair Showcase Row 1 #15 Latrell Sprewell
p421
sg11
I1500
sg12
VFlair Showcase Row 1
p422
sg14
(lp423
Vhttp://www.beckett.com/basketball/1998-99/flair-showcase-row-1/15-latrell-sprewell-3167638
p424
asg17
g18
sg19
(lp425
Vhttp://img.beckett.com/images/no-image.jpg
p426
asg22
V#15
p427
sg24
V1998-99
p428
sg26
g27
sg28
(lp429
VLatrell Sprewell
p430
assbag1
(g2
g3
Ntp431
Rp432
(dp433
g7
(dp434
g9
V1998-99 Flair Showcase Row 1 #41 Patrick Ewing
p435
sg11
I3000
sg12
VFlair Showcase Row 1
p436
sg14
(lp437
Vhttp://www.beckett.com/basketball/1998-99/flair-showcase-row-1/41-patrick-ewing-3167664
p438
asg17
g18
sg19
(lp439
Vhttp://img.beckett.com/images/items_stock/185226/3167600/3167664/front.jpg
p440
asg22
V#41
p441
sg24
V1998-99
p442
sg26
g27
sg28
(lp443
VPatrick Ewing
p444
assbag1
(g2
g3
Ntp445
Rp446
(dp447
g7
(dp448
g9
V1998-99 Flair Showcase Row 1 #63 Allan Houston
p449
sg11
I6000
sg12
VFlair Showcase Row 1
p450
sg14
(lp451
Vhttp://www.beckett.com/basketball/1998-99/flair-showcase-row-1/63-allan-houston-3167686
p452
asg17
g18
sg19
(lp453
Vhttp://img.beckett.com/images/items_stock/185226/3167600/3167686/front.jpg
p454
asg22
V#63
p455
sg24
V1998-99
p456
sg26
g27
sg28
(lp457
VAllan Houston
p458
assbag1
(g2
g3
Ntp459
Rp460
(dp461
g7
(dp462
g9
V1998-99 Flair Showcase Legacy Collection Row 3 #15 Latrell Sprewell
p463
sg11
I99
sg12
VFlair Showcase Legacy Collection Row 3
p464
sg14
(lp465
Vhttp://www.beckett.com/basketball/1998-99/flair-showcase-legacy-collection-row-3/15-latrell-sprewell-3172805
p466
asg17
g18
sg19
(lp467
Vhttp://img.beckett.com/images/no-image.jpg
p468
asg22
V#15
p469
sg24
V1998-99
p470
sg26
g27
sg28
(lp471
VLatrell Sprewell
p472
assbag1
(g2
g3
Ntp473
Rp474
(dp475
g7
(dp476
g9
V1998-99 Flair Showcase Legacy Collection Row 3 #41 Patrick Ewing
p477
sg11
I99
sg12
VFlair Showcase Legacy Collection Row 3
p478
sg14
(lp479
Vhttp://www.beckett.com/basketball/1998-99/flair-showcase-legacy-collection-row-3/41-patrick-ewing-3172831
p480
asg17
g18
sg19
(lp481
Vhttp://img.beckett.com/images/no-image.jpg
p482
asg22
V#41
p483
sg24
V1998-99
p484
sg26
g27
sg28
(lp485
VPatrick Ewing
p486
assbag1
(g2
g3
Ntp487
Rp488
(dp489
g7
(dp490
g9
V1998-99 Flair Showcase Legacy Collection Row 3 #63 Allan Houston
p491
sg11
I99
sg12
VFlair Showcase Legacy Collection Row 3
p492
sg14
(lp493
Vhttp://www.beckett.com/basketball/1998-99/flair-showcase-legacy-collection-row-3/63-allan-houston-3172853
p494
asg17
g18
sg19
(lp495
Vhttp://img.beckett.com/images/no-image.jpg
p496
asg22
V#63
p497
sg24
V1998-99
p498
sg26
g27
sg28
(lp499
VAllan Houston
p500
assbag1
(g2
g3
Ntp501
Rp502
(dp503
g7
(dp504
g9
V1998-99 Fleer Classic '61 #22 Larry Johnson
p505
sg11
I61
sg12
VFleer Classic '61
p506
sg14
(lp507
Vhttp://www.beckett.com/basketball/1998-99/fleer-classic-61/22-larry-johnson-3168116
p508
asg17
g18
sg19
(lp509
Vhttp://img.beckett.com/images/no-image.jpg
p510
asg22
V#22
p511
sg24
V1998-99
p512
sg26
g27
sg28
(lp513
VLarry Johnson
p514
assbag1
(g2
g3
Ntp515
Rp516
(dp517
g7
(dp518
g9
V1998-99 Fleer Classic '61 #51 Patrick Ewing
p519
sg11
I61
sg12
VFleer Classic '61
p520
sg14
(lp521
Vhttp://www.beckett.com/basketball/1998-99/fleer-classic-61/51-patrick-ewing-3168145
p522
asg17
g18
sg19
(lp523
Vhttp://img.beckett.com/images/no-image.jpg
p524
asg22
V#51
p525
sg24
V1998-99
p526
sg26
g27
sg28
(lp527
VPatrick Ewing
p528
assbag1
(g2
g3
Ntp529
Rp530
(dp531
g7
(dp532
g9
V1998-99 Fleer Classic '61 #130 Allan Houston
p533
sg11
I61
sg12
VFleer Classic '61
p534
sg14
(lp535
Vhttp://www.beckett.com/basketball/1998-99/fleer-classic-61/130-allan-houston-3168224
p536
asg17
g18
sg19
(lp537
Vhttp://img.beckett.com/images/no-image.jpg
p538
asg22
V#130
p539
sg24
V1998-99
p540
sg26
g27
sg28
(lp541
VAllan Houston
p542
assbag1
(g2
g3
Ntp543
Rp544
(dp545
g7
(dp546
g9
V1998-99 Fleer Brilliants 24-Karat Gold #13 Allan Houston
p547
sg11
I24
sg12
VFleer Brilliants 24-Karat Gold
p548
sg14
(lp549
Vhttp://www.beckett.com/basketball/1998-99/fleer-brilliants-24-karat-gold/13-allan-houston-3168514
p550
asg17
g18
sg19
(lp551
Vhttp://img.beckett.com/images/no-image.jpg
p552
asg22
V#13
p553
sg24
V1998-99
p554
sg26
g27
sg28
(lp555
VAllan Houston
p556
assbag1
(g2
g3
Ntp557
Rp558
(dp559
g7
(dp560
g9
V1998-99 Fleer Brilliants 24-Karat Gold #18 Patrick Ewing
p561
sg11
I24
sg12
VFleer Brilliants 24-Karat Gold
p562
sg14
(lp563
Vhttp://www.beckett.com/basketball/1998-99/fleer-brilliants-24-karat-gold/18-patrick-ewing-3168519
p564
asg17
g18
sg19
(lp565
Vhttp://img.beckett.com/images/no-image.jpg
p566
asg22
V#18
p567
sg24
V1998-99
p568
sg26
g27
sg28
(lp569
VPatrick Ewing
p570
assbag1
(g2
g3
Ntp571
Rp572
(dp573
g7
(dp574
g9
V1998-99 Fleer Brilliants 24-Karat Gold #64 Larry Johnson
p575
sg11
I24
sg12
VFleer Brilliants 24-Karat Gold
p576
sg14
(lp577
Vhttp://www.beckett.com/basketball/1998-99/fleer-brilliants-24-karat-gold/64-larry-johnson-3168565
p578
asg17
g18
sg19
(lp579
Vhttp://img.beckett.com/images/no-image.jpg
p580
asg22
V#64
p581
sg24
V1998-99
p582
sg26
g27
sg28
(lp583
VLarry Johnson
p584
assbag1
(g2
g3
Ntp585
Rp586
(dp587
g7
(dp588
g9
V1998-99 Fleer Brilliants Gold #13 Allan Houston
p589
sg11
I99
sg12
VFleer Brilliants Gold
p590
sg14
(lp591
Vhttp://www.beckett.com/basketball/1998-99/fleer-brilliants-gold/13-allan-houston-3168786
p592
asg17
g18
sg19
(lp593
Vhttp://img.beckett.com/images/no-image.jpg
p594
asg22
V#13
p595
sg24
V1998-99
p596
sg26
g27
sg28
(lp597
VAllan Houston
p598
assbag1
(g2
g3
Ntp599
Rp600
(dp601
g7
(dp602
g9
V1998-99 Fleer Brilliants Gold #18 Patrick Ewing
p603
sg11
I99
sg12
VFleer Brilliants Gold
p604
sg14
(lp605
Vhttp://www.beckett.com/basketball/1998-99/fleer-brilliants-gold/18-patrick-ewing-3168791
p606
asg17
g18
sg19
(lp607
Vhttp://img.beckett.com/images/no-image.jpg
p608
asg22
V#18
p609
sg24
V1998-99
p610
sg26
g27
sg28
(lp611
VPatrick Ewing
p612
assbag1
(g2
g3
Ntp613
Rp614
(dp615
g7
(dp616
g9
V1998-99 Fleer Brilliants Gold #64 Larry Johnson
p617
sg11
I99
sg12
VFleer Brilliants Gold
p618
sg14
(lp619
Vhttp://www.beckett.com/basketball/1998-99/fleer-brilliants-gold/64-larry-johnson-3168837
p620
asg17
g18
sg19
(lp621
Vhttp://img.beckett.com/images/no-image.jpg
p622
asg22
V#64
p623
sg24
V1998-99
p624
sg26
g27
sg28
(lp625
VLarry Johnson
p626
assbag1
(g2
g3
Ntp627
Rp628
(dp629
g7
(dp630
g9
V1998-99 Hoops Starting Five #22 Allan Houston
p631
sg11
I5
sg12
VHoops Starting Five
p632
sg14
(lp633
Vhttp://www.beckett.com/basketball/1998-99/hoops-starting-five/22-allan-houston-3166528
p634
asg17
g18
sg19
(lp635
Vhttp://img.beckett.com/images/no-image.jpg
p636
asg22
V#22
p637
sg24
V1998-99
p638
sg26
g27
sg28
(lp639
VAllan Houston
p640
assbag1
(g2
g3
Ntp641
Rp642
(dp643
g7
(dp644
g9
V1998-99 Hoops Starting Five #59 Larry Johnson
p645
sg11
I5
sg12
VHoops Starting Five
p646
sg14
(lp647
Vhttp://www.beckett.com/basketball/1998-99/hoops-starting-five/59-larry-johnson-3166565
p648
asg17
g18
sg19
(lp649
Vhttp://img.beckett.com/images/no-image.jpg
p650
asg22
V#59
p651
sg24
V1998-99
p652
sg26
g27
sg28
(lp653
VLarry Johnson
p654
assbag1
(g2
g3
Ntp655
Rp656
(dp657
g7
(dp658
g9
V1998-99 Hoops Starting Five #65 Chris Childs
p659
sg11
I5
sg12
VHoops Starting Five
p660
sg14
(lp661
Vhttp://www.beckett.com/basketball/1998-99/hoops-starting-five/65-chris-childs-3166571
p662
asg17
g18
sg19
(lp663
Vhttp://img.beckett.com/images/no-image.jpg
p664
asg22
V#65
p665
sg24
V1998-99
p666
sg26
g27
sg28
(lp667
VChris Childs
p668
assbag1
(g2
g3
Ntp669
Rp670
(dp671
g7
(dp672
g9
V1998-99 Hoops Starting Five #68 Patrick Ewing
p673
sg11
I5
sg12
VHoops Starting Five
p674
sg14
(lp675
Vhttp://www.beckett.com/basketball/1998-99/hoops-starting-five/68-patrick-ewing-3166574
p676
asg17
g18
sg19
(lp677
Vhttp://img.beckett.com/images/no-image.jpg
p678
asg22
V#68
p679
sg24
V1998-99
p680
sg26
g27
sg28
(lp681
VPatrick Ewing
p682
assbag1
(g2
g3
Ntp683
Rp684
(dp685
g7
(dp686
g9
V1998-99 Metal Universe Precious Metal Gems #22 Patrick Ewing
p687
sg11
I50
sg12
VMetal Universe Precious Metal Gems
p688
sg14
(lp689
Vhttp://www.beckett.com/basketball/1998-99/metal-universe-precious-metal-gems/22-patrick-ewing-3166965
p690
asg17
g18
sg19
(lp691
Vhttp://img.beckett.com/images/no-image.jpg
p692
asg22
V#22
p693
sg24
V1998-99
p694
sg26
g27
sg28
(lp695
VPatrick Ewing
p696
assbag1
(g2
g3
Ntp697
Rp698
(dp699
g7
(dp700
g9
V1998-99 Metal Universe Precious Metal Gems #76 Larry Johnson
p701
sg11
I50
sg12
VMetal Universe Precious Metal Gems
p702
sg14
(lp703
Vhttp://www.beckett.com/basketball/1998-99/metal-universe-precious-metal-gems/76-larry-johnson-3167019
p704
asg17
g18
sg19
(lp705
Vhttp://img.beckett.com/images/no-image.jpg
p706
asg22
V#76
p707
sg24
V1998-99
p708
sg26
g27
sg28
(lp709
VLarry Johnson
p710
assbag1
(g2
g3
Ntp711
Rp712
(dp713
g7
(dp714
g9
V1998-99 Metal Universe Precious Metal Gems #107 Allan Houston
p715
sg11
I50
sg12
VMetal Universe Precious Metal Gems
p716
sg14
(lp717
Vhttp://www.beckett.com/basketball/1998-99/metal-universe-precious-metal-gems/107-allan-houston-3167050
p718
asg17
g18
sg19
(lp719
Vhttp://img.beckett.com/images/no-image.jpg
p720
asg22
V#107
p721
sg24
V1998-99
p722
sg26
g27
sg28
(lp723
VAllan Houston
p724
assbag1
(g2
g3
Ntp725
Rp726
(dp727
g7
(dp728
g9
V1998-99 Metal Universe Gem Masters #22 Patrick Ewing
p729
sg11
I1
sg12
VMetal Universe Gem Masters
p730
sg14
(lp731
Vhttp://www.beckett.com/basketball/1998-99/metal-universe-gem-masters/22-patrick-ewing-3166834
p732
asg17
g18
sg19
(lp733
Vhttp://img.beckett.com/images/no-image.jpg
p734
asg22
V#22
p735
sg24
V1998-99
p736
sg26
g27
sg28
(lp737
VPatrick Ewing
p738
assbag1
(g2
g3
Ntp739
Rp740
(dp741
g7
(dp742
g9
V1998-99 Metal Universe Gem Masters #76 Larry Johnson
p743
sg11
I1
sg12
VMetal Universe Gem Masters
p744
sg14
(lp745
Vhttp://www.beckett.com/basketball/1998-99/metal-universe-gem-masters/76-larry-johnson-3166888
p746
asg17
g18
sg19
(lp747
Vhttp://img.beckett.com/images/no-image.jpg
p748
asg22
V#76
p749
sg24
V1998-99
p750
sg26
g27
sg28
(lp751
VLarry Johnson
p752
assbag1
(g2
g3
Ntp753
Rp754
(dp755
g7
(dp756
g9
V1998-99 Metal Universe Gem Masters #107 Allan Houston
p757
sg11
I1
sg12
VMetal Universe Gem Masters
p758
sg14
(lp759
Vhttp://www.beckett.com/basketball/1998-99/metal-universe-gem-masters/107-allan-houston-3166919
p760
asg17
g18
sg19
(lp761
Vhttp://img.beckett.com/images/no-image.jpg
p762
asg22
V#107
p763
sg24
V1998-99
p764
sg26
g27
sg28
(lp765
VAllan Houston
p766
assbag1
(g2
g3
Ntp767
Rp768
(dp769
g7
(dp770
g9
V1998-99 SkyBox Premium Star Rubies #19 Patrick Ewing
p771
sg11
I50
sg12
VSkyBox Premium Star Rubies
p772
sg14
(lp773
Vhttp://www.beckett.com/basketball/1998-99/skybox-premium-star-rubies/19-patrick-ewing-3165124
p774
asg17
g18
sg19
(lp775
Vhttp://img.beckett.com/images/no-image.jpg
p776
asg22
V#19
p777
sg24
V1998-99
p778
sg26
g27
sg28
(lp779
VPatrick Ewing
p780
assbag1
(g2
g3
Ntp781
Rp782
(dp783
g7
(dp784
g9
V1998-99 SkyBox Premium Star Rubies #63 Larry Johnson
p785
sg11
I50
sg12
VSkyBox Premium Star Rubies
p786
sg14
(lp787
Vhttp://www.beckett.com/basketball/1998-99/skybox-premium-star-rubies/63-larry-johnson-3165168
p788
asg17
g18
sg19
(lp789
Vhttp://img.beckett.com/images/no-image.jpg
p790
asg22
V#63
p791
sg24
V1998-99
p792
sg26
g27
sg28
(lp793
VLarry Johnson
p794
assbag1
(g2
g3
Ntp795
Rp796
(dp797
g7
(dp798
g9
V1998-99 SkyBox Premium Star Rubies #125 Allan Houston
p799
sg11
I50
sg12
VSkyBox Premium Star Rubies
p800
sg14
(lp801
Vhttp://www.beckett.com/basketball/1998-99/skybox-premium-star-rubies/125-allan-houston-3165230
p802
asg17
g18
sg19
(lp803
Vhttp://img.beckett.com/images/no-image.jpg
p804
asg22
V#125
p805
sg24
V1998-99
p806
sg26
g27
sg28
(lp807
VAllan Houston
p808
assbag1
(g2
g3
Ntp809
Rp810
(dp811
g7
(dp812
g9
V1998-99 SkyBox Premium Star Rubies #153 Charlie Ward
p813
sg11
I50
sg12
VSkyBox Premium Star Rubies
p814
sg14
(lp815
Vhttp://www.beckett.com/basketball/1998-99/skybox-premium-star-rubies/153-charlie-ward-3165258
p816
asg17
g18
sg19
(lp817
Vhttp://img.beckett.com/images/no-image.jpg
p818
asg22
V#153
p819
sg24
V1998-99
p820
sg26
g27
sg28
(lp821
VCharlie Ward
p822
assbag1
(g2
g3
Ntp823
Rp824
(dp825
g7
(dp826
g9
V1998-99 SkyBox Premium Star Rubies #188 Latrell Sprewell
p827
sg11
I50
sg12
VSkyBox Premium Star Rubies
p828
sg14
(lp829
Vhttp://www.beckett.com/basketball/1998-99/skybox-premium-star-rubies/188-latrell-sprewell-3165293
p830
asg17
g18
sg19
(lp831
Vhttp://img.beckett.com/images/no-image.jpg
p832
asg22
V#188
p833
sg24
V1998-99
p834
sg26
g27
sg28
(lp835
VLatrell Sprewell
p836
assbag1
(g2
g3
Ntp837
Rp838
(dp839
g7
(dp840
g9
V1998-99 SkyBox Premium Star Rubies #200 Chris Dudley
p841
sg11
I50
sg12
VSkyBox Premium Star Rubies
p842
sg14
(lp843
Vhttp://www.beckett.com/basketball/1998-99/skybox-premium-star-rubies/200-chris-dudley-3165305
p844
asg17
g18
sg19
(lp845
Vhttp://img.beckett.com/images/no-image.jpg
p846
asg22
V#200
p847
sg24
V1998-99
p848
sg26
g27
sg28
(lp849
VChris Dudley
p850
assbag1
(g2
g3
Ntp851
Rp852
(dp853
g7
(dp854
g9
V1998-99 SkyBox Thunder Rave #2 Larry Johnson
p855
sg11
I150
sg12
VSkyBox Thunder Rave
p856
sg14
(lp857
Vhttp://www.beckett.com/basketball/1998-99/skybox-thunder-rave/2-larry-johnson-3166040
p858
asg17
g18
sg19
(lp859
Vhttp://img.beckett.com/images/no-image.jpg
p860
asg22
V#2
p861
sg24
V1998-99
p862
sg26
g27
sg28
(lp863
VLarry Johnson
p864
assbag1
(g2
g3
Ntp865
Rp866
(dp867
g7
(dp868
g9
V1998-99 SkyBox Thunder Rave #33 Patrick Ewing
p869
sg11
I150
sg12
VSkyBox Thunder Rave
p870
sg14
(lp871
Vhttp://www.beckett.com/basketball/1998-99/skybox-thunder-rave/33-patrick-ewing-3166071
p872
asg17
g18
sg19
(lp873
Vhttp://img.beckett.com/images/no-image.jpg
p874
asg22
V#33
p875
sg24
V1998-99
p876
sg26
g27
sg28
(lp877
VPatrick Ewing
p878
assbag1
(g2
g3
Ntp879
Rp880
(dp881
g7
(dp882
g9
V1998-99 SkyBox Thunder Rave #88 Allan Houston
p883
sg11
I150
sg12
VSkyBox Thunder Rave
p884
sg14
(lp885
Vhttp://www.beckett.com/basketball/1998-99/skybox-thunder-rave/88-allan-houston-3166126
p886
asg17
g18
sg19
(lp887
Vhttp://img.beckett.com/images/no-image.jpg
p888
asg22
V#88
p889
sg24
V1998-99
p890
sg26
g27
sg28
(lp891
VAllan Houston
p892
assbag1
(g2
g3
Ntp893
Rp894
(dp895
g7
(dp896
g9
V1998-99 SkyBox Thunder Rave #99 Charlie Ward
p897
sg11
I150
sg12
VSkyBox Thunder Rave
p898
sg14
(lp899
Vhttp://www.beckett.com/basketball/1998-99/skybox-thunder-rave/99-charlie-ward-3166137
p900
asg17
g18
sg19
(lp901
Vhttp://img.beckett.com/images/no-image.jpg
p902
asg22
V#99
p903
sg24
V1998-99
p904
sg26
g27
sg28
(lp905
VCharlie Ward
p906
assbag1
(g2
g3
Ntp907
Rp908
(dp909
g7
(dp910
g9
V1998-99 SkyBox Thunder Super Rave #2 Larry Johnson
p911
sg11
I25
sg12
VSkyBox Thunder Super Rave
p912
sg14
(lp913
Vhttp://www.beckett.com/basketball/1998-99/skybox-thunder-super-rave/2-larry-johnson-3162692
p914
asg17
g18
sg19
(lp915
Vhttp://img.beckett.com/images/no-image.jpg
p916
asg22
V#2
p917
sg24
V1998-99
p918
sg26
g27
sg28
(lp919
VLarry Johnson
p920
assbag1
(g2
g3
Ntp921
Rp922
(dp923
g7
(dp924
g9
V1998-99 SkyBox Thunder Super Rave #33 Patrick Ewing
p925
sg11
I25
sg12
VSkyBox Thunder Super Rave
p926
sg14
(lp927
Vhttp://www.beckett.com/basketball/1998-99/skybox-thunder-super-rave/33-patrick-ewing-3162723
p928
asg17
g18
sg19
(lp929
Vhttp://img.beckett.com/images/no-image.jpg
p930
asg22
V#33
p931
sg24
V1998-99
p932
sg26
g27
sg28
(lp933
VPatrick Ewing
p934
assbag1
(g2
g3
Ntp935
Rp936
(dp937
g7
(dp938
g9
V1998-99 SkyBox Thunder Super Rave #88 Allan Houston
p939
sg11
I25
sg12
VSkyBox Thunder Super Rave
p940
sg14
(lp941
Vhttp://www.beckett.com/basketball/1998-99/skybox-thunder-super-rave/88-allan-houston-3162778
p942
asg17
g18
sg19
(lp943
Vhttp://img.beckett.com/images/no-image.jpg
p944
asg22
V#88
p945
sg24
V1998-99
p946
sg26
g27
sg28
(lp947
VAllan Houston
p948
assbag1
(g2
g3
Ntp949
Rp950
(dp951
g7
(dp952
g9
V1998-99 SkyBox Thunder Super Rave #99 Charlie Ward
p953
sg11
I25
sg12
VSkyBox Thunder Super Rave
p954
sg14
(lp955
Vhttp://www.beckett.com/basketball/1998-99/skybox-thunder-super-rave/99-charlie-ward-3162789
p956
asg17
g18
sg19
(lp957
Vhttp://img.beckett.com/images/no-image.jpg
p958
asg22
V#99
p959
sg24
V1998-99
p960
sg26
g27
sg28
(lp961
VCharlie Ward
p962
assbag1
(g2
g3
Ntp963
Rp964
(dp965
g7
(dp966
g9
V1998-99 SPx Finite Extreme #15 Larry Johnson
p967
sg11
I1
sg12
VSPx Finite Extreme
p968
sg14
(lp969
Vhttp://www.beckett.com/basketball/1998-99/spx-finite-extreme/15-larry-johnson-3163537
p970
asg17
g18
sg19
(lp971
Vhttp://img.beckett.com/images/no-image.jpg
p972
asg22
V#15
p973
sg24
V1998-99
p974
sg26
g27
sg28
(lp975
VLarry Johnson
p976
assbag1
(g2
g3
Ntp977
Rp978
(dp979
g7
(dp980
g9
V1998-99 SPx Finite Extreme #32 Allan Houston
p981
sg11
I1
sg12
VSPx Finite Extreme
p982
sg14
(lp983
Vhttp://www.beckett.com/basketball/1998-99/spx-finite-extreme/32-allan-houston-3163554
p984
asg17
g18
sg19
(lp985
Vhttp://img.beckett.com/images/no-image.jpg
p986
asg22
V#32
p987
sg24
V1998-99
p988
sg26
g27
sg28
(lp989
VAllan Houston
p990
assbag1
(g2
g3
Ntp991
Rp992
(dp993
g7
(dp994
g9
V1998-99 SPx Finite Extreme #49 Patrick Ewing
p995
sg11
I1
sg12
VSPx Finite Extreme
p996
sg14
(lp997
Vhttp://www.beckett.com/basketball/1998-99/spx-finite-extreme/49-patrick-ewing-3163571
p998
asg17
g18
sg19
(lp999
Vhttp://img.beckett.com/images/no-image.jpg
p1000
asg22
V#49
p1001
sg24
V1998-99
p1002
sg26
g27
sg28
(lp1003
VPatrick Ewing
p1004
assbag1
(g2
g3
Ntp1005
Rp1006
(dp1007
g7
(dp1008
g9
V1998-99 SPx Finite Radiance #15 Larry Johnson
p1009
sg11
I5000
sg12
VSPx Finite Radiance
p1010
sg14
(lp1011
Vhttp://www.beckett.com/basketball/1998-99/spx-finite-radiance/15-larry-johnson-3163665
p1012
asg17
g18
sg19
(lp1013
Vhttp://img.beckett.com/images/items_stock/185226/3163613/3163665/front.jpg
p1014
asg22
V#15
p1015
sg24
V1998-99
p1016
sg26
g27
sg28
(lp1017
VLarry Johnson
p1018
assbag1
(g2
g3
Ntp1019
Rp1020
(dp1021
g7
(dp1022
g9
V1998-99 SPx Finite Radiance #32 Allan Houston
p1023
sg11
I5000
sg12
VSPx Finite Radiance
p1024
sg14
(lp1025
Vhttp://www.beckett.com/basketball/1998-99/spx-finite-radiance/32-allan-houston-3163682
p1026
asg17
g18
sg19
(lp1027
Vhttp://img.beckett.com/images/items_stock/185226/3163613/3163682/front.jpg
p1028
asg22
V#32
p1029
sg24
V1998-99
p1030
sg26
g27
sg28
(lp1031
VAllan Houston
p1032
assbag1
(g2
g3
Ntp1033
Rp1034
(dp1035
g7
(dp1036
g9
V1998-99 SPx Finite Radiance #49 Patrick Ewing
p1037
sg11
I5000
sg12
VSPx Finite Radiance
p1038
sg14
(lp1039
Vhttp://www.beckett.com/basketball/1998-99/spx-finite-radiance/49-patrick-ewing-3163699
p1040
asg17
g18
sg19
(lp1041
Vhttp://img.beckett.com/images/items_stock/185226/3163613/3163699/front.jpg
p1042
asg22
V#49
p1043
sg24
V1998-99
p1044
sg26
g27
sg28
(lp1045
VPatrick Ewing
p1046
assbag1
(g2
g3
Ntp1047
Rp1048
(dp1049
g7
(dp1050
g9
V1998-99 SPx Finite Radiance #137 Patrick Ewing SP
p1051
sg11
I2700
sg12
VSPx Finite Radiance
p1052
sg14
(lp1053
Vhttp://www.beckett.com/basketball/1998-99/spx-finite-radiance/137-patrick-ewing-sp-3163787
p1054
asg17
g18
sg19
(lp1055
Vhttp://img.beckett.com/images/items_stock/185226/3163613/3163787/front.jpg
p1056
asg22
V#137
p1057
sg24
V1998-99
p1058
sg173
VSP
p1059
sg26
g27
sg28
(lp1060
VPatrick Ewing
p1061
assbag1
(g2
g3
Ntp1062
Rp1063
(dp1064
g7
(dp1065
g9
V1998-99 SPx Finite Radiance #178 Allan Houston SPx
p1066
sg11
I2025
sg12
VSPx Finite Radiance
p1067
sg14
(lp1068
Vhttp://www.beckett.com/basketball/1998-99/spx-finite-radiance/178-allan-houston-spx-3163828
p1069
asg17
g18
sg19
(lp1070
Vhttp://img.beckett.com/images/items_stock/185226/3163613/3163828/front.jpg
p1071
asg22
V#178
p1072
sg24
V1998-99
p1073
sg173
VSPx
p1074
sg26
g27
sg28
(lp1075
VAllan Houston
p1076
assbag1
(g2
g3
Ntp1077
Rp1078
(dp1079
g7
(dp1080
g9
V1998-99 SPx Finite Radiance #192 Allan Houston TF
p1081
sg11
I1130
sg12
VSPx Finite Radiance
p1082
sg14
(lp1083
Vhttp://www.beckett.com/basketball/1998-99/spx-finite-radiance/192-allan-houston-tf-3163842
p1084
asg17
g18
sg19
(lp1085
Vhttp://img.beckett.com/images/items_stock/185226/3163613/3163842/front.jpg
p1086
asg22
V#192
p1087
sg24
V1998-99
p1088
sg173
VTF
p1089
sg26
g27
sg28
(lp1090
VAllan Houston
p1091
assbag1
(g2
g3
Ntp1092
Rp1093
(dp1094
g7
(dp1095
g9
V1998-99 SPx Finite Spectrum #15 Larry Johnson
p1096
sg11
I350
sg12
VSPx Finite Spectrum
p1097
sg14
(lp1098
Vhttp://www.beckett.com/basketball/1998-99/spx-finite-spectrum/15-larry-johnson-3163943
p1099
asg17
g18
sg19
(lp1100
Vhttp://img.beckett.com/images/items_stock/185226/3163891/3163943/front.jpg
p1101
asg22
V#15
p1102
sg24
V1998-99
p1103
sg26
g27
sg28
(lp1104
VLarry Johnson
p1105
assbag1
(g2
g3
Ntp1106
Rp1107
(dp1108
g7
(dp1109
g9
V1998-99 SPx Finite Spectrum #32 Allan Houston
p1110
sg11
I350
sg12
VSPx Finite Spectrum
p1111
sg14
(lp1112
Vhttp://www.beckett.com/basketball/1998-99/spx-finite-spectrum/32-allan-houston-3163960
p1113
asg17
g18
sg19
(lp1114
Vhttp://img.beckett.com/images/no-image.jpg
p1115
asg22
V#32
p1116
sg24
V1998-99
p1117
sg26
g27
sg28
(lp1118
VAllan Houston
p1119
assbag1
(g2
g3
Ntp1120
Rp1121
(dp1122
g7
(dp1123
g9
V1998-99 SPx Finite Spectrum #49 Patrick Ewing
p1124
sg11
I350
sg12
VSPx Finite Spectrum
p1125
sg14
(lp1126
Vhttp://www.beckett.com/basketball/1998-99/spx-finite-spectrum/49-patrick-ewing-3163977
p1127
asg17
g18
sg19
(lp1128
Vhttp://img.beckett.com/images/items_stock/185226/3163891/3163977/front.jpg
p1129
asg22
V#49
p1130
sg24
V1998-99
p1131
sg26
g27
sg28
(lp1132
VPatrick Ewing
p1133
assbag1
(g2
g3
Ntp1134
Rp1135
(dp1136
g7
(dp1137
g9
V1998-99 SPx Finite Spectrum #137 Patrick Ewing SP
p1138
sg11
I250
sg12
VSPx Finite Spectrum
p1139
sg14
(lp1140
Vhttp://www.beckett.com/basketball/1998-99/spx-finite-spectrum/137-patrick-ewing-sp-3164065
p1141
asg17
g18
sg19
(lp1142
Vhttp://img.beckett.com/images/items_stock/185226/3163891/3164065/front.jpg
p1143
asg22
V#137
p1144
sg24
V1998-99
p1145
sg173
VSP
p1146
sg26
g27
sg28
(lp1147
VPatrick Ewing
p1148
assbag1
(g2
g3
Ntp1149
Rp1150
(dp1151
g7
(dp1152
g9
V1998-99 SPx Finite Spectrum #178 Allan Houston SPx
p1153
sg11
I75
sg12
VSPx Finite Spectrum
p1154
sg14
(lp1155
Vhttp://www.beckett.com/basketball/1998-99/spx-finite-spectrum/178-allan-houston-spx-3164106
p1156
asg17
g18
sg19
(lp1157
Vhttp://img.beckett.com/images/no-image.jpg
p1158
asg22
V#178
p1159
sg24
V1998-99
p1160
sg173
VSPx
p1161
sg26
g27
sg28
(lp1162
VAllan Houston
p1163
assbag1
(g2
g3
Ntp1164
Rp1165
(dp1166
g7
(dp1167
g9
V1998-99 SPx Finite Spectrum #192 Allan Houston TF
p1168
sg11
I50
sg12
VSPx Finite Spectrum
p1169
sg14
(lp1170
Vhttp://www.beckett.com/basketball/1998-99/spx-finite-spectrum/192-allan-houston-tf-3164120
p1171
asg17
g18
sg19
(lp1172
Vhttp://img.beckett.com/images/no-image.jpg
p1173
asg22
V#192
p1174
sg24
V1998-99
p1175
sg173
VTF
p1176
sg26
g27
sg28
(lp1177
VAllan Houston
p1178
assbag1
(g2
g3
Ntp1179
Rp1180
(dp1181
g7
(dp1182
g9
V1998-99 Stadium Club First Day Issue #5 Larry Johnson
p1183
sg11
I200
sg12
VStadium Club First Day Issue
p1184
sg14
(lp1185
Vhttp://www.beckett.com/basketball/1998-99/stadium-club-first-day-issue/5-larry-johnson-3164450
p1186
asg17
g18
sg19
(lp1187
Vhttp://img.beckett.com/images/no-image.jpg
p1188
asg22
V#5
p1189
sg24
V1998-99
p1190
sg26
g27
sg28
(lp1191
VLarry Johnson
p1192
assbag1
(g2
g3
Ntp1193
Rp1194
(dp1195
g7
(dp1196
g9
V1998-99 Stadium Club First Day Issue #51 Allan Houston
p1197
sg11
I200
sg12
VStadium Club First Day Issue
p1198
sg14
(lp1199
Vhttp://www.beckett.com/basketball/1998-99/stadium-club-first-day-issue/51-allan-houston-3164496
p1200
asg17
g18
sg19
(lp1201
Vhttp://img.beckett.com/images/no-image.jpg
p1202
asg22
V#51
p1203
sg24
V1998-99
p1204
sg26
g27
sg28
(lp1205
VAllan Houston
p1206
assbag1
(g2
g3
Ntp1207
Rp1208
(dp1209
g7
(dp1210
g9
V1998-99 Stadium Club First Day Issue #74 Charlie Ward
p1211
sg11
I200
sg12
VStadium Club First Day Issue
p1212
sg14
(lp1213
Vhttp://www.beckett.com/basketball/1998-99/stadium-club-first-day-issue/74-charlie-ward-3164519
p1214
asg17
g18
sg19
(lp1215
Vhttp://img.beckett.com/images/no-image.jpg
p1216
asg22
V#74
p1217
sg24
V1998-99
p1218
sg26
g27
sg28
(lp1219
VCharlie Ward
p1220
assbag1
(g2
g3
Ntp1221
Rp1222
(dp1223
g7
(dp1224
g9
V1998-99 Stadium Club First Day Issue #136 Chris Childs
p1225
sg11
I200
sg12
VStadium Club First Day Issue
p1226
sg14
(lp1227
Vhttp://www.beckett.com/basketball/1998-99/stadium-club-first-day-issue/136-chris-childs-3164581
p1228
asg17
g18
sg19
(lp1229
Vhttp://img.beckett.com/images/no-image.jpg
p1230
asg22
V#136
p1231
sg24
V1998-99
p1232
sg26
g27
sg28
(lp1233
VChris Childs
p1234
assbag1
(g2
g3
Ntp1235
Rp1236
(dp1237
g7
(dp1238
g9
V1998-99 Stadium Club First Day Issue #180 Patrick Ewing
p1239
sg11
I200
sg12
VStadium Club First Day Issue
p1240
sg14
(lp1241
Vhttp://www.beckett.com/basketball/1998-99/stadium-club-first-day-issue/180-patrick-ewing-3164625
p1242
asg17
g18
sg19
(lp1243
Vhttp://img.beckett.com/images/no-image.jpg
p1244
asg22
V#180
p1245
sg24
V1998-99
p1246
sg26
g27
sg28
(lp1247
VPatrick Ewing
p1248
assbag1
(g2
g3
Ntp1249
Rp1250
(dp1251
g7
(dp1252
g9
V1998-99 Stadium Club First Day Issue #236 Latrell Sprewell TRAN
p1253
sg11
I200
sg12
VStadium Club First Day Issue
p1254
sg14
(lp1255
Vhttp://www.beckett.com/basketball/1998-99/stadium-club-first-day-issue/236-latrell-sprewell-tran-3164681
p1256
asg17
g18
sg19
(lp1257
Vhttp://img.beckett.com/images/no-image.jpg
p1258
asg22
V#236
p1259
sg24
V1998-99
p1260
sg173
VTRAN
p1261
sg26
g27
sg28
(lp1262
VLatrell Sprewell
p1263
assbag1
(g2
g3
Ntp1264
Rp1265
(dp1266
g7
(dp1267
g9
V1998-99 Stadium Club One Of A Kind #5 Larry Johnson
p1268
sg11
I150
sg12
VStadium Club One Of A Kind
p1269
sg14
(lp1270
Vhttp://www.beckett.com/basketball/1998-99/stadium-club-one-of-a-kind/5-larry-johnson-3160705
p1271
asg17
g18
sg19
(lp1272
Vhttp://img.beckett.com/images/items_stock/185226/3160688/3160705/front.jpg
p1273
asg22
V#5
p1274
sg24
V1998-99
p1275
sg26
g27
sg28
(lp1276
VLarry Johnson
p1277
assbag1
(g2
g3
Ntp1278
Rp1279
(dp1280
g7
(dp1281
g9
V1998-99 Stadium Club One Of A Kind #51 Allan Houston
p1282
sg11
I150
sg12
VStadium Club One Of A Kind
p1283
sg14
(lp1284
Vhttp://www.beckett.com/basketball/1998-99/stadium-club-one-of-a-kind/51-allan-houston-3160751
p1285
asg17
g18
sg19
(lp1286
Vhttp://img.beckett.com/images/no-image.jpg
p1287
asg22
V#51
p1288
sg24
V1998-99
p1289
sg26
g27
sg28
(lp1290
VAllan Houston
p1291
assbag1
(g2
g3
Ntp1292
Rp1293
(dp1294
g7
(dp1295
g9
V1998-99 Stadium Club One Of A Kind #74 Charlie Ward
p1296
sg11
I150
sg12
VStadium Club One Of A Kind
p1297
sg14
(lp1298
Vhttp://www.beckett.com/basketball/1998-99/stadium-club-one-of-a-kind/74-charlie-ward-3160774
p1299
asg17
g18
sg19
(lp1300
Vhttp://img.beckett.com/images/no-image.jpg
p1301
asg22
V#74
p1302
sg24
V1998-99
p1303
sg26
g27
sg28
(lp1304
VCharlie Ward
p1305
assbag1
(g2
g3
Ntp1306
Rp1307
(dp1308
g7
(dp1309
g9
V1998-99 Stadium Club One Of A Kind #136 Chris Childs
p1310
sg11
I150
sg12
VStadium Club One Of A Kind
p1311
sg14
(lp1312
Vhttp://www.beckett.com/basketball/1998-99/stadium-club-one-of-a-kind/136-chris-childs-3160836
p1313
asg17
g18
sg19
(lp1314
Vhttp://img.beckett.com/images/no-image.jpg
p1315
asg22
V#136
p1316
sg24
V1998-99
p1317
sg26
g27
sg28
(lp1318
VChris Childs
p1319
assbag1
(g2
g3
Ntp1320
Rp1321
(dp1322
g7
(dp1323
g9
V1998-99 Stadium Club One Of A Kind #180 Patrick Ewing
p1324
sg11
I150
sg12
VStadium Club One Of A Kind
p1325
sg14
(lp1326
Vhttp://www.beckett.com/basketball/1998-99/stadium-club-one-of-a-kind/180-patrick-ewing-3160880
p1327
asg17
g18
sg19
(lp1328
Vhttp://img.beckett.com/images/no-image.jpg
p1329
asg22
V#180
p1330
sg24
V1998-99
p1331
sg26
g27
sg28
(lp1332
VPatrick Ewing
p1333
assbag1
(g2
g3
Ntp1334
Rp1335
(dp1336
g7
(dp1337
g9
V1998-99 Stadium Club One Of A Kind #236 Latrell Sprewell TRAN
p1338
sg11
I150
sg12
VStadium Club One Of A Kind
p1339
sg14
(lp1340
Vhttp://www.beckett.com/basketball/1998-99/stadium-club-one-of-a-kind/236-latrell-sprewell-tran-3160936
p1341
asg17
g18
sg19
(lp1342
Vhttp://img.beckett.com/images/no-image.jpg
p1343
asg22
V#236
p1344
sg24
V1998-99
p1345
sg173
VTRAN
p1346
sg26
g27
sg28
(lp1347
VLatrell Sprewell
p1348
assbag1
(g2
g3
Ntp1349
Rp1350
(dp1351
g7
(dp1352
g9
V1998-99 Stadium Club Printing Plates #5 Larry Johnson Black
p1353
sg11
I1
sg12
VStadium Club Printing Plates
p1354
sg14
(lp1355
Vhttp://www.beckett.com/basketball/1998-99/stadium-club-printing-plates/5-larry-johnson-black-3160966
p1356
asg17
g18
sg19
(lp1357
Vhttp://img.beckett.com/images/no-image.jpg
p1358
asg22
V#5
p1359
sg24
V1998-99
p1360
sg26
g27
sg28
(lp1361
VLarry Johnson
p1362
assbag1
(g2
g3
Ntp1363
Rp1364
(dp1365
g7
(dp1366
g9
V1998-99 Stadium Club Printing Plates #5A Larry Johnson Cyan
p1367
sg11
I1
sg12
VStadium Club Printing Plates
p1368
sg14
(lp1369
Vhttp://www.beckett.com/basketball/1998-99/stadium-club-printing-plates/5a-larry-johnson-cyan-3160967
p1370
asg17
g18
sg19
(lp1371
Vhttp://img.beckett.com/images/no-image.jpg
p1372
asg22
V#5A
p1373
sg24
V1998-99
p1374
sg26
g27
sg28
(lp1375
g1362
assbag1
(g2
g3
Ntp1376
Rp1377
(dp1378
g7
(dp1379
g9
V1998-99 Stadium Club Printing Plates #5B Larry Johnson Magenta
p1380
sg11
I1
sg12
VStadium Club Printing Plates
p1381
sg14
(lp1382
Vhttp://www.beckett.com/basketball/1998-99/stadium-club-printing-plates/5b-larry-johnson-magenta-3160968
p1383
asg17
g18
sg19
(lp1384
Vhttp://img.beckett.com/images/no-image.jpg
p1385
asg22
V#5B
p1386
sg24
V1998-99
p1387
sg26
g27
sg28
(lp1388
g1362
assbag1
(g2
g3
Ntp1389
Rp1390
(dp1391
g7
(dp1392
g9
V1998-99 Stadium Club Printing Plates #5C Larry Johnson Yellow
p1393
sg11
I1
sg12
VStadium Club Printing Plates
p1394
sg14
(lp1395
Vhttp://www.beckett.com/basketball/1998-99/stadium-club-printing-plates/5c-larry-johnson-yellow-3160969
p1396
asg17
g18
sg19
(lp1397
Vhttp://img.beckett.com/images/no-image.jpg
p1398
asg22
V#5C
p1399
sg24
V1998-99
p1400
sg26
g27
sg28
(lp1401
g1362
assbag1
(g2
g3
Ntp1402
Rp1403
(dp1404
g7
(dp1405
g9
V1998-99 Stadium Club Printing Plates #51 Allan Houston Black
p1406
sg11
I1
sg12
VStadium Club Printing Plates
p1407
sg14
(lp1408
Vhttp://www.beckett.com/basketball/1998-99/stadium-club-printing-plates/51-allan-houston-black-3161150
p1409
asg17
g18
sg19
(lp1410
Vhttp://img.beckett.com/images/no-image.jpg
p1411
asg22
V#51
p1412
sg24
V1998-99
p1413
sg26
g27
sg28
(lp1414
VAllan Houston
p1415
assbag1
(g2
g3
Ntp1416
Rp1417
(dp1418
g7
(dp1419
g9
V1998-99 Stadium Club Printing Plates #51A Allan Houston Cyan
p1420
sg11
I1
sg12
VStadium Club Printing Plates
p1421
sg14
(lp1422
Vhttp://www.beckett.com/basketball/1998-99/stadium-club-printing-plates/51a-allan-houston-cyan-3161151
p1423
asg17
g18
sg19
(lp1424
Vhttp://img.beckett.com/images/no-image.jpg
p1425
asg22
V#51A
p1426
sg24
V1998-99
p1427
sg26
g27
sg28
(lp1428
g1415
assbag1
(g2
g3
Ntp1429
Rp1430
(dp1431
g7
(dp1432
g9
V1998-99 Stadium Club Printing Plates #51B Allan Houston Magenta
p1433
sg11
I1
sg12
VStadium Club Printing Plates
p1434
sg14
(lp1435
Vhttp://www.beckett.com/basketball/1998-99/stadium-club-printing-plates/51b-allan-houston-magenta-3161152
p1436
asg17
g18
sg19
(lp1437
Vhttp://img.beckett.com/images/no-image.jpg
p1438
asg22
V#51B
p1439
sg24
V1998-99
p1440
sg26
g27
sg28
(lp1441
g1415
assbag1
(g2
g3
Ntp1442
Rp1443
(dp1444
g7
(dp1445
g9
V1998-99 Stadium Club Printing Plates #51C Allan Houston Yellow
p1446
sg11
I1
sg12
VStadium Club Printing Plates
p1447
sg14
(lp1448
Vhttp://www.beckett.com/basketball/1998-99/stadium-club-printing-plates/51c-allan-houston-yellow-3161153
p1449
asg17
g18
sg19
(lp1450
Vhttp://img.beckett.com/images/no-image.jpg
p1451
asg22
V#51C
p1452
sg24
V1998-99
p1453
sg26
g27
sg28
(lp1454
g1415
assbag1
(g2
g3
Ntp1455
Rp1456
(dp1457
g7
(dp1458
g9
V1998-99 Stadium Club Printing Plates #74 Charlie Ward Black
p1459
sg11
I1
sg12
VStadium Club Printing Plates
p1460
sg14
(lp1461
Vhttp://www.beckett.com/basketball/1998-99/stadium-club-printing-plates/74-charlie-ward-black-3161242
p1462
asg17
g18
sg19
(lp1463
Vhttp://img.beckett.com/images/no-image.jpg
p1464
asg22
V#74
p1465
sg24
V1998-99
p1466
sg26
g27
sg28
(lp1467
VCharlie Ward
p1468
assbag1
(g2
g3
Ntp1469
Rp1470
(dp1471
g7
(dp1472
g9
V1998-99 Stadium Club Printing Plates #74A Charlie Ward Cyan
p1473
sg11
I1
sg12
VStadium Club Printing Plates
p1474
sg14
(lp1475
Vhttp://www.beckett.com/basketball/1998-99/stadium-club-printing-plates/74a-charlie-ward-cyan-3161243
p1476
asg17
g18
sg19
(lp1477
Vhttp://img.beckett.com/images/no-image.jpg
p1478
asg22
V#74A
p1479
sg24
V1998-99
p1480
sg26
g27
sg28
(lp1481
g1468
assbag1
(g2
g3
Ntp1482
Rp1483
(dp1484
g7
(dp1485
g9
V1998-99 Stadium Club Printing Plates #74B Charlie Ward Magenta
p1486
sg11
I1
sg12
VStadium Club Printing Plates
p1487
sg14
(lp1488
Vhttp://www.beckett.com/basketball/1998-99/stadium-club-printing-plates/74b-charlie-ward-magenta-3161244
p1489
asg17
g18
sg19
(lp1490
Vhttp://img.beckett.com/images/no-image.jpg
p1491
asg22
V#74B
p1492
sg24
V1998-99
p1493
sg26
g27
sg28
(lp1494
g1468
assbag1
(g2
g3
Ntp1495
Rp1496
(dp1497
g7
(dp1498
g9
V1998-99 Stadium Club Printing Plates #74C Charlie Ward Yellow
p1499
sg11
I1
sg12
VStadium Club Printing Plates
p1500
sg14
(lp1501
Vhttp://www.beckett.com/basketball/1998-99/stadium-club-printing-plates/74c-charlie-ward-yellow-3161245
p1502
asg17
g18
sg19
(lp1503
Vhttp://img.beckett.com/images/no-image.jpg
p1504
asg22
V#74C
p1505
sg24
V1998-99
p1506
sg26
g27
sg28
(lp1507
g1468
assbag1
(g2
g3
Ntp1508
Rp1509
(dp1510
g7
(dp1511
g9
V1998-99 Stadium Club Printing Plates #136 Chris Childs Black
p1512
sg11
I1
sg12
VStadium Club Printing Plates
p1513
sg14
(lp1514
Vhttp://www.beckett.com/basketball/1998-99/stadium-club-printing-plates/136-chris-childs-black-3161490
p1515
asg17
g18
sg19
(lp1516
Vhttp://img.beckett.com/images/no-image.jpg
p1517
asg22
V#136
p1518
sg24
V1998-99
p1519
sg26
g27
sg28
(lp1520
VChris Childs
p1521
assbag1
(g2
g3
Ntp1522
Rp1523
(dp1524
g7
(dp1525
g9
V1998-99 Stadium Club Printing Plates #136A Chris Childs Cyan
p1526
sg11
I1
sg12
VStadium Club Printing Plates
p1527
sg14
(lp1528
Vhttp://www.beckett.com/basketball/1998-99/stadium-club-printing-plates/136a-chris-childs-cyan-3161491
p1529
asg17
g18
sg19
(lp1530
Vhttp://img.beckett.com/images/no-image.jpg
p1531
asg22
V#136A
p1532
sg24
V1998-99
p1533
sg26
g27
sg28
(lp1534
g1521
assbag1
(g2
g3
Ntp1535
Rp1536
(dp1537
g7
(dp1538
g9
V1998-99 Stadium Club Printing Plates #136B Chris Childs Magenta
p1539
sg11
I1
sg12
VStadium Club Printing Plates
p1540
sg14
(lp1541
Vhttp://www.beckett.com/basketball/1998-99/stadium-club-printing-plates/136b-chris-childs-magenta-3161492
p1542
asg17
g18
sg19
(lp1543
Vhttp://img.beckett.com/images/no-image.jpg
p1544
asg22
V#136B
p1545
sg24
V1998-99
p1546
sg26
g27
sg28
(lp1547
g1521
assbag1
(g2
g3
Ntp1548
Rp1549
(dp1550
g7
(dp1551
g9
V1998-99 Stadium Club Printing Plates #136C Chris Childs Yellow
p1552
sg11
I1
sg12
VStadium Club Printing Plates
p1553
sg14
(lp1554
Vhttp://www.beckett.com/basketball/1998-99/stadium-club-printing-plates/136c-chris-childs-yellow-3161493
p1555
asg17
g18
sg19
(lp1556
Vhttp://img.beckett.com/images/no-image.jpg
p1557
asg22
V#136C
p1558
sg24
V1998-99
p1559
sg26
g27
sg28
(lp1560
g1521
assbag1
(g2
g3
Ntp1561
Rp1562
(dp1563
g7
(dp1564
g9
V1998-99 Stadium Club Printing Plates #180 Patrick Ewing Black
p1565
sg11
I1
sg12
VStadium Club Printing Plates
p1566
sg14
(lp1567
Vhttp://www.beckett.com/basketball/1998-99/stadium-club-printing-plates/180-patrick-ewing-black-3161666
p1568
asg17
g18
sg19
(lp1569
Vhttp://img.beckett.com/images/no-image.jpg
p1570
asg22
V#180
p1571
sg24
V1998-99
p1572
sg26
g27
sg28
(lp1573
VPatrick Ewing
p1574
assbag1
(g2
g3
Ntp1575
Rp1576
(dp1577
g7
(dp1578
g9
V1998-99 Stadium Club Printing Plates #180A Patrick Ewing Cyan
p1579
sg11
I1
sg12
VStadium Club Printing Plates
p1580
sg14
(lp1581
Vhttp://www.beckett.com/basketball/1998-99/stadium-club-printing-plates/180a-patrick-ewing-cyan-3161667
p1582
asg17
g18
sg19
(lp1583
Vhttp://img.beckett.com/images/no-image.jpg
p1584
asg22
V#180A
p1585
sg24
V1998-99
p1586
sg26
g27
sg28
(lp1587
g1574
assbag1
(g2
g3
Ntp1588
Rp1589
(dp1590
g7
(dp1591
g9
V1998-99 Stadium Club Printing Plates #180B Patrick Ewing Magenta
p1592
sg11
I1
sg12
VStadium Club Printing Plates
p1593
sg14
(lp1594
Vhttp://www.beckett.com/basketball/1998-99/stadium-club-printing-plates/180b-patrick-ewing-magenta-3161668
p1595
asg17
g18
sg19
(lp1596
Vhttp://img.beckett.com/images/no-image.jpg
p1597
asg22
V#180B
p1598
sg24
V1998-99
p1599
sg26
g27
sg28
(lp1600
g1574
assbag1
(g2
g3
Ntp1601
Rp1602
(dp1603
g7
(dp1604
g9
V1998-99 Stadium Club Printing Plates #180C Patrick Ewing Yellow
p1605
sg11
I1
sg12
VStadium Club Printing Plates
p1606
sg14
(lp1607
Vhttp://www.beckett.com/basketball/1998-99/stadium-club-printing-plates/180c-patrick-ewing-yellow-3161669
p1608
asg17
g18
sg19
(lp1609
Vhttp://img.beckett.com/images/no-image.jpg
p1610
asg22
V#180C
p1611
sg24
V1998-99
p1612
sg26
g27
sg28
(lp1613
g1574
assbag1
(g2
g3
Ntp1614
Rp1615
(dp1616
g7
(dp1617
g9
V1998-99 Stadium Club Printing Plates #236 Latrell Sprewell TRAN Black
p1618
sg11
I1
sg12
VStadium Club Printing Plates
p1619
sg14
(lp1620
Vhttp://www.beckett.com/basketball/1998-99/stadium-club-printing-plates/236-latrell-sprewell-tran-black-3161890
p1621
asg17
g18
sg19
(lp1622
Vhttp://img.beckett.com/images/no-image.jpg
p1623
asg22
V#236
p1624
sg24
V1998-99
p1625
sg26
g27
sg28
(lp1626
VLatrell Sprewell
p1627
assbag1
(g2
g3
Ntp1628
Rp1629
(dp1630
g7
(dp1631
g9
V1998-99 Stadium Club Printing Plates #236A Latrell Sprewell TRAN Cyan
p1632
sg11
I1
sg12
VStadium Club Printing Plates
p1633
sg14
(lp1634
Vhttp://www.beckett.com/basketball/1998-99/stadium-club-printing-plates/236a-latrell-sprewell-tran-cyan-3161891
p1635
asg17
g18
sg19
(lp1636
Vhttp://img.beckett.com/images/no-image.jpg
p1637
asg22
V#236A
p1638
sg24
V1998-99
p1639
sg26
g27
sg28
(lp1640
g1627
assbag1
(g2
g3
Ntp1641
Rp1642
(dp1643
g7
(dp1644
g9
V1998-99 Stadium Club Printing Plates #236B Latrell Sprewell TRAN Magenta
p1645
sg11
I1
sg12
VStadium Club Printing Plates
p1646
sg14
(lp1647
Vhttp://www.beckett.com/basketball/1998-99/stadium-club-printing-plates/236b-latrell-sprewell-tran-magenta-3161892
p1648
asg17
g18
sg19
(lp1649
Vhttp://img.beckett.com/images/no-image.jpg
p1650
asg22
V#236B
p1651
sg24
V1998-99
p1652
sg26
g27
sg28
(lp1653
g1627
assbag1
(g2
g3
Ntp1654
Rp1655
(dp1656
g7
(dp1657
g9
V1998-99 Stadium Club Printing Plates #236C Latrell Sprewell TRAN Yellow
p1658
sg11
I1
sg12
VStadium Club Printing Plates
p1659
sg14
(lp1660
Vhttp://www.beckett.com/basketball/1998-99/stadium-club-printing-plates/236c-latrell-sprewell-tran-yellow-3161893
p1661
asg17
g18
sg19
(lp1662
Vhttp://img.beckett.com/images/no-image.jpg
p1663
asg22
V#236C
p1664
sg24
V1998-99
p1665
sg26
g27
sg28
(lp1666
g1627
assbag1
(g2
g3
Ntp1667
Rp1668
(dp1669
g7
(dp1670
g9
V1998-99 UD Choice Premium Choice Reserve #94 Allan Houston
p1671
sg11
I100
sg12
VUD Choice Premium Choice Reserve
p1672
sg14
(lp1673
Vhttp://www.beckett.com/basketball/1998-99/ud-choice-premium-choice-reserve/94-allan-houston-3159267
p1674
asg17
g18
sg19
(lp1675
Vhttp://img.beckett.com/images/no-image.jpg
p1676
asg22
V#94
p1677
sg24
V1998-99
p1678
sg26
g27
sg28
(lp1679
VAllan Houston
p1680
assbag1
(g2
g3
Ntp1681
Rp1682
(dp1683
g7
(dp1684
g9
V1998-99 UD Choice Premium Choice Reserve #95 Patrick Ewing UER/back Ewing Ewing
p1685
sg11
I100
sg12
VUD Choice Premium Choice Reserve
p1686
sS'errorInformation'
p1687
V/back Ewing Ewing
p1688
sg14
(lp1689
Vhttp://www.beckett.com/basketball/1998-99/ud-choice-premium-choice-reserve/95-patrick-ewing-uerback-ewing-ewing-3159268
p1690
asg17
g18
sg19
(lp1691
Vhttp://img.beckett.com/images/no-image.jpg
p1692
asg22
V#95
p1693
sg24
V1998-99
p1694
sg26
g27
sg28
(lp1695
VPatrick Ewing
p1696
assbag1
(g2
g3
Ntp1697
Rp1698
(dp1699
g7
(dp1700
g9
V1998-99 UD Choice Premium Choice Reserve #96 Charles Oakley
p1701
sg11
I100
sg12
VUD Choice Premium Choice Reserve
p1702
sg14
(lp1703
Vhttp://www.beckett.com/basketball/1998-99/ud-choice-premium-choice-reserve/96-charles-oakley-3159269
p1704
asg17
g18
sg19
(lp1705
Vhttp://img.beckett.com/images/no-image.jpg
p1706
asg22
V#96
p1707
sg24
V1998-99
p1708
sg26
g27
sg28
(lp1709
VCharles Oakley
p1710
assbag1
(g2
g3
Ntp1711
Rp1712
(dp1713
g7
(dp1714
g9
V1998-99 UD Choice Premium Choice Reserve #97 John Starks
p1715
sg11
I100
sg12
VUD Choice Premium Choice Reserve
p1716
sg14
(lp1717
Vhttp://www.beckett.com/basketball/1998-99/ud-choice-premium-choice-reserve/97-john-starks-3159270
p1718
asg17
g18
sg19
(lp1719
Vhttp://img.beckett.com/images/no-image.jpg
p1720
asg22
V#97
p1721
sg24
V1998-99
p1722
sg26
g27
sg28
(lp1723
VJohn Starks
p1724
assbag1
(g2
g3
Ntp1725
Rp1726
(dp1727
g7
(dp1728
g9
V1998-99 UD Choice Premium Choice Reserve #98 Charlie Ward
p1729
sg11
I100
sg12
VUD Choice Premium Choice Reserve
p1730
sg14
(lp1731
Vhttp://www.beckett.com/basketball/1998-99/ud-choice-premium-choice-reserve/98-charlie-ward-3159271
p1732
asg17
g18
sg19
(lp1733
Vhttp://img.beckett.com/images/no-image.jpg
p1734
asg22
V#98
p1735
sg24
V1998-99
p1736
sg26
g27
sg28
(lp1737
VCharlie Ward
p1738
assbag1
(g2
g3
Ntp1739
Rp1740
(dp1741
g7
(dp1742
g9
V1998-99 UD Choice Premium Choice Reserve #99 Chris Mills
p1743
sg11
I100
sg12
VUD Choice Premium Choice Reserve
p1744
sg14
(lp1745
Vhttp://www.beckett.com/basketball/1998-99/ud-choice-premium-choice-reserve/99-chris-mills-3159272
p1746
asg17
g18
sg19
(lp1747
Vhttp://img.beckett.com/images/no-image.jpg
p1748
asg22
V#99
p1749
sg24
V1998-99
p1750
sg26
g27
sg28
(lp1751
VChris Mills
p1752
assbag1
(g2
g3
Ntp1753
Rp1754
(dp1755
g7
(dp1756
g9
V1998-99 UD Choice Premium Choice Reserve #173 Larry Johnson FS
p1757
sg11
I100
sg12
VUD Choice Premium Choice Reserve
p1758
sg14
(lp1759
Vhttp://www.beckett.com/basketball/1998-99/ud-choice-premium-choice-reserve/173-larry-johnson-fs-3159346
p1760
asg17
g18
sg19
(lp1761
Vhttp://img.beckett.com/images/no-image.jpg
p1762
asg22
V#173
p1763
sg24
V1998-99
p1764
sg173
VFS
p1765
sg26
g27
sg28
(lp1766
VLarry Johnson
p1767
assbag1
(g2
g3
Ntp1768
Rp1769
(dp1770
g7
(dp1771
g9
V1998-99 UD Ionix Reciprocal #41 Patrick Ewing
p1772
sg11
I750
sg12
VUD Ionix Reciprocal
p1773
sg14
(lp1774
Vhttp://www.beckett.com/basketball/1998-99/ud-ionix-reciprocal/41-patrick-ewing-3159717
p1775
asg17
g18
sg19
(lp1776
Vhttp://img.beckett.com/images/no-image.jpg
p1777
asg22
V#41
p1778
sg24
V1998-99
p1779
sg26
g27
sg28
(lp1780
VPatrick Ewing
p1781
assbag1
(g2
g3
Ntp1782
Rp1783
(dp1784
g7
(dp1785
g9
V1998-99 UD Ionix Reciprocal #42 Allan Houston
p1786
sg11
I750
sg12
VUD Ionix Reciprocal
p1787
sg14
(lp1788
Vhttp://www.beckett.com/basketball/1998-99/ud-ionix-reciprocal/42-allan-houston-3159718
p1789
asg17
g18
sg19
(lp1790
Vhttp://img.beckett.com/images/no-image.jpg
p1791
asg22
V#42
p1792
sg24
V1998-99
p1793
sg26
g27
sg28
(lp1794
VAllan Houston
p1795
assbag1
(g2
g3
Ntp1796
Rp1797
(dp1798
g7
(dp1799
g9
V1998-99 Ultra Masterpieces #3 Patrick Ewing
p1800
sg11
I1
sg12
VUltra Masterpieces
p1801
sg14
(lp1802
Vhttp://www.beckett.com/basketball/1998-99/ultra-masterpieces/3-patrick-ewing-3156959
p1803
asg17
g18
sg19
(lp1804
Vhttp://img.beckett.com/images/no-image.jpg
p1805
asg22
V#3
p1806
sg24
V1998-99
p1807
sg26
g27
sg28
(lp1808
VPatrick Ewing
p1809
assbag1
(g2
g3
Ntp1810
Rp1811
(dp1812
g7
(dp1813
g9
V1998-99 Ultra Masterpieces #17 Allan Houston
p1814
sg11
I1
sg12
VUltra Masterpieces
p1815
sg14
(lp1816
Vhttp://www.beckett.com/basketball/1998-99/ultra-masterpieces/17-allan-houston-3156973
p1817
asg17
g18
sg19
(lp1818
Vhttp://img.beckett.com/images/no-image.jpg
p1819
asg22
V#17
p1820
sg24
V1998-99
p1821
sg26
g27
sg28
(lp1822
VAllan Houston
p1823
assbag1
(g2
g3
Ntp1824
Rp1825
(dp1826
g7
(dp1827
g9
V1998-99 Ultra Masterpieces #47 Larry Johnson
p1828
sg11
I1
sg12
VUltra Masterpieces
p1829
sg14
(lp1830
Vhttp://www.beckett.com/basketball/1998-99/ultra-masterpieces/47-larry-johnson-3157003
p1831
asg17
g18
sg19
(lp1832
Vhttp://img.beckett.com/images/no-image.jpg
p1833
asg22
V#47
p1834
sg24
V1998-99
p1835
sg26
g27
sg28
(lp1836
VLarry Johnson
p1837
assbag1
(g2
g3
Ntp1838
Rp1839
(dp1840
g7
(dp1841
g9
V1998-99 Ultra Masterpieces #71 Latrell Sprewell
p1842
sg11
I1
sg12
VUltra Masterpieces
p1843
sg14
(lp1844
Vhttp://www.beckett.com/basketball/1998-99/ultra-masterpieces/71-latrell-sprewell-3157027
p1845
asg17
g18
sg19
(lp1846
Vhttp://img.beckett.com/images/no-image.jpg
p1847
asg22
V#71
p1848
sg24
V1998-99
p1849
sg26
g27
sg28
(lp1850
VLatrell Sprewell
p1851
assbag1
(g2
g3
Ntp1852
Rp1853
(dp1854
g7
(dp1855
g9
V1998-99 Ultra Platinum Medallion #3 Patrick Ewing
p1856
sg11
I99
sg12
VUltra Platinum Medallion
p1857
sg14
(lp1858
Vhttp://www.beckett.com/basketball/1998-99/ultra-platinum-medallion/3-patrick-ewing-3157095
p1859
asg17
g18
sg19
(lp1860
Vhttp://img.beckett.com/images/no-image.jpg
p1861
asg22
V#3
p1862
sg24
V1998-99
p1863
sg26
g27
sg28
(lp1864
VPatrick Ewing
p1865
assbag1
(g2
g3
Ntp1866
Rp1867
(dp1868
g7
(dp1869
g9
V1998-99 Ultra Platinum Medallion #17 Allan Houston
p1870
sg11
I99
sg12
VUltra Platinum Medallion
p1871
sg14
(lp1872
Vhttp://www.beckett.com/basketball/1998-99/ultra-platinum-medallion/17-allan-houston-3157109
p1873
asg17
g18
sg19
(lp1874
Vhttp://img.beckett.com/images/no-image.jpg
p1875
asg22
V#17
p1876
sg24
V1998-99
p1877
sg26
g27
sg28
(lp1878
VAllan Houston
p1879
assbag1
(g2
g3
Ntp1880
Rp1881
(dp1882
g7
(dp1883
g9
V1998-99 Ultra Platinum Medallion #47 Larry Johnson
p1884
sg11
I99
sg12
VUltra Platinum Medallion
p1885
sg14
(lp1886
Vhttp://www.beckett.com/basketball/1998-99/ultra-platinum-medallion/47-larry-johnson-3157139
p1887
asg17
g18
sg19
(lp1888
Vhttp://img.beckett.com/images/no-image.jpg
p1889
asg22
V#47
p1890
sg24
V1998-99
p1891
sg26
g27
sg28
(lp1892
VLarry Johnson
p1893
assbag1
(g2
g3
Ntp1894
Rp1895
(dp1896
g7
(dp1897
g9
V1998-99 Ultra Platinum Medallion #71 Latrell Sprewell
p1898
sg11
I99
sg12
VUltra Platinum Medallion
p1899
sg14
(lp1900
Vhttp://www.beckett.com/basketball/1998-99/ultra-platinum-medallion/71-latrell-sprewell-3157163
p1901
asg17
g18
sg19
(lp1902
Vhttp://img.beckett.com/images/no-image.jpg
p1903
asg22
V#71
p1904
sg24
V1998-99
p1905
sg26
g27
sg28
(lp1906
VLatrell Sprewell
p1907
assbag1
(g2
g3
Ntp1908
Rp1909
(dp1910
g7
(dp1911
g9
V1998-99 Upper Deck Bronze #102 Patrick Ewing
p1912
sg11
I100
sg12
VUpper Deck Bronze
p1913
sg14
(lp1914
Vhttp://www.beckett.com/basketball/1998-99/upper-deck-bronze/102-patrick-ewing-3157833
p1915
asg17
g18
sg19
(lp1916
Vhttp://img.beckett.com/images/no-image.jpg
p1917
asg22
V#102
p1918
sg24
V1998-99
p1919
sg26
g27
sg28
(lp1920
VPatrick Ewing
p1921
assbag1
(g2
g3
Ntp1922
Rp1923
(dp1924
g7
(dp1925
g9
V1998-99 Upper Deck Bronze #104 Allan Houston
p1926
sg11
I100
sg12
VUpper Deck Bronze
p1927
sg14
(lp1928
Vhttp://www.beckett.com/basketball/1998-99/upper-deck-bronze/104-allan-houston-3157835
p1929
asg17
g18
sg19
(lp1930
Vhttp://img.beckett.com/images/no-image.jpg
p1931
asg22
V#104
p1932
sg24
V1998-99
p1933
sg26
g27
sg28
(lp1934
VAllan Houston
p1935
assbag1
(g2
g3
Ntp1936
Rp1937
(dp1938
g7
(dp1939
g9
V1998-99 Upper Deck Bronze #106 Chris Childs
p1940
sg11
I100
sg12
VUpper Deck Bronze
p1941
sg14
(lp1942
Vhttp://www.beckett.com/basketball/1998-99/upper-deck-bronze/106-chris-childs-3157837
p1943
asg17
g18
sg19
(lp1944
Vhttp://img.beckett.com/images/no-image.jpg
p1945
asg22
V#106
p1946
sg24
V1998-99
p1947
sg26
g27
sg28
(lp1948
VChris Childs
p1949
assbag1
(g2
g3
Ntp1950
Rp1951
(dp1952
g7
(dp1953
g9
V1998-99 Upper Deck Bronze #107 Charlie Ward
p1954
sg11
I100
sg12
VUpper Deck Bronze
p1955
sg14
(lp1956
Vhttp://www.beckett.com/basketball/1998-99/upper-deck-bronze/107-charlie-ward-3157838
p1957
asg17
g18
sg19
(lp1958
Vhttp://img.beckett.com/images/no-image.jpg
p1959
asg22
V#107
p1960
sg24
V1998-99
p1961
sg26
g27
sg28
(lp1962
VCharlie Ward
p1963
assbag1
(g2
g3
Ntp1964
Rp1965
(dp1966
g7
(dp1967
g9
V1998-99 Upper Deck Bronze #108 Patrick Ewing/John Starks HS
p1968
sg11
I100
sg12
VUpper Deck Bronze
p1969
sg14
(lp1970
Vhttp://www.beckett.com/basketball/1998-99/upper-deck-bronze/108-patrick-ewingjohn-starks-hs-3157839
p1971
asg17
g18
sg19
(lp1972
Vhttp://img.beckett.com/images/no-image.jpg
p1973
asg22
V#108
p1974
sg24
V1998-99
p1975
sg173
VHS
p1976
sg26
g27
sg28
(lp1977
VPatrick Ewing
p1978
aVJohn Starks
p1979
assbag1
(g2
g3
Ntp1980
Rp1981
(dp1982
g7
(dp1983
g9
V1998-99 Upper Deck Bronze #198 Larry Johnson
p1984
sg11
I100
sg12
VUpper Deck Bronze
p1985
sg14
(lp1986
Vhttp://www.beckett.com/basketball/1998-99/upper-deck-bronze/198-larry-johnson-3157929
p1987
asg17
g18
sg19
(lp1988
Vhttp://img.beckett.com/images/no-image.jpg
p1989
asg22
V#198
p1990
sg24
V1998-99
p1991
sg26
g27
sg28
(lp1992
VLarry Johnson
p1993
assbag1
(g2
g3
Ntp1994
Rp1995
(dp1996
g7
(dp1997
g9
V1998-99 Upper Deck Bronze #307 Patrick Ewing H99
p1998
sg11
I100
sg12
VUpper Deck Bronze
p1999
sg14
(lp2000
Vhttp://www.beckett.com/basketball/1998-99/upper-deck-bronze/307-patrick-ewing-h99-3158060
p2001
asg17
g18
sg19
(lp2002
Vhttp://img.beckett.com/images/no-image.jpg
p2003
asg22
V#307
p2004
sg24
V1998-99
p2005
sg26
g27
sg28
(lp2006
VPatrick Ewing
p2007
assbag1
(g2
g3
Ntp2008
Rp2009
(dp2010
g7
(dp2011
g9
V1998-99 Upper Deck Gold #102 Patrick Ewing
p2012
sg11
I1
sg12
VUpper Deck Gold
p2013
sg14
(lp2014
Vhttp://www.beckett.com/basketball/1998-99/upper-deck-gold/102-patrick-ewing-3158198
p2015
asg17
g18
sg19
(lp2016
Vhttp://img.beckett.com/images/no-image.jpg
p2017
asg22
V#102
p2018
sg24
V1998-99
p2019
sg26
g27
sg28
(lp2020
VPatrick Ewing
p2021
assbag1
(g2
g3
Ntp2022
Rp2023
(dp2024
g7
(dp2025
g9
V1998-99 Upper Deck Gold #104 Allan Houston
p2026
sg11
I1
sg12
VUpper Deck Gold
p2027
sg14
(lp2028
Vhttp://www.beckett.com/basketball/1998-99/upper-deck-gold/104-allan-houston-3158200
p2029
asg17
g18
sg19
(lp2030
Vhttp://img.beckett.com/images/no-image.jpg
p2031
asg22
V#104
p2032
sg24
V1998-99
p2033
sg26
g27
sg28
(lp2034
VAllan Houston
p2035
assbag1
(g2
g3
Ntp2036
Rp2037
(dp2038
g7
(dp2039
g9
V1998-99 Upper Deck Gold #106 Chris Childs
p2040
sg11
I1
sg12
VUpper Deck Gold
p2041
sg14
(lp2042
Vhttp://www.beckett.com/basketball/1998-99/upper-deck-gold/106-chris-childs-3158202
p2043
asg17
g18
sg19
(lp2044
Vhttp://img.beckett.com/images/no-image.jpg
p2045
asg22
V#106
p2046
sg24
V1998-99
p2047
sg26
g27
sg28
(lp2048
VChris Childs
p2049
assbag1
(g2
g3
Ntp2050
Rp2051
(dp2052
g7
(dp2053
g9
V1998-99 Upper Deck Gold #107 Charlie Ward
p2054
sg11
I1
sg12
VUpper Deck Gold
p2055
sg14
(lp2056
Vhttp://www.beckett.com/basketball/1998-99/upper-deck-gold/107-charlie-ward-3158203
p2057
asg17
g18
sg19
(lp2058
Vhttp://img.beckett.com/images/no-image.jpg
p2059
asg22
V#107
p2060
sg24
V1998-99
p2061
sg26
g27
sg28
(lp2062
VCharlie Ward
p2063
assbag1
(g2
g3
Ntp2064
Rp2065
(dp2066
g7
(dp2067
g9
V1998-99 Upper Deck Gold #108 Patrick Ewing/John Starks HS
p2068
sg11
I1
sg12
VUpper Deck Gold
p2069
sg14
(lp2070
Vhttp://www.beckett.com/basketball/1998-99/upper-deck-gold/108-patrick-ewingjohn-starks-hs-3158204
p2071
asg17
g18
sg19
(lp2072
Vhttp://img.beckett.com/images/no-image.jpg
p2073
asg22
V#108
p2074
sg24
V1998-99
p2075
sg173
VHS
p2076
sg26
g27
sg28
(lp2077
VPatrick Ewing
p2078
aVJohn Starks
p2079
assbag1
(g2
g3
Ntp2080
Rp2081
(dp2082
g7
(dp2083
g9
V1998-99 Upper Deck Gold #198 Larry Johnson
p2084
sg11
I1
sg12
VUpper Deck Gold
p2085
sg14
(lp2086
Vhttp://www.beckett.com/basketball/1998-99/upper-deck-gold/198-larry-johnson-3158294
p2087
asg17
g18
sg19
(lp2088
Vhttp://img.beckett.com/images/no-image.jpg
p2089
asg22
V#198
p2090
sg24
V1998-99
p2091
sg26
g27
sg28
(lp2092
VLarry Johnson
p2093
assbag1
(g2
g3
Ntp2094
Rp2095
(dp2096
g7
(dp2097
g9
V1998-99 Upper Deck Gold #307 Patrick Ewing H99
p2098
sg11
I1
sg12
VUpper Deck Gold
p2099
sg14
(lp2100
Vhttp://www.beckett.com/basketball/1998-99/upper-deck-gold/307-patrick-ewing-h99-3158425
p2101
asg17
g18
sg19
(lp2102
Vhttp://img.beckett.com/images/no-image.jpg
p2103
asg22
V#307
p2104
sg24
V1998-99
p2105
sg26
g27
sg28
(lp2106
VPatrick Ewing
p2107
assbag1
(g2
g3
Ntp2108
Rp2109
(dp2110
g7
(dp2111
g9
V1998-99 Upper Deck Encore F/X #55 Patrick Ewing
p2112
sg11
I125
sg12
VUpper Deck Encore F/X
p2113
sg14
(lp2114
Vhttp://www.beckett.com/basketball/1998-99/upper-deck-encore-fx/55-patrick-ewing-3155156
p2115
asg17
g18
sg19
(lp2116
Vhttp://img.beckett.com/images/no-image.jpg
p2117
asg22
V#55
p2118
sg24
V1998-99
p2119
sg26
g27
sg28
(lp2120
VPatrick Ewing
p2121
assbag1
(g2
g3
Ntp2122
Rp2123
(dp2124
g7
(dp2125
g9
V1998-99 Upper Deck Encore F/X #56 Allan Houston
p2126
sg11
I125
sg12
VUpper Deck Encore F/X
p2127
sg14
(lp2128
Vhttp://www.beckett.com/basketball/1998-99/upper-deck-encore-fx/56-allan-houston-3155157
p2129
asg17
g18
sg19
(lp2130
Vhttp://img.beckett.com/images/no-image.jpg
p2131
asg22
V#56
p2132
sg24
V1998-99
p2133
sg26
g27
sg28
(lp2134
VAllan Houston
p2135
assbag1
(g2
g3
Ntp2136
Rp2137
(dp2138
g7
(dp2139
g9
V1998-99 Upper Deck Encore F/X #57 Latrell Sprewell
p2140
sg11
I125
sg12
VUpper Deck Encore F/X
p2141
sg14
(lp2142
Vhttp://www.beckett.com/basketball/1998-99/upper-deck-encore-fx/57-latrell-sprewell-3155158
p2143
asg17
g18
sg19
(lp2144
Vhttp://img.beckett.com/images/no-image.jpg
p2145
asg22
V#57
p2146
sg24
V1998-99
p2147
sg26
g27
sg28
(lp2148
VLatrell Sprewell
p2149
assbag1
(g2
g3
Ntp2150
Rp2151
(dp2152
g7
(dp2153
g9
V1998-99 Upper Deck Ovation Gold #44 Patrick Ewing
p2154
sg11
I1000
sg12
VUpper Deck Ovation Gold
p2155
sg14
(lp2156
Vhttp://www.beckett.com/basketball/1998-99/upper-deck-ovation-gold/44-patrick-ewing-3155600
p2157
asg17
g18
sg19
(lp2158
Vhttp://img.beckett.com/images/no-image.jpg
p2159
asg22
V#44
p2160
sg24
V1998-99
p2161
sg26
g27
sg28
(lp2162
VPatrick Ewing
p2163
assbag1
(g2
g3
Ntp2164
Rp2165
(dp2166
g7
(dp2167
g9
V1998-99 Upper Deck Ovation Gold #45 Allan Houston
p2168
sg11
I1000
sg12
VUpper Deck Ovation Gold
p2169
sg14
(lp2170
Vhttp://www.beckett.com/basketball/1998-99/upper-deck-ovation-gold/45-allan-houston-3155601
p2171
asg17
g18
sg19
(lp2172
Vhttp://img.beckett.com/images/no-image.jpg
p2173
asg22
V#45
p2174
sg24
V1998-99
p2175
sg26
g27
sg28
(lp2176
VAllan Houston
p2177
assbag1
(g2
g3
Ntp2178
Rp2179
(dp2180
g7
(dp2181
g9
V1998-99 Upper Deck Ovation Gold #46 Larry Johnson
p2182
sg11
I1000
sg12
VUpper Deck Ovation Gold
p2183
sg14
(lp2184
Vhttp://www.beckett.com/basketball/1998-99/upper-deck-ovation-gold/46-larry-johnson-3155602
p2185
asg17
g18
sg19
(lp2186
Vhttp://img.beckett.com/images/no-image.jpg
p2187
asg22
V#46
p2188
sg24
V1998-99
p2189
sg26
g27
sg28
(lp2190
VLarry Johnson
p2191
assbag1
(g2
g3
Ntp2192
Rp2193
(dp2194
g7
(dp2195
g9
V1998-99 Black Diamond Diamond Dominance #D18 Allan Houston
p2196
sg11
I1000
sg12
VBlack Diamond Diamond Dominance
p2197
sg14
(lp2198
Vhttp://www.beckett.com/basketball/1998-99/black-diamond-diamond-dominance/d18-allan-houston-3170859
p2199
asg17
g18
sg19
(lp2200
Vhttp://img.beckett.com/images/no-image.jpg
p2201
asg22
V#D18
p2202
sg24
V1998-99
p2203
sg26
g27
sg28
(lp2204
VAllan Houston
p2205
assbag1
(g2
g3
Ntp2206
Rp2207
(dp2208
g7
(dp2209
g9
V1998-99 Hoops Rejectors #7 Patrick Ewing
p2210
sg11
I2500
sg12
VHoops Rejectors
p2211
sg14
(lp2212
Vhttp://www.beckett.com/basketball/1998-99/hoops-rejectors/7-patrick-ewing-3166460
p2213
asg17
g18
sg19
(lp2214
Vhttp://img.beckett.com/images/no-image.jpg
p2215
asg22
V#7
p2216
sg24
V1998-99
p2217
sg26
g27
sg28
(lp2218
VPatrick Ewing
p2219
assbag1
(g2
g3
Ntp2220
Rp2221
(dp2222
g7
(dp2223
g9
V1998-99 Black Diamond Diamond Dominance Emerald #D18 Allan Houston
p2224
sg11
I100
sg12
VBlack Diamond Diamond Dominance Emerald
p2225
sg14
(lp2226
Vhttp://www.beckett.com/basketball/1998-99/black-diamond-diamond-dominance-emerald/d18-allan-houston-3170898
p2227
asg17
g18
sg19
(lp2228
Vhttp://img.beckett.com/images/no-image.jpg
p2229
asg22
V#D18
p2230
sg24
V1998-99
p2231
sg26
g27
sg28
(lp2232
VAllan Houston
p2233
assbag1
(g2
g3
Ntp2234
Rp2235
(dp2236
g7
(dp2237
g9
V1998-99 Bowman's Best Mirror Image Atomic Refractors #MI9 Latrell Sprewell/Antoine Walker
p2238
sg11
I25
sg12
VBowman's Best Mirror Image Atomic Refractors
p2239
sg14
(lp2240
Vhttp://www.beckett.com/basketball/1998-99/bowmans-best-mirror-image-atomic-refractors/mi9-latrell-sprewellantoine-walker-3171552
p2241
asg17
g18
sg19
(lp2242
Vhttp://img.beckett.com/images/no-image.jpg
p2243
asg22
V#MI9
p2244
sg24
V1998-99
p2245
sg26
g27
sg28
(lp2246
VLatrell Sprewell
p2247
aVAntoine Walker
p2248
assbag1
(g2
g3
Ntp2249
Rp2250
(dp2251
g7
(dp2252
g9
V1998-99 Bowman's Best Mirror Image Refractors #MI9 Latrell Sprewell/Antoine Walker
p2253
sg11
I100
sg12
VBowman's Best Mirror Image Refractors
p2254
sg14
(lp2255
Vhttp://www.beckett.com/basketball/1998-99/bowmans-best-mirror-image-refractors/mi9-latrell-sprewellantoine-walker-3171580
p2256
asg17
g18
sg19
(lp2257
Vhttp://img.beckett.com/images/no-image.jpg
p2258
asg22
V#MI9
p2259
sg24
V1998-99
p2260
sg26
g27
sg28
(lp2261
VLatrell Sprewell
p2262
aVAntoine Walker
p2263
assbag1
(g2
g3
Ntp2264
Rp2265
(dp2266
g7
(dp2267
g9
V1998-99 E-X Century Essential Credentials Future #8 Latrell Sprewell/83
p2268
sg11
I83
sg12
VE-X Century Essential Credentials Future
p2269
sg14
(lp2270
Vhttp://www.beckett.com/basketball/1998-99/e-x-century-essential-credentials-future/8-latrell-sprewell83-3168959
p2271
asg17
g18
sg19
(lp2272
Vhttp://img.beckett.com/images/no-image.jpg
p2273
asg22
V#8
p2274
sg24
V1998-99
p2275
sg26
g27
sg28
(lp2276
VLatrell Sprewell
p2277
assbag1
(g2
g3
Ntp2278
Rp2279
(dp2280
g7
(dp2281
g9
V1998-99 E-X Century Essential Credentials Future #24 Patrick Ewing/67
p2282
sg11
I67
sg12
VE-X Century Essential Credentials Future
p2283
sg14
(lp2284
Vhttp://www.beckett.com/basketball/1998-99/e-x-century-essential-credentials-future/24-patrick-ewing67-3168975
p2285
asg17
g18
sg19
(lp2286
Vhttp://img.beckett.com/images/no-image.jpg
p2287
asg22
V#24
p2288
sg24
V1998-99
p2289
sg26
g27
sg28
(lp2290
VPatrick Ewing
p2291
assbag1
(g2
g3
Ntp2292
Rp2293
(dp2294
g7
(dp2295
g9
V1998-99 E-X Century Essential Credentials Now #8 Latrell Sprewell/8
p2296
sg11
I8
sg12
VE-X Century Essential Credentials Now
p2297
sg14
(lp2298
Vhttp://www.beckett.com/basketball/1998-99/e-x-century-essential-credentials-now/8-latrell-sprewell8-3169056
p2299
asg17
g18
sg19
(lp2300
Vhttp://img.beckett.com/images/no-image.jpg
p2301
asg22
V#8
p2302
sg24
V1998-99
p2303
sg26
g27
sg28
(lp2304
VLatrell Sprewell
p2305
assbag1
(g2
g3
Ntp2306
Rp2307
(dp2308
g7
(dp2309
g9
V1998-99 E-X Century Essential Credentials Now #24 Patrick Ewing/24
p2310
sg11
I24
sg12
VE-X Century Essential Credentials Now
p2311
sg14
(lp2312
Vhttp://www.beckett.com/basketball/1998-99/e-x-century-essential-credentials-now/24-patrick-ewing24-3169072
p2313
asg17
g18
sg19
(lp2314
Vhttp://img.beckett.com/images/no-image.jpg
p2315
asg22
V#24
p2316
sg24
V1998-99
p2317
sg26
g27
sg28
(lp2318
VPatrick Ewing
p2319
assbag1
(g2
g3
Ntp2320
Rp2321
(dp2322
g7
(dp2323
g9
V1998-99 SkyBox Premium Autographics Blue #56 Allan Houston
p2324
sg11
I50
sg12
VSkyBox Premium Autographics Blue
p2325
sg14
(lp2326
Vhttp://www.beckett.com/basketball/1998-99/skybox-premium-autographics-blue/56-allan-houston-3165611
p2327
asg17
g18
sg19
(lp2328
Vhttp://img.beckett.com/images/no-image.jpg
p2329
asg22
V#56
p2330
sS'autograph'
p2331
I1
sg24
V1998-99
p2332
sg26
g27
sg28
(lp2333
VAllan Houston
p2334
assbag1
(g2
g3
Ntp2335
Rp2336
(dp2337
g7
(dp2338
g9
V1998-99 SkyBox Premium Autographics Blue #65 Larry Johnson
p2339
sg11
I50
sg12
VSkyBox Premium Autographics Blue
p2340
sg14
(lp2341
Vhttp://www.beckett.com/basketball/1998-99/skybox-premium-autographics-blue/65-larry-johnson-3165620
p2342
asg17
g18
sg19
(lp2343
Vhttp://img.beckett.com/images/no-image.jpg
p2344
asg22
V#65
p2345
sg2331
I1
sg24
V1998-99
p2346
sg26
g27
sg28
(lp2347
VLarry Johnson
p2348
assbag1
(g2
g3
Ntp2349
Rp2350
(dp2351
g7
(dp2352
g9
V1998-99 UD Choice StarQuest Gold #SQ18 Patrick Ewing
p2353
sg11
I100
sg12
VUD Choice StarQuest Gold
p2354
sg14
(lp2355
Vhttp://www.beckett.com/basketball/1998-99/ud-choice-starquest-gold/sq18-patrick-ewing-3159479
p2356
asg17
g18
sg19
(lp2357
Vhttp://img.beckett.com/images/no-image.jpg
p2358
asg22
V#SQ18
p2359
sg24
V1998-99
p2360
sg26
g27
sg28
(lp2361
VPatrick Ewing
p2362
assbag1
(g2
g3
Ntp2363
Rp2364
(dp2365
g7
(dp2366
g9
V1998-99 Upper Deck AeroDynamics Bronze #A19 Allan Houston
p2367
sg11
I2000
sg12
VUpper Deck AeroDynamics Bronze
p2368
sg14
(lp2369
Vhttp://www.beckett.com/basketball/1998-99/upper-deck-aerodynamics-bronze/a19-allan-houston-3155738
p2370
asg17
g18
sg19
(lp2371
Vhttp://img.beckett.com/images/items_stock/185226/3155712/3155738/front.jpg
p2372
asg22
V#A19
p2373
sg24
V1998-99
p2374
sg26
g27
sg28
(lp2375
VAllan Houston
p2376
assbag1
(g2
g3
Ntp2377
Rp2378
(dp2379
g7
(dp2380
g9
V1998-99 Upper Deck AeroDynamics Silver #A19 Allan Houston
p2381
sg11
I100
sg12
VUpper Deck AeroDynamics Silver
p2382
sg14
(lp2383
Vhttp://www.beckett.com/basketball/1998-99/upper-deck-aerodynamics-silver/a19-allan-houston-3155814
p2384
asg17
g18
sg19
(lp2385
Vhttp://img.beckett.com/images/no-image.jpg
p2386
asg22
V#A19
p2387
sg24
V1998-99
p2388
sg26
g27
sg28
(lp2389
VAllan Houston
p2390
assbag1
(g2
g3
Ntp2391
Rp2392
(dp2393
g7
(dp2394
g9
V1998-99 Upper Deck AeroDynamics Gold #A19 Allan Houston
p2395
sg11
I25
sg12
VUpper Deck AeroDynamics Gold
p2396
sg14
(lp2397
Vhttp://www.beckett.com/basketball/1998-99/upper-deck-aerodynamics-gold/a19-allan-houston-3155776
p2398
asg17
g18
sg19
(lp2399
Vhttp://img.beckett.com/images/no-image.jpg
p2400
asg22
V#A19
p2401
sg24
V1998-99
p2402
sg26
g27
sg28
(lp2403
VAllan Houston
p2404
assbag1
(g2
g3
Ntp2405
Rp2406
(dp2407
g7
(dp2408
g9
V1998-99 Upper Deck Forces Bronze #F6 Allan Houston
p2409
sg11
I1000
sg12
VUpper Deck Forces Bronze
p2410
sg14
(lp2411
Vhttp://www.beckett.com/basketball/1998-99/upper-deck-forces-bronze/f6-allan-houston-3155883
p2412
asg17
g18
sg19
(lp2413
Vhttp://img.beckett.com/images/items_stock/185226/3155870/3155883/front.jpg
p2414
asg22
V#F6
p2415
sg24
V1998-99
p2416
sg26
g27
sg28
(lp2417
VAllan Houston
p2418
assbag1
(g2
g3
Ntp2419
Rp2420
(dp2421
g7
(dp2422
g9
V1998-99 Upper Deck Forces Silver #F6 Allan Houston
p2423
sg11
I50
sg12
VUpper Deck Forces Silver
p2424
sg14
(lp2425
Vhttp://www.beckett.com/basketball/1998-99/upper-deck-forces-silver/f6-allan-houston-3155959
p2426
asg17
g18
sg19
(lp2427
Vhttp://img.beckett.com/images/no-image.jpg
p2428
asg22
V#F6
p2429
sg24
V1998-99
p2430
sg26
g27
sg28
(lp2431
VAllan Houston
p2432
assbag1
(g2
g3
Ntp2433
Rp2434
(dp2435
g7
(dp2436
g9
V1998-99 Upper Deck Forces Gold #F6 Allan Houston
p2437
sg11
I25
sg12
VUpper Deck Forces Gold
p2438
sg14
(lp2439
Vhttp://www.beckett.com/basketball/1998-99/upper-deck-forces-gold/f6-allan-houston-3155921
p2440
asg17
g18
sg19
(lp2441
Vhttp://img.beckett.com/images/no-image.jpg
p2442
asg22
V#F6
p2443
sg24
V1998-99
p2444
sg26
g27
sg28
(lp2445
VAllan Houston
p2446
assbag1
(g2
g3
Ntp2447
Rp2448
(dp2449
g7
(dp2450
g9
V1998-99 Upper Deck Next Wave Bronze #NW19 Allan Houston
p2451
sg11
I1500
sg12
VUpper Deck Next Wave Bronze
p2452
sg14
(lp2453
Vhttp://www.beckett.com/basketball/1998-99/upper-deck-next-wave-bronze/nw19-allan-houston-3156470
p2454
asg17
g18
sg19
(lp2455
Vhttp://img.beckett.com/images/no-image.jpg
p2456
asg22
V#NW19
p2457
sg24
V1998-99
p2458
sg26
g27
sg28
(lp2459
VAllan Houston
p2460
assbag1
(g2
g3
Ntp2461
Rp2462
(dp2463
g7
(dp2464
g9
V1998-99 Upper Deck Next Wave Silver #NW19 Allan Houston
p2465
sg11
I200
sg12
VUpper Deck Next Wave Silver
p2466
sg14
(lp2467
Vhttp://www.beckett.com/basketball/1998-99/upper-deck-next-wave-silver/nw19-allan-houston-3156546
p2468
asg17
g18
sg19
(lp2469
Vhttp://img.beckett.com/images/no-image.jpg
p2470
asg22
V#NW19
p2471
sg24
V1998-99
p2472
sg26
g27
sg28
(lp2473
VAllan Houston
p2474
assbag1
(g2
g3
Ntp2475
Rp2476
(dp2477
g7
(dp2478
g9
V1998-99 Upper Deck Next Wave Gold #NW19 Allan Houston
p2479
sg11
I75
sg12
VUpper Deck Next Wave Gold
p2480
sg14
(lp2481
Vhttp://www.beckett.com/basketball/1998-99/upper-deck-next-wave-gold/nw19-allan-houston-3156508
p2482
asg17
g18
sg19
(lp2483
Vhttp://img.beckett.com/images/no-image.jpg
p2484
asg22
V#NW19
p2485
sg24
V1998-99
p2486
sg26
g27
sg28
(lp2487
VAllan Houston
p2488
assbag1
(g2
g3
Ntp2489
Rp2490
(dp2491
g7
(dp2492
g9
V1998-99 Upper Deck Super Powers Bronze #S18 Allan Houston
p2493
sg11
I1000
sg12
VUpper Deck Super Powers Bronze
p2494
sg14
(lp2495
Vhttp://www.beckett.com/basketball/1998-99/upper-deck-super-powers-bronze/s18-allan-houston-3154825
p2496
asg17
g18
sg19
(lp2497
Vhttp://img.beckett.com/images/items_stock/185226/3154800/3154825/front.jpg
p2498
asg22
V#S18
p2499
sg24
V1998-99
p2500
sg26
g27
sg28
(lp2501
VAllan Houston
p2502
assbag1
(g2
g3
Ntp2503
Rp2504
(dp2505
g7
(dp2506
g9
V1998-99 Upper Deck Super Powers Silver #S18 Allan Houston
p2507
sg11
I100
sg12
VUpper Deck Super Powers Silver
p2508
sg14
(lp2509
Vhttp://www.beckett.com/basketball/1998-99/upper-deck-super-powers-silver/s18-allan-houston-3154901
p2510
asg17
g18
sg19
(lp2511
Vhttp://img.beckett.com/images/no-image.jpg
p2512
asg22
V#S18
p2513
sg24
V1998-99
p2514
sg26
g27
sg28
(lp2515
VAllan Houston
p2516
assbag1
(g2
g3
Ntp2517
Rp2518
(dp2519
g7
(dp2520
g9
V1998-99 Upper Deck Super Powers Gold #S18 Allan Houston
p2521
sg11
I50
sg12
VUpper Deck Super Powers Gold
p2522
sg14
(lp2523
Vhttp://www.beckett.com/basketball/1998-99/upper-deck-super-powers-gold/s18-allan-houston-3154863
p2524
asg17
g18
sg19
(lp2525
Vhttp://img.beckett.com/images/no-image.jpg
p2526
asg22
V#S18
p2527
sg24
V1998-99
p2528
sg26
g27
sg28
(lp2529
VAllan Houston
p2530
assba.