(lp0
Naccopy_reg
_reconstructor
p1
(ctutorial.items
BeckettItem
p2
c__builtin__
object
p3
Ntp4
Rp5
(dp6
S'_values'
p7
(dp8
S'originalItemDescription'
p9
V1998 Upper Deck Hardcourt Home Court Advantage Plus #4 Keith Van Horn
p10
sS'serialNumber'
p11
I500
sS'setName'
p12
VUpper Deck Hardcourt Home Court Advantage Plus
p13
sS'beckettLink'
p14
(lp15
Vhttp://www.beckett.com/basketball/1998/upper-deck-hardcourt-home-court-advantage-plus/4-keith-van-horn-3150416
p16
asS'team'
p17
S'New Jersey Nets'
p18
sS'imageLink'
p19
(lp20
Vhttp://img.beckett.com/images/no-image.jpg
p21
asS'cardNumber'
p22
V#4
p23
sS'year'
p24
V1998
p25
sS'sport'
p26
S'Basketball'
p27
sS'playerNames'
p28
(lp29
VKeith Van Horn
p30
assbag1
(g2
g3
Ntp31
Rp32
(dp33
g7
(dp34
g9
V1998 Upper Deck Hardcourt Home Court Advantage Plus #39 Sam Cassell
p35
sg11
I500
sg12
VUpper Deck Hardcourt Home Court Advantage Plus
p36
sg14
(lp37
Vhttp://www.beckett.com/basketball/1998/upper-deck-hardcourt-home-court-advantage-plus/39-sam-cassell-3150451
p38
asg17
g18
sg19
(lp39
Vhttp://img.beckett.com/images/no-image.jpg
p40
asg22
V#39
p41
sg24
V1998
p42
sg26
g27
sg28
(lp43
VSam Cassell
p44
assbag1
(g2
g3
Ntp45
Rp46
(dp47
g7
(dp48
g9
V1998 Upper Deck Hardcourt Home Court Advantage Plus #49 Jayson Williams
p49
sg11
I500
sg12
VUpper Deck Hardcourt Home Court Advantage Plus
p50
sg14
(lp51
Vhttp://www.beckett.com/basketball/1998/upper-deck-hardcourt-home-court-advantage-plus/49-jayson-williams-3150461
p52
asg17
g18
sg19
(lp53
Vhttp://img.beckett.com/images/no-image.jpg
p54
asg22
V#49
p55
sg24
V1998
p56
sg26
g27
sg28
(lp57
VJayson Williams
p58
assbag1
(g2
g3
Ntp59
Rp60
(dp61
g7
(dp62
g9
V1998 Upper Deck Hardcourt Home Court Advantage Plus #72 Keith Van Horn RE
p63
sg11
I500
sg12
VUpper Deck Hardcourt Home Court Advantage Plus
p64
sg14
(lp65
Vhttp://www.beckett.com/basketball/1998/upper-deck-hardcourt-home-court-advantage-plus/72-keith-van-horn-re-3150484
p66
asg17
g18
sg19
(lp67
Vhttp://img.beckett.com/images/no-image.jpg
p68
asg22
V#72
p69
sg24
V1998
p70
sS'subsetName'
p71
VRE
p72
sg26
g27
sg28
(lp73
VKeith Van Horn
p74
assbag1
(g2
g3
Ntp75
Rp76
(dp77
g7
(dp78
g9
V1998 Upper Deck Hardcourt High Court #H17 Keith Van Horn
p79
sg11
I1300
sg12
VUpper Deck Hardcourt High Court
p80
sg14
(lp81
Vhttp://www.beckett.com/basketball/1998/upper-deck-hardcourt-high-court/h17-keith-van-horn-3150526
p82
asg17
g18
sg19
(lp83
Vhttp://img.beckett.com/images/items_stock/185226/3150503/3150526/front.jpg
p84
asg22
V#H17
p85
sg24
V1998
p86
sg26
g27
sg28
(lp87
VKeith Van Horn
p88
assbag1
(g2
g3
Ntp89
Rp90
(dp91
g7
(dp92
g9
V1998 Upper Deck Hardcourt Jordan Holding Court Red #J17 Keith Van Horn/Michael Jordan
p93
sg11
I2300
sg12
VUpper Deck Hardcourt Jordan Holding Court Red
p94
sg14
(lp95
Vhttp://www.beckett.com/basketball/1998/upper-deck-hardcourt-jordan-holding-court-red/j17-keith-van-hornmichael-jordan-3150570
p96
asg17
g18
sg19
(lp97
Vhttp://img.beckett.com/images/no-image.jpg
p98
asg22
V#J17
p99
sg24
V1998
p100
sg26
g27
sg28
(lp101
VKeith Van Horn
p102
aVMichael Jordan
p103
assbag1
(g2
g3
Ntp104
Rp105
(dp106
g7
(dp107
g9
V1998 Upper Deck Hardcourt Jordan Holding Court Bronze #J17 Keith Van Horn/Michael Jordan
p108
sg11
I230
sg12
VUpper Deck Hardcourt Jordan Holding Court Bronze
p109
sg14
(lp110
Vhttp://www.beckett.com/basketball/1998/upper-deck-hardcourt-jordan-holding-court-bronze/j17-keith-van-hornmichael-jordan-3150608
p111
asg17
g18
sg19
(lp112
Vhttp://img.beckett.com/images/no-image.jpg
p113
asg22
V#J17
p114
sg24
V1998
p115
sg26
g27
sg28
(lp116
VKeith Van Horn
p117
aVMichael Jordan
p118
assbag1
(g2
g3
Ntp119
Rp120
(dp121
g7
(dp122
g9
V1998 Upper Deck Hardcourt Jordan Holding Court Silver #J17 Keith Van Horn/Michael Jordan
p123
sg11
I23
sg12
VUpper Deck Hardcourt Jordan Holding Court Silver
p124
sg14
(lp125
Vhttp://www.beckett.com/basketball/1998/upper-deck-hardcourt-jordan-holding-court-silver/j17-keith-van-hornmichael-jordan-3150683
p126
asg17
g18
sg19
(lp127
Vhttp://img.beckett.com/images/no-image.jpg
p128
asg22
V#J17
p129
sg24
V1998
p130
sg26
g27
sg28
(lp131
VKeith Van Horn
p132
aVMichael Jordan
p133
assbag1
(g2
g3
Ntp134
Rp135
(dp136
g7
(dp137
g9
V1998 Upper Deck Hardcourt Jordan Holding Court Gold #J17 Keith Van Horn/Michael Jordan
p138
sg11
I1
sg12
VUpper Deck Hardcourt Jordan Holding Court Gold
p139
sg14
(lp140
Vhttp://www.beckett.com/basketball/1998/upper-deck-hardcourt-jordan-holding-court-gold/j17-keith-van-hornmichael-jordan-3150645
p141
asg17
g18
sg19
(lp142
Vhttp://img.beckett.com/images/no-image.jpg
p143
asg22
V#J17
p144
sg24
V1998
p145
sg26
g27
sg28
(lp146
VKeith Van Horn
p147
aVMichael Jordan
p148
assbag1
(g2
g3
Ntp149
Rp150
(dp151
g7
(dp152
g9
V1998-99 SPx Finite #3 Keith Van Horn
p153
sg11
I10000
sg12
VSPx Finite
p154
sg14
(lp155
Vhttp://www.beckett.com/basketball/1998-99/spx-finite/3-keith-van-horn-3163279
p156
asg17
g18
sg19
(lp157
Vhttp://img.beckett.com/images/items_stock/185226/3163241/3163279/front_old.jpg
p158
asg22
V#3
p159
sg24
V1998-99
p160
sg26
g27
sg28
(lp161
VKeith Van Horn
p162
assbag1
(g2
g3
Ntp163
Rp164
(dp165
g7
(dp166
g9
V1998-99 SPx Finite #28 Sam Cassell
p167
sg11
I10000
sg12
VSPx Finite
p168
sg14
(lp169
Vhttp://www.beckett.com/basketball/1998-99/spx-finite/28-sam-cassell-3163304
p170
asg17
g18
sg19
(lp171
Vhttp://img.beckett.com/images/items_stock/185226/3163241/3163304/front.jpg
p172
asg22
V#28
p173
sg24
V1998-99
p174
sg26
g27
sg28
(lp175
VSam Cassell
p176
assbag1
(g2
g3
Ntp177
Rp178
(dp179
g7
(dp180
g9
V1998-99 SPx Finite #72 Kerry Kittles
p181
sg11
I10000
sg12
VSPx Finite
p182
sg14
(lp183
Vhttp://www.beckett.com/basketball/1998-99/spx-finite/72-kerry-kittles-3163348
p184
asg17
g18
sg19
(lp185
Vhttp://img.beckett.com/images/items_stock/185226/3163241/3163348/front.jpg
p186
asg22
V#72
p187
sg24
V1998-99
p188
sg26
g27
sg28
(lp189
VKerry Kittles
p190
assbag1
(g2
g3
Ntp191
Rp192
(dp193
g7
(dp194
g9
V1998-99 SPx Finite #102 Keith Van Horn SP
p195
sg11
I5400
sg12
VSPx Finite
p196
sg14
(lp197
Vhttp://www.beckett.com/basketball/1998-99/spx-finite/102-keith-van-horn-sp-3163378
p198
asg17
g18
sg19
(lp199
Vhttp://img.beckett.com/images/items_stock/185226/3163241/3163378/front.jpg
p200
asg22
V#102
p201
sg24
V1998-99
p202
sg71
VSP
p203
sg26
g27
sg28
(lp204
VKeith Van Horn
p205
assbag1
(g2
g3
Ntp206
Rp207
(dp208
g7
(dp209
g9
V1998-99 SPx Finite #119 Sam Cassell SP
p210
sg11
I5400
sg12
VSPx Finite
p211
sg14
(lp212
Vhttp://www.beckett.com/basketball/1998-99/spx-finite/119-sam-cassell-sp-3163395
p213
asg17
g18
sg19
(lp214
Vhttp://img.beckett.com/images/items_stock/185226/3163241/3163395/front.jpg
p215
asg22
V#119
p216
sg24
V1998-99
p217
sg71
VSP
p218
sg26
g27
sg28
(lp219
VSam Cassell
p220
assbag1
(g2
g3
Ntp221
Rp222
(dp223
g7
(dp224
g9
V1998-99 SPx Finite #127 Kerry Kittles SP
p225
sg11
I5400
sg12
VSPx Finite
p226
sg14
(lp227
Vhttp://www.beckett.com/basketball/1998-99/spx-finite/127-kerry-kittles-sp-3163403
p228
asg17
g18
sg19
(lp229
Vhttp://img.beckett.com/images/items_stock/185226/3163241/3163403/front.jpg
p230
asg22
V#127
p231
sg24
V1998-99
p232
sg71
VSP
p233
sg26
g27
sg28
(lp234
VKerry Kittles
p235
assbag1
(g2
g3
Ntp236
Rp237
(dp238
g7
(dp239
g9
V1998-99 SPx Finite #174 Keith Van Horn SPx
p240
sg11
I4050
sg12
VSPx Finite
p241
sg14
(lp242
Vhttp://www.beckett.com/basketball/1998-99/spx-finite/174-keith-van-horn-spx-3163450
p243
asg17
g18
sg19
(lp244
Vhttp://img.beckett.com/images/items_stock/185226/3163241/3163450/front.jpg
p245
asg22
V#174
p246
sg24
V1998-99
p247
sg71
VSPx
p248
sg26
g27
sg28
(lp249
VKeith Van Horn
p250
assbag1
(g2
g3
Ntp251
Rp252
(dp253
g7
(dp254
g9
V1998-99 SPx Finite #176 Kerry Kittles SPx
p255
sg11
I4050
sg12
VSPx Finite
p256
sg14
(lp257
Vhttp://www.beckett.com/basketball/1998-99/spx-finite/176-kerry-kittles-spx-3163452
p258
asg17
g18
sg19
(lp259
Vhttp://img.beckett.com/images/items_stock/185226/3163241/3163452/front.jpg
p260
asg22
V#176
p261
sg24
V1998-99
p262
sg71
VSPx
p263
sg26
g27
sg28
(lp264
VKerry Kittles
p265
assbag1
(g2
g3
Ntp266
Rp267
(dp268
g7
(dp269
g9
V1998-99 Black Diamond Double Diamond #58 Kerry Kittles
p270
sg11
I3000
sg12
VBlack Diamond Double Diamond
p271
sg14
(lp272
Vhttp://www.beckett.com/basketball/1998-99/black-diamond-double-diamond/58-kerry-kittles-3171965
p273
asg17
g18
sg19
(lp274
Vhttp://img.beckett.com/images/items_stock/185226/3171898/3171965/front.jpg
p275
asg22
V#58
p276
sg24
V1998-99
p277
sg26
g27
sg28
(lp278
VKerry Kittles
p279
assbag1
(g2
g3
Ntp280
Rp281
(dp282
g7
(dp283
g9
V1998-99 Black Diamond Double Diamond #59 Jayson Williams
p284
sg11
I3000
sg12
VBlack Diamond Double Diamond
p285
sg14
(lp286
Vhttp://www.beckett.com/basketball/1998-99/black-diamond-double-diamond/59-jayson-williams-3171966
p287
asg17
g18
sg19
(lp288
Vhttp://img.beckett.com/images/items_stock/185226/3171898/3171966/front.jpg
p289
asg22
V#59
p290
sg24
V1998-99
p291
sg26
g27
sg28
(lp292
VJayson Williams
p293
assbag1
(g2
g3
Ntp294
Rp295
(dp296
g7
(dp297
g9
V1998-99 Black Diamond Double Diamond #60 Keith Van Horn
p298
sg11
I3000
sg12
VBlack Diamond Double Diamond
p299
sg14
(lp300
Vhttp://www.beckett.com/basketball/1998-99/black-diamond-double-diamond/60-keith-van-horn-3171967
p301
asg17
g18
sg19
(lp302
Vhttp://img.beckett.com/images/items_stock/185226/3171898/3171967/front.jpg
p303
asg22
V#60
p304
sg24
V1998-99
p305
sg26
g27
sg28
(lp306
VKeith Van Horn
p307
assbag1
(g2
g3
Ntp308
Rp309
(dp310
g7
(dp311
g9
V1998-99 Black Diamond Triple Diamond #58 Kerry Kittles
p312
sg11
I1500
sg12
VBlack Diamond Triple Diamond
p313
sg14
(lp314
Vhttp://www.beckett.com/basketball/1998-99/black-diamond-triple-diamond/58-kerry-kittles-3172095
p315
asg17
g18
sg19
(lp316
Vhttp://img.beckett.com/images/items_stock/185226/3172028/3172095/front.jpg
p317
asg22
V#58
p318
sg24
V1998-99
p319
sg26
g27
sg28
(lp320
VKerry Kittles
p321
assbag1
(g2
g3
Ntp322
Rp323
(dp324
g7
(dp325
g9
V1998-99 Black Diamond Triple Diamond #59 Jayson Williams
p326
sg11
I1500
sg12
VBlack Diamond Triple Diamond
p327
sg14
(lp328
Vhttp://www.beckett.com/basketball/1998-99/black-diamond-triple-diamond/59-jayson-williams-3172096
p329
asg17
g18
sg19
(lp330
Vhttp://img.beckett.com/images/items_stock/185226/3172028/3172096/front.jpg
p331
asg22
V#59
p332
sg24
V1998-99
p333
sg26
g27
sg28
(lp334
VJayson Williams
p335
assbag1
(g2
g3
Ntp336
Rp337
(dp338
g7
(dp339
g9
V1998-99 Black Diamond Triple Diamond #60 Keith Van Horn
p340
sg11
I1500
sg12
VBlack Diamond Triple Diamond
p341
sg14
(lp342
Vhttp://www.beckett.com/basketball/1998-99/black-diamond-triple-diamond/60-keith-van-horn-3172097
p343
asg17
g18
sg19
(lp344
Vhttp://img.beckett.com/images/no-image.jpg
p345
asg22
V#60
p346
sg24
V1998-99
p347
sg26
g27
sg28
(lp348
VKeith Van Horn
p349
assbag1
(g2
g3
Ntp350
Rp351
(dp352
g7
(dp353
g9
V1998-99 Black Diamond Quadruple Diamond #58 Kerry Kittles
p354
sg11
I150
sg12
VBlack Diamond Quadruple Diamond
p355
sg14
(lp356
Vhttp://www.beckett.com/basketball/1998-99/black-diamond-quadruple-diamond/58-kerry-kittles-3170766
p357
asg17
g18
sg19
(lp358
Vhttp://img.beckett.com/images/no-image.jpg
p359
asg22
V#58
p360
sg24
V1998-99
p361
sg26
g27
sg28
(lp362
VKerry Kittles
p363
assbag1
(g2
g3
Ntp364
Rp365
(dp366
g7
(dp367
g9
V1998-99 Black Diamond Quadruple Diamond #59 Jayson Williams
p368
sg11
I150
sg12
VBlack Diamond Quadruple Diamond
p369
sg14
(lp370
Vhttp://www.beckett.com/basketball/1998-99/black-diamond-quadruple-diamond/59-jayson-williams-3170767
p371
asg17
g18
sg19
(lp372
Vhttp://img.beckett.com/images/no-image.jpg
p373
asg22
V#59
p374
sg24
V1998-99
p375
sg26
g27
sg28
(lp376
VJayson Williams
p377
assbag1
(g2
g3
Ntp378
Rp379
(dp380
g7
(dp381
g9
V1998-99 Black Diamond Quadruple Diamond #60 Keith Van Horn
p382
sg11
I150
sg12
VBlack Diamond Quadruple Diamond
p383
sg14
(lp384
Vhttp://www.beckett.com/basketball/1998-99/black-diamond-quadruple-diamond/60-keith-van-horn-3170768
p385
asg17
g18
sg19
(lp386
Vhttp://img.beckett.com/images/no-image.jpg
p387
asg22
V#60
p388
sg24
V1998-99
p389
sg26
g27
sg28
(lp390
VKeith Van Horn
p391
assbag1
(g2
g3
Ntp392
Rp393
(dp394
g7
(dp395
g9
V1998-99 Bowman's Best Refractors #29 Kerry Kittles
p396
sg11
I400
sg12
VBowman's Best Refractors
p397
sg14
(lp398
Vhttp://www.beckett.com/basketball/1998-99/bowmans-best-refractors/29-kerry-kittles-3171188
p399
asg17
g18
sg19
(lp400
Vhttp://img.beckett.com/images/items_stock/185226/3171150/3171188/front.jpg
p401
asg22
V#29
p402
sg24
V1998-99
p403
sg26
g27
sg28
(lp404
VKerry Kittles
p405
assbag1
(g2
g3
Ntp406
Rp407
(dp408
g7
(dp409
g9
V1998-99 Bowman's Best Refractors #33 Kendall Gill
p410
sg11
I400
sg12
VBowman's Best Refractors
p411
sg14
(lp412
Vhttp://www.beckett.com/basketball/1998-99/bowmans-best-refractors/33-kendall-gill-3171192
p413
asg17
g18
sg19
(lp414
Vhttp://img.beckett.com/images/no-image.jpg
p415
asg22
V#33
p416
sg24
V1998-99
p417
sg26
g27
sg28
(lp418
VKendall Gill
p419
assbag1
(g2
g3
Ntp420
Rp421
(dp422
g7
(dp423
g9
V1998-99 Bowman's Best Refractors #34 Tim Thomas
p424
sg11
I400
sg12
VBowman's Best Refractors
p425
sg14
(lp426
Vhttp://www.beckett.com/basketball/1998-99/bowmans-best-refractors/34-tim-thomas-3171193
p427
asg17
g18
sg19
(lp428
Vhttp://img.beckett.com/images/items_stock/185226/3171150/3171193/front.jpg
p429
asg22
V#34
p430
sg24
V1998-99
p431
sg26
g27
sg28
(lp432
VTim Thomas
p433
assbag1
(g2
g3
Ntp434
Rp435
(dp436
g7
(dp437
g9
V1998-99 Bowman's Best Refractors #45 Jayson Williams
p438
sg11
I400
sg12
VBowman's Best Refractors
p439
sg14
(lp440
Vhttp://www.beckett.com/basketball/1998-99/bowmans-best-refractors/45-jayson-williams-3171204
p441
asg17
g18
sg19
(lp442
Vhttp://img.beckett.com/images/items_stock/185226/3171150/3171204/front.jpg
p443
asg22
V#45
p444
sg24
V1998-99
p445
sg26
g27
sg28
(lp446
VJayson Williams
p447
assbag1
(g2
g3
Ntp448
Rp449
(dp450
g7
(dp451
g9
V1998-99 Bowman's Best Refractors #70 Keith Van Horn
p452
sg11
I400
sg12
VBowman's Best Refractors
p453
sg14
(lp454
Vhttp://www.beckett.com/basketball/1998-99/bowmans-best-refractors/70-keith-van-horn-3171229
p455
asg17
g18
sg19
(lp456
Vhttp://img.beckett.com/images/items_stock/185226/3171150/3171229/front.jpg
p457
asg22
V#70
p458
sg24
V1998-99
p459
sg26
g27
sg28
(lp460
VKeith Van Horn
p461
assbag1
(g2
g3
Ntp462
Rp463
(dp464
g7
(dp465
g9
V1998-99 Bowman's Best Atomic Refractors #29 Kerry Kittles
p466
sg11
I100
sg12
VBowman's Best Atomic Refractors
p467
sg14
(lp468
Vhttp://www.beckett.com/basketball/1998-99/bowmans-best-atomic-refractors/29-kerry-kittles-3171323
p469
asg17
g18
sg19
(lp470
Vhttp://img.beckett.com/images/no-image.jpg
p471
asg22
V#29
p472
sg24
V1998-99
p473
sg26
g27
sg28
(lp474
VKerry Kittles
p475
assbag1
(g2
g3
Ntp476
Rp477
(dp478
g7
(dp479
g9
V1998-99 Bowman's Best Atomic Refractors #33 Kendall Gill
p480
sg11
I100
sg12
VBowman's Best Atomic Refractors
p481
sg14
(lp482
Vhttp://www.beckett.com/basketball/1998-99/bowmans-best-atomic-refractors/33-kendall-gill-3171327
p483
asg17
g18
sg19
(lp484
Vhttp://img.beckett.com/images/no-image.jpg
p485
asg22
V#33
p486
sg24
V1998-99
p487
sg26
g27
sg28
(lp488
VKendall Gill
p489
assbag1
(g2
g3
Ntp490
Rp491
(dp492
g7
(dp493
g9
V1998-99 Bowman's Best Atomic Refractors #34 Tim Thomas
p494
sg11
I100
sg12
VBowman's Best Atomic Refractors
p495
sg14
(lp496
Vhttp://www.beckett.com/basketball/1998-99/bowmans-best-atomic-refractors/34-tim-thomas-3171328
p497
asg17
g18
sg19
(lp498
Vhttp://img.beckett.com/images/no-image.jpg
p499
asg22
V#34
p500
sg24
V1998-99
p501
sg26
g27
sg28
(lp502
VTim Thomas
p503
assbag1
(g2
g3
Ntp504
Rp505
(dp506
g7
(dp507
g9
V1998-99 Bowman's Best Atomic Refractors #45 Jayson Williams
p508
sg11
I100
sg12
VBowman's Best Atomic Refractors
p509
sg14
(lp510
Vhttp://www.beckett.com/basketball/1998-99/bowmans-best-atomic-refractors/45-jayson-williams-3171339
p511
asg17
g18
sg19
(lp512
Vhttp://img.beckett.com/images/no-image.jpg
p513
asg22
V#45
p514
sg24
V1998-99
p515
sg26
g27
sg28
(lp516
VJayson Williams
p517
assbag1
(g2
g3
Ntp518
Rp519
(dp520
g7
(dp521
g9
V1998-99 Bowman's Best Atomic Refractors #70 Keith Van Horn
p522
sg11
I100
sg12
VBowman's Best Atomic Refractors
p523
sg14
(lp524
Vhttp://www.beckett.com/basketball/1998-99/bowmans-best-atomic-refractors/70-keith-van-horn-3171364
p525
asg17
g18
sg19
(lp526
Vhttp://img.beckett.com/images/no-image.jpg
p527
asg22
V#70
p528
sg24
V1998-99
p529
sg26
g27
sg28
(lp530
VKeith Van Horn
p531
assbag1
(g2
g3
Ntp532
Rp533
(dp534
g7
(dp535
g9
V1998-99 Flair Showcase Row 1 #1 Keith Van Horn
p536
sg11
I1500
sg12
VFlair Showcase Row 1
p537
sg14
(lp538
Vhttp://www.beckett.com/basketball/1998-99/flair-showcase-row-1/1-keith-van-horn-3167623
p539
asg17
g18
sg19
(lp540
Vhttp://img.beckett.com/images/items_stock/185226/3167600/3167623/front.jpg
p541
asg22
V#1
p542
sg24
V1998-99
p543
sg26
g27
sg28
(lp544
VKeith Van Horn
p545
assbag1
(g2
g3
Ntp546
Rp547
(dp548
g7
(dp549
g9
V1998-99 Flair Showcase Row 1 #21 Kerry Kittles
p550
sg11
I1500
sg12
VFlair Showcase Row 1
p551
sg14
(lp552
Vhttp://www.beckett.com/basketball/1998-99/flair-showcase-row-1/21-kerry-kittles-3167644
p553
asg17
g18
sg19
(lp554
Vhttp://img.beckett.com/images/items_stock/185226/3167600/3167644/front.jpg
p555
asg22
V#21
p556
sg24
V1998-99
p557
sg26
g27
sg28
(lp558
VKerry Kittles
p559
assbag1
(g2
g3
Ntp560
Rp561
(dp562
g7
(dp563
g9
V1998-99 Flair Showcase Row 1 #43 Jayson Williams
p564
sg11
I3000
sg12
VFlair Showcase Row 1
p565
sg14
(lp566
Vhttp://www.beckett.com/basketball/1998-99/flair-showcase-row-1/43-jayson-williams-3167666
p567
asg17
g18
sg19
(lp568
Vhttp://img.beckett.com/images/items_stock/185226/3167600/3167666/front.jpg
p569
asg22
V#43
p570
sg24
V1998-99
p571
sg26
g27
sg28
(lp572
VJayson Williams
p573
assbag1
(g2
g3
Ntp574
Rp575
(dp576
g7
(dp577
g9
V1998-99 Flair Showcase Legacy Collection Row 3 #1 Keith Van Horn
p578
sg11
I99
sg12
VFlair Showcase Legacy Collection Row 3
p579
sg14
(lp580
Vhttp://www.beckett.com/basketball/1998-99/flair-showcase-legacy-collection-row-3/1-keith-van-horn-3172791
p581
asg17
g18
sg19
(lp582
Vhttp://img.beckett.com/images/no-image.jpg
p583
asg22
V#1
p584
sg24
V1998-99
p585
sg26
g27
sg28
(lp586
VKeith Van Horn
p587
assbag1
(g2
g3
Ntp588
Rp589
(dp590
g7
(dp591
g9
V1998-99 Flair Showcase Legacy Collection Row 3 #21 Kerry Kittles
p592
sg11
I99
sg12
VFlair Showcase Legacy Collection Row 3
p593
sg14
(lp594
Vhttp://www.beckett.com/basketball/1998-99/flair-showcase-legacy-collection-row-3/21-kerry-kittles-3172811
p595
asg17
g18
sg19
(lp596
Vhttp://img.beckett.com/images/items_stock/185226/3172778/3172811/front.jpg
p597
asg22
V#21
p598
sg24
V1998-99
p599
sg26
g27
sg28
(lp600
VKerry Kittles
p601
assbag1
(g2
g3
Ntp602
Rp603
(dp604
g7
(dp605
g9
V1998-99 Flair Showcase Legacy Collection Row 3 #43 Jayson Williams
p606
sg11
I99
sg12
VFlair Showcase Legacy Collection Row 3
p607
sg14
(lp608
Vhttp://www.beckett.com/basketball/1998-99/flair-showcase-legacy-collection-row-3/43-jayson-williams-3172833
p609
asg17
g18
sg19
(lp610
Vhttp://img.beckett.com/images/no-image.jpg
p611
asg22
V#43
p612
sg24
V1998-99
p613
sg26
g27
sg28
(lp614
VJayson Williams
p615
assbag1
(g2
g3
Ntp616
Rp617
(dp618
g7
(dp619
g9
V1998-99 Fleer Classic '61 #26 Chris Gatling
p620
sg11
I61
sg12
VFleer Classic '61
p621
sg14
(lp622
Vhttp://www.beckett.com/basketball/1998-99/fleer-classic-61/26-chris-gatling-3168120
p623
asg17
g18
sg19
(lp624
Vhttp://img.beckett.com/images/no-image.jpg
p625
asg22
V#26
p626
sg24
V1998-99
p627
sg26
g27
sg28
(lp628
VChris Gatling
p629
assbag1
(g2
g3
Ntp630
Rp631
(dp632
g7
(dp633
g9
V1998-99 Fleer Classic '61 #44 Keith Van Horn
p634
sg11
I61
sg12
VFleer Classic '61
p635
sg14
(lp636
Vhttp://www.beckett.com/basketball/1998-99/fleer-classic-61/44-keith-van-horn-3168138
p637
asg17
g18
sg19
(lp638
Vhttp://img.beckett.com/images/items_stock/185226/3168086/3168138/front.jpg
p639
asg22
V#44
p640
sg24
V1998-99
p641
sg26
g27
sg28
(lp642
VKeith Van Horn
p643
assbag1
(g2
g3
Ntp644
Rp645
(dp646
g7
(dp647
g9
V1998-99 Fleer Classic '61 #72 Kerry Kittles
p648
sg11
I61
sg12
VFleer Classic '61
p649
sg14
(lp650
Vhttp://www.beckett.com/basketball/1998-99/fleer-classic-61/72-kerry-kittles-3168166
p651
asg17
g18
sg19
(lp652
Vhttp://img.beckett.com/images/no-image.jpg
p653
asg22
V#72
p654
sg24
V1998-99
p655
sg26
g27
sg28
(lp656
VKerry Kittles
p657
assbag1
(g2
g3
Ntp658
Rp659
(dp660
g7
(dp661
g9
V1998-99 Fleer Classic '61 #103 Sam Cassell
p662
sg11
I61
sg12
VFleer Classic '61
p663
sg14
(lp664
Vhttp://www.beckett.com/basketball/1998-99/fleer-classic-61/103-sam-cassell-3168197
p665
asg17
g18
sg19
(lp666
Vhttp://img.beckett.com/images/no-image.jpg
p667
asg22
V#103
p668
sg24
V1998-99
p669
sg26
g27
sg28
(lp670
VSam Cassell
p671
assbag1
(g2
g3
Ntp672
Rp673
(dp674
g7
(dp675
g9
V1998-99 Fleer Classic '61 #114 Kendall Gill
p676
sg11
I61
sg12
VFleer Classic '61
p677
sg14
(lp678
Vhttp://www.beckett.com/basketball/1998-99/fleer-classic-61/114-kendall-gill-3168208
p679
asg17
g18
sg19
(lp680
Vhttp://img.beckett.com/images/no-image.jpg
p681
asg22
V#114
p682
sg24
V1998-99
p683
sg26
g27
sg28
(lp684
VKendall Gill
p685
assbag1
(g2
g3
Ntp686
Rp687
(dp688
g7
(dp689
g9
V1998-99 Fleer Classic '61 #140 Jayson Williams PF
p690
sg11
I61
sg12
VFleer Classic '61
p691
sg14
(lp692
Vhttp://www.beckett.com/basketball/1998-99/fleer-classic-61/140-jayson-williams-pf-3168234
p693
asg17
g18
sg19
(lp694
Vhttp://img.beckett.com/images/no-image.jpg
p695
asg22
V#140
p696
sg24
V1998-99
p697
sg71
VPF
p698
sg26
g27
sg28
(lp699
VJayson Williams
p700
assbag1
(g2
g3
Ntp701
Rp702
(dp703
g7
(dp704
g9
V1998-99 Fleer Brilliants 24-Karat Gold #55 Jayson Williams
p705
sg11
I24
sg12
VFleer Brilliants 24-Karat Gold
p706
sg14
(lp707
Vhttp://www.beckett.com/basketball/1998-99/fleer-brilliants-24-karat-gold/55-jayson-williams-3168556
p708
asg17
g18
sg19
(lp709
Vhttp://img.beckett.com/images/no-image.jpg
p710
asg22
V#55
p711
sg24
V1998-99
p712
sg26
g27
sg28
(lp713
VJayson Williams
p714
assbag1
(g2
g3
Ntp715
Rp716
(dp717
g7
(dp718
g9
V1998-99 Fleer Brilliants 24-Karat Gold #67 Sam Cassell
p719
sg11
I24
sg12
VFleer Brilliants 24-Karat Gold
p720
sg14
(lp721
Vhttp://www.beckett.com/basketball/1998-99/fleer-brilliants-24-karat-gold/67-sam-cassell-3168568
p722
asg17
g18
sg19
(lp723
Vhttp://img.beckett.com/images/no-image.jpg
p724
asg22
V#67
p725
sg24
V1998-99
p726
sg26
g27
sg28
(lp727
VSam Cassell
p728
assbag1
(g2
g3
Ntp729
Rp730
(dp731
g7
(dp732
g9
V1998-99 Fleer Brilliants 24-Karat Gold #77 Kerry Kittles
p733
sg11
I24
sg12
VFleer Brilliants 24-Karat Gold
p734
sg14
(lp735
Vhttp://www.beckett.com/basketball/1998-99/fleer-brilliants-24-karat-gold/77-kerry-kittles-3168578
p736
asg17
g18
sg19
(lp737
Vhttp://img.beckett.com/images/no-image.jpg
p738
asg22
V#77
p739
sg24
V1998-99
p740
sg26
g27
sg28
(lp741
VKerry Kittles
p742
assbag1
(g2
g3
Ntp743
Rp744
(dp745
g7
(dp746
g9
V1998-99 Fleer Brilliants 24-Karat Gold #90 Keith Van Horn
p747
sg11
I24
sg12
VFleer Brilliants 24-Karat Gold
p748
sg14
(lp749
Vhttp://www.beckett.com/basketball/1998-99/fleer-brilliants-24-karat-gold/90-keith-van-horn-3168591
p750
asg17
g18
sg19
(lp751
Vhttp://img.beckett.com/images/no-image.jpg
p752
asg22
V#90
p753
sg24
V1998-99
p754
sg26
g27
sg28
(lp755
VKeith Van Horn
p756
assbag1
(g2
g3
Ntp757
Rp758
(dp759
g7
(dp760
g9
V1998-99 Fleer Brilliants Gold #55 Jayson Williams
p761
sg11
I99
sg12
VFleer Brilliants Gold
p762
sg14
(lp763
Vhttp://www.beckett.com/basketball/1998-99/fleer-brilliants-gold/55-jayson-williams-3168828
p764
asg17
g18
sg19
(lp765
Vhttp://img.beckett.com/images/items_stock/185226/3168762/3168828/front.jpg
p766
asg22
V#55
p767
sg24
V1998-99
p768
sg26
g27
sg28
(lp769
VJayson Williams
p770
assbag1
(g2
g3
Ntp771
Rp772
(dp773
g7
(dp774
g9
V1998-99 Fleer Brilliants Gold #67 Sam Cassell
p775
sg11
I99
sg12
VFleer Brilliants Gold
p776
sg14
(lp777
Vhttp://www.beckett.com/basketball/1998-99/fleer-brilliants-gold/67-sam-cassell-3168840
p778
asg17
g18
sg19
(lp779
Vhttp://img.beckett.com/images/no-image.jpg
p780
asg22
V#67
p781
sg24
V1998-99
p782
sg26
g27
sg28
(lp783
VSam Cassell
p784
assbag1
(g2
g3
Ntp785
Rp786
(dp787
g7
(dp788
g9
V1998-99 Fleer Brilliants Gold #77 Kerry Kittles
p789
sg11
I99
sg12
VFleer Brilliants Gold
p790
sg14
(lp791
Vhttp://www.beckett.com/basketball/1998-99/fleer-brilliants-gold/77-kerry-kittles-3168850
p792
asg17
g18
sg19
(lp793
Vhttp://img.beckett.com/images/no-image.jpg
p794
asg22
V#77
p795
sg24
V1998-99
p796
sg26
g27
sg28
(lp797
VKerry Kittles
p798
assbag1
(g2
g3
Ntp799
Rp800
(dp801
g7
(dp802
g9
V1998-99 Fleer Brilliants Gold #90 Keith Van Horn
p803
sg11
I99
sg12
VFleer Brilliants Gold
p804
sg14
(lp805
Vhttp://www.beckett.com/basketball/1998-99/fleer-brilliants-gold/90-keith-van-horn-3168863
p806
asg17
g18
sg19
(lp807
Vhttp://img.beckett.com/images/no-image.jpg
p808
asg22
V#90
p809
sg24
V1998-99
p810
sg26
g27
sg28
(lp811
VKeith Van Horn
p812
assbag1
(g2
g3
Ntp813
Rp814
(dp815
g7
(dp816
g9
V1998-99 Hoops Starting Five #35 Rony Seikaly
p817
sg11
I5
sg12
VHoops Starting Five
p818
sg14
(lp819
Vhttp://www.beckett.com/basketball/1998-99/hoops-starting-five/35-rony-seikaly-3166541
p820
asg17
g18
sg19
(lp821
Vhttp://img.beckett.com/images/no-image.jpg
p822
asg22
V#35
p823
sg24
V1998-99
p824
sg26
g27
sg28
(lp825
VRony Seikaly
p826
assbag1
(g2
g3
Ntp827
Rp828
(dp829
g7
(dp830
g9
V1998-99 Hoops Starting Five #40 Kerry Kittles
p831
sg11
I5
sg12
VHoops Starting Five
p832
sg14
(lp833
Vhttp://www.beckett.com/basketball/1998-99/hoops-starting-five/40-kerry-kittles-3166546
p834
asg17
g18
sg19
(lp835
Vhttp://img.beckett.com/images/no-image.jpg
p836
asg22
V#40
p837
sg24
V1998-99
p838
sg26
g27
sg28
(lp839
VKerry Kittles
p840
assbag1
(g2
g3
Ntp841
Rp842
(dp843
g7
(dp844
g9
V1998-99 Hoops Starting Five #80 Keith Van Horn
p845
sg11
I5
sg12
VHoops Starting Five
p846
sg14
(lp847
Vhttp://www.beckett.com/basketball/1998-99/hoops-starting-five/80-keith-van-horn-3166586
p848
asg17
g18
sg19
(lp849
Vhttp://img.beckett.com/images/no-image.jpg
p850
asg22
V#80
p851
sg24
V1998-99
p852
sg26
g27
sg28
(lp853
VKeith Van Horn
p854
assbag1
(g2
g3
Ntp855
Rp856
(dp857
g7
(dp858
g9
V1998-99 Hoops Starting Five #89 Sam Cassell
p859
sg11
I5
sg12
VHoops Starting Five
p860
sg14
(lp861
Vhttp://www.beckett.com/basketball/1998-99/hoops-starting-five/89-sam-cassell-3166595
p862
asg17
g18
sg19
(lp863
Vhttp://img.beckett.com/images/no-image.jpg
p864
asg22
V#89
p865
sg24
V1998-99
p866
sg26
g27
sg28
(lp867
VSam Cassell
p868
assbag1
(g2
g3
Ntp869
Rp870
(dp871
g7
(dp872
g9
V1998-99 Hoops Starting Five #104 Chris Gatling
p873
sg11
I5
sg12
VHoops Starting Five
p874
sg14
(lp875
Vhttp://www.beckett.com/basketball/1998-99/hoops-starting-five/104-chris-gatling-3166610
p876
asg17
g18
sg19
(lp877
Vhttp://img.beckett.com/images/no-image.jpg
p878
asg22
V#104
p879
sg24
V1998-99
p880
sg26
g27
sg28
(lp881
VChris Gatling
p882
assbag1
(g2
g3
Ntp883
Rp884
(dp885
g7
(dp886
g9
V1998-99 Hoops Starting Five #144 Kendall Gill
p887
sg11
I5
sg12
VHoops Starting Five
p888
sg14
(lp889
Vhttp://www.beckett.com/basketball/1998-99/hoops-starting-five/144-kendall-gill-3166650
p890
asg17
g18
sg19
(lp891
Vhttp://img.beckett.com/images/no-image.jpg
p892
asg22
V#144
p893
sg24
V1998-99
p894
sg26
g27
sg28
(lp895
VKendall Gill
p896
assbag1
(g2
g3
Ntp897
Rp898
(dp899
g7
(dp900
g9
V1998-99 Hoops Starting Five #156 Jayson Williams SO
p901
sg11
I5
sg12
VHoops Starting Five
p902
sg14
(lp903
Vhttp://www.beckett.com/basketball/1998-99/hoops-starting-five/156-jayson-williams-so-3166662
p904
asg17
g18
sg19
(lp905
Vhttp://img.beckett.com/images/no-image.jpg
p906
asg22
V#156
p907
sg24
V1998-99
p908
sg71
VSO
p909
sg26
g27
sg28
(lp910
VJayson Williams
p911
assbag1
(g2
g3
Ntp912
Rp913
(dp914
g7
(dp915
g9
V1998-99 Metal Universe Precious Metal Gems #39 Kendall Gill
p916
sg11
I50
sg12
VMetal Universe Precious Metal Gems
p917
sg14
(lp918
Vhttp://www.beckett.com/basketball/1998-99/metal-universe-precious-metal-gems/39-kendall-gill-3166982
p919
asg17
g18
sg19
(lp920
Vhttp://img.beckett.com/images/no-image.jpg
p921
asg22
V#39
p922
sg24
V1998-99
p923
sg26
g27
sg28
(lp924
VKendall Gill
p925
assbag1
(g2
g3
Ntp926
Rp927
(dp928
g7
(dp929
g9
V1998-99 Metal Universe Precious Metal Gems #49 Sam Cassell
p930
sg11
I50
sg12
VMetal Universe Precious Metal Gems
p931
sg14
(lp932
Vhttp://www.beckett.com/basketball/1998-99/metal-universe-precious-metal-gems/49-sam-cassell-3166992
p933
asg17
g18
sg19
(lp934
Vhttp://img.beckett.com/images/no-image.jpg
p935
asg22
V#49
p936
sg24
V1998-99
p937
sg26
g27
sg28
(lp938
VSam Cassell
p939
assbag1
(g2
g3
Ntp940
Rp941
(dp942
g7
(dp943
g9
V1998-99 Metal Universe Precious Metal Gems #81 Jayson Williams
p944
sg11
I50
sg12
VMetal Universe Precious Metal Gems
p945
sg14
(lp946
Vhttp://www.beckett.com/basketball/1998-99/metal-universe-precious-metal-gems/81-jayson-williams-3167024
p947
asg17
g18
sg19
(lp948
Vhttp://img.beckett.com/images/no-image.jpg
p949
asg22
V#81
p950
sg24
V1998-99
p951
sg26
g27
sg28
(lp952
VJayson Williams
p953
assbag1
(g2
g3
Ntp954
Rp955
(dp956
g7
(dp957
g9
V1998-99 Metal Universe Precious Metal Gems #92 Keith Van Horn
p958
sg11
I50
sg12
VMetal Universe Precious Metal Gems
p959
sg14
(lp960
Vhttp://www.beckett.com/basketball/1998-99/metal-universe-precious-metal-gems/92-keith-van-horn-3167035
p961
asg17
g18
sg19
(lp962
Vhttp://img.beckett.com/images/no-image.jpg
p963
asg22
V#92
p964
sg24
V1998-99
p965
sg26
g27
sg28
(lp966
VKeith Van Horn
p967
assbag1
(g2
g3
Ntp968
Rp969
(dp970
g7
(dp971
g9
V1998-99 Metal Universe Precious Metal Gems #117 Kerry Kittles
p972
sg11
I50
sg12
VMetal Universe Precious Metal Gems
p973
sg14
(lp974
Vhttp://www.beckett.com/basketball/1998-99/metal-universe-precious-metal-gems/117-kerry-kittles-3167060
p975
asg17
g18
sg19
(lp976
Vhttp://img.beckett.com/images/no-image.jpg
p977
asg22
V#117
p978
sg24
V1998-99
p979
sg26
g27
sg28
(lp980
VKerry Kittles
p981
assbag1
(g2
g3
Ntp982
Rp983
(dp984
g7
(dp985
g9
V1998-99 Metal Universe Gem Masters #39 Kendall Gill
p986
sg11
I1
sg12
VMetal Universe Gem Masters
p987
sg14
(lp988
Vhttp://www.beckett.com/basketball/1998-99/metal-universe-gem-masters/39-kendall-gill-3166851
p989
asg17
g18
sg19
(lp990
Vhttp://img.beckett.com/images/no-image.jpg
p991
asg22
V#39
p992
sg24
V1998-99
p993
sg26
g27
sg28
(lp994
VKendall Gill
p995
assbag1
(g2
g3
Ntp996
Rp997
(dp998
g7
(dp999
g9
V1998-99 Metal Universe Gem Masters #49 Sam Cassell
p1000
sg11
I1
sg12
VMetal Universe Gem Masters
p1001
sg14
(lp1002
Vhttp://www.beckett.com/basketball/1998-99/metal-universe-gem-masters/49-sam-cassell-3166861
p1003
asg17
g18
sg19
(lp1004
Vhttp://img.beckett.com/images/no-image.jpg
p1005
asg22
V#49
p1006
sg24
V1998-99
p1007
sg26
g27
sg28
(lp1008
VSam Cassell
p1009
assbag1
(g2
g3
Ntp1010
Rp1011
(dp1012
g7
(dp1013
g9
V1998-99 Metal Universe Gem Masters #81 Jayson Williams
p1014
sg11
I1
sg12
VMetal Universe Gem Masters
p1015
sg14
(lp1016
Vhttp://www.beckett.com/basketball/1998-99/metal-universe-gem-masters/81-jayson-williams-3166893
p1017
asg17
g18
sg19
(lp1018
Vhttp://img.beckett.com/images/no-image.jpg
p1019
asg22
V#81
p1020
sg24
V1998-99
p1021
sg26
g27
sg28
(lp1022
VJayson Williams
p1023
assbag1
(g2
g3
Ntp1024
Rp1025
(dp1026
g7
(dp1027
g9
V1998-99 Metal Universe Gem Masters #92 Keith Van Horn
p1028
sg11
I1
sg12
VMetal Universe Gem Masters
p1029
sg14
(lp1030
Vhttp://www.beckett.com/basketball/1998-99/metal-universe-gem-masters/92-keith-van-horn-3166904
p1031
asg17
g18
sg19
(lp1032
Vhttp://img.beckett.com/images/no-image.jpg
p1033
asg22
V#92
p1034
sg24
V1998-99
p1035
sg26
g27
sg28
(lp1036
VKeith Van Horn
p1037
assbag1
(g2
g3
Ntp1038
Rp1039
(dp1040
g7
(dp1041
g9
V1998-99 Metal Universe Gem Masters #117 Kerry Kittles
p1042
sg11
I1
sg12
VMetal Universe Gem Masters
p1043
sg14
(lp1044
Vhttp://www.beckett.com/basketball/1998-99/metal-universe-gem-masters/117-kerry-kittles-3166929
p1045
asg17
g18
sg19
(lp1046
Vhttp://img.beckett.com/images/no-image.jpg
p1047
asg22
V#117
p1048
sg24
V1998-99
p1049
sg26
g27
sg28
(lp1050
VKerry Kittles
p1051
assbag1
(g2
g3
Ntp1052
Rp1053
(dp1054
g7
(dp1055
g9
V1998-99 SkyBox Premium Star Rubies #41 Sam Cassell
p1056
sg11
I50
sg12
VSkyBox Premium Star Rubies
p1057
sg14
(lp1058
Vhttp://www.beckett.com/basketball/1998-99/skybox-premium-star-rubies/41-sam-cassell-3165146
p1059
asg17
g18
sg19
(lp1060
Vhttp://img.beckett.com/images/no-image.jpg
p1061
asg22
V#41
p1062
sg24
V1998-99
p1063
sg26
g27
sg28
(lp1064
VSam Cassell
p1065
assbag1
(g2
g3
Ntp1066
Rp1067
(dp1068
g7
(dp1069
g9
V1998-99 SkyBox Premium Star Rubies #68 Jayson Williams
p1070
sg11
I50
sg12
VSkyBox Premium Star Rubies
p1071
sg14
(lp1072
Vhttp://www.beckett.com/basketball/1998-99/skybox-premium-star-rubies/68-jayson-williams-3165173
p1073
asg17
g18
sg19
(lp1074
Vhttp://img.beckett.com/images/no-image.jpg
p1075
asg22
V#68
p1076
sg24
V1998-99
p1077
sg26
g27
sg28
(lp1078
VJayson Williams
p1079
assbag1
(g2
g3
Ntp1080
Rp1081
(dp1082
g7
(dp1083
g9
V1998-99 SkyBox Premium Star Rubies #77 Keith Van Horn
p1084
sg11
I50
sg12
VSkyBox Premium Star Rubies
p1085
sg14
(lp1086
Vhttp://www.beckett.com/basketball/1998-99/skybox-premium-star-rubies/77-keith-van-horn-3165182
p1087
asg17
g18
sg19
(lp1088
Vhttp://img.beckett.com/images/no-image.jpg
p1089
asg22
V#77
p1090
sg24
V1998-99
p1091
sg26
g27
sg28
(lp1092
VKeith Van Horn
p1093
assbag1
(g2
g3
Ntp1094
Rp1095
(dp1096
g7
(dp1097
g9
V1998-99 SkyBox Premium Star Rubies #95 Kerry Kittles
p1098
sg11
I50
sg12
VSkyBox Premium Star Rubies
p1099
sg14
(lp1100
Vhttp://www.beckett.com/basketball/1998-99/skybox-premium-star-rubies/95-kerry-kittles-3165200
p1101
asg17
g18
sg19
(lp1102
Vhttp://img.beckett.com/images/no-image.jpg
p1103
asg22
V#95
p1104
sg24
V1998-99
p1105
sg26
g27
sg28
(lp1106
VKerry Kittles
p1107
assbag1
(g2
g3
Ntp1108
Rp1109
(dp1110
g7
(dp1111
g9
V1998-99 SkyBox Premium Star Rubies #115 Kendall Gill
p1112
sg11
I50
sg12
VSkyBox Premium Star Rubies
p1113
sg14
(lp1114
Vhttp://www.beckett.com/basketball/1998-99/skybox-premium-star-rubies/115-kendall-gill-3165220
p1115
asg17
g18
sg19
(lp1116
Vhttp://img.beckett.com/images/no-image.jpg
p1117
asg22
V#115
p1118
sg24
V1998-99
p1119
sg26
g27
sg28
(lp1120
VKendall Gill
p1121
assbag1
(g2
g3
Ntp1122
Rp1123
(dp1124
g7
(dp1125
g9
V1998-99 SkyBox Premium Star Rubies #154 Rony Seikaly
p1126
sg11
I50
sg12
VSkyBox Premium Star Rubies
p1127
sg14
(lp1128
Vhttp://www.beckett.com/basketball/1998-99/skybox-premium-star-rubies/154-rony-seikaly-3165259
p1129
asg17
g18
sg19
(lp1130
Vhttp://img.beckett.com/images/no-image.jpg
p1131
asg22
V#154
p1132
sg24
V1998-99
p1133
sg26
g27
sg28
(lp1134
VRony Seikaly
p1135
assbag1
(g2
g3
Ntp1136
Rp1137
(dp1138
g7
(dp1139
g9
V1998-99 SkyBox Premium Star Rubies #213 Kerry Kittles NF
p1140
sg11
I50
sg12
VSkyBox Premium Star Rubies
p1141
sg14
(lp1142
Vhttp://www.beckett.com/basketball/1998-99/skybox-premium-star-rubies/213-kerry-kittles-nf-3165318
p1143
asg17
g18
sg19
(lp1144
Vhttp://img.beckett.com/images/no-image.jpg
p1145
asg22
V#213
p1146
sg24
V1998-99
p1147
sg71
VNF
p1148
sg26
g27
sg28
(lp1149
VKerry Kittles
p1150
assbag1
(g2
g3
Ntp1151
Rp1152
(dp1153
g7
(dp1154
g9
V1998-99 SkyBox Premium Star Rubies #224 Keith Van Horn NF
p1155
sg11
I50
sg12
VSkyBox Premium Star Rubies
p1156
sg14
(lp1157
Vhttp://www.beckett.com/basketball/1998-99/skybox-premium-star-rubies/224-keith-van-horn-nf-3165329
p1158
asg17
g18
sg19
(lp1159
Vhttp://img.beckett.com/images/no-image.jpg
p1160
asg22
V#224
p1161
sg24
V1998-99
p1162
sg71
VNF
p1163
sg26
g27
sg28
(lp1164
VKeith Van Horn
p1165
assbag1
(g2
g3
Ntp1166
Rp1167
(dp1168
g7
(dp1169
g9
V1998-99 SkyBox Thunder Rave #1 Kerry Kittles
p1170
sg11
I150
sg12
VSkyBox Thunder Rave
p1171
sg14
(lp1172
Vhttp://www.beckett.com/basketball/1998-99/skybox-thunder-rave/1-kerry-kittles-3166039
p1173
asg17
g18
sg19
(lp1174
Vhttp://img.beckett.com/images/no-image.jpg
p1175
asg22
V#1
p1176
sg24
V1998-99
p1177
sg26
g27
sg28
(lp1178
VKerry Kittles
p1179
assbag1
(g2
g3
Ntp1180
Rp1181
(dp1182
g7
(dp1183
g9
V1998-99 SkyBox Thunder Rave #51 Kendall Gill
p1184
sg11
I150
sg12
VSkyBox Thunder Rave
p1185
sg14
(lp1186
Vhttp://www.beckett.com/basketball/1998-99/skybox-thunder-rave/51-kendall-gill-3166089
p1187
asg17
g18
sg19
(lp1188
Vhttp://img.beckett.com/images/no-image.jpg
p1189
asg22
V#51
p1190
sg24
V1998-99
p1191
sg26
g27
sg28
(lp1192
VKendall Gill
p1193
assbag1
(g2
g3
Ntp1194
Rp1195
(dp1196
g7
(dp1197
g9
V1998-99 SkyBox Thunder Rave #84 Sam Cassell
p1198
sg11
I150
sg12
VSkyBox Thunder Rave
p1199
sg14
(lp1200
Vhttp://www.beckett.com/basketball/1998-99/skybox-thunder-rave/84-sam-cassell-3166122
p1201
asg17
g18
sg19
(lp1202
Vhttp://img.beckett.com/images/no-image.jpg
p1203
asg22
V#84
p1204
sg24
V1998-99
p1205
sg26
g27
sg28
(lp1206
VSam Cassell
p1207
assbag1
(g2
g3
Ntp1208
Rp1209
(dp1210
g7
(dp1211
g9
V1998-99 SkyBox Thunder Rave #114 Keith Van Horn
p1212
sg11
I150
sg12
VSkyBox Thunder Rave
p1213
sg14
(lp1214
Vhttp://www.beckett.com/basketball/1998-99/skybox-thunder-rave/114-keith-van-horn-3166152
p1215
asg17
g18
sg19
(lp1216
Vhttp://img.beckett.com/images/no-image.jpg
p1217
asg22
V#114
p1218
sg24
V1998-99
p1219
sg26
g27
sg28
(lp1220
VKeith Van Horn
p1221
assbag1
(g2
g3
Ntp1222
Rp1223
(dp1224
g7
(dp1225
g9
V1998-99 SkyBox Thunder Super Rave #1 Kerry Kittles
p1226
sg11
I25
sg12
VSkyBox Thunder Super Rave
p1227
sg14
(lp1228
Vhttp://www.beckett.com/basketball/1998-99/skybox-thunder-super-rave/1-kerry-kittles-3162691
p1229
asg17
g18
sg19
(lp1230
Vhttp://img.beckett.com/images/no-image.jpg
p1231
asg22
V#1
p1232
sg24
V1998-99
p1233
sg26
g27
sg28
(lp1234
VKerry Kittles
p1235
assbag1
(g2
g3
Ntp1236
Rp1237
(dp1238
g7
(dp1239
g9
V1998-99 SkyBox Thunder Super Rave #51 Kendall Gill
p1240
sg11
I25
sg12
VSkyBox Thunder Super Rave
p1241
sg14
(lp1242
Vhttp://www.beckett.com/basketball/1998-99/skybox-thunder-super-rave/51-kendall-gill-3162741
p1243
asg17
g18
sg19
(lp1244
Vhttp://img.beckett.com/images/no-image.jpg
p1245
asg22
V#51
p1246
sg24
V1998-99
p1247
sg26
g27
sg28
(lp1248
VKendall Gill
p1249
assbag1
(g2
g3
Ntp1250
Rp1251
(dp1252
g7
(dp1253
g9
V1998-99 SkyBox Thunder Super Rave #84 Sam Cassell
p1254
sg11
I25
sg12
VSkyBox Thunder Super Rave
p1255
sg14
(lp1256
Vhttp://www.beckett.com/basketball/1998-99/skybox-thunder-super-rave/84-sam-cassell-3162774
p1257
asg17
g18
sg19
(lp1258
Vhttp://img.beckett.com/images/no-image.jpg
p1259
asg22
V#84
p1260
sg24
V1998-99
p1261
sg26
g27
sg28
(lp1262
VSam Cassell
p1263
assbag1
(g2
g3
Ntp1264
Rp1265
(dp1266
g7
(dp1267
g9
V1998-99 SkyBox Thunder Super Rave #114 Keith Van Horn
p1268
sg11
I25
sg12
VSkyBox Thunder Super Rave
p1269
sg14
(lp1270
Vhttp://www.beckett.com/basketball/1998-99/skybox-thunder-super-rave/114-keith-van-horn-3162804
p1271
asg17
g18
sg19
(lp1272
Vhttp://img.beckett.com/images/no-image.jpg
p1273
asg22
V#114
p1274
sg24
V1998-99
p1275
sg26
g27
sg28
(lp1276
VKeith Van Horn
p1277
assbag1
(g2
g3
Ntp1278
Rp1279
(dp1280
g7
(dp1281
g9
V1998-99 SPx Finite Extreme #3 Keith Van Horn
p1282
sg11
I1
sg12
VSPx Finite Extreme
p1283
sg14
(lp1284
Vhttp://www.beckett.com/basketball/1998-99/spx-finite-extreme/3-keith-van-horn-3163525
p1285
asg17
g18
sg19
(lp1286
Vhttp://img.beckett.com/images/no-image.jpg
p1287
asg22
V#3
p1288
sg24
V1998-99
p1289
sg26
g27
sg28
(lp1290
VKeith Van Horn
p1291
assbag1
(g2
g3
Ntp1292
Rp1293
(dp1294
g7
(dp1295
g9
V1998-99 SPx Finite Extreme #28 Sam Cassell
p1296
sg11
I1
sg12
VSPx Finite Extreme
p1297
sg14
(lp1298
Vhttp://www.beckett.com/basketball/1998-99/spx-finite-extreme/28-sam-cassell-3163550
p1299
asg17
g18
sg19
(lp1300
Vhttp://img.beckett.com/images/no-image.jpg
p1301
asg22
V#28
p1302
sg24
V1998-99
p1303
sg26
g27
sg28
(lp1304
VSam Cassell
p1305
assbag1
(g2
g3
Ntp1306
Rp1307
(dp1308
g7
(dp1309
g9
V1998-99 SPx Finite Extreme #72 Kerry Kittles
p1310
sg11
I1
sg12
VSPx Finite Extreme
p1311
sg14
(lp1312
Vhttp://www.beckett.com/basketball/1998-99/spx-finite-extreme/72-kerry-kittles-3163594
p1313
asg17
g18
sg19
(lp1314
Vhttp://img.beckett.com/images/no-image.jpg
p1315
asg22
V#72
p1316
sg24
V1998-99
p1317
sg26
g27
sg28
(lp1318
VKerry Kittles
p1319
assbag1
(g2
g3
Ntp1320
Rp1321
(dp1322
g7
(dp1323
g9
V1998-99 SPx Finite Radiance #3 Keith Van Horn
p1324
sg11
I5000
sg12
VSPx Finite Radiance
p1325
sg14
(lp1326
Vhttp://www.beckett.com/basketball/1998-99/spx-finite-radiance/3-keith-van-horn-3163653
p1327
asg17
g18
sg19
(lp1328
Vhttp://img.beckett.com/images/items_stock/185226/3163613/3163653/front.jpg
p1329
asg22
V#3
p1330
sg24
V1998-99
p1331
sg26
g27
sg28
(lp1332
VKeith Van Horn
p1333
assbag1
(g2
g3
Ntp1334
Rp1335
(dp1336
g7
(dp1337
g9
V1998-99 SPx Finite Radiance #28 Sam Cassell
p1338
sg11
I5000
sg12
VSPx Finite Radiance
p1339
sg14
(lp1340
Vhttp://www.beckett.com/basketball/1998-99/spx-finite-radiance/28-sam-cassell-3163678
p1341
asg17
g18
sg19
(lp1342
Vhttp://img.beckett.com/images/items_stock/185226/3163613/3163678/front.jpg
p1343
asg22
V#28
p1344
sg24
V1998-99
p1345
sg26
g27
sg28
(lp1346
VSam Cassell
p1347
assbag1
(g2
g3
Ntp1348
Rp1349
(dp1350
g7
(dp1351
g9
V1998-99 SPx Finite Radiance #72 Kerry Kittles
p1352
sg11
I5000
sg12
VSPx Finite Radiance
p1353
sg14
(lp1354
Vhttp://www.beckett.com/basketball/1998-99/spx-finite-radiance/72-kerry-kittles-3163722
p1355
asg17
g18
sg19
(lp1356
Vhttp://img.beckett.com/images/items_stock/185226/3163613/3163722/front.jpg
p1357
asg22
V#72
p1358
sg24
V1998-99
p1359
sg26
g27
sg28
(lp1360
VKerry Kittles
p1361
assbag1
(g2
g3
Ntp1362
Rp1363
(dp1364
g7
(dp1365
g9
V1998-99 SPx Finite Radiance #102 Keith Van Horn SP
p1366
sg11
I2700
sg12
VSPx Finite Radiance
p1367
sg14
(lp1368
Vhttp://www.beckett.com/basketball/1998-99/spx-finite-radiance/102-keith-van-horn-sp-3163752
p1369
asg17
g18
sg19
(lp1370
Vhttp://img.beckett.com/images/items_stock/185226/3163613/3163752/front.jpg
p1371
asg22
V#102
p1372
sg24
V1998-99
p1373
sg71
VSP
p1374
sg26
g27
sg28
(lp1375
VKeith Van Horn
p1376
assbag1
(g2
g3
Ntp1377
Rp1378
(dp1379
g7
(dp1380
g9
V1998-99 SPx Finite Radiance #119 Sam Cassell SP
p1381
sg11
I2700
sg12
VSPx Finite Radiance
p1382
sg14
(lp1383
Vhttp://www.beckett.com/basketball/1998-99/spx-finite-radiance/119-sam-cassell-sp-3163769
p1384
asg17
g18
sg19
(lp1385
Vhttp://img.beckett.com/images/items_stock/185226/3163613/3163769/front_old.jpg
p1386
asg22
V#119
p1387
sg24
V1998-99
p1388
sg71
VSP
p1389
sg26
g27
sg28
(lp1390
VSam Cassell
p1391
assbag1
(g2
g3
Ntp1392
Rp1393
(dp1394
g7
(dp1395
g9
V1998-99 SPx Finite Radiance #127 Kerry Kittles SP
p1396
sg11
I2700
sg12
VSPx Finite Radiance
p1397
sg14
(lp1398
Vhttp://www.beckett.com/basketball/1998-99/spx-finite-radiance/127-kerry-kittles-sp-3163777
p1399
asg17
g18
sg19
(lp1400
Vhttp://img.beckett.com/images/items_stock/185226/3163613/3163777/front.jpg
p1401
asg22
V#127
p1402
sg24
V1998-99
p1403
sg71
VSP
p1404
sg26
g27
sg28
(lp1405
VKerry Kittles
p1406
assbag1
(g2
g3
Ntp1407
Rp1408
(dp1409
g7
(dp1410
g9
V1998-99 SPx Finite Radiance #174 Keith Van Horn SPx
p1411
sg11
I2025
sg12
VSPx Finite Radiance
p1412
sg14
(lp1413
Vhttp://www.beckett.com/basketball/1998-99/spx-finite-radiance/174-keith-van-horn-spx-3163824
p1414
asg17
g18
sg19
(lp1415
Vhttp://img.beckett.com/images/items_stock/185226/3163613/3163824/front.jpg
p1416
asg22
V#174
p1417
sg24
V1998-99
p1418
sg71
VSPx
p1419
sg26
g27
sg28
(lp1420
VKeith Van Horn
p1421
assbag1
(g2
g3
Ntp1422
Rp1423
(dp1424
g7
(dp1425
g9
V1998-99 SPx Finite Radiance #176 Kerry Kittles SPx
p1426
sg11
I2025
sg12
VSPx Finite Radiance
p1427
sg14
(lp1428
Vhttp://www.beckett.com/basketball/1998-99/spx-finite-radiance/176-kerry-kittles-spx-3163826
p1429
asg17
g18
sg19
(lp1430
Vhttp://img.beckett.com/images/items_stock/185226/3163613/3163826/front.jpg
p1431
asg22
V#176
p1432
sg24
V1998-99
p1433
sg71
VSPx
p1434
sg26
g27
sg28
(lp1435
VKerry Kittles
p1436
assbag1
(g2
g3
Ntp1437
Rp1438
(dp1439
g7
(dp1440
g9
V1998-99 SPx Finite Spectrum #3 Keith Van Horn
p1441
sg11
I350
sg12
VSPx Finite Spectrum
p1442
sg14
(lp1443
Vhttp://www.beckett.com/basketball/1998-99/spx-finite-spectrum/3-keith-van-horn-3163931
p1444
asg17
g18
sg19
(lp1445
Vhttp://img.beckett.com/images/items_stock/185226/3163891/3163931/front.jpg
p1446
asg22
V#3
p1447
sg24
V1998-99
p1448
sg26
g27
sg28
(lp1449
VKeith Van Horn
p1450
assbag1
(g2
g3
Ntp1451
Rp1452
(dp1453
g7
(dp1454
g9
V1998-99 SPx Finite Spectrum #28 Sam Cassell
p1455
sg11
I350
sg12
VSPx Finite Spectrum
p1456
sg14
(lp1457
Vhttp://www.beckett.com/basketball/1998-99/spx-finite-spectrum/28-sam-cassell-3163956
p1458
asg17
g18
sg19
(lp1459
Vhttp://img.beckett.com/images/items_stock/185226/3163891/3163956/front.jpg
p1460
asg22
V#28
p1461
sg24
V1998-99
p1462
sg26
g27
sg28
(lp1463
VSam Cassell
p1464
assbag1
(g2
g3
Ntp1465
Rp1466
(dp1467
g7
(dp1468
g9
V1998-99 SPx Finite Spectrum #72 Kerry Kittles
p1469
sg11
I350
sg12
VSPx Finite Spectrum
p1470
sg14
(lp1471
Vhttp://www.beckett.com/basketball/1998-99/spx-finite-spectrum/72-kerry-kittles-3164000
p1472
asg17
g18
sg19
(lp1473
Vhttp://img.beckett.com/images/items_stock/185226/3163891/3164000/front.jpg
p1474
asg22
V#72
p1475
sg24
V1998-99
p1476
sg26
g27
sg28
(lp1477
VKerry Kittles
p1478
assbag1
(g2
g3
Ntp1479
Rp1480
(dp1481
g7
(dp1482
g9
V1998-99 SPx Finite Spectrum #102 Keith Van Horn SP
p1483
sg11
I250
sg12
VSPx Finite Spectrum
p1484
sg14
(lp1485
Vhttp://www.beckett.com/basketball/1998-99/spx-finite-spectrum/102-keith-van-horn-sp-3164030
p1486
asg17
g18
sg19
(lp1487
Vhttp://img.beckett.com/images/items_stock/185226/3163891/3164030/front.jpg
p1488
asg22
V#102
p1489
sg24
V1998-99
p1490
sg71
VSP
p1491
sg26
g27
sg28
(lp1492
VKeith Van Horn
p1493
assbag1
(g2
g3
Ntp1494
Rp1495
(dp1496
g7
(dp1497
g9
V1998-99 SPx Finite Spectrum #119 Sam Cassell SP
p1498
sg11
I250
sg12
VSPx Finite Spectrum
p1499
sg14
(lp1500
Vhttp://www.beckett.com/basketball/1998-99/spx-finite-spectrum/119-sam-cassell-sp-3164047
p1501
asg17
g18
sg19
(lp1502
Vhttp://img.beckett.com/images/no-image.jpg
p1503
asg22
V#119
p1504
sg24
V1998-99
p1505
sg71
VSP
p1506
sg26
g27
sg28
(lp1507
VSam Cassell
p1508
assbag1
(g2
g3
Ntp1509
Rp1510
(dp1511
g7
(dp1512
g9
V1998-99 SPx Finite Spectrum #127 Kerry Kittles SP
p1513
sg11
I250
sg12
VSPx Finite Spectrum
p1514
sg14
(lp1515
Vhttp://www.beckett.com/basketball/1998-99/spx-finite-spectrum/127-kerry-kittles-sp-3164055
p1516
asg17
g18
sg19
(lp1517
Vhttp://img.beckett.com/images/items_stock/185226/3163891/3164055/front.jpg
p1518
asg22
V#127
p1519
sg24
V1998-99
p1520
sg71
VSP
p1521
sg26
g27
sg28
(lp1522
VKerry Kittles
p1523
assbag1
(g2
g3
Ntp1524
Rp1525
(dp1526
g7
(dp1527
g9
V1998-99 SPx Finite Spectrum #174 Keith Van Horn SPx
p1528
sg11
I75
sg12
VSPx Finite Spectrum
p1529
sg14
(lp1530
Vhttp://www.beckett.com/basketball/1998-99/spx-finite-spectrum/174-keith-van-horn-spx-3164102
p1531
asg17
g18
sg19
(lp1532
Vhttp://img.beckett.com/images/no-image.jpg
p1533
asg22
V#174
p1534
sg24
V1998-99
p1535
sg71
VSPx
p1536
sg26
g27
sg28
(lp1537
VKeith Van Horn
p1538
assbag1
(g2
g3
Ntp1539
Rp1540
(dp1541
g7
(dp1542
g9
V1998-99 SPx Finite Spectrum #176 Kerry Kittles SPx
p1543
sg11
I75
sg12
VSPx Finite Spectrum
p1544
sg14
(lp1545
Vhttp://www.beckett.com/basketball/1998-99/spx-finite-spectrum/176-kerry-kittles-spx-3164104
p1546
asg17
g18
sg19
(lp1547
Vhttp://img.beckett.com/images/no-image.jpg
p1548
asg22
V#176
p1549
sg24
V1998-99
p1550
sg71
VSPx
p1551
sg26
g27
sg28
(lp1552
VKerry Kittles
p1553
assbag1
(g2
g3
Ntp1554
Rp1555
(dp1556
g7
(dp1557
g9
V1998-99 Stadium Club First Day Issue #8 Sam Cassell
p1558
sg11
I200
sg12
VStadium Club First Day Issue
p1559
sg14
(lp1560
Vhttp://www.beckett.com/basketball/1998-99/stadium-club-first-day-issue/8-sam-cassell-3164453
p1561
asg17
g18
sg19
(lp1562
Vhttp://img.beckett.com/images/no-image.jpg
p1563
asg22
V#8
p1564
sg24
V1998-99
p1565
sg26
g27
sg28
(lp1566
VSam Cassell
p1567
assbag1
(g2
g3
Ntp1568
Rp1569
(dp1570
g7
(dp1571
g9
V1998-99 Stadium Club First Day Issue #21 Keith Van Horn
p1572
sg11
I200
sg12
VStadium Club First Day Issue
p1573
sg14
(lp1574
Vhttp://www.beckett.com/basketball/1998-99/stadium-club-first-day-issue/21-keith-van-horn-3164466
p1575
asg17
g18
sg19
(lp1576
Vhttp://img.beckett.com/images/no-image.jpg
p1577
asg22
V#21
p1578
sg24
V1998-99
p1579
sg26
g27
sg28
(lp1580
VKeith Van Horn
p1581
assbag1
(g2
g3
Ntp1582
Rp1583
(dp1584
g7
(dp1585
g9
V1998-99 Stadium Club First Day Issue #72 Sherman Douglas
p1586
sg11
I200
sg12
VStadium Club First Day Issue
p1587
sg14
(lp1588
Vhttp://www.beckett.com/basketball/1998-99/stadium-club-first-day-issue/72-sherman-douglas-3164517
p1589
asg17
g18
sg19
(lp1590
Vhttp://img.beckett.com/images/no-image.jpg
p1591
asg22
V#72
p1592
sg24
V1998-99
p1593
sg26
g27
sg28
(lp1594
VSherman Douglas
p1595
assbag1
(g2
g3
Ntp1596
Rp1597
(dp1598
g7
(dp1599
g9
V1998-99 Stadium Club First Day Issue #73 Kendall Gill
p1600
sg11
I200
sg12
VStadium Club First Day Issue
p1601
sg14
(lp1602
Vhttp://www.beckett.com/basketball/1998-99/stadium-club-first-day-issue/73-kendall-gill-3164518
p1603
asg17
g18
sg19
(lp1604
Vhttp://img.beckett.com/images/no-image.jpg
p1605
asg22
V#73
p1606
sg24
V1998-99
p1607
sg26
g27
sg28
(lp1608
VKendall Gill
p1609
assbag1
(g2
g3
Ntp1610
Rp1611
(dp1612
g7
(dp1613
g9
V1998-99 Stadium Club First Day Issue #125 Chris Gatling
p1614
sg11
I200
sg12
VStadium Club First Day Issue
p1615
sg14
(lp1616
Vhttp://www.beckett.com/basketball/1998-99/stadium-club-first-day-issue/125-chris-gatling-3164570
p1617
asg17
g18
sg19
(lp1618
Vhttp://img.beckett.com/images/no-image.jpg
p1619
asg22
V#125
p1620
sg24
V1998-99
p1621
sg26
g27
sg28
(lp1622
VChris Gatling
p1623
assbag1
(g2
g3
Ntp1624
Rp1625
(dp1626
g7
(dp1627
g9
V1998-99 Stadium Club First Day Issue #137 Rony Seikaly
p1628
sg11
I200
sg12
VStadium Club First Day Issue
p1629
sg14
(lp1630
Vhttp://www.beckett.com/basketball/1998-99/stadium-club-first-day-issue/137-rony-seikaly-3164582
p1631
asg17
g18
sg19
(lp1632
Vhttp://img.beckett.com/images/items_stock/185226/3164434/3164582/front.jpg
p1633
asg22
V#137
p1634
sg24
V1998-99
p1635
sg26
g27
sg28
(lp1636
VRony Seikaly
p1637
assbag1
(g2
g3
Ntp1638
Rp1639
(dp1640
g7
(dp1641
g9
V1998-99 Stadium Club First Day Issue #164 Jayson Williams
p1642
sg11
I200
sg12
VStadium Club First Day Issue
p1643
sg14
(lp1644
Vhttp://www.beckett.com/basketball/1998-99/stadium-club-first-day-issue/164-jayson-williams-3164609
p1645
asg17
g18
sg19
(lp1646
Vhttp://img.beckett.com/images/items_stock/185226/3164434/3164609/front.jpg
p1647
asg22
V#164
p1648
sg24
V1998-99
p1649
sg26
g27
sg28
(lp1650
VJayson Williams
p1651
assbag1
(g2
g3
Ntp1652
Rp1653
(dp1654
g7
(dp1655
g9
V1998-99 Stadium Club First Day Issue #190 Kerry Kittles
p1656
sg11
I200
sg12
VStadium Club First Day Issue
p1657
sg14
(lp1658
Vhttp://www.beckett.com/basketball/1998-99/stadium-club-first-day-issue/190-kerry-kittles-3164635
p1659
asg17
g18
sg19
(lp1660
Vhttp://img.beckett.com/images/no-image.jpg
p1661
asg22
V#190
p1662
sg24
V1998-99
p1663
sg26
g27
sg28
(lp1664
VKerry Kittles
p1665
assbag1
(g2
g3
Ntp1666
Rp1667
(dp1668
g7
(dp1669
g9
V1998-99 Stadium Club One Of A Kind #8 Sam Cassell
p1670
sg11
I150
sg12
VStadium Club One Of A Kind
p1671
sg14
(lp1672
Vhttp://www.beckett.com/basketball/1998-99/stadium-club-one-of-a-kind/8-sam-cassell-3160708
p1673
asg17
g18
sg19
(lp1674
Vhttp://img.beckett.com/images/items_stock/185226/3160688/3160708/front.jpg
p1675
asg22
V#8
p1676
sg24
V1998-99
p1677
sg26
g27
sg28
(lp1678
VSam Cassell
p1679
assbag1
(g2
g3
Ntp1680
Rp1681
(dp1682
g7
(dp1683
g9
V1998-99 Stadium Club One Of A Kind #21 Keith Van Horn
p1684
sg11
I150
sg12
VStadium Club One Of A Kind
p1685
sg14
(lp1686
Vhttp://www.beckett.com/basketball/1998-99/stadium-club-one-of-a-kind/21-keith-van-horn-3160721
p1687
asg17
g18
sg19
(lp1688
Vhttp://img.beckett.com/images/items_stock/185226/3160688/3160721/front.jpg
p1689
asg22
V#21
p1690
sg24
V1998-99
p1691
sg26
g27
sg28
(lp1692
VKeith Van Horn
p1693
assbag1
(g2
g3
Ntp1694
Rp1695
(dp1696
g7
(dp1697
g9
V1998-99 Stadium Club One Of A Kind #72 Sherman Douglas
p1698
sg11
I150
sg12
VStadium Club One Of A Kind
p1699
sg14
(lp1700
Vhttp://www.beckett.com/basketball/1998-99/stadium-club-one-of-a-kind/72-sherman-douglas-3160772
p1701
asg17
g18
sg19
(lp1702
Vhttp://img.beckett.com/images/no-image.jpg
p1703
asg22
V#72
p1704
sg24
V1998-99
p1705
sg26
g27
sg28
(lp1706
VSherman Douglas
p1707
assbag1
(g2
g3
Ntp1708
Rp1709
(dp1710
g7
(dp1711
g9
V1998-99 Stadium Club One Of A Kind #73 Kendall Gill
p1712
sg11
I150
sg12
VStadium Club One Of A Kind
p1713
sg14
(lp1714
Vhttp://www.beckett.com/basketball/1998-99/stadium-club-one-of-a-kind/73-kendall-gill-3160773
p1715
asg17
g18
sg19
(lp1716
Vhttp://img.beckett.com/images/no-image.jpg
p1717
asg22
V#73
p1718
sg24
V1998-99
p1719
sg26
g27
sg28
(lp1720
VKendall Gill
p1721
assbag1
(g2
g3
Ntp1722
Rp1723
(dp1724
g7
(dp1725
g9
V1998-99 Stadium Club One Of A Kind #125 Chris Gatling
p1726
sg11
I150
sg12
VStadium Club One Of A Kind
p1727
sg14
(lp1728
Vhttp://www.beckett.com/basketball/1998-99/stadium-club-one-of-a-kind/125-chris-gatling-3160825
p1729
asg17
g18
sg19
(lp1730
Vhttp://img.beckett.com/images/no-image.jpg
p1731
asg22
V#125
p1732
sg24
V1998-99
p1733
sg26
g27
sg28
(lp1734
VChris Gatling
p1735
assbag1
(g2
g3
Ntp1736
Rp1737
(dp1738
g7
(dp1739
g9
V1998-99 Stadium Club One Of A Kind #137 Rony Seikaly
p1740
sg11
I150
sg12
VStadium Club One Of A Kind
p1741
sg14
(lp1742
Vhttp://www.beckett.com/basketball/1998-99/stadium-club-one-of-a-kind/137-rony-seikaly-3160837
p1743
asg17
g18
sg19
(lp1744
Vhttp://img.beckett.com/images/no-image.jpg
p1745
asg22
V#137
p1746
sg24
V1998-99
p1747
sg26
g27
sg28
(lp1748
VRony Seikaly
p1749
assbag1
(g2
g3
Ntp1750
Rp1751
(dp1752
g7
(dp1753
g9
V1998-99 Stadium Club One Of A Kind #164 Jayson Williams
p1754
sg11
I150
sg12
VStadium Club One Of A Kind
p1755
sg14
(lp1756
Vhttp://www.beckett.com/basketball/1998-99/stadium-club-one-of-a-kind/164-jayson-williams-3160864
p1757
asg17
g18
sg19
(lp1758
Vhttp://img.beckett.com/images/items_stock/185226/3160688/3160864/front.jpg
p1759
asg22
V#164
p1760
sg24
V1998-99
p1761
sg26
g27
sg28
(lp1762
VJayson Williams
p1763
assbag1
(g2
g3
Ntp1764
Rp1765
(dp1766
g7
(dp1767
g9
V1998-99 Stadium Club One Of A Kind #190 Kerry Kittles
p1768
sg11
I150
sg12
VStadium Club One Of A Kind
p1769
sg14
(lp1770
Vhttp://www.beckett.com/basketball/1998-99/stadium-club-one-of-a-kind/190-kerry-kittles-3160890
p1771
asg17
g18
sg19
(lp1772
Vhttp://img.beckett.com/images/items_stock/185226/3160688/3160890/front.jpg
p1773
asg22
V#190
p1774
sg24
V1998-99
p1775
sg26
g27
sg28
(lp1776
VKerry Kittles
p1777
assbag1
(g2
g3
Ntp1778
Rp1779
(dp1780
g7
(dp1781
g9
V1998-99 Stadium Club Printing Plates #8 Sam Cassell Black
p1782
sg11
I1
sg12
VStadium Club Printing Plates
p1783
sg14
(lp1784
Vhttp://www.beckett.com/basketball/1998-99/stadium-club-printing-plates/8-sam-cassell-black-3160978
p1785
asg17
g18
sg19
(lp1786
Vhttp://img.beckett.com/images/no-image.jpg
p1787
asg22
V#8
p1788
sg24
V1998-99
p1789
sg26
g27
sg28
(lp1790
VSam Cassell
p1791
assbag1
(g2
g3
Ntp1792
Rp1793
(dp1794
g7
(dp1795
g9
V1998-99 Stadium Club Printing Plates #8A Sam Cassell Cyan
p1796
sg11
I1
sg12
VStadium Club Printing Plates
p1797
sg14
(lp1798
Vhttp://www.beckett.com/basketball/1998-99/stadium-club-printing-plates/8a-sam-cassell-cyan-3160979
p1799
asg17
g18
sg19
(lp1800
Vhttp://img.beckett.com/images/no-image.jpg
p1801
asg22
V#8A
p1802
sg24
V1998-99
p1803
sg26
g27
sg28
(lp1804
g1791
assbag1
(g2
g3
Ntp1805
Rp1806
(dp1807
g7
(dp1808
g9
V1998-99 Stadium Club Printing Plates #8B Sam Cassell Magenta
p1809
sg11
I1
sg12
VStadium Club Printing Plates
p1810
sg14
(lp1811
Vhttp://www.beckett.com/basketball/1998-99/stadium-club-printing-plates/8b-sam-cassell-magenta-3160980
p1812
asg17
g18
sg19
(lp1813
Vhttp://img.beckett.com/images/no-image.jpg
p1814
asg22
V#8B
p1815
sg24
V1998-99
p1816
sg26
g27
sg28
(lp1817
g1791
assbag1
(g2
g3
Ntp1818
Rp1819
(dp1820
g7
(dp1821
g9
V1998-99 Stadium Club Printing Plates #8C Sam Cassell Yellow
p1822
sg11
I1
sg12
VStadium Club Printing Plates
p1823
sg14
(lp1824
Vhttp://www.beckett.com/basketball/1998-99/stadium-club-printing-plates/8c-sam-cassell-yellow-3160981
p1825
asg17
g18
sg19
(lp1826
Vhttp://img.beckett.com/images/no-image.jpg
p1827
asg22
V#8C
p1828
sg24
V1998-99
p1829
sg26
g27
sg28
(lp1830
g1791
assbag1
(g2
g3
Ntp1831
Rp1832
(dp1833
g7
(dp1834
g9
V1998-99 Stadium Club Printing Plates #21 Keith Van Horn Black
p1835
sg11
I1
sg12
VStadium Club Printing Plates
p1836
sg14
(lp1837
Vhttp://www.beckett.com/basketball/1998-99/stadium-club-printing-plates/21-keith-van-horn-black-3161030
p1838
asg17
g18
sg19
(lp1839
Vhttp://img.beckett.com/images/no-image.jpg
p1840
asg22
V#21
p1841
sg24
V1998-99
p1842
sg26
g27
sg28
(lp1843
VKeith Van Horn
p1844
assbag1
(g2
g3
Ntp1845
Rp1846
(dp1847
g7
(dp1848
g9
V1998-99 Stadium Club Printing Plates #21A Keith Van Horn Cyan
p1849
sg11
I1
sg12
VStadium Club Printing Plates
p1850
sg14
(lp1851
Vhttp://www.beckett.com/basketball/1998-99/stadium-club-printing-plates/21a-keith-van-horn-cyan-3161031
p1852
asg17
g18
sg19
(lp1853
Vhttp://img.beckett.com/images/no-image.jpg
p1854
asg22
V#21A
p1855
sg24
V1998-99
p1856
sg26
g27
sg28
(lp1857
g1844
assbag1
(g2
g3
Ntp1858
Rp1859
(dp1860
g7
(dp1861
g9
V1998-99 Stadium Club Printing Plates #21B Keith Van Horn Magenta
p1862
sg11
I1
sg12
VStadium Club Printing Plates
p1863
sg14
(lp1864
Vhttp://www.beckett.com/basketball/1998-99/stadium-club-printing-plates/21b-keith-van-horn-magenta-3161032
p1865
asg17
g18
sg19
(lp1866
Vhttp://img.beckett.com/images/no-image.jpg
p1867
asg22
V#21B
p1868
sg24
V1998-99
p1869
sg26
g27
sg28
(lp1870
g1844
assbag1
(g2
g3
Ntp1871
Rp1872
(dp1873
g7
(dp1874
g9
V1998-99 Stadium Club Printing Plates #21C Keith Van Horn Yellow
p1875
sg11
I1
sg12
VStadium Club Printing Plates
p1876
sg14
(lp1877
Vhttp://www.beckett.com/basketball/1998-99/stadium-club-printing-plates/21c-keith-van-horn-yellow-3161033
p1878
asg17
g18
sg19
(lp1879
Vhttp://img.beckett.com/images/no-image.jpg
p1880
asg22
V#21C
p1881
sg24
V1998-99
p1882
sg26
g27
sg28
(lp1883
g1844
assbag1
(g2
g3
Ntp1884
Rp1885
(dp1886
g7
(dp1887
g9
V1998-99 Stadium Club Printing Plates #72 Sherman Douglas Black
p1888
sg11
I1
sg12
VStadium Club Printing Plates
p1889
sg14
(lp1890
Vhttp://www.beckett.com/basketball/1998-99/stadium-club-printing-plates/72-sherman-douglas-black-3161234
p1891
asg17
g18
sg19
(lp1892
Vhttp://img.beckett.com/images/no-image.jpg
p1893
asg22
V#72
p1894
sg24
V1998-99
p1895
sg26
g27
sg28
(lp1896
VSherman Douglas
p1897
assbag1
(g2
g3
Ntp1898
Rp1899
(dp1900
g7
(dp1901
g9
V1998-99 Stadium Club Printing Plates #72A Sherman Douglas Cyan
p1902
sg11
I1
sg12
VStadium Club Printing Plates
p1903
sg14
(lp1904
Vhttp://www.beckett.com/basketball/1998-99/stadium-club-printing-plates/72a-sherman-douglas-cyan-3161235
p1905
asg17
g18
sg19
(lp1906
Vhttp://img.beckett.com/images/no-image.jpg
p1907
asg22
V#72A
p1908
sg24
V1998-99
p1909
sg26
g27
sg28
(lp1910
g1897
assbag1
(g2
g3
Ntp1911
Rp1912
(dp1913
g7
(dp1914
g9
V1998-99 Stadium Club Printing Plates #72B Sherman Douglas Magenta
p1915
sg11
I1
sg12
VStadium Club Printing Plates
p1916
sg14
(lp1917
Vhttp://www.beckett.com/basketball/1998-99/stadium-club-printing-plates/72b-sherman-douglas-magenta-3161236
p1918
asg17
g18
sg19
(lp1919
Vhttp://img.beckett.com/images/no-image.jpg
p1920
asg22
V#72B
p1921
sg24
V1998-99
p1922
sg26
g27
sg28
(lp1923
g1897
assbag1
(g2
g3
Ntp1924
Rp1925
(dp1926
g7
(dp1927
g9
V1998-99 Stadium Club Printing Plates #72C Sherman Douglas Yellow
p1928
sg11
I1
sg12
VStadium Club Printing Plates
p1929
sg14
(lp1930
Vhttp://www.beckett.com/basketball/1998-99/stadium-club-printing-plates/72c-sherman-douglas-yellow-3161237
p1931
asg17
g18
sg19
(lp1932
Vhttp://img.beckett.com/images/no-image.jpg
p1933
asg22
V#72C
p1934
sg24
V1998-99
p1935
sg26
g27
sg28
(lp1936
g1897
assbag1
(g2
g3
Ntp1937
Rp1938
(dp1939
g7
(dp1940
g9
V1998-99 Stadium Club Printing Plates #73 Kendall Gill Black
p1941
sg11
I1
sg12
VStadium Club Printing Plates
p1942
sg14
(lp1943
Vhttp://www.beckett.com/basketball/1998-99/stadium-club-printing-plates/73-kendall-gill-black-3161238
p1944
asg17
g18
sg19
(lp1945
Vhttp://img.beckett.com/images/no-image.jpg
p1946
asg22
V#73
p1947
sg24
V1998-99
p1948
sg26
g27
sg28
(lp1949
VKendall Gill
p1950
assbag1
(g2
g3
Ntp1951
Rp1952
(dp1953
g7
(dp1954
g9
V1998-99 Stadium Club Printing Plates #73A Kendall Gill Cyan
p1955
sg11
I1
sg12
VStadium Club Printing Plates
p1956
sg14
(lp1957
Vhttp://www.beckett.com/basketball/1998-99/stadium-club-printing-plates/73a-kendall-gill-cyan-3161239
p1958
asg17
g18
sg19
(lp1959
Vhttp://img.beckett.com/images/no-image.jpg
p1960
asg22
V#73A
p1961
sg24
V1998-99
p1962
sg26
g27
sg28
(lp1963
g1950
assbag1
(g2
g3
Ntp1964
Rp1965
(dp1966
g7
(dp1967
g9
V1998-99 Stadium Club Printing Plates #73B Kendall Gill Magenta
p1968
sg11
I1
sg12
VStadium Club Printing Plates
p1969
sg14
(lp1970
Vhttp://www.beckett.com/basketball/1998-99/stadium-club-printing-plates/73b-kendall-gill-magenta-3161240
p1971
asg17
g18
sg19
(lp1972
Vhttp://img.beckett.com/images/no-image.jpg
p1973
asg22
V#73B
p1974
sg24
V1998-99
p1975
sg26
g27
sg28
(lp1976
g1950
assbag1
(g2
g3
Ntp1977
Rp1978
(dp1979
g7
(dp1980
g9
V1998-99 Stadium Club Printing Plates #73C Kendall Gill Yellow
p1981
sg11
I1
sg12
VStadium Club Printing Plates
p1982
sg14
(lp1983
Vhttp://www.beckett.com/basketball/1998-99/stadium-club-printing-plates/73c-kendall-gill-yellow-3161241
p1984
asg17
g18
sg19
(lp1985
Vhttp://img.beckett.com/images/no-image.jpg
p1986
asg22
V#73C
p1987
sg24
V1998-99
p1988
sg26
g27
sg28
(lp1989
g1950
assbag1
(g2
g3
Ntp1990
Rp1991
(dp1992
g7
(dp1993
g9
V1998-99 Stadium Club Printing Plates #125 Chris Gatling Black
p1994
sg11
I1
sg12
VStadium Club Printing Plates
p1995
sg14
(lp1996
Vhttp://www.beckett.com/basketball/1998-99/stadium-club-printing-plates/125-chris-gatling-black-3161446
p1997
asg17
g18
sg19
(lp1998
Vhttp://img.beckett.com/images/no-image.jpg
p1999
asg22
V#125
p2000
sg24
V1998-99
p2001
sg26
g27
sg28
(lp2002
VChris Gatling
p2003
assbag1
(g2
g3
Ntp2004
Rp2005
(dp2006
g7
(dp2007
g9
V1998-99 Stadium Club Printing Plates #125A Chris Gatling Cyan
p2008
sg11
I1
sg12
VStadium Club Printing Plates
p2009
sg14
(lp2010
Vhttp://www.beckett.com/basketball/1998-99/stadium-club-printing-plates/125a-chris-gatling-cyan-3161447
p2011
asg17
g18
sg19
(lp2012
Vhttp://img.beckett.com/images/no-image.jpg
p2013
asg22
V#125A
p2014
sg24
V1998-99
p2015
sg26
g27
sg28
(lp2016
g2003
assbag1
(g2
g3
Ntp2017
Rp2018
(dp2019
g7
(dp2020
g9
V1998-99 Stadium Club Printing Plates #125B Chris Gatling Magenta
p2021
sg11
I1
sg12
VStadium Club Printing Plates
p2022
sg14
(lp2023
Vhttp://www.beckett.com/basketball/1998-99/stadium-club-printing-plates/125b-chris-gatling-magenta-3161448
p2024
asg17
g18
sg19
(lp2025
Vhttp://img.beckett.com/images/no-image.jpg
p2026
asg22
V#125B
p2027
sg24
V1998-99
p2028
sg26
g27
sg28
(lp2029
g2003
assbag1
(g2
g3
Ntp2030
Rp2031
(dp2032
g7
(dp2033
g9
V1998-99 Stadium Club Printing Plates #125C Chris Gatling Yellow
p2034
sg11
I1
sg12
VStadium Club Printing Plates
p2035
sg14
(lp2036
Vhttp://www.beckett.com/basketball/1998-99/stadium-club-printing-plates/125c-chris-gatling-yellow-3161449
p2037
asg17
g18
sg19
(lp2038
Vhttp://img.beckett.com/images/no-image.jpg
p2039
asg22
V#125C
p2040
sg24
V1998-99
p2041
sg26
g27
sg28
(lp2042
g2003
assbag1
(g2
g3
Ntp2043
Rp2044
(dp2045
g7
(dp2046
g9
V1998-99 Stadium Club Printing Plates #137 Rony Seikaly Black
p2047
sg11
I1
sg12
VStadium Club Printing Plates
p2048
sg14
(lp2049
Vhttp://www.beckett.com/basketball/1998-99/stadium-club-printing-plates/137-rony-seikaly-black-3161494
p2050
asg17
g18
sg19
(lp2051
Vhttp://img.beckett.com/images/no-image.jpg
p2052
asg22
V#137
p2053
sg24
V1998-99
p2054
sg26
g27
sg28
(lp2055
VRony Seikaly
p2056
assbag1
(g2
g3
Ntp2057
Rp2058
(dp2059
g7
(dp2060
g9
V1998-99 Stadium Club Printing Plates #137A Rony Seikaly Cyan
p2061
sg11
I1
sg12
VStadium Club Printing Plates
p2062
sg14
(lp2063
Vhttp://www.beckett.com/basketball/1998-99/stadium-club-printing-plates/137a-rony-seikaly-cyan-3161495
p2064
asg17
g18
sg19
(lp2065
Vhttp://img.beckett.com/images/no-image.jpg
p2066
asg22
V#137A
p2067
sg24
V1998-99
p2068
sg26
g27
sg28
(lp2069
g2056
assbag1
(g2
g3
Ntp2070
Rp2071
(dp2072
g7
(dp2073
g9
V1998-99 Stadium Club Printing Plates #137B Rony Seikaly Magenta
p2074
sg11
I1
sg12
VStadium Club Printing Plates
p2075
sg14
(lp2076
Vhttp://www.beckett.com/basketball/1998-99/stadium-club-printing-plates/137b-rony-seikaly-magenta-3161496
p2077
asg17
g18
sg19
(lp2078
Vhttp://img.beckett.com/images/no-image.jpg
p2079
asg22
V#137B
p2080
sg24
V1998-99
p2081
sg26
g27
sg28
(lp2082
g2056
assbag1
(g2
g3
Ntp2083
Rp2084
(dp2085
g7
(dp2086
g9
V1998-99 Stadium Club Printing Plates #137C Rony Seikaly Yellow
p2087
sg11
I1
sg12
VStadium Club Printing Plates
p2088
sg14
(lp2089
Vhttp://www.beckett.com/basketball/1998-99/stadium-club-printing-plates/137c-rony-seikaly-yellow-3161497
p2090
asg17
g18
sg19
(lp2091
Vhttp://img.beckett.com/images/no-image.jpg
p2092
asg22
V#137C
p2093
sg24
V1998-99
p2094
sg26
g27
sg28
(lp2095
g2056
assbag1
(g2
g3
Ntp2096
Rp2097
(dp2098
g7
(dp2099
g9
V1998-99 Stadium Club Printing Plates #164 Jayson Williams Black
p2100
sg11
I1
sg12
VStadium Club Printing Plates
p2101
sg14
(lp2102
Vhttp://www.beckett.com/basketball/1998-99/stadium-club-printing-plates/164-jayson-williams-black-3161602
p2103
asg17
g18
sg19
(lp2104
Vhttp://img.beckett.com/images/no-image.jpg
p2105
asg22
V#164
p2106
sg24
V1998-99
p2107
sg26
g27
sg28
(lp2108
VJayson Williams
p2109
assbag1
(g2
g3
Ntp2110
Rp2111
(dp2112
g7
(dp2113
g9
V1998-99 Stadium Club Printing Plates #164A Jayson Williams Cyan
p2114
sg11
I1
sg12
VStadium Club Printing Plates
p2115
sg14
(lp2116
Vhttp://www.beckett.com/basketball/1998-99/stadium-club-printing-plates/164a-jayson-williams-cyan-3161603
p2117
asg17
g18
sg19
(lp2118
Vhttp://img.beckett.com/images/no-image.jpg
p2119
asg22
V#164A
p2120
sg24
V1998-99
p2121
sg26
g27
sg28
(lp2122
g2109
assbag1
(g2
g3
Ntp2123
Rp2124
(dp2125
g7
(dp2126
g9
V1998-99 Stadium Club Printing Plates #164B Jayson Williams Magenta
p2127
sg11
I1
sg12
VStadium Club Printing Plates
p2128
sg14
(lp2129
Vhttp://www.beckett.com/basketball/1998-99/stadium-club-printing-plates/164b-jayson-williams-magenta-3161604
p2130
asg17
g18
sg19
(lp2131
Vhttp://img.beckett.com/images/no-image.jpg
p2132
asg22
V#164B
p2133
sg24
V1998-99
p2134
sg26
g27
sg28
(lp2135
g2109
assbag1
(g2
g3
Ntp2136
Rp2137
(dp2138
g7
(dp2139
g9
V1998-99 Stadium Club Printing Plates #164C Jayson Williams Yellow
p2140
sg11
I1
sg12
VStadium Club Printing Plates
p2141
sg14
(lp2142
Vhttp://www.beckett.com/basketball/1998-99/stadium-club-printing-plates/164c-jayson-williams-yellow-3161605
p2143
asg17
g18
sg19
(lp2144
Vhttp://img.beckett.com/images/no-image.jpg
p2145
asg22
V#164C
p2146
sg24
V1998-99
p2147
sg26
g27
sg28
(lp2148
g2109
assbag1
(g2
g3
Ntp2149
Rp2150
(dp2151
g7
(dp2152
g9
V1998-99 Stadium Club Printing Plates #190 Kerry Kittles Black
p2153
sg11
I1
sg12
VStadium Club Printing Plates
p2154
sg14
(lp2155
Vhttp://www.beckett.com/basketball/1998-99/stadium-club-printing-plates/190-kerry-kittles-black-3161706
p2156
asg17
g18
sg19
(lp2157
Vhttp://img.beckett.com/images/no-image.jpg
p2158
asg22
V#190
p2159
sg24
V1998-99
p2160
sg26
g27
sg28
(lp2161
VKerry Kittles
p2162
assbag1
(g2
g3
Ntp2163
Rp2164
(dp2165
g7
(dp2166
g9
V1998-99 Stadium Club Printing Plates #190A Kerry Kittles Cyan
p2167
sg11
I1
sg12
VStadium Club Printing Plates
p2168
sg14
(lp2169
Vhttp://www.beckett.com/basketball/1998-99/stadium-club-printing-plates/190a-kerry-kittles-cyan-3161707
p2170
asg17
g18
sg19
(lp2171
Vhttp://img.beckett.com/images/no-image.jpg
p2172
asg22
V#190A
p2173
sg24
V1998-99
p2174
sg26
g27
sg28
(lp2175
g2162
assbag1
(g2
g3
Ntp2176
Rp2177
(dp2178
g7
(dp2179
g9
V1998-99 Stadium Club Printing Plates #190B Kerry Kittles Magenta
p2180
sg11
I1
sg12
VStadium Club Printing Plates
p2181
sg14
(lp2182
Vhttp://www.beckett.com/basketball/1998-99/stadium-club-printing-plates/190b-kerry-kittles-magenta-3161708
p2183
asg17
g18
sg19
(lp2184
Vhttp://img.beckett.com/images/no-image.jpg
p2185
asg22
V#190B
p2186
sg24
V1998-99
p2187
sg26
g27
sg28
(lp2188
g2162
assbag1
(g2
g3
Ntp2189
Rp2190
(dp2191
g7
(dp2192
g9
V1998-99 Stadium Club Printing Plates #190C Kerry Kittles Yellow
p2193
sg11
I1
sg12
VStadium Club Printing Plates
p2194
sg14
(lp2195
Vhttp://www.beckett.com/basketball/1998-99/stadium-club-printing-plates/190c-kerry-kittles-yellow-3161709
p2196
asg17
g18
sg19
(lp2197
Vhttp://img.beckett.com/images/no-image.jpg
p2198
asg22
V#190C
p2199
sg24
V1998-99
p2200
sg26
g27
sg28
(lp2201
g2162
assbag1
(g2
g3
Ntp2202
Rp2203
(dp2204
g7
(dp2205
g9
V1998-99 UD Choice Premium Choice Reserve #89 Keith Van Horn
p2206
sg11
I100
sg12
VUD Choice Premium Choice Reserve
p2207
sg14
(lp2208
Vhttp://www.beckett.com/basketball/1998-99/ud-choice-premium-choice-reserve/89-keith-van-horn-3159262
p2209
asg17
g18
sg19
(lp2210
Vhttp://img.beckett.com/images/no-image.jpg
p2211
asg22
V#89
p2212
sg24
V1998-99
p2213
sg26
g27
sg28
(lp2214
VKeith Van Horn
p2215
assbag1
(g2
g3
Ntp2216
Rp2217
(dp2218
g7
(dp2219
g9
V1998-99 UD Choice Premium Choice Reserve #90 Sam Cassell
p2220
sg11
I100
sg12
VUD Choice Premium Choice Reserve
p2221
sg14
(lp2222
Vhttp://www.beckett.com/basketball/1998-99/ud-choice-premium-choice-reserve/90-sam-cassell-3159263
p2223
asg17
g18
sg19
(lp2224
Vhttp://img.beckett.com/images/no-image.jpg
p2225
asg22
V#90
p2226
sg24
V1998-99
p2227
sg26
g27
sg28
(lp2228
VSam Cassell
p2229
assbag1
(g2
g3
Ntp2230
Rp2231
(dp2232
g7
(dp2233
g9
V1998-99 UD Choice Premium Choice Reserve #91 Kendall Gill
p2234
sg11
I100
sg12
VUD Choice Premium Choice Reserve
p2235
sg14
(lp2236
Vhttp://www.beckett.com/basketball/1998-99/ud-choice-premium-choice-reserve/91-kendall-gill-3159264
p2237
asg17
g18
sg19
(lp2238
Vhttp://img.beckett.com/images/no-image.jpg
p2239
asg22
V#91
p2240
sg24
V1998-99
p2241
sg26
g27
sg28
(lp2242
VKendall Gill
p2243
assbag1
(g2
g3
Ntp2244
Rp2245
(dp2246
g7
(dp2247
g9
V1998-99 UD Choice Premium Choice Reserve #92 Chris Gatling
p2248
sg11
I100
sg12
VUD Choice Premium Choice Reserve
p2249
sg14
(lp2250
Vhttp://www.beckett.com/basketball/1998-99/ud-choice-premium-choice-reserve/92-chris-gatling-3159265
p2251
asg17
g18
sg19
(lp2252
Vhttp://img.beckett.com/images/no-image.jpg
p2253
asg22
V#92
p2254
sg24
V1998-99
p2255
sg26
g27
sg28
(lp2256
VChris Gatling
p2257
assbag1
(g2
g3
Ntp2258
Rp2259
(dp2260
g7
(dp2261
g9
V1998-99 UD Choice Premium Choice Reserve #93 Kerry Kittles
p2262
sg11
I100
sg12
VUD Choice Premium Choice Reserve
p2263
sg14
(lp2264
Vhttp://www.beckett.com/basketball/1998-99/ud-choice-premium-choice-reserve/93-kerry-kittles-3159266
p2265
asg17
g18
sg19
(lp2266
Vhttp://img.beckett.com/images/no-image.jpg
p2267
asg22
V#93
p2268
sg24
V1998-99
p2269
sg26
g27
sg28
(lp2270
VKerry Kittles
p2271
assbag1
(g2
g3
Ntp2272
Rp2273
(dp2274
g7
(dp2275
g9
V1998-99 UD Choice Premium Choice Reserve #172 Keith Van Horn FS
p2276
sg11
I100
sg12
VUD Choice Premium Choice Reserve
p2277
sg14
(lp2278
Vhttp://www.beckett.com/basketball/1998-99/ud-choice-premium-choice-reserve/172-keith-van-horn-fs-3159345
p2279
asg17
g18
sg19
(lp2280
Vhttp://img.beckett.com/images/no-image.jpg
p2281
asg22
V#172
p2282
sg24
V1998-99
p2283
sg71
VFS
p2284
sg26
g27
sg28
(lp2285
VKeith Van Horn
p2286
assbag1
(g2
g3
Ntp2287
Rp2288
(dp2289
g7
(dp2290
g9
V1998-99 UD Choice Premium Choice Reserve #194 New Jersey Nets YIR/Keith Van Horn/Kerry Kittles/Jayson Williams/Kendall Gill/Sam Cassell
p2291
sg11
I100
sg12
VUD Choice Premium Choice Reserve
p2292
sg14
(lp2293
Vhttp://www.beckett.com/basketball/1998-99/ud-choice-premium-choice-reserve/194-new-jersey-nets-yirkeith-van-hornkerry-kittlesjayson-williamskendall-gillsam-cassell-3159367
p2294
asg17
g18
sg19
(lp2295
Vhttp://img.beckett.com/images/no-image.jpg
p2296
asg22
V#194
p2297
sg24
V1998-99
p2298
sg26
g27
sg28
(lp2299
VNew Jersey Nets
p2300
aVKeith Van Horn
p2301
aVKerry Kittles
p2302
aVJayson Williams
p2303
aVKendall Gill
p2304
aVSam Cassell
p2305
assbag1
(g2
g3
Ntp2306
Rp2307
(dp2308
g7
(dp2309
g9
V1998-99 UD Ionix Reciprocal #39 Jayson Williams
p2310
sg11
I750
sg12
VUD Ionix Reciprocal
p2311
sg14
(lp2312
Vhttp://www.beckett.com/basketball/1998-99/ud-ionix-reciprocal/39-jayson-williams-3159715
p2313
asg17
g18
sg19
(lp2314
Vhttp://img.beckett.com/images/no-image.jpg
p2315
asg22
V#39
p2316
sg24
V1998-99
p2317
sg26
g27
sg28
(lp2318
VJayson Williams
p2319
assbag1
(g2
g3
Ntp2320
Rp2321
(dp2322
g7
(dp2323
g9
V1998-99 UD Ionix Reciprocal #40 Keith Van Horn
p2324
sg11
I750
sg12
VUD Ionix Reciprocal
p2325
sg14
(lp2326
Vhttp://www.beckett.com/basketball/1998-99/ud-ionix-reciprocal/40-keith-van-horn-3159716
p2327
asg17
g18
sg19
(lp2328
Vhttp://img.beckett.com/images/items_stock/185226/3159665/3159716/front.jpg
p2329
asg22
V#40
p2330
sg24
V1998-99
p2331
sg26
g27
sg28
(lp2332
VKeith Van Horn
p2333
assbag1
(g2
g3
Ntp2334
Rp2335
(dp2336
g7
(dp2337
g9
V1998-99 Ultra Masterpieces #1 Keith Van Horn
p2338
sg11
I1
sg12
VUltra Masterpieces
p2339
sg14
(lp2340
Vhttp://www.beckett.com/basketball/1998-99/ultra-masterpieces/1-keith-van-horn-3156957
p2341
asg17
g18
sg19
(lp2342
Vhttp://img.beckett.com/images/no-image.jpg
p2343
asg22
V#1
p2344
sg24
V1998-99
p2345
sg26
g27
sg28
(lp2346
VKeith Van Horn
p2347
assbag1
(g2
g3
Ntp2348
Rp2349
(dp2350
g7
(dp2351
g9
V1998-99 Ultra Masterpieces #21 Jayson Williams
p2352
sg11
I1
sg12
VUltra Masterpieces
p2353
sg14
(lp2354
Vhttp://www.beckett.com/basketball/1998-99/ultra-masterpieces/21-jayson-williams-3156977
p2355
asg17
g18
sg19
(lp2356
Vhttp://img.beckett.com/images/no-image.jpg
p2357
asg22
V#21
p2358
sg24
V1998-99
p2359
sg26
g27
sg28
(lp2360
VJayson Williams
p2361
assbag1
(g2
g3
Ntp2362
Rp2363
(dp2364
g7
(dp2365
g9
V1998-99 Ultra Masterpieces #86 Kerry Kittles
p2366
sg11
I1
sg12
VUltra Masterpieces
p2367
sg14
(lp2368
Vhttp://www.beckett.com/basketball/1998-99/ultra-masterpieces/86-kerry-kittles-3157042
p2369
asg17
g18
sg19
(lp2370
Vhttp://img.beckett.com/images/no-image.jpg
p2371
asg22
V#86
p2372
sg24
V1998-99
p2373
sg26
g27
sg28
(lp2374
VKerry Kittles
p2375
assbag1
(g2
g3
Ntp2376
Rp2377
(dp2378
g7
(dp2379
g9
V1998-99 Ultra Masterpieces #96 Kendall Gill
p2380
sg11
I1
sg12
VUltra Masterpieces
p2381
sg14
(lp2382
Vhttp://www.beckett.com/basketball/1998-99/ultra-masterpieces/96-kendall-gill-3157052
p2383
asg17
g18
sg19
(lp2384
Vhttp://img.beckett.com/images/no-image.jpg
p2385
asg22
V#96
p2386
sg24
V1998-99
p2387
sg26
g27
sg28
(lp2388
VKendall Gill
p2389
assbag1
(g2
g3
Ntp2390
Rp2391
(dp2392
g7
(dp2393
g9
V1998-99 Ultra Platinum Medallion #1 Keith Van Horn
p2394
sg11
I99
sg12
VUltra Platinum Medallion
p2395
sg14
(lp2396
Vhttp://www.beckett.com/basketball/1998-99/ultra-platinum-medallion/1-keith-van-horn-3157093
p2397
asg17
g18
sg19
(lp2398
Vhttp://img.beckett.com/images/no-image.jpg
p2399
asg22
V#1
p2400
sg24
V1998-99
p2401
sg26
g27
sg28
(lp2402
VKeith Van Horn
p2403
assbag1
(g2
g3
Ntp2404
Rp2405
(dp2406
g7
(dp2407
g9
V1998-99 Ultra Platinum Medallion #21 Jayson Williams
p2408
sg11
I99
sg12
VUltra Platinum Medallion
p2409
sg14
(lp2410
Vhttp://www.beckett.com/basketball/1998-99/ultra-platinum-medallion/21-jayson-williams-3157113
p2411
asg17
g18
sg19
(lp2412
Vhttp://img.beckett.com/images/items_stock/185226/3157082/3157113/front.jpg
p2413
asg22
V#21
p2414
sg24
V1998-99
p2415
sg26
g27
sg28
(lp2416
VJayson Williams
p2417
assbag1
(g2
g3
Ntp2418
Rp2419
(dp2420
g7
(dp2421
g9
V1998-99 Ultra Platinum Medallion #86 Kerry Kittles
p2422
sg11
I99
sg12
VUltra Platinum Medallion
p2423
sg14
(lp2424
Vhttp://www.beckett.com/basketball/1998-99/ultra-platinum-medallion/86-kerry-kittles-3157178
p2425
asg17
g18
sg19
(lp2426
Vhttp://img.beckett.com/images/no-image.jpg
p2427
asg22
V#86
p2428
sg24
V1998-99
p2429
sg26
g27
sg28
(lp2430
VKerry Kittles
p2431
assbag1
(g2
g3
Ntp2432
Rp2433
(dp2434
g7
(dp2435
g9
V1998-99 Ultra Platinum Medallion #96 Kendall Gill
p2436
sg11
I99
sg12
VUltra Platinum Medallion
p2437
sg14
(lp2438
Vhttp://www.beckett.com/basketball/1998-99/ultra-platinum-medallion/96-kendall-gill-3157188
p2439
asg17
g18
sg19
(lp2440
Vhttp://img.beckett.com/images/no-image.jpg
p2441
asg22
V#96
p2442
sg24
V1998-99
p2443
sg26
g27
sg28
(lp2444
VKendall Gill
p2445
assbag1
(g2
g3
Ntp2446
Rp2447
(dp2448
g7
(dp2449
g9
V1998-99 Upper Deck Bronze #96 Keith Van Horn
p2450
sg11
I100
sg12
VUpper Deck Bronze
p2451
sg14
(lp2452
Vhttp://www.beckett.com/basketball/1998-99/upper-deck-bronze/96-keith-van-horn-3157827
p2453
asg17
g18
sg19
(lp2454
Vhttp://img.beckett.com/images/no-image.jpg
p2455
asg22
V#96
p2456
sg24
V1998-99
p2457
sg26
g27
sg28
(lp2458
VKeith Van Horn
p2459
assbag1
(g2
g3
Ntp2460
Rp2461
(dp2462
g7
(dp2463
g9
V1998-99 Upper Deck Bronze #97 Kerry Kittles
p2464
sg11
I100
sg12
VUpper Deck Bronze
p2465
sg14
(lp2466
Vhttp://www.beckett.com/basketball/1998-99/upper-deck-bronze/97-kerry-kittles-3157828
p2467
asg17
g18
sg19
(lp2468
Vhttp://img.beckett.com/images/no-image.jpg
p2469
asg22
V#97
p2470
sg24
V1998-99
p2471
sg26
g27
sg28
(lp2472
VKerry Kittles
p2473
assbag1
(g2
g3
Ntp2474
Rp2475
(dp2476
g7
(dp2477
g9
V1998-99 Upper Deck Bronze #98 Kendall Gill
p2478
sg11
I100
sg12
VUpper Deck Bronze
p2479
sg14
(lp2480
Vhttp://www.beckett.com/basketball/1998-99/upper-deck-bronze/98-kendall-gill-3157829
p2481
asg17
g18
sg19
(lp2482
Vhttp://img.beckett.com/images/no-image.jpg
p2483
asg22
V#98
p2484
sg24
V1998-99
p2485
sg26
g27
sg28
(lp2486
VKendall Gill
p2487
assbag1
(g2
g3
Ntp2488
Rp2489
(dp2490
g7
(dp2491
g9
V1998-99 Upper Deck Bronze #99 Sam Cassell
p2492
sg11
I100
sg12
VUpper Deck Bronze
p2493
sg14
(lp2494
Vhttp://www.beckett.com/basketball/1998-99/upper-deck-bronze/99-sam-cassell-3157830
p2495
asg17
g18
sg19
(lp2496
Vhttp://img.beckett.com/images/items_stock/185226/3157718/3157830/front.jpg
p2497
asg22
V#99
p2498
sg24
V1998-99
p2499
sg26
g27
sg28
(lp2500
VSam Cassell
p2501
assbag1
(g2
g3
Ntp2502
Rp2503
(dp2504
g7
(dp2505
g9
V1998-99 Upper Deck Bronze #100 Chris Gatling
p2506
sg11
I100
sg12
VUpper Deck Bronze
p2507
sg14
(lp2508
Vhttp://www.beckett.com/basketball/1998-99/upper-deck-bronze/100-chris-gatling-3157831
p2509
asg17
g18
sg19
(lp2510
Vhttp://img.beckett.com/images/items_stock/185226/3157718/3157831/front.jpg
p2511
asg22
V#100
p2512
sg24
V1998-99
p2513
sg26
g27
sg28
(lp2514
VChris Gatling
p2515
assbag1
(g2
g3
Ntp2516
Rp2517
(dp2518
g7
(dp2519
g9
V1998-99 Upper Deck Bronze #101 Keith Van Horn/Sam Cassell HS
p2520
sg11
I100
sg12
VUpper Deck Bronze
p2521
sg14
(lp2522
Vhttp://www.beckett.com/basketball/1998-99/upper-deck-bronze/101-keith-van-hornsam-cassell-hs-3157832
p2523
asg17
g18
sg19
(lp2524
Vhttp://img.beckett.com/images/no-image.jpg
p2525
asg22
V#101
p2526
sg24
V1998-99
p2527
sg71
VHS
p2528
sg26
g27
sg28
(lp2529
VKeith Van Horn
p2530
aVSam Cassell
p2531
assbag1
(g2
g3
Ntp2532
Rp2533
(dp2534
g7
(dp2535
g9
V1998-99 Upper Deck Bronze #170 Keith Van Horn TN
p2536
sg11
I100
sg12
VUpper Deck Bronze
p2537
sg14
(lp2538
Vhttp://www.beckett.com/basketball/1998-99/upper-deck-bronze/170-keith-van-horn-tn-3157901
p2539
asg17
g18
sg19
(lp2540
Vhttp://img.beckett.com/images/no-image.jpg
p2541
asg22
V#170
p2542
sg24
V1998-99
p2543
sg71
VTN
p2544
sg26
g27
sg28
(lp2545
VKeith Van Horn
p2546
assbag1
(g2
g3
Ntp2547
Rp2548
(dp2549
g7
(dp2550
g9
V1998-99 Upper Deck Bronze #234 Jayson Williams
p2551
sg11
I100
sg12
VUpper Deck Bronze
p2552
sg14
(lp2553
Vhttp://www.beckett.com/basketball/1998-99/upper-deck-bronze/234-jayson-williams-3157987
p2554
asg17
g18
sg19
(lp2555
Vhttp://img.beckett.com/images/items_stock/185226/3157718/3157987/front.jpg
p2556
asg22
V#234
p2557
sg24
V1998-99
p2558
sg26
g27
sg28
(lp2559
VJayson Williams
p2560
assbag1
(g2
g3
Ntp2561
Rp2562
(dp2563
g7
(dp2564
g9
V1998-99 Upper Deck Bronze #281 Rony Seikaly
p2565
sg11
I100
sg12
VUpper Deck Bronze
p2566
sg14
(lp2567
Vhttp://www.beckett.com/basketball/1998-99/upper-deck-bronze/281-rony-seikaly-3158034
p2568
asg17
g18
sg19
(lp2569
Vhttp://img.beckett.com/images/no-image.jpg
p2570
asg22
V#281
p2571
sg24
V1998-99
p2572
sg26
g27
sg28
(lp2573
VRony Seikaly
p2574
assbag1
(g2
g3
Ntp2575
Rp2576
(dp2577
g7
(dp2578
g9
V1998-99 Upper Deck Gold #96 Keith Van Horn
p2579
sg11
I1
sg12
VUpper Deck Gold
p2580
sg14
(lp2581
Vhttp://www.beckett.com/basketball/1998-99/upper-deck-gold/96-keith-van-horn-3158192
p2582
asg17
g18
sg19
(lp2583
Vhttp://img.beckett.com/images/no-image.jpg
p2584
asg22
V#96
p2585
sg24
V1998-99
p2586
sg26
g27
sg28
(lp2587
VKeith Van Horn
p2588
assbag1
(g2
g3
Ntp2589
Rp2590
(dp2591
g7
(dp2592
g9
V1998-99 Upper Deck Gold #97 Kerry Kittles
p2593
sg11
I1
sg12
VUpper Deck Gold
p2594
sg14
(lp2595
Vhttp://www.beckett.com/basketball/1998-99/upper-deck-gold/97-kerry-kittles-3158193
p2596
asg17
g18
sg19
(lp2597
Vhttp://img.beckett.com/images/no-image.jpg
p2598
asg22
V#97
p2599
sg24
V1998-99
p2600
sg26
g27
sg28
(lp2601
VKerry Kittles
p2602
assbag1
(g2
g3
Ntp2603
Rp2604
(dp2605
g7
(dp2606
g9
V1998-99 Upper Deck Gold #98 Kendall Gill
p2607
sg11
I1
sg12
VUpper Deck Gold
p2608
sg14
(lp2609
Vhttp://www.beckett.com/basketball/1998-99/upper-deck-gold/98-kendall-gill-3158194
p2610
asg17
g18
sg19
(lp2611
Vhttp://img.beckett.com/images/no-image.jpg
p2612
asg22
V#98
p2613
sg24
V1998-99
p2614
sg26
g27
sg28
(lp2615
VKendall Gill
p2616
assbag1
(g2
g3
Ntp2617
Rp2618
(dp2619
g7
(dp2620
g9
V1998-99 Upper Deck Gold #99 Sam Cassell
p2621
sg11
I1
sg12
VUpper Deck Gold
p2622
sg14
(lp2623
Vhttp://www.beckett.com/basketball/1998-99/upper-deck-gold/99-sam-cassell-3158195
p2624
asg17
g18
sg19
(lp2625
Vhttp://img.beckett.com/images/no-image.jpg
p2626
asg22
V#99
p2627
sg24
V1998-99
p2628
sg26
g27
sg28
(lp2629
VSam Cassell
p2630
assbag1
(g2
g3
Ntp2631
Rp2632
(dp2633
g7
(dp2634
g9
V1998-99 Upper Deck Gold #100 Chris Gatling
p2635
sg11
I1
sg12
VUpper Deck Gold
p2636
sg14
(lp2637
Vhttp://www.beckett.com/basketball/1998-99/upper-deck-gold/100-chris-gatling-3158196
p2638
asg17
g18
sg19
(lp2639
Vhttp://img.beckett.com/images/no-image.jpg
p2640
asg22
V#100
p2641
sg24
V1998-99
p2642
sg26
g27
sg28
(lp2643
VChris Gatling
p2644
assbag1
(g2
g3
Ntp2645
Rp2646
(dp2647
g7
(dp2648
g9
V1998-99 Upper Deck Gold #101 Keith Van Horn/Sam Cassell HS
p2649
sg11
I1
sg12
VUpper Deck Gold
p2650
sg14
(lp2651
Vhttp://www.beckett.com/basketball/1998-99/upper-deck-gold/101-keith-van-hornsam-cassell-hs-3158197
p2652
asg17
g18
sg19
(lp2653
Vhttp://img.beckett.com/images/no-image.jpg
p2654
asg22
V#101
p2655
sg24
V1998-99
p2656
sg71
VHS
p2657
sg26
g27
sg28
(lp2658
VKeith Van Horn
p2659
aVSam Cassell
p2660
assbag1
(g2
g3
Ntp2661
Rp2662
(dp2663
g7
(dp2664
g9
V1998-99 Upper Deck Gold #170 Keith Van Horn TN
p2665
sg11
I1
sg12
VUpper Deck Gold
p2666
sg14
(lp2667
Vhttp://www.beckett.com/basketball/1998-99/upper-deck-gold/170-keith-van-horn-tn-3158266
p2668
asg17
g18
sg19
(lp2669
Vhttp://img.beckett.com/images/no-image.jpg
p2670
asg22
V#170
p2671
sg24
V1998-99
p2672
sg71
VTN
p2673
sg26
g27
sg28
(lp2674
VKeith Van Horn
p2675
assbag1
(g2
g3
Ntp2676
Rp2677
(dp2678
g7
(dp2679
g9
V1998-99 Upper Deck Gold #234 Jayson Williams
p2680
sg11
I1
sg12
VUpper Deck Gold
p2681
sg14
(lp2682
Vhttp://www.beckett.com/basketball/1998-99/upper-deck-gold/234-jayson-williams-3158352
p2683
asg17
g18
sg19
(lp2684
Vhttp://img.beckett.com/images/no-image.jpg
p2685
asg22
V#234
p2686
sg24
V1998-99
p2687
sg26
g27
sg28
(lp2688
VJayson Williams
p2689
assbag1
(g2
g3
Ntp2690
Rp2691
(dp2692
g7
(dp2693
g9
V1998-99 Upper Deck Gold #281 Rony Seikaly
p2694
sg11
I1
sg12
VUpper Deck Gold
p2695
sg14
(lp2696
Vhttp://www.beckett.com/basketball/1998-99/upper-deck-gold/281-rony-seikaly-3158399
p2697
asg17
g18
sg19
(lp2698
Vhttp://img.beckett.com/images/no-image.jpg
p2699
asg22
V#281
p2700
sg24
V1998-99
p2701
sg26
g27
sg28
(lp2702
VRony Seikaly
p2703
assbag1
(g2
g3
Ntp2704
Rp2705
(dp2706
g7
(dp2707
g9
V1998-99 Upper Deck Encore F/X #52 Keith Van Horn
p2708
sg11
I125
sg12
VUpper Deck Encore F/X
p2709
sg14
(lp2710
Vhttp://www.beckett.com/basketball/1998-99/upper-deck-encore-fx/52-keith-van-horn-3155153
p2711
asg17
g18
sg19
(lp2712
Vhttp://img.beckett.com/images/items_stock/185226/3155089/3155153/front.jpg
p2713
asg22
V#52
p2714
sg24
V1998-99
p2715
sg26
g27
sg28
(lp2716
VKeith Van Horn
p2717
assbag1
(g2
g3
Ntp2718
Rp2719
(dp2720
g7
(dp2721
g9
V1998-99 Upper Deck Encore F/X #54 Jayson Williams
p2722
sg11
I125
sg12
VUpper Deck Encore F/X
p2723
sg14
(lp2724
Vhttp://www.beckett.com/basketball/1998-99/upper-deck-encore-fx/54-jayson-williams-3155155
p2725
asg17
g18
sg19
(lp2726
Vhttp://img.beckett.com/images/items_stock/185226/3155089/3155155/front.jpg
p2727
asg22
V#54
p2728
sg24
V1998-99
p2729
sg26
g27
sg28
(lp2730
VJayson Williams
p2731
assbag1
(g2
g3
Ntp2732
Rp2733
(dp2734
g7
(dp2735
g9
V1998-99 Upper Deck Ovation Gold #41 Keith Van Horn
p2736
sg11
I1000
sg12
VUpper Deck Ovation Gold
p2737
sg14
(lp2738
Vhttp://www.beckett.com/basketball/1998-99/upper-deck-ovation-gold/41-keith-van-horn-3155597
p2739
asg17
g18
sg19
(lp2740
Vhttp://img.beckett.com/images/items_stock/185226/3155547/3155597/front.jpg
p2741
asg22
V#41
p2742
sg24
V1998-99
p2743
sg26
g27
sg28
(lp2744
VKeith Van Horn
p2745
assbag1
(g2
g3
Ntp2746
Rp2747
(dp2748
g7
(dp2749
g9
V1998-99 Upper Deck Ovation Gold #42 Kerry Kittles
p2750
sg11
I1000
sg12
VUpper Deck Ovation Gold
p2751
sg14
(lp2752
Vhttp://www.beckett.com/basketball/1998-99/upper-deck-ovation-gold/42-kerry-kittles-3155598
p2753
asg17
g18
sg19
(lp2754
Vhttp://img.beckett.com/images/no-image.jpg
p2755
asg22
V#42
p2756
sg24
V1998-99
p2757
sg26
g27
sg28
(lp2758
VKerry Kittles
p2759
assbag1
(g2
g3
Ntp2760
Rp2761
(dp2762
g7
(dp2763
g9
V1998-99 Upper Deck Ovation Gold #43 Jayson Williams
p2764
sg11
I1000
sg12
VUpper Deck Ovation Gold
p2765
sg14
(lp2766
Vhttp://www.beckett.com/basketball/1998-99/upper-deck-ovation-gold/43-jayson-williams-3155599
p2767
asg17
g18
sg19
(lp2768
Vhttp://img.beckett.com/images/items_stock/185226/3155547/3155599/front.jpg
p2769
asg22
V#43
p2770
sg24
V1998-99
p2771
sg26
g27
sg28
(lp2772
VJayson Williams
p2773
assbag1
(g2
g3
Ntp2774
Rp2775
(dp2776
g7
(dp2777
g9
V1998-99 Black Diamond Diamond Dominance #D17 Keith Van Horn
p2778
sg11
I1000
sg12
VBlack Diamond Diamond Dominance
p2779
sg14
(lp2780
Vhttp://www.beckett.com/basketball/1998-99/black-diamond-diamond-dominance/d17-keith-van-horn-3170858
p2781
asg17
g18
sg19
(lp2782
Vhttp://img.beckett.com/images/items_stock/185226/3170829/3170858/front.jpg
p2783
asg22
V#D17
p2784
sg24
V1998-99
p2785
sg26
g27
sg28
(lp2786
VKeith Van Horn
p2787
assbag1
(g2
g3
Ntp2788
Rp2789
(dp2790
g7
(dp2791
g9
V1998-99 E-X Century Authen-Kicks #9 Keith Van Horn/125
p2792
sg11
I125
sg12
VE-X Century Authen-Kicks
p2793
sg14
(lp2794
Vhttp://www.beckett.com/basketball/1998-99/e-x-century-authen-kicks/9-keith-van-horn125-3169153
p2795
asg17
g18
sS'memorabilia'
p2796
I1
sg19
(lp2797
Vhttp://img.beckett.com/images/no-image.jpg
p2798
asg22
V#9
p2799
sg24
V1998-99
p2800
sg26
g27
sg28
(lp2801
VKeith Van Horn
p2802
assbag1
(g2
g3
Ntp2803
Rp2804
(dp2805
g7
(dp2806
g9
V1998-99 E-X Century Authen-Kicks #9AU Keith Van Horn AU/44
p2807
sg11
I44
sg12
VE-X Century Authen-Kicks
p2808
sg14
(lp2809
Vhttp://www.beckett.com/basketball/1998-99/e-x-century-authen-kicks/9au-keith-van-horn-au44-3169154
p2810
asg17
g18
sg2796
I1
sg19
(lp2811
Vhttp://img.beckett.com/images/no-image.jpg
p2812
asg22
V#9AU
p2813
sS'autograph'
p2814
I1
sg24
V1998-99
p2815
sg26
g27
sg28
(lp2816
VKeith Van Horn
p2817
assbag1
(g2
g3
Ntp2818
Rp2819
(dp2820
g7
(dp2821
g9
V1998-99 Finest Centurions #C7 Keith Van Horn
p2822
sg11
I500
sg12
VFinest Centurions
p2823
sg14
(lp2824
Vhttp://www.beckett.com/basketball/1998-99/finest-centurions/c7-keith-van-horn-3170307
p2825
asg17
g18
sg19
(lp2826
Vhttp://img.beckett.com/images/items_stock/185226/3170289/3170307/front.jpg
p2827
asg22
V#C7
p2828
sg24
V1998-99
p2829
sg26
g27
sg28
(lp2830
VKeith Van Horn
p2831
assbag1
(g2
g3
Ntp2832
Rp2833
(dp2834
g7
(dp2835
g9
V1998-99 Finest Centurions #C14 Kerry Kittles
p2836
sg11
I500
sg12
VFinest Centurions
p2837
sg14
(lp2838
Vhttp://www.beckett.com/basketball/1998-99/finest-centurions/c14-kerry-kittles-3170314
p2839
asg17
g18
sg19
(lp2840
Vhttp://img.beckett.com/images/no-image.jpg
p2841
asg22
V#C14
p2842
sg24
V1998-99
p2843
sg26
g27
sg28
(lp2844
VKerry Kittles
p2845
assbag1
(g2
g3
Ntp2846
Rp2847
(dp2848
g7
(dp2849
g9
V1998-99 Finest Court Control #CC2 Keith Van Horn
p2850
sg11
I750
sg12
VFinest Court Control
p2851
sg14
(lp2852
Vhttp://www.beckett.com/basketball/1998-99/finest-court-control/cc2-keith-van-horn-3170362
p2853
asg17
g18
sg19
(lp2854
Vhttp://img.beckett.com/images/items_stock/185226/3170349/3170362/front.jpg
p2855
asg22
V#CC2
p2856
sg24
V1998-99
p2857
sg26
g27
sg28
(lp2858
VKeith Van Horn
p2859
assbag1
(g2
g3
Ntp2860
Rp2861
(dp2862
g7
(dp2863
g9
V1998-99 Flair Showcase takeit2.net #3 Keith Van Horn
p2864
sg11
I1000
sg12
VFlair Showcase takeit2.net
p2865
sg14
(lp2866
Vhttp://www.beckett.com/basketball/1998-99/flair-showcase-takeit2net/3-keith-van-horn-3167758
p2867
asg17
g18
sg19
(lp2868
Vhttp://img.beckett.com/images/no-image.jpg
p2869
asg22
V#3
p2870
sg24
V1998-99
p2871
sg26
g27
sg28
(lp2872
VKeith Van Horn
p2873
assbag1
(g2
g3
Ntp2874
Rp2875
(dp2876
g7
(dp2877
g9
V1998-99 Fleer Playmakers Theatre #14 Keith Van Horn
p2878
sg11
I100
sg12
VFleer Playmakers Theatre
p2879
sg14
(lp2880
Vhttp://www.beckett.com/basketball/1998-99/fleer-playmakers-theatre/14-keith-van-horn-3168315
p2881
asg17
g18
sg19
(lp2882
Vhttp://img.beckett.com/images/no-image.jpg
p2883
asg22
V#14
p2884
sg24
V1998-99
p2885
sg26
g27
sg28
(lp2886
VKeith Van Horn
p2887
assbag1
(g2
g3
Ntp2888
Rp2889
(dp2890
g7
(dp2891
g9
V1998-99 Hoops Bams #7 Keith Van Horn
p2892
sg11
I250
sg12
VHoops Bams
p2893
sg14
(lp2894
Vhttp://www.beckett.com/basketball/1998-99/hoops-bams/7-keith-van-horn-3166375
p2895
asg17
g18
sg19
(lp2896
Vhttp://img.beckett.com/images/no-image.jpg
p2897
asg22
V#7
p2898
sg24
V1998-99
p2899
sg26
g27
sg28
(lp2900
VKeith Van Horn
p2901
assbag1
(g2
g3
Ntp2902
Rp2903
(dp2904
g7
(dp2905
g9
V1998-99 Hoops Freshman Flashback #2 Keith Van Horn
p2906
sg11
I1000
sg12
VHoops Freshman Flashback
p2907
sg14
(lp2908
Vhttp://www.beckett.com/basketball/1998-99/hoops-freshman-flashback/2-keith-van-horn-3166405
p2909
asg17
g18
sg19
(lp2910
Vhttp://img.beckett.com/images/items_stock/185226/3166397/3166405/front.jpg
p2911
asg22
V#2
p2912
sg24
V1998-99
p2913
sg26
g27
sg28
(lp2914
VKeith Van Horn
p2915
assbag1
(g2
g3
Ntp2916
Rp2917
(dp2918
g7
(dp2919
g9
V1998-99 Black Diamond Diamond Dominance Emerald #D17 Keith Van Horn
p2920
sg11
I100
sg12
VBlack Diamond Diamond Dominance Emerald
p2921
sg14
(lp2922
Vhttp://www.beckett.com/basketball/1998-99/black-diamond-diamond-dominance-emerald/d17-keith-van-horn-3170897
p2923
asg17
g18
sg19
(lp2924
Vhttp://img.beckett.com/images/no-image.jpg
p2925
asg22
V#D17
p2926
sg24
V1998-99
p2927
sg26
g27
sg28
(lp2928
VKeith Van Horn
p2929
assbag1
(g2
g3
Ntp2930
Rp2931
(dp2932
g7
(dp2933
g9
V1998-99 Bowman's Best Mirror Image Atomic Refractors #MI5 Ray Allen/Kerry Kittles
p2934
sg11
I25
sg12
VBowman's Best Mirror Image Atomic Refractors
p2935
sg14
(lp2936
Vhttp://www.beckett.com/basketball/1998-99/bowmans-best-mirror-image-atomic-refractors/mi5-ray-allenkerry-kittles-3171548
p2937
asg17
g18
sg19
(lp2938
Vhttp://img.beckett.com/images/no-image.jpg
p2939
asg22
V#MI5
p2940
sg24
V1998-99
p2941
sg26
g27
sg28
(lp2942
VRay Allen
p2943
aVKerry Kittles
p2944
assbag1
(g2
g3
Ntp2945
Rp2946
(dp2947
g7
(dp2948
g9
V1998-99 Bowman's Best Mirror Image Atomic Refractors #MI13 Jayson Williams/Juwan Howard
p2949
sg11
I25
sg12
VBowman's Best Mirror Image Atomic Refractors
p2950
sg14
(lp2951
Vhttp://www.beckett.com/basketball/1998-99/bowmans-best-mirror-image-atomic-refractors/mi13-jayson-williamsjuwan-howard-3171556
p2952
asg17
g18
sg19
(lp2953
Vhttp://img.beckett.com/images/no-image.jpg
p2954
asg22
V#MI13
p2955
sg24
V1998-99
p2956
sg26
g27
sg28
(lp2957
VJayson Williams
p2958
aVJuwan Howard
p2959
assbag1
(g2
g3
Ntp2960
Rp2961
(dp2962
g7
(dp2963
g9
V1998-99 Bowman's Best Mirror Image Atomic Refractors #MI15 Shawn Kemp/Keith Van Horn
p2964
sg11
I25
sg12
VBowman's Best Mirror Image Atomic Refractors
p2965
sg14
(lp2966
Vhttp://www.beckett.com/basketball/1998-99/bowmans-best-mirror-image-atomic-refractors/mi15-shawn-kempkeith-van-horn-3171558
p2967
asg17
g18
sg19
(lp2968
Vhttp://img.beckett.com/images/no-image.jpg
p2969
asg22
V#MI15
p2970
sg24
V1998-99
p2971
sg26
g27
sg28
(lp2972
VShawn Kemp
p2973
aVKeith Van Horn
p2974
assbag1
(g2
g3
Ntp2975
Rp2976
(dp2977
g7
(dp2978
g9
V1998-99 Bowman's Best Mirror Image Refractors #MI5 Ray Allen/Kerry Kittles
p2979
sg11
I100
sg12
VBowman's Best Mirror Image Refractors
p2980
sg14
(lp2981
Vhttp://www.beckett.com/basketball/1998-99/bowmans-best-mirror-image-refractors/mi5-ray-allenkerry-kittles-3171576
p2982
asg17
g18
sg19
(lp2983
Vhttp://img.beckett.com/images/no-image.jpg
p2984
asg22
V#MI5
p2985
sg24
V1998-99
p2986
sg26
g27
sg28
(lp2987
VRay Allen
p2988
aVKerry Kittles
p2989
assbag1
(g2
g3
Ntp2990
Rp2991
(dp2992
g7
(dp2993
g9
V1998-99 Bowman's Best Mirror Image Refractors #MI13 Jayson Williams/Juwan Howard
p2994
sg11
I100
sg12
VBowman's Best Mirror Image Refractors
p2995
sg14
(lp2996
Vhttp://www.beckett.com/basketball/1998-99/bowmans-best-mirror-image-refractors/mi13-jayson-williamsjuwan-howard-3171584
p2997
asg17
g18
sg19
(lp2998
Vhttp://img.beckett.com/images/no-image.jpg
p2999
asg22
V#MI13
p3000
sg24
V1998-99
p3001
sg26
g27
sg28
(lp3002
VJayson Williams
p3003
aVJuwan Howard
p3004
assbag1
(g2
g3
Ntp3005
Rp3006
(dp3007
g7
(dp3008
g9
V1998-99 Bowman's Best Mirror Image Refractors #MI15 Shawn Kemp/Keith Van Horn
p3009
sg11
I100
sg12
VBowman's Best Mirror Image Refractors
p3010
sg14
(lp3011
Vhttp://www.beckett.com/basketball/1998-99/bowmans-best-mirror-image-refractors/mi15-shawn-kempkeith-van-horn-3171586
p3012
asg17
g18
sg19
(lp3013
Vhttp://img.beckett.com/images/no-image.jpg
p3014
asg22
V#MI15
p3015
sg24
V1998-99
p3016
sg26
g27
sg28
(lp3017
VShawn Kemp
p3018
aVKeith Van Horn
p3019
assbag1
(g2
g3
Ntp3020
Rp3021
(dp3022
g7
(dp3023
g9
V1998-99 E-X Century Essential Credentials Future #1 Keith Van Horn/90
p3024
sg11
I90
sg12
VE-X Century Essential Credentials Future
p3025
sg14
(lp3026
Vhttp://www.beckett.com/basketball/1998-99/e-x-century-essential-credentials-future/1-keith-van-horn90-3168952
p3027
asg17
g18
sg19
(lp3028
Vhttp://img.beckett.com/images/no-image.jpg
p3029
asg22
V#1
p3030
sg24
V1998-99
p3031
sg26
g27
sg28
(lp3032
VKeith Van Horn
p3033
assbag1
(g2
g3
Ntp3034
Rp3035
(dp3036
g7
(dp3037
g9
V1998-99 E-X Century Essential Credentials Future #42 Jayson Williams/49
p3038
sg11
I49
sg12
VE-X Century Essential Credentials Future
p3039
sg14
(lp3040
Vhttp://www.beckett.com/basketball/1998-99/e-x-century-essential-credentials-future/42-jayson-williams49-3168993
p3041
asg17
g18
sg19
(lp3042
Vhttp://img.beckett.com/images/no-image.jpg
p3043
asg22
V#42
p3044
sg24
V1998-99
p3045
sg26
g27
sg28
(lp3046
VJayson Williams
p3047
assbag1
(g2
g3
Ntp3048
Rp3049
(dp3050
g7
(dp3051
g9
V1998-99 E-X Century Essential Credentials Future #45 Sam Cassell/46
p3052
sg11
I46
sg12
VE-X Century Essential Credentials Future
p3053
sg14
(lp3054
Vhttp://www.beckett.com/basketball/1998-99/e-x-century-essential-credentials-future/45-sam-cassell46-3168996
p3055
asg17
g18
sg19
(lp3056
Vhttp://img.beckett.com/images/no-image.jpg
p3057
asg22
V#45
p3058
sg24
V1998-99
p3059
sg26
g27
sg28
(lp3060
VSam Cassell
p3061
assbag1
(g2
g3
Ntp3062
Rp3063
(dp3064
g7
(dp3065
g9
V1998-99 E-X Century Essential Credentials Now #1 Keith Van Horn/1
p3066
sg11
I1
sg12
VE-X Century Essential Credentials Now
p3067
sg14
(lp3068
Vhttp://www.beckett.com/basketball/1998-99/e-x-century-essential-credentials-now/1-keith-van-horn1-3169049
p3069
asg17
g18
sg19
(lp3070
Vhttp://img.beckett.com/images/no-image.jpg
p3071
asg22
V#1
p3072
sg24
V1998-99
p3073
sg26
g27
sg28
(lp3074
VKeith Van Horn
p3075
assbag1
(g2
g3
Ntp3076
Rp3077
(dp3078
g7
(dp3079
g9
V1998-99 E-X Century Essential Credentials Now #42 Jayson Williams/42
p3080
sg11
I42
sg12
VE-X Century Essential Credentials Now
p3081
sg14
(lp3082
Vhttp://www.beckett.com/basketball/1998-99/e-x-century-essential-credentials-now/42-jayson-williams42-3169090
p3083
asg17
g18
sg19
(lp3084
Vhttp://img.beckett.com/images/no-image.jpg
p3085
asg22
V#42
p3086
sg24
V1998-99
p3087
sg26
g27
sg28
(lp3088
VJayson Williams
p3089
assbag1
(g2
g3
Ntp3090
Rp3091
(dp3092
g7
(dp3093
g9
V1998-99 E-X Century Essential Credentials Now #45 Sam Cassell/45
p3094
sg11
I45
sg12
VE-X Century Essential Credentials Now
p3095
sg14
(lp3096
Vhttp://www.beckett.com/basketball/1998-99/e-x-century-essential-credentials-now/45-sam-cassell45-3169093
p3097
asg17
g18
sg19
(lp3098
Vhttp://img.beckett.com/images/no-image.jpg
p3099
asg22
V#45
p3100
sg24
V1998-99
p3101
sg26
g27
sg28
(lp3102
VSam Cassell
p3103
assbag1
(g2
g3
Ntp3104
Rp3105
(dp3106
g7
(dp3107
g9
V1998-99 Finest Centurions Refractors #C7 Keith Van Horn
p3108
sg11
I75
sg12
VFinest Centurions Refractors
p3109
sg14
(lp3110
Vhttp://www.beckett.com/basketball/1998-99/finest-centurions-refractors/c7-keith-van-horn-3170335
p3111
asg17
g18
sg19
(lp3112
Vhttp://img.beckett.com/images/no-image.jpg
p3113
asg22
V#C7
p3114
sg24
V1998-99
p3115
sg26
g27
sg28
(lp3116
VKeith Van Horn
p3117
assbag1
(g2
g3
Ntp3118
Rp3119
(dp3120
g7
(dp3121
g9
V1998-99 Finest Centurions Refractors #C14 Kerry Kittles
p3122
sg11
I75
sg12
VFinest Centurions Refractors
p3123
sg14
(lp3124
Vhttp://www.beckett.com/basketball/1998-99/finest-centurions-refractors/c14-kerry-kittles-3170342
p3125
asg17
g18
sg19
(lp3126
Vhttp://img.beckett.com/images/no-image.jpg
p3127
asg22
V#C14
p3128
sg24
V1998-99
p3129
sg26
g27
sg28
(lp3130
VKerry Kittles
p3131
assbag1
(g2
g3
Ntp3132
Rp3133
(dp3134
g7
(dp3135
g9
V1998-99 Finest Court Control Refractors #CC2 Keith Van Horn
p3136
sg11
I150
sg12
VFinest Court Control Refractors
p3137
sg14
(lp3138
Vhttp://www.beckett.com/basketball/1998-99/finest-court-control-refractors/cc2-keith-van-horn-3170390
p3139
asg17
g18
sg19
(lp3140
Vhttp://img.beckett.com/images/no-image.jpg
p3141
asg22
V#CC2
p3142
sg24
V1998-99
p3143
sg26
g27
sg28
(lp3144
VKeith Van Horn
p3145
assbag1
(g2
g3
Ntp3146
Rp3147
(dp3148
g7
(dp3149
g9
V1998-99 Hoops Slam Bams #7 Keith Van Horn
p3150
sg11
I100
sg12
VHoops Slam Bams
p3151
sg14
(lp3152
Vhttp://www.beckett.com/basketball/1998-99/hoops-slam-bams/7-keith-van-horn-3166393
p3153
asg17
g18
sg19
(lp3154
Vhttp://img.beckett.com/images/no-image.jpg
p3155
asg22
V#7
p3156
sg24
V1998-99
p3157
sg26
g27
sg28
(lp3158
VKeith Van Horn
p3159
assbag1
(g2
g3
Ntp3160
Rp3161
(dp3162
g7
(dp3163
g9
V1998-99 SkyBox Molten Metal Fusion #49 Keith Van Horn
p3164
sg11
I40
sg12
VSkyBox Molten Metal Fusion
p3165
sg14
(lp3166
Vhttp://www.beckett.com/basketball/1998-99/skybox-molten-metal-fusion/49-keith-van-horn-3164746
p3167
asg17
g18
sg19
(lp3168
Vhttp://img.beckett.com/images/no-image.jpg
p3169
asg22
V#49
p3170
sg24
V1998-99
p3171
sg26
g27
sg28
(lp3172
VKeith Van Horn
p3173
assbag1
(g2
g3
Ntp3174
Rp3175
(dp3176
g7
(dp3177
g9
V1998-99 SkyBox Molten Metal Fusion Titanium #49 Keith Van Horn
p3178
sg11
I250
sg12
VSkyBox Molten Metal Fusion Titanium
p3179
sg14
(lp3180
Vhttp://www.beckett.com/basketball/1998-99/skybox-molten-metal-fusion-titanium/49-keith-van-horn-3164808
p3181
asg17
g18
sg19
(lp3182
Vhttp://img.beckett.com/images/no-image.jpg
p3183
asg22
V#49
p3184
sg24
V1998-99
p3185
sg26
g27
sg28
(lp3186
VKeith Van Horn
p3187
assbag1
(g2
g3
Ntp3188
Rp3189
(dp3190
g7
(dp3191
g9
V1998-99 SkyBox Premium Autographics Blue #71 Kerry Kittles
p3192
sg11
I50
sg12
VSkyBox Premium Autographics Blue
p3193
sg14
(lp3194
Vhttp://www.beckett.com/basketball/1998-99/skybox-premium-autographics-blue/71-kerry-kittles-3165626
p3195
asg17
g18
sg19
(lp3196
Vhttp://img.beckett.com/images/no-image.jpg
p3197
asg22
V#71
p3198
sg2814
I1
sg24
V1998-99
p3199
sg26
g27
sg28
(lp3200
VKerry Kittles
p3201
assbag1
(g2
g3
Ntp3202
Rp3203
(dp3204
g7
(dp3205
g9
V1998-99 SkyBox Premium Autographics Blue #111 Rony Seikaly
p3206
sg11
I50
sg12
VSkyBox Premium Autographics Blue
p3207
sg14
(lp3208
Vhttp://www.beckett.com/basketball/1998-99/skybox-premium-autographics-blue/111-rony-seikaly-3165666
p3209
asg17
g18
sg19
(lp3210
Vhttp://img.beckett.com/images/no-image.jpg
p3211
asg22
V#111
p3212
sg2814
I1
sg24
V1998-99
p3213
sg26
g27
sg28
(lp3214
VRony Seikaly
p3215
assbag1
(g2
g3
Ntp3216
Rp3217
(dp3218
g7
(dp3219
g9
V1998-99 SkyBox Premium Autographics Blue #127 Keith Van Horn
p3220
sg11
I50
sg12
VSkyBox Premium Autographics Blue
p3221
sg14
(lp3222
Vhttp://www.beckett.com/basketball/1998-99/skybox-premium-autographics-blue/127-keith-van-horn-3165682
p3223
asg17
g18
sg19
(lp3224
Vhttp://img.beckett.com/images/no-image.jpg
p3225
asg22
V#127
p3226
sg2814
I1
sg24
V1998-99
p3227
sg26
g27
sg28
(lp3228
VKeith Van Horn
p3229
assbag1
(g2
g3
Ntp3230
Rp3231
(dp3232
g7
(dp3233
g9
V1998-99 SkyBox Premium Autographics Blue #136 Jayson Williams
p3234
sg11
I50
sg12
VSkyBox Premium Autographics Blue
p3235
sg14
(lp3236
Vhttp://www.beckett.com/basketball/1998-99/skybox-premium-autographics-blue/136-jayson-williams-3165691
p3237
asg17
g18
sg19
(lp3238
Vhttp://img.beckett.com/images/no-image.jpg
p3239
asg22
V#136
p3240
sg2814
I1
sg24
V1998-99
p3241
sg26
g27
sg28
(lp3242
VJayson Williams
p3243
assbag1
(g2
g3
Ntp3244
Rp3245
(dp3246
g7
(dp3247
g9
V1998-99 Topps Gold Label Red Label #GL6 Keith Van Horn
p3248
sg11
I100
sg12
VTopps Gold Label Red Label
p3249
sg14
(lp3250
Vhttp://www.beckett.com/basketball/1998-99/topps-gold-label-red-label/gl6-keith-van-horn-3159988
p3251
asg17
g18
sg19
(lp3252
Vhttp://img.beckett.com/images/no-image.jpg
p3253
asg22
V#GL6
p3254
sg24
V1998-99
p3255
sg26
g27
sg28
(lp3256
VKeith Van Horn
p3257
assbag1
(g2
g3
Ntp3258
Rp3259
(dp3260
g7
(dp3261
g9
V1998-99 Topps Chrome Apparitions Refractors #A11 Keith Van Horn
p3262
sg11
I100
sg12
VTopps Chrome Apparitions Refractors
p3263
sg14
(lp3264
Vhttp://www.beckett.com/basketball/1998-99/topps-chrome-apparitions-refractors/a11-keith-van-horn-3160671
p3265
asg17
g18
sg19
(lp3266
Vhttp://img.beckett.com/images/no-image.jpg
p3267
asg22
V#A11
p3268
sg24
V1998-99
p3269
sg26
g27
sg28
(lp3270
VKeith Van Horn
p3271
assbag1
(g2
g3
Ntp3272
Rp3273
(dp3274
g7
(dp3275
g9
V1998-99 UD Choice StarQuest Gold #SQ17 Keith Van Horn
p3276
sg11
I100
sg12
VUD Choice StarQuest Gold
p3277
sg14
(lp3278
Vhttp://www.beckett.com/basketball/1998-99/ud-choice-starquest-gold/sq17-keith-van-horn-3159478
p3279
asg17
g18
sg19
(lp3280
Vhttp://img.beckett.com/images/no-image.jpg
p3281
asg22
V#SQ17
p3282
sg24
V1998-99
p3283
sg26
g27
sg28
(lp3284
VKeith Van Horn
p3285
assbag1
(g2
g3
Ntp3286
Rp3287
(dp3288
g7
(dp3289
g9
V1998-99 Upper Deck AeroDynamics Bronze #A10 Kendall Gill
p3290
sg11
I2000
sg12
VUpper Deck AeroDynamics Bronze
p3291
sg14
(lp3292
Vhttp://www.beckett.com/basketball/1998-99/upper-deck-aerodynamics-bronze/a10-kendall-gill-3155729
p3293
asg17
g18
sg19
(lp3294
Vhttp://img.beckett.com/images/items_stock/185226/3155712/3155729/front.jpg
p3295
asg22
V#A10
p3296
sg24
V1998-99
p3297
sg26
g27
sg28
(lp3298
VKendall Gill
p3299
assbag1
(g2
g3
Ntp3300
Rp3301
(dp3302
g7
(dp3303
g9
V1998-99 Upper Deck AeroDynamics Silver #A10 Kendall Gill
p3304
sg11
I100
sg12
VUpper Deck AeroDynamics Silver
p3305
sg14
(lp3306
Vhttp://www.beckett.com/basketball/1998-99/upper-deck-aerodynamics-silver/a10-kendall-gill-3155805
p3307
asg17
g18
sg19
(lp3308
Vhttp://img.beckett.com/images/no-image.jpg
p3309
asg22
V#A10
p3310
sg24
V1998-99
p3311
sg26
g27
sg28
(lp3312
VKendall Gill
p3313
assbag1
(g2
g3
Ntp3314
Rp3315
(dp3316
g7
(dp3317
g9
V1998-99 Upper Deck AeroDynamics Gold #A10 Kendall Gill
p3318
sg11
I25
sg12
VUpper Deck AeroDynamics Gold
p3319
sg14
(lp3320
Vhttp://www.beckett.com/basketball/1998-99/upper-deck-aerodynamics-gold/a10-kendall-gill-3155767
p3321
asg17
g18
sg19
(lp3322
Vhttp://img.beckett.com/images/no-image.jpg
p3323
asg22
V#A10
p3324
sg24
V1998-99
p3325
sg26
g27
sg28
(lp3326
VKendall Gill
p3327
assbag1
(g2
g3
Ntp3328
Rp3329
(dp3330
g7
(dp3331
g9
V1998-99 Upper Deck Forces Bronze #F27 Keith Van Horn
p3332
sg11
I1000
sg12
VUpper Deck Forces Bronze
p3333
sg14
(lp3334
Vhttp://www.beckett.com/basketball/1998-99/upper-deck-forces-bronze/f27-keith-van-horn-3155904
p3335
asg17
g18
sg19
(lp3336
Vhttp://img.beckett.com/images/items_stock/185226/3155870/3155904/front.jpg
p3337
asg22
V#F27
p3338
sg24
V1998-99
p3339
sg26
g27
sg28
(lp3340
VKeith Van Horn
p3341
assbag1
(g2
g3
Ntp3342
Rp3343
(dp3344
g7
(dp3345
g9
V1998-99 Upper Deck Forces Silver #F27 Keith Van Horn
p3346
sg11
I50
sg12
VUpper Deck Forces Silver
p3347
sg14
(lp3348
Vhttp://www.beckett.com/basketball/1998-99/upper-deck-forces-silver/f27-keith-van-horn-3155980
p3349
asg17
g18
sg19
(lp3350
Vhttp://img.beckett.com/images/no-image.jpg
p3351
asg22
V#F27
p3352
sg24
V1998-99
p3353
sg26
g27
sg28
(lp3354
VKeith Van Horn
p3355
assbag1
(g2
g3
Ntp3356
Rp3357
(dp3358
g7
(dp3359
g9
V1998-99 Upper Deck Forces Gold #F27 Keith Van Horn
p3360
sg11
I25
sg12
VUpper Deck Forces Gold
p3361
sg14
(lp3362
Vhttp://www.beckett.com/basketball/1998-99/upper-deck-forces-gold/f27-keith-van-horn-3155942
p3363
asg17
g18
sg19
(lp3364
Vhttp://img.beckett.com/images/items_stock/185226/3155908/3155942/front.jpg
p3365
asg22
V#F27
p3366
sg24
V1998-99
p3367
sg26
g27
sg28
(lp3368
VKeith Van Horn
p3369
assbag1
(g2
g3
Ntp3370
Rp3371
(dp3372
g7
(dp3373
g9
V1998-99 Upper Deck Intensity Bronze #I7 Sam Cassell
p3374
sg11
I1500
sg12
VUpper Deck Intensity Bronze
p3375
sg14
(lp3376
Vhttp://www.beckett.com/basketball/1998-99/upper-deck-intensity-bronze/i7-sam-cassell-3156103
p3377
asg17
g18
sg19
(lp3378
Vhttp://img.beckett.com/images/items_stock/185226/3156089/3156103/front.jpg
p3379
asg22
V#I7
p3380
sg24
V1998-99
p3381
sg26
g27
sg28
(lp3382
VSam Cassell
p3383
assbag1
(g2
g3
Ntp3384
Rp3385
(dp3386
g7
(dp3387
g9
V1998-99 Upper Deck Intensity Silver #I7 Sam Cassell
p3388
sg11
I75
sg12
VUpper Deck Intensity Silver
p3389
sg14
(lp3390
Vhttp://www.beckett.com/basketball/1998-99/upper-deck-intensity-silver/i7-sam-cassell-3156179
p3391
asg17
g18
sg19
(lp3392
Vhttp://img.beckett.com/images/items_stock/185226/3156165/3156179/front.jpg
p3393
asg22
V#I7
p3394
sg24
V1998-99
p3395
sg26
g27
sg28
(lp3396
VSam Cassell
p3397
assbag1
(g2
g3
Ntp3398
Rp3399
(dp3400
g7
(dp3401
g9
V1998-99 Upper Deck Intensity Gold #I7 Sam Cassell
p3402
sg11
I25
sg12
VUpper Deck Intensity Gold
p3403
sg14
(lp3404
Vhttp://www.beckett.com/basketball/1998-99/upper-deck-intensity-gold/i7-sam-cassell-3156141
p3405
asg17
g18
sg19
(lp3406
Vhttp://img.beckett.com/images/no-image.jpg
p3407
asg22
V#I7
p3408
sg24
V1998-99
p3409
sg26
g27
sg28
(lp3410
VSam Cassell
p3411
assbag1
(g2
g3
Ntp3412
Rp3413
(dp3414
g7
(dp3415
g9
V1998-99 Upper Deck Next Wave Bronze #NW3 Kerry Kittles
p3416
sg11
I1500
sg12
VUpper Deck Next Wave Bronze
p3417
sg14
(lp3418
Vhttp://www.beckett.com/basketball/1998-99/upper-deck-next-wave-bronze/nw3-kerry-kittles-3156454
p3419
asg17
g18
sg19
(lp3420
Vhttp://img.beckett.com/images/items_stock/185226/3156444/3156454/front.jpg
p3421
asg22
V#NW3
p3422
sg24
V1998-99
p3423
sg26
g27
sg28
(lp3424
VKerry Kittles
p3425
assbag1
(g2
g3
Ntp3426
Rp3427
(dp3428
g7
(dp3429
g9
V1998-99 Upper Deck Next Wave Bronze #NW24 Keith Van Horn
p3430
sg11
I1500
sg12
VUpper Deck Next Wave Bronze
p3431
sg14
(lp3432
Vhttp://www.beckett.com/basketball/1998-99/upper-deck-next-wave-bronze/nw24-keith-van-horn-3156475
p3433
asg17
g18
sg19
(lp3434
Vhttp://img.beckett.com/images/items_stock/185226/3156444/3156475/front.jpg
p3435
asg22
V#NW24
p3436
sg24
V1998-99
p3437
sg26
g27
sg28
(lp3438
VKeith Van Horn
p3439
assbag1
(g2
g3
Ntp3440
Rp3441
(dp3442
g7
(dp3443
g9
V1998-99 Upper Deck Next Wave Silver #NW3 Kerry Kittles
p3444
sg11
I200
sg12
VUpper Deck Next Wave Silver
p3445
sg14
(lp3446
Vhttp://www.beckett.com/basketball/1998-99/upper-deck-next-wave-silver/nw3-kerry-kittles-3156530
p3447
asg17
g18
sg19
(lp3448
Vhttp://img.beckett.com/images/no-image.jpg
p3449
asg22
V#NW3
p3450
sg24
V1998-99
p3451
sg26
g27
sg28
(lp3452
VKerry Kittles
p3453
assbag1
(g2
g3
Ntp3454
Rp3455
(dp3456
g7
(dp3457
g9
V1998-99 Upper Deck Next Wave Silver #NW24 Keith Van Horn
p3458
sg11
I200
sg12
VUpper Deck Next Wave Silver
p3459
sg14
(lp3460
Vhttp://www.beckett.com/basketball/1998-99/upper-deck-next-wave-silver/nw24-keith-van-horn-3156551
p3461
asg17
g18
sg19
(lp3462
Vhttp://img.beckett.com/images/no-image.jpg
p3463
asg22
V#NW24
p3464
sg24
V1998-99
p3465
sg26
g27
sg28
(lp3466
VKeith Van Horn
p3467
assbag1
(g2
g3
Ntp3468
Rp3469
(dp3470
g7
(dp3471
g9
V1998-99 Upper Deck Next Wave Gold #NW3 Kerry Kittles
p3472
sg11
I75
sg12
VUpper Deck Next Wave Gold
p3473
sg14
(lp3474
Vhttp://www.beckett.com/basketball/1998-99/upper-deck-next-wave-gold/nw3-kerry-kittles-3156492
p3475
asg17
g18
sg19
(lp3476
Vhttp://img.beckett.com/images/no-image.jpg
p3477
asg22
V#NW3
p3478
sg24
V1998-99
p3479
sg26
g27
sg28
(lp3480
VKerry Kittles
p3481
assbag1
(g2
g3
Ntp3482
Rp3483
(dp3484
g7
(dp3485
g9
V1998-99 Upper Deck Next Wave Gold #NW24 Keith Van Horn
p3486
sg11
I75
sg12
VUpper Deck Next Wave Gold
p3487
sg14
(lp3488
Vhttp://www.beckett.com/basketball/1998-99/upper-deck-next-wave-gold/nw24-keith-van-horn-3156513
p3489
asg17
g18
sg19
(lp3490
Vhttp://img.beckett.com/images/no-image.jpg
p3491
asg22
V#NW24
p3492
sg24
V1998-99
p3493
sg26
g27
sg28
(lp3494
VKeith Van Horn
p3495
assbag1
(g2
g3
Ntp3496
Rp3497
(dp3498
g7
(dp3499
g9
V1998-99 Upper Deck Super Powers Bronze #S17 Keith Van Horn
p3500
sg11
I1000
sg12
VUpper Deck Super Powers Bronze
p3501
sg14
(lp3502
Vhttp://www.beckett.com/basketball/1998-99/upper-deck-super-powers-bronze/s17-keith-van-horn-3154824
p3503
asg17
g18
sg19
(lp3504
Vhttp://img.beckett.com/images/items_stock/185226/3154800/3154824/front.jpg
p3505
asg22
V#S17
p3506
sg24
V1998-99
p3507
sg26
g27
sg28
(lp3508
VKeith Van Horn
p3509
assbag1
(g2
g3
Ntp3510
Rp3511
(dp3512
g7
(dp3513
g9
V1998-99 Upper Deck Super Powers Silver #S17 Keith Van Horn
p3514
sg11
I100
sg12
VUpper Deck Super Powers Silver
p3515
sg14
(lp3516
Vhttp://www.beckett.com/basketball/1998-99/upper-deck-super-powers-silver/s17-keith-van-horn-3154900
p3517
asg17
g18
sg19
(lp3518
Vhttp://img.beckett.com/images/no-image.jpg
p3519
asg22
V#S17
p3520
sg24
V1998-99
p3521
sg26
g27
sg28
(lp3522
VKeith Van Horn
p3523
assbag1
(g2
g3
Ntp3524
Rp3525
(dp3526
g7
(dp3527
g9
V1998-99 Upper Deck Super Powers Gold #S17 Keith Van Horn
p3528
sg11
I50
sg12
VUpper Deck Super Powers Gold
p3529
sg14
(lp3530
Vhttp://www.beckett.com/basketball/1998-99/upper-deck-super-powers-gold/s17-keith-van-horn-3154862
p3531
asg17
g18
sg19
(lp3532
Vhttp://img.beckett.com/images/no-image.jpg
p3533
asg22
V#S17
p3534
sg24
V1998-99
p3535
sg26
g27
sg28
(lp3536
VKeith Van Horn
p3537
assbag1
(g2
g3
Ntp3538
Rp3539
(dp3540
g7
(dp3541
g9
V1998-99 Upper Deck Encore Driving Forces F/X #F3 Keith Van Horn
p3542
sg11
I500
sg12
VUpper Deck Encore Driving Forces F/X
p3543
sg14
(lp3544
Vhttp://www.beckett.com/basketball/1998-99/upper-deck-encore-driving-forces-fx/f3-keith-van-horn-3155288
p3545
asg17
g18
sg19
(lp3546
Vhttp://img.beckett.com/images/items_stock/185226/3155278/3155288/front.jpg
p3547
asg22
V#F3
p3548
sg24
V1998-99
p3549
sg26
g27
sg28
(lp3550
VKeith Van Horn
p3551
assba.