(lp0
Naccopy_reg
_reconstructor
p1
(ctutorial.items
BeckettItem
p2
c__builtin__
object
p3
Ntp4
Rp5
(dp6
S'_values'
p7
(dp8
S'originalItemDescription'
p9
V1998 Upper Deck Hardcourt Home Court Advantage Plus #40 Allen Iverson
p10
sS'serialNumber'
p11
I500
sS'setName'
p12
VUpper Deck Hardcourt Home Court Advantage Plus
p13
sS'beckettLink'
p14
(lp15
Vhttp://www.beckett.com/basketball/1998/upper-deck-hardcourt-home-court-advantage-plus/40-allen-iverson-3150452
p16
asS'team'
p17
S'Philadelphia 76ers'
p18
sS'imageLink'
p19
(lp20
Vhttp://img.beckett.com/images/no-image.jpg
p21
asS'cardNumber'
p22
V#40
p23
sS'year'
p24
V1998
p25
sS'sport'
p26
S'Basketball'
p27
sS'playerNames'
p28
(lp29
VAllen Iverson
p30
assbag1
(g2
g3
Ntp31
Rp32
(dp33
g7
(dp34
g9
V1998 Upper Deck Hardcourt High Court #H20 Allen Iverson
p35
sg11
I1300
sg12
VUpper Deck Hardcourt High Court
p36
sg14
(lp37
Vhttp://www.beckett.com/basketball/1998/upper-deck-hardcourt-high-court/h20-allen-iverson-3150529
p38
asg17
g18
sg19
(lp39
Vhttp://img.beckett.com/images/items_stock/185226/3150503/3150529/front.jpg
p40
asg22
V#H20
p41
sg24
V1998
p42
sg26
g27
sg28
(lp43
VAllen Iverson
p44
assbag1
(g2
g3
Ntp45
Rp46
(dp47
g7
(dp48
g9
V1998 Upper Deck Hardcourt Jordan Holding Court Red #J20 Allen Iverson/Michael Jordan
p49
sg11
I2300
sg12
VUpper Deck Hardcourt Jordan Holding Court Red
p50
sg14
(lp51
Vhttp://www.beckett.com/basketball/1998/upper-deck-hardcourt-jordan-holding-court-red/j20-allen-iversonmichael-jordan-3150573
p52
asg17
g18
sg19
(lp53
Vhttp://img.beckett.com/images/no-image.jpg
p54
asg22
V#J20
p55
sg24
V1998
p56
sg26
g27
sg28
(lp57
VAllen Iverson
p58
aVMichael Jordan
p59
assbag1
(g2
g3
Ntp60
Rp61
(dp62
g7
(dp63
g9
V1998 Upper Deck Hardcourt Jordan Holding Court Bronze #J20 Allen Iverson/Michael Jordan
p64
sg11
I230
sg12
VUpper Deck Hardcourt Jordan Holding Court Bronze
p65
sg14
(lp66
Vhttp://www.beckett.com/basketball/1998/upper-deck-hardcourt-jordan-holding-court-bronze/j20-allen-iversonmichael-jordan-3150611
p67
asg17
g18
sg19
(lp68
Vhttp://img.beckett.com/images/no-image.jpg
p69
asg22
V#J20
p70
sg24
V1998
p71
sg26
g27
sg28
(lp72
VAllen Iverson
p73
aVMichael Jordan
p74
assbag1
(g2
g3
Ntp75
Rp76
(dp77
g7
(dp78
g9
V1998 Upper Deck Hardcourt Jordan Holding Court Silver #J20 Allen Iverson/Michael Jordan
p79
sg11
I23
sg12
VUpper Deck Hardcourt Jordan Holding Court Silver
p80
sg14
(lp81
Vhttp://www.beckett.com/basketball/1998/upper-deck-hardcourt-jordan-holding-court-silver/j20-allen-iversonmichael-jordan-3150686
p82
asg17
g18
sg19
(lp83
Vhttp://img.beckett.com/images/no-image.jpg
p84
asg22
V#J20
p85
sg24
V1998
p86
sg26
g27
sg28
(lp87
VAllen Iverson
p88
aVMichael Jordan
p89
assbag1
(g2
g3
Ntp90
Rp91
(dp92
g7
(dp93
g9
V1998 Upper Deck Hardcourt Jordan Holding Court Gold #J20 Allen Iverson/Michael Jordan
p94
sg11
I1
sg12
VUpper Deck Hardcourt Jordan Holding Court Gold
p95
sg14
(lp96
Vhttp://www.beckett.com/basketball/1998/upper-deck-hardcourt-jordan-holding-court-gold/j20-allen-iversonmichael-jordan-3150648
p97
asg17
g18
sg19
(lp98
Vhttp://img.beckett.com/images/no-image.jpg
p99
asg22
V#J20
p100
sg24
V1998
p101
sg26
g27
sg28
(lp102
VAllen Iverson
p103
aVMichael Jordan
p104
assbag1
(g2
g3
Ntp105
Rp106
(dp107
g7
(dp108
g9
V1998-99 SkyBox Premium Autographics Blue #60 Allen Iverson
p109
sg11
I50
sg12
VSkyBox Premium Autographics Blue
p110
sg14
(lp111
Vhttp://www.beckett.com/basketball/1998-99/skybox-premium-autographics-blue/60-allen-iverson-3165615
p112
asg17
g18
sg19
(lp113
Vhttp://img.beckett.com/images/no-image.jpg
p114
asg22
V#60
p115
sS'autograph'
p116
I1
sg24
V1998-99
p117
sg26
g27
sg28
(lp118
VAllen Iverson
p119
assbag1
(g2
g3
Ntp120
Rp121
(dp122
g7
(dp123
g9
V1998-99 SP Authentic #98 Larry Hughes RC
p124
sg11
I3500
sg12
VSP Authentic
p125
sg14
(lp126
Vhttp://www.beckett.com/basketball/1998-99/sp-authentic/98-larry-hughes-rc-3163020
p127
asg17
g18
sS'rookieCard'
p128
I1
sg19
(lp129
Vhttp://img.beckett.com/images/no-image.jpg
p130
asg22
V#98
p131
sg24
V1998-99
p132
sg26
g27
sg28
(lp133
VLarry Hughes
p134
assbag1
(g2
g3
Ntp135
Rp136
(dp137
g7
(dp138
g9
V1998-99 SP Authentic #117 Nazr Mohammed RC
p139
sg11
I3500
sg12
VSP Authentic
p140
sg14
(lp141
Vhttp://www.beckett.com/basketball/1998-99/sp-authentic/117-nazr-mohammed-rc-3163039
p142
asg17
g18
sg128
I1
sg19
(lp143
Vhttp://img.beckett.com/images/no-image.jpg
p144
asg22
V#117
p145
sg24
V1998-99
p146
sg26
g27
sg28
(lp147
VNazr Mohammed
p148
assbag1
(g2
g3
Ntp149
Rp150
(dp151
g7
(dp152
g9
V1998-99 SPx Finite #75 Allen Iverson
p153
sg11
I10000
sg12
VSPx Finite
p154
sg14
(lp155
Vhttp://www.beckett.com/basketball/1998-99/spx-finite/75-allen-iverson-3163351
p156
asg17
g18
sg19
(lp157
Vhttp://img.beckett.com/images/items_stock/185226/3163241/3163351/front.jpg
p158
asg22
V#75
p159
sg24
V1998-99
p160
sg26
g27
sg28
(lp161
VAllen Iverson
p162
assbag1
(g2
g3
Ntp163
Rp164
(dp165
g7
(dp166
g9
V1998-99 SPx Finite #143 Allen Iverson SP
p167
sg11
I5400
sg12
VSPx Finite
p168
sg14
(lp169
Vhttp://www.beckett.com/basketball/1998-99/spx-finite/143-allen-iverson-sp-3163419
p170
asg17
g18
sg19
(lp171
Vhttp://img.beckett.com/images/items_stock/185226/3163241/3163419/front.jpg
p172
asg22
V#143
p173
sg24
V1998-99
p174
sS'subsetName'
p175
VSP
p176
sg26
g27
sg28
(lp177
VAllen Iverson
p178
assbag1
(g2
g3
Ntp179
Rp180
(dp181
g7
(dp182
g9
V1998-99 SPx Finite #163 Allen Iverson SPx
p183
sg11
I4050
sg12
VSPx Finite
p184
sg14
(lp185
Vhttp://www.beckett.com/basketball/1998-99/spx-finite/163-allen-iverson-spx-3163439
p186
asg17
g18
sg19
(lp187
Vhttp://img.beckett.com/images/items_stock/185226/3163241/3163439/front.jpg
p188
asg22
V#163
p189
sg24
V1998-99
p190
sg175
VSPx
p191
sg26
g27
sg28
(lp192
VAllen Iverson
p193
assbag1
(g2
g3
Ntp194
Rp195
(dp196
g7
(dp197
g9
V1998-99 SPx Finite #218 Larry Hughes RC
p198
sg11
I2500
sg12
VSPx Finite
p199
sg14
(lp200
Vhttp://www.beckett.com/basketball/1998-99/spx-finite/218-larry-hughes-rc-3163494
p201
asg17
g18
sg128
I1
sg19
(lp202
Vhttp://img.beckett.com/images/items_stock/185226/3163241/3163494/front.jpg
p203
asg22
V#218
p204
sg24
V1998-99
p205
sg26
g27
sg28
(lp206
VLarry Hughes
p207
assbag1
(g2
g3
Ntp208
Rp209
(dp210
g7
(dp211
g9
V1998-99 SPx Finite #239 Nazr Mohammed RC
p212
sg11
I2500
sg12
VSPx Finite
p213
sg14
(lp214
Vhttp://www.beckett.com/basketball/1998-99/spx-finite/239-nazr-mohammed-rc-3163515
p215
asg17
g18
sg128
I1
sg19
(lp216
Vhttp://img.beckett.com/images/items_stock/185226/3163241/3163515/front.jpg
p217
asg22
V#239
p218
sg24
V1998-99
p219
sg26
g27
sg28
(lp220
VNazr Mohammed
p221
assbag1
(g2
g3
Ntp222
Rp223
(dp224
g7
(dp225
g9
V1998-99 Black Diamond Double Diamond #66 Allen Iverson
p226
sg11
I3000
sg12
VBlack Diamond Double Diamond
p227
sg14
(lp228
Vhttp://www.beckett.com/basketball/1998-99/black-diamond-double-diamond/66-allen-iverson-3171973
p229
asg17
g18
sg19
(lp230
Vhttp://img.beckett.com/images/items_stock/185226/3171898/3171973/front.jpg
p231
asg22
V#66
p232
sg24
V1998-99
p233
sg26
g27
sg28
(lp234
VAllen Iverson
p235
assbag1
(g2
g3
Ntp236
Rp237
(dp238
g7
(dp239
g9
V1998-99 Black Diamond Double Diamond #103 Nazr Mohammed
p240
sg11
I2500
sg12
VBlack Diamond Double Diamond
p241
sg14
(lp242
Vhttp://www.beckett.com/basketball/1998-99/black-diamond-double-diamond/103-nazr-mohammed-3172010
p243
asg17
g18
sg19
(lp244
Vhttp://img.beckett.com/images/items_stock/185226/3171898/3172010/front.jpg
p245
asg22
V#103
p246
sg24
V1998-99
p247
sg26
g27
sg28
(lp248
VNazr Mohammed
p249
assbag1
(g2
g3
Ntp250
Rp251
(dp252
g7
(dp253
g9
V1998-99 Black Diamond Double Diamond #118 Larry Hughes
p254
sg11
I2500
sg12
VBlack Diamond Double Diamond
p255
sg14
(lp256
Vhttp://www.beckett.com/basketball/1998-99/black-diamond-double-diamond/118-larry-hughes-3172025
p257
asg17
g18
sg19
(lp258
Vhttp://img.beckett.com/images/items_stock/185226/3171898/3172025/front.jpg
p259
asg22
V#118
p260
sg24
V1998-99
p261
sg26
g27
sg28
(lp262
VLarry Hughes
p263
assbag1
(g2
g3
Ntp264
Rp265
(dp266
g7
(dp267
g9
V1998-99 Black Diamond Triple Diamond #66 Allen Iverson
p268
sg11
I1500
sg12
VBlack Diamond Triple Diamond
p269
sg14
(lp270
Vhttp://www.beckett.com/basketball/1998-99/black-diamond-triple-diamond/66-allen-iverson-3172103
p271
asg17
g18
sg19
(lp272
Vhttp://img.beckett.com/images/items_stock/185226/3172028/3172103/front.jpg
p273
asg22
V#66
p274
sg24
V1998-99
p275
sg26
g27
sg28
(lp276
VAllen Iverson
p277
assbag1
(g2
g3
Ntp278
Rp279
(dp280
g7
(dp281
g9
V1998-99 Black Diamond Triple Diamond #103 Nazr Mohammed
p282
sg11
I1000
sg12
VBlack Diamond Triple Diamond
p283
sg14
(lp284
Vhttp://www.beckett.com/basketball/1998-99/black-diamond-triple-diamond/103-nazr-mohammed-3172140
p285
asg17
g18
sg19
(lp286
Vhttp://img.beckett.com/images/items_stock/185226/3172028/3172140/front.jpg
p287
asg22
V#103
p288
sg24
V1998-99
p289
sg26
g27
sg28
(lp290
VNazr Mohammed
p291
assbag1
(g2
g3
Ntp292
Rp293
(dp294
g7
(dp295
g9
V1998-99 Black Diamond Triple Diamond #118 Larry Hughes
p296
sg11
I1000
sg12
VBlack Diamond Triple Diamond
p297
sg14
(lp298
Vhttp://www.beckett.com/basketball/1998-99/black-diamond-triple-diamond/118-larry-hughes-3172155
p299
asg17
g18
sg19
(lp300
Vhttp://img.beckett.com/images/items_stock/185226/3172028/3172155/front.jpg
p301
asg22
V#118
p302
sg24
V1998-99
p303
sg26
g27
sg28
(lp304
VLarry Hughes
p305
assbag1
(g2
g3
Ntp306
Rp307
(dp308
g7
(dp309
g9
V1998-99 Black Diamond Quadruple Diamond #66 Allen Iverson
p310
sg11
I150
sg12
VBlack Diamond Quadruple Diamond
p311
sg14
(lp312
Vhttp://www.beckett.com/basketball/1998-99/black-diamond-quadruple-diamond/66-allen-iverson-3170774
p313
asg17
g18
sg19
(lp314
Vhttp://img.beckett.com/images/no-image.jpg
p315
asg22
V#66
p316
sg24
V1998-99
p317
sg26
g27
sg28
(lp318
VAllen Iverson
p319
assbag1
(g2
g3
Ntp320
Rp321
(dp322
g7
(dp323
g9
V1998-99 Black Diamond Quadruple Diamond #103 Nazr Mohammed
p324
sg11
I50
sg12
VBlack Diamond Quadruple Diamond
p325
sg14
(lp326
Vhttp://www.beckett.com/basketball/1998-99/black-diamond-quadruple-diamond/103-nazr-mohammed-3170811
p327
asg17
g18
sg19
(lp328
Vhttp://img.beckett.com/images/no-image.jpg
p329
asg22
V#103
p330
sg24
V1998-99
p331
sg26
g27
sg28
(lp332
VNazr Mohammed
p333
assbag1
(g2
g3
Ntp334
Rp335
(dp336
g7
(dp337
g9
V1998-99 Black Diamond Quadruple Diamond #118 Larry Hughes
p338
sg11
I50
sg12
VBlack Diamond Quadruple Diamond
p339
sg14
(lp340
Vhttp://www.beckett.com/basketball/1998-99/black-diamond-quadruple-diamond/118-larry-hughes-3170826
p341
asg17
g18
sg19
(lp342
Vhttp://img.beckett.com/images/items_stock/185226/3170697/3170826/front.jpg
p343
asg22
V#118
p344
sg24
V1998-99
p345
sg26
g27
sg28
(lp346
VLarry Hughes
p347
assbag1
(g2
g3
Ntp348
Rp349
(dp350
g7
(dp351
g9
V1998-99 Bowman's Best Refractors #10 Allen Iverson
p352
sg11
I400
sg12
VBowman's Best Refractors
p353
sg14
(lp354
Vhttp://www.beckett.com/basketball/1998-99/bowmans-best-refractors/10-allen-iverson-3171169
p355
asg17
g18
sg19
(lp356
Vhttp://img.beckett.com/images/no-image.jpg
p357
asg22
V#10
p358
sg24
V1998-99
p359
sg26
g27
sg28
(lp360
VAllen Iverson
p361
assbag1
(g2
g3
Ntp362
Rp363
(dp364
g7
(dp365
g9
V1998-99 Bowman's Best Refractors #108 Larry Hughes
p366
sg11
I400
sg12
VBowman's Best Refractors
p367
sg14
(lp368
Vhttp://www.beckett.com/basketball/1998-99/bowmans-best-refractors/108-larry-hughes-3171267
p369
asg17
g18
sg19
(lp370
Vhttp://img.beckett.com/images/no-image.jpg
p371
asg22
V#108
p372
sg24
V1998-99
p373
sg26
g27
sg28
(lp374
VLarry Hughes
p375
assbag1
(g2
g3
Ntp376
Rp377
(dp378
g7
(dp379
g9
V1998-99 Bowman's Best Refractors #125 Nazr Mohammed
p380
sg11
I400
sg12
VBowman's Best Refractors
p381
sg14
(lp382
Vhttp://www.beckett.com/basketball/1998-99/bowmans-best-refractors/125-nazr-mohammed-3171284
p383
asg17
g18
sg19
(lp384
Vhttp://img.beckett.com/images/items_stock/185226/3171150/3171284/front.jpg
p385
asg22
V#125
p386
sg24
V1998-99
p387
sg26
g27
sg28
(lp388
VNazr Mohammed
p389
assbag1
(g2
g3
Ntp390
Rp391
(dp392
g7
(dp393
g9
V1998-99 Bowman's Best Atomic Refractors #10 Allen Iverson
p394
sg11
I100
sg12
VBowman's Best Atomic Refractors
p395
sg14
(lp396
Vhttp://www.beckett.com/basketball/1998-99/bowmans-best-atomic-refractors/10-allen-iverson-3171304
p397
asg17
g18
sg19
(lp398
Vhttp://img.beckett.com/images/no-image.jpg
p399
asg22
V#10
p400
sg24
V1998-99
p401
sg26
g27
sg28
(lp402
VAllen Iverson
p403
assbag1
(g2
g3
Ntp404
Rp405
(dp406
g7
(dp407
g9
V1998-99 Bowman's Best Atomic Refractors #108 Larry Hughes
p408
sg11
I100
sg12
VBowman's Best Atomic Refractors
p409
sg14
(lp410
Vhttp://www.beckett.com/basketball/1998-99/bowmans-best-atomic-refractors/108-larry-hughes-3171402
p411
asg17
g18
sg19
(lp412
Vhttp://img.beckett.com/images/no-image.jpg
p413
asg22
V#108
p414
sg24
V1998-99
p415
sg26
g27
sg28
(lp416
VLarry Hughes
p417
assbag1
(g2
g3
Ntp418
Rp419
(dp420
g7
(dp421
g9
V1998-99 Bowman's Best Atomic Refractors #125 Nazr Mohammed
p422
sg11
I100
sg12
VBowman's Best Atomic Refractors
p423
sg14
(lp424
Vhttp://www.beckett.com/basketball/1998-99/bowmans-best-atomic-refractors/125-nazr-mohammed-3171419
p425
asg17
g18
sg19
(lp426
Vhttp://img.beckett.com/images/no-image.jpg
p427
asg22
V#125
p428
sg24
V1998-99
p429
sg26
g27
sg28
(lp430
VNazr Mohammed
p431
assbag1
(g2
g3
Ntp432
Rp433
(dp434
g7
(dp435
g9
V1998-99 Flair Showcase Row 1 #6 Allen Iverson
p436
sg11
I1500
sg12
VFlair Showcase Row 1
p437
sg14
(lp438
Vhttp://www.beckett.com/basketball/1998-99/flair-showcase-row-1/6-allen-iverson-3167629
p439
asg17
g18
sg19
(lp440
Vhttp://img.beckett.com/images/no-image.jpg
p441
asg22
V#6
p442
sg24
V1998-99
p443
sg26
g27
sg28
(lp444
VAllen Iverson
p445
assbag1
(g2
g3
Ntp446
Rp447
(dp448
g7
(dp449
g9
V1998-99 Flair Showcase Row 1 #19 Larry Hughes
p450
sg11
I1500
sg12
VFlair Showcase Row 1
p451
sg14
(lp452
Vhttp://www.beckett.com/basketball/1998-99/flair-showcase-row-1/19-larry-hughes-3167642
p453
asg17
g18
sg19
(lp454
Vhttp://img.beckett.com/images/items_stock/185226/3167600/3167642/front.jpg
p455
asg22
V#19
p456
sg24
V1998-99
p457
sg26
g27
sg28
(lp458
VLarry Hughes
p459
assbag1
(g2
g3
Ntp460
Rp461
(dp462
g7
(dp463
g9
V1998-99 Flair Showcase Row 1 #51 Nazr Mohammed
p464
sg11
I3000
sg12
VFlair Showcase Row 1
p465
sg14
(lp466
Vhttp://www.beckett.com/basketball/1998-99/flair-showcase-row-1/51-nazr-mohammed-3167674
p467
asg17
g18
sg19
(lp468
Vhttp://img.beckett.com/images/items_stock/185226/3167600/3167674/front.jpg
p469
asg22
V#51
p470
sg24
V1998-99
p471
sg26
g27
sg28
(lp472
VNazr Mohammed
p473
assbag1
(g2
g3
Ntp474
Rp475
(dp476
g7
(dp477
g9
V1998-99 Flair Showcase Legacy Collection Row 3 #6 Allen Iverson
p478
sg11
I99
sg12
VFlair Showcase Legacy Collection Row 3
p479
sg14
(lp480
Vhttp://www.beckett.com/basketball/1998-99/flair-showcase-legacy-collection-row-3/6-allen-iverson-3172796
p481
asg17
g18
sg19
(lp482
Vhttp://img.beckett.com/images/no-image.jpg
p483
asg22
V#6
p484
sg24
V1998-99
p485
sg26
g27
sg28
(lp486
VAllen Iverson
p487
assbag1
(g2
g3
Ntp488
Rp489
(dp490
g7
(dp491
g9
V1998-99 Flair Showcase Legacy Collection Row 3 #19 Larry Hughes
p492
sg11
I99
sg12
VFlair Showcase Legacy Collection Row 3
p493
sg14
(lp494
Vhttp://www.beckett.com/basketball/1998-99/flair-showcase-legacy-collection-row-3/19-larry-hughes-3172809
p495
asg17
g18
sg19
(lp496
Vhttp://img.beckett.com/images/no-image.jpg
p497
asg22
V#19
p498
sg24
V1998-99
p499
sg26
g27
sg28
(lp500
VLarry Hughes
p501
assbag1
(g2
g3
Ntp502
Rp503
(dp504
g7
(dp505
g9
V1998-99 Flair Showcase Legacy Collection Row 3 #51 Nazr Mohammed
p506
sg11
I99
sg12
VFlair Showcase Legacy Collection Row 3
p507
sg14
(lp508
Vhttp://www.beckett.com/basketball/1998-99/flair-showcase-legacy-collection-row-3/51-nazr-mohammed-3172841
p509
asg17
g18
sg19
(lp510
Vhttp://img.beckett.com/images/no-image.jpg
p511
asg22
V#51
p512
sg24
V1998-99
p513
sg26
g27
sg28
(lp514
VNazr Mohammed
p515
assbag1
(g2
g3
Ntp516
Rp517
(dp518
g7
(dp519
g9
V1998-99 Fleer Classic '61 #3 Allen Iverson
p520
sg11
I61
sg12
VFleer Classic '61
p521
sg14
(lp522
Vhttp://www.beckett.com/basketball/1998-99/fleer-classic-61/3-allen-iverson-3168097
p523
asg17
g18
sg19
(lp524
Vhttp://img.beckett.com/images/no-image.jpg
p525
asg22
V#3
p526
sg24
V1998-99
p527
sg26
g27
sg28
(lp528
VAllen Iverson
p529
assbag1
(g2
g3
Ntp530
Rp531
(dp532
g7
(dp533
g9
V1998-99 Fleer Classic '61 #80 Brian Shaw
p534
sg11
I61
sg12
VFleer Classic '61
p535
sg14
(lp536
Vhttp://www.beckett.com/basketball/1998-99/fleer-classic-61/80-brian-shaw-3168174
p537
asg17
g18
sg19
(lp538
Vhttp://img.beckett.com/images/items_stock/185226/3168086/3168174/front.jpg
p539
asg22
V#80
p540
sg24
V1998-99
p541
sg26
g27
sg28
(lp542
VBrian Shaw
p543
assbag1
(g2
g3
Ntp544
Rp545
(dp546
g7
(dp547
g9
V1998-99 Fleer Classic '61 #115 Aaron McKie
p548
sg11
I61
sg12
VFleer Classic '61
p549
sg14
(lp550
Vhttp://www.beckett.com/basketball/1998-99/fleer-classic-61/115-aaron-mckie-3168209
p551
asg17
g18
sg19
(lp552
Vhttp://img.beckett.com/images/items_stock/185226/3168086/3168209/front.jpg
p553
asg22
V#115
p554
sg24
V1998-99
p555
sg26
g27
sg28
(lp556
VAaron McKie
p557
assbag1
(g2
g3
Ntp558
Rp559
(dp560
g7
(dp561
g9
V1998-99 Fleer Brilliants 24-Karat Gold #68 Allen Iverson
p562
sg11
I24
sg12
VFleer Brilliants 24-Karat Gold
p563
sg14
(lp564
Vhttp://www.beckett.com/basketball/1998-99/fleer-brilliants-24-karat-gold/68-allen-iverson-3168569
p565
asg17
g18
sg19
(lp566
Vhttp://img.beckett.com/images/no-image.jpg
p567
asg22
V#68
p568
sg24
V1998-99
p569
sg26
g27
sg28
(lp570
VAllen Iverson
p571
assbag1
(g2
g3
Ntp572
Rp573
(dp574
g7
(dp575
g9
V1998-99 Fleer Brilliants 24-Karat Gold #89 Theo Ratliff
p576
sg11
I24
sg12
VFleer Brilliants 24-Karat Gold
p577
sg14
(lp578
Vhttp://www.beckett.com/basketball/1998-99/fleer-brilliants-24-karat-gold/89-theo-ratliff-3168590
p579
asg17
g18
sg19
(lp580
Vhttp://img.beckett.com/images/no-image.jpg
p581
asg22
V#89
p582
sg24
V1998-99
p583
sg26
g27
sg28
(lp584
VTheo Ratliff
p585
assbag1
(g2
g3
Ntp586
Rp587
(dp588
g7
(dp589
g9
V1998-99 Fleer Brilliants 24-Karat Gold #108 Larry Hughes
p590
sg11
I24
sg12
VFleer Brilliants 24-Karat Gold
p591
sg14
(lp592
Vhttp://www.beckett.com/basketball/1998-99/fleer-brilliants-24-karat-gold/108-larry-hughes-3168609
p593
asg17
g18
sg19
(lp594
Vhttp://img.beckett.com/images/no-image.jpg
p595
asg22
V#108
p596
sg24
V1998-99
p597
sg26
g27
sg28
(lp598
VLarry Hughes
p599
assbag1
(g2
g3
Ntp600
Rp601
(dp602
g7
(dp603
g9
V1998-99 Fleer Brilliants Gold #68 Allen Iverson
p604
sg11
I99
sg12
VFleer Brilliants Gold
p605
sg14
(lp606
Vhttp://www.beckett.com/basketball/1998-99/fleer-brilliants-gold/68-allen-iverson-3168841
p607
asg17
g18
sg19
(lp608
Vhttp://img.beckett.com/images/no-image.jpg
p609
asg22
V#68
p610
sg24
V1998-99
p611
sg26
g27
sg28
(lp612
VAllen Iverson
p613
assbag1
(g2
g3
Ntp614
Rp615
(dp616
g7
(dp617
g9
V1998-99 Fleer Brilliants Gold #89 Theo Ratliff
p618
sg11
I99
sg12
VFleer Brilliants Gold
p619
sg14
(lp620
Vhttp://www.beckett.com/basketball/1998-99/fleer-brilliants-gold/89-theo-ratliff-3168862
p621
asg17
g18
sg19
(lp622
Vhttp://img.beckett.com/images/no-image.jpg
p623
asg22
V#89
p624
sg24
V1998-99
p625
sg26
g27
sg28
(lp626
VTheo Ratliff
p627
assbag1
(g2
g3
Ntp628
Rp629
(dp630
g7
(dp631
g9
V1998-99 Fleer Brilliants Gold #108 Larry Hughes
p632
sg11
I99
sg12
VFleer Brilliants Gold
p633
sg14
(lp634
Vhttp://www.beckett.com/basketball/1998-99/fleer-brilliants-gold/108-larry-hughes-3168881
p635
asg17
g18
sg19
(lp636
Vhttp://img.beckett.com/images/no-image.jpg
p637
asg22
V#108
p638
sg24
V1998-99
p639
sg26
g27
sg28
(lp640
VLarry Hughes
p641
assbag1
(g2
g3
Ntp642
Rp643
(dp644
g7
(dp645
g9
V1998-99 Hoops Starting Five #7 Scott Williams
p646
sg11
I5
sg12
VHoops Starting Five
p647
sg14
(lp648
Vhttp://www.beckett.com/basketball/1998-99/hoops-starting-five/7-scott-williams-3166513
p649
asg17
g18
sg19
(lp650
Vhttp://img.beckett.com/images/no-image.jpg
p651
asg22
V#7
p652
sg24
V1998-99
p653
sg26
g27
sg28
(lp654
VScott Williams
p655
assbag1
(g2
g3
Ntp656
Rp657
(dp658
g7
(dp659
g9
V1998-99 Hoops Starting Five #18 Aaron McKie
p660
sg11
I5
sg12
VHoops Starting Five
p661
sg14
(lp662
Vhttp://www.beckett.com/basketball/1998-99/hoops-starting-five/18-aaron-mckie-3166524
p663
asg17
g18
sg19
(lp664
Vhttp://img.beckett.com/images/no-image.jpg
p665
asg22
V#18
p666
sg24
V1998-99
p667
sg26
g27
sg28
(lp668
VAaron McKie
p669
assbag1
(g2
g3
Ntp670
Rp671
(dp672
g7
(dp673
g9
V1998-99 Hoops Starting Five #70 Allen Iverson
p674
sg11
I5
sg12
VHoops Starting Five
p675
sg14
(lp676
Vhttp://www.beckett.com/basketball/1998-99/hoops-starting-five/70-allen-iverson-3166576
p677
asg17
g18
sg19
(lp678
Vhttp://img.beckett.com/images/no-image.jpg
p679
asg22
V#70
p680
sg24
V1998-99
p681
sg26
g27
sg28
(lp682
VAllen Iverson
p683
assbag1
(g2
g3
Ntp684
Rp685
(dp686
g7
(dp687
g9
V1998-99 Metal Universe Precious Metal Gems #33 Allen Iverson
p688
sg11
I50
sg12
VMetal Universe Precious Metal Gems
p689
sg14
(lp690
Vhttp://www.beckett.com/basketball/1998-99/metal-universe-precious-metal-gems/33-allen-iverson-3166976
p691
asg17
g18
sg19
(lp692
Vhttp://img.beckett.com/images/no-image.jpg
p693
asg22
V#33
p694
sg24
V1998-99
p695
sg26
g27
sg28
(lp696
VAllen Iverson
p697
assbag1
(g2
g3
Ntp698
Rp699
(dp700
g7
(dp701
g9
V1998-99 Metal Universe Precious Metal Gems #40 Theo Ratliff
p702
sg11
I50
sg12
VMetal Universe Precious Metal Gems
p703
sg14
(lp704
Vhttp://www.beckett.com/basketball/1998-99/metal-universe-precious-metal-gems/40-theo-ratliff-3166983
p705
asg17
g18
sg19
(lp706
Vhttp://img.beckett.com/images/no-image.jpg
p707
asg22
V#40
p708
sg24
V1998-99
p709
sg26
g27
sg28
(lp710
VTheo Ratliff
p711
assbag1
(g2
g3
Ntp712
Rp713
(dp714
g7
(dp715
g9
V1998-99 Metal Universe Gem Masters #33 Allen Iverson
p716
sg11
I1
sg12
VMetal Universe Gem Masters
p717
sg14
(lp718
Vhttp://www.beckett.com/basketball/1998-99/metal-universe-gem-masters/33-allen-iverson-3166845
p719
asg17
g18
sg19
(lp720
Vhttp://img.beckett.com/images/no-image.jpg
p721
asg22
V#33
p722
sg24
V1998-99
p723
sg26
g27
sg28
(lp724
VAllen Iverson
p725
assbag1
(g2
g3
Ntp726
Rp727
(dp728
g7
(dp729
g9
V1998-99 Metal Universe Gem Masters #40 Theo Ratliff
p730
sg11
I1
sg12
VMetal Universe Gem Masters
p731
sg14
(lp732
Vhttp://www.beckett.com/basketball/1998-99/metal-universe-gem-masters/40-theo-ratliff-3166852
p733
asg17
g18
sg19
(lp734
Vhttp://img.beckett.com/images/no-image.jpg
p735
asg22
V#40
p736
sg24
V1998-99
p737
sg26
g27
sg28
(lp738
VTheo Ratliff
p739
assbag1
(g2
g3
Ntp740
Rp741
(dp742
g7
(dp743
g9
V1998-99 SkyBox Premium Star Rubies #31 Allen Iverson
p744
sg11
I50
sg12
VSkyBox Premium Star Rubies
p745
sg14
(lp746
Vhttp://www.beckett.com/basketball/1998-99/skybox-premium-star-rubies/31-allen-iverson-3165136
p747
asg17
g18
sg19
(lp748
Vhttp://img.beckett.com/images/no-image.jpg
p749
asg22
V#31
p750
sg24
V1998-99
p751
sg26
g27
sg28
(lp752
VAllen Iverson
p753
assbag1
(g2
g3
Ntp754
Rp755
(dp756
g7
(dp757
g9
V1998-99 SkyBox Premium Star Rubies #33 Theo Ratliff
p758
sg11
I50
sg12
VSkyBox Premium Star Rubies
p759
sg14
(lp760
Vhttp://www.beckett.com/basketball/1998-99/skybox-premium-star-rubies/33-theo-ratliff-3165138
p761
asg17
g18
sg19
(lp762
Vhttp://img.beckett.com/images/no-image.jpg
p763
asg22
V#33
p764
sg24
V1998-99
p765
sg26
g27
sg28
(lp766
VTheo Ratliff
p767
assbag1
(g2
g3
Ntp768
Rp769
(dp770
g7
(dp771
g9
V1998-99 SkyBox Premium Star Rubies #209 Allen Iverson NF
p772
sg11
I50
sg12
VSkyBox Premium Star Rubies
p773
sg14
(lp774
Vhttp://www.beckett.com/basketball/1998-99/skybox-premium-star-rubies/209-allen-iverson-nf-3165314
p775
asg17
g18
sg19
(lp776
Vhttp://img.beckett.com/images/no-image.jpg
p777
asg22
V#209
p778
sg24
V1998-99
p779
sg175
VNF
p780
sg26
g27
sg28
(lp781
VAllen Iverson
p782
assbag1
(g2
g3
Ntp783
Rp784
(dp785
g7
(dp786
g9
V1998-99 SkyBox Premium Star Rubies #237 Nazr Mohammed
p787
sg11
I25
sg12
VSkyBox Premium Star Rubies
p788
sg14
(lp789
Vhttp://www.beckett.com/basketball/1998-99/skybox-premium-star-rubies/237-nazr-mohammed-3165342
p790
asg17
g18
sg19
(lp791
Vhttp://img.beckett.com/images/no-image.jpg
p792
asg22
V#237
p793
sg24
V1998-99
p794
sg26
g27
sg28
(lp795
VNazr Mohammed
p796
assbag1
(g2
g3
Ntp797
Rp798
(dp799
g7
(dp800
g9
V1998-99 SkyBox Premium Star Rubies #239 Larry Hughes
p801
sg11
I25
sg12
VSkyBox Premium Star Rubies
p802
sg14
(lp803
Vhttp://www.beckett.com/basketball/1998-99/skybox-premium-star-rubies/239-larry-hughes-3165344
p804
asg17
g18
sg19
(lp805
Vhttp://img.beckett.com/images/no-image.jpg
p806
asg22
V#239
p807
sg24
V1998-99
p808
sg26
g27
sg28
(lp809
VLarry Hughes
p810
assbag1
(g2
g3
Ntp811
Rp812
(dp813
g7
(dp814
g9
V1998-99 SkyBox Thunder Rave #30 Brian Shaw
p815
sg11
I150
sg12
VSkyBox Thunder Rave
p816
sg14
(lp817
Vhttp://www.beckett.com/basketball/1998-99/skybox-thunder-rave/30-brian-shaw-3166068
p818
asg17
g18
sg19
(lp819
Vhttp://img.beckett.com/images/no-image.jpg
p820
asg22
V#30
p821
sg24
V1998-99
p822
sg26
g27
sg28
(lp823
VBrian Shaw
p824
assbag1
(g2
g3
Ntp825
Rp826
(dp827
g7
(dp828
g9
V1998-99 SkyBox Thunder Rave #45 Aaron McKie
p829
sg11
I150
sg12
VSkyBox Thunder Rave
p830
sg14
(lp831
Vhttp://www.beckett.com/basketball/1998-99/skybox-thunder-rave/45-aaron-mckie-3166083
p832
asg17
g18
sg19
(lp833
Vhttp://img.beckett.com/images/no-image.jpg
p834
asg22
V#45
p835
sg24
V1998-99
p836
sg26
g27
sg28
(lp837
VAaron McKie
p838
assbag1
(g2
g3
Ntp839
Rp840
(dp841
g7
(dp842
g9
V1998-99 SkyBox Thunder Rave #117 Allen Iverson
p843
sg11
I150
sg12
VSkyBox Thunder Rave
p844
sg14
(lp845
Vhttp://www.beckett.com/basketball/1998-99/skybox-thunder-rave/117-allen-iverson-3166155
p846
asg17
g18
sg19
(lp847
Vhttp://img.beckett.com/images/no-image.jpg
p848
asg22
V#117
p849
sg24
V1998-99
p850
sg26
g27
sg28
(lp851
VAllen Iverson
p852
assbag1
(g2
g3
Ntp853
Rp854
(dp855
g7
(dp856
g9
V1998-99 SkyBox Thunder Super Rave #30 Brian Shaw
p857
sg11
I25
sg12
VSkyBox Thunder Super Rave
p858
sg14
(lp859
Vhttp://www.beckett.com/basketball/1998-99/skybox-thunder-super-rave/30-brian-shaw-3162720
p860
asg17
g18
sg19
(lp861
Vhttp://img.beckett.com/images/no-image.jpg
p862
asg22
V#30
p863
sg24
V1998-99
p864
sg26
g27
sg28
(lp865
VBrian Shaw
p866
assbag1
(g2
g3
Ntp867
Rp868
(dp869
g7
(dp870
g9
V1998-99 SkyBox Thunder Super Rave #45 Aaron McKie
p871
sg11
I25
sg12
VSkyBox Thunder Super Rave
p872
sg14
(lp873
Vhttp://www.beckett.com/basketball/1998-99/skybox-thunder-super-rave/45-aaron-mckie-3162735
p874
asg17
g18
sg19
(lp875
Vhttp://img.beckett.com/images/no-image.jpg
p876
asg22
V#45
p877
sg24
V1998-99
p878
sg26
g27
sg28
(lp879
VAaron McKie
p880
assbag1
(g2
g3
Ntp881
Rp882
(dp883
g7
(dp884
g9
V1998-99 SkyBox Thunder Super Rave #117 Allen Iverson
p885
sg11
I25
sg12
VSkyBox Thunder Super Rave
p886
sg14
(lp887
Vhttp://www.beckett.com/basketball/1998-99/skybox-thunder-super-rave/117-allen-iverson-3162807
p888
asg17
g18
sg19
(lp889
Vhttp://img.beckett.com/images/no-image.jpg
p890
asg22
V#117
p891
sg24
V1998-99
p892
sg26
g27
sg28
(lp893
VAllen Iverson
p894
assbag1
(g2
g3
Ntp895
Rp896
(dp897
g7
(dp898
g9
V1998-99 SPx Finite Extreme #75 Allen Iverson
p899
sg11
I1
sg12
VSPx Finite Extreme
p900
sg14
(lp901
Vhttp://www.beckett.com/basketball/1998-99/spx-finite-extreme/75-allen-iverson-3163597
p902
asg17
g18
sg19
(lp903
Vhttp://img.beckett.com/images/no-image.jpg
p904
asg22
V#75
p905
sg24
V1998-99
p906
sg26
g27
sg28
(lp907
VAllen Iverson
p908
assbag1
(g2
g3
Ntp909
Rp910
(dp911
g7
(dp912
g9
V1998-99 SPx Finite Radiance #75 Allen Iverson
p913
sg11
I5000
sg12
VSPx Finite Radiance
p914
sg14
(lp915
Vhttp://www.beckett.com/basketball/1998-99/spx-finite-radiance/75-allen-iverson-3163725
p916
asg17
g18
sg19
(lp917
Vhttp://img.beckett.com/images/items_stock/185226/3163613/3163725/front.jpg
p918
asg22
V#75
p919
sg24
V1998-99
p920
sg26
g27
sg28
(lp921
VAllen Iverson
p922
assbag1
(g2
g3
Ntp923
Rp924
(dp925
g7
(dp926
g9
V1998-99 SPx Finite Radiance #143 Allen Iverson SP
p927
sg11
I2700
sg12
VSPx Finite Radiance
p928
sg14
(lp929
Vhttp://www.beckett.com/basketball/1998-99/spx-finite-radiance/143-allen-iverson-sp-3163793
p930
asg17
g18
sg19
(lp931
Vhttp://img.beckett.com/images/items_stock/185226/3163613/3163793/front.jpg
p932
asg22
V#143
p933
sg24
V1998-99
p934
sg175
VSP
p935
sg26
g27
sg28
(lp936
VAllen Iverson
p937
assbag1
(g2
g3
Ntp938
Rp939
(dp940
g7
(dp941
g9
V1998-99 SPx Finite Radiance #163 Allen Iverson SPx
p942
sg11
I2025
sg12
VSPx Finite Radiance
p943
sg14
(lp944
Vhttp://www.beckett.com/basketball/1998-99/spx-finite-radiance/163-allen-iverson-spx-3163813
p945
asg17
g18
sg19
(lp946
Vhttp://img.beckett.com/images/items_stock/185226/3163613/3163813/front.jpg
p947
asg22
V#163
p948
sg24
V1998-99
p949
sg175
VSPx
p950
sg26
g27
sg28
(lp951
VAllen Iverson
p952
assbag1
(g2
g3
Ntp953
Rp954
(dp955
g7
(dp956
g9
V1998-99 SPx Finite Radiance #218 Larry Hughes
p957
sg11
I1500
sg12
VSPx Finite Radiance
p958
sg14
(lp959
Vhttp://www.beckett.com/basketball/1998-99/spx-finite-radiance/218-larry-hughes-3163868
p960
asg17
g18
sg19
(lp961
Vhttp://img.beckett.com/images/items_stock/185226/3163613/3163868/front.jpg
p962
asg22
V#218
p963
sg24
V1998-99
p964
sg26
g27
sg28
(lp965
VLarry Hughes
p966
assbag1
(g2
g3
Ntp967
Rp968
(dp969
g7
(dp970
g9
V1998-99 SPx Finite Radiance #239 Nazr Mohammed
p971
sg11
I1500
sg12
VSPx Finite Radiance
p972
sg14
(lp973
Vhttp://www.beckett.com/basketball/1998-99/spx-finite-radiance/239-nazr-mohammed-3163889
p974
asg17
g18
sg19
(lp975
Vhttp://img.beckett.com/images/items_stock/185226/3163613/3163889/front.jpg
p976
asg22
V#239
p977
sg24
V1998-99
p978
sg26
g27
sg28
(lp979
VNazr Mohammed
p980
assbag1
(g2
g3
Ntp981
Rp982
(dp983
g7
(dp984
g9
V1998-99 SPx Finite Spectrum #75 Allen Iverson
p985
sg11
I350
sg12
VSPx Finite Spectrum
p986
sg14
(lp987
Vhttp://www.beckett.com/basketball/1998-99/spx-finite-spectrum/75-allen-iverson-3164003
p988
asg17
g18
sg19
(lp989
Vhttp://img.beckett.com/images/items_stock/185226/3163891/3164003/front.jpg
p990
asg22
V#75
p991
sg24
V1998-99
p992
sg26
g27
sg28
(lp993
VAllen Iverson
p994
assbag1
(g2
g3
Ntp995
Rp996
(dp997
g7
(dp998
g9
V1998-99 SPx Finite Spectrum #143 Allen Iverson SP
p999
sg11
I250
sg12
VSPx Finite Spectrum
p1000
sg14
(lp1001
Vhttp://www.beckett.com/basketball/1998-99/spx-finite-spectrum/143-allen-iverson-sp-3164071
p1002
asg17
g18
sg19
(lp1003
Vhttp://img.beckett.com/images/no-image.jpg
p1004
asg22
V#143
p1005
sg24
V1998-99
p1006
sg175
VSP
p1007
sg26
g27
sg28
(lp1008
VAllen Iverson
p1009
assbag1
(g2
g3
Ntp1010
Rp1011
(dp1012
g7
(dp1013
g9
V1998-99 SPx Finite Spectrum #163 Allen Iverson SPx
p1014
sg11
I75
sg12
VSPx Finite Spectrum
p1015
sg14
(lp1016
Vhttp://www.beckett.com/basketball/1998-99/spx-finite-spectrum/163-allen-iverson-spx-3164091
p1017
asg17
g18
sg19
(lp1018
Vhttp://img.beckett.com/images/no-image.jpg
p1019
asg22
V#163
p1020
sg24
V1998-99
p1021
sg175
VSPx
p1022
sg26
g27
sg28
(lp1023
VAllen Iverson
p1024
assbag1
(g2
g3
Ntp1025
Rp1026
(dp1027
g7
(dp1028
g9
V1998-99 SPx Finite Spectrum #218 Larry Hughes
p1029
sg11
I25
sg12
VSPx Finite Spectrum
p1030
sg14
(lp1031
Vhttp://www.beckett.com/basketball/1998-99/spx-finite-spectrum/218-larry-hughes-3164146
p1032
asg17
g18
sg19
(lp1033
Vhttp://img.beckett.com/images/no-image.jpg
p1034
asg22
V#218
p1035
sg24
V1998-99
p1036
sg26
g27
sg28
(lp1037
VLarry Hughes
p1038
assbag1
(g2
g3
Ntp1039
Rp1040
(dp1041
g7
(dp1042
g9
V1998-99 SPx Finite Spectrum #239 Nazr Mohammed
p1043
sg11
I25
sg12
VSPx Finite Spectrum
p1044
sg14
(lp1045
Vhttp://www.beckett.com/basketball/1998-99/spx-finite-spectrum/239-nazr-mohammed-3164167
p1046
asg17
g18
sg19
(lp1047
Vhttp://img.beckett.com/images/no-image.jpg
p1048
asg22
V#239
p1049
sg24
V1998-99
p1050
sg26
g27
sg28
(lp1051
VNazr Mohammed
p1052
assbag1
(g2
g3
Ntp1053
Rp1054
(dp1055
g7
(dp1056
g9
V1998-99 Stadium Club First Day Issue #23 Theo Ratliff
p1057
sg11
I200
sg12
VStadium Club First Day Issue
p1058
sg14
(lp1059
Vhttp://www.beckett.com/basketball/1998-99/stadium-club-first-day-issue/23-theo-ratliff-3164468
p1060
asg17
g18
sg19
(lp1061
Vhttp://img.beckett.com/images/no-image.jpg
p1062
asg22
V#23
p1063
sg24
V1998-99
p1064
sg26
g27
sg28
(lp1065
VTheo Ratliff
p1066
assbag1
(g2
g3
Ntp1067
Rp1068
(dp1069
g7
(dp1070
g9
V1998-99 Stadium Club First Day Issue #54 Brian Shaw
p1071
sg11
I200
sg12
VStadium Club First Day Issue
p1072
sg14
(lp1073
Vhttp://www.beckett.com/basketball/1998-99/stadium-club-first-day-issue/54-brian-shaw-3164499
p1074
asg17
g18
sg19
(lp1075
Vhttp://img.beckett.com/images/no-image.jpg
p1076
asg22
V#54
p1077
sg24
V1998-99
p1078
sg26
g27
sg28
(lp1079
VBrian Shaw
p1080
assbag1
(g2
g3
Ntp1081
Rp1082
(dp1083
g7
(dp1084
g9
V1998-99 Stadium Club First Day Issue #75 Allen Iverson
p1085
sg11
I200
sg12
VStadium Club First Day Issue
p1086
sg14
(lp1087
Vhttp://www.beckett.com/basketball/1998-99/stadium-club-first-day-issue/75-allen-iverson-3164520
p1088
asg17
g18
sg19
(lp1089
Vhttp://img.beckett.com/images/no-image.jpg
p1090
asg22
V#75
p1091
sg24
V1998-99
p1092
sg26
g27
sg28
(lp1093
VAllen Iverson
p1094
assbag1
(g2
g3
Ntp1095
Rp1096
(dp1097
g7
(dp1098
g9
V1998-99 Stadium Club First Day Issue #108 Larry Hughes
p1099
sg11
I200
sg12
VStadium Club First Day Issue
p1100
sg14
(lp1101
Vhttp://www.beckett.com/basketball/1998-99/stadium-club-first-day-issue/108-larry-hughes-3164553
p1102
asg17
g18
sg19
(lp1103
Vhttp://img.beckett.com/images/no-image.jpg
p1104
asg22
V#108
p1105
sg24
V1998-99
p1106
sg26
g27
sg28
(lp1107
VLarry Hughes
p1108
assbag1
(g2
g3
Ntp1109
Rp1110
(dp1111
g7
(dp1112
g9
V1998-99 Stadium Club First Day Issue #168 Aaron McKie
p1113
sg11
I200
sg12
VStadium Club First Day Issue
p1114
sg14
(lp1115
Vhttp://www.beckett.com/basketball/1998-99/stadium-club-first-day-issue/168-aaron-mckie-3164613
p1116
asg17
g18
sg19
(lp1117
Vhttp://img.beckett.com/images/items_stock/185226/3164434/3164613/front.jpg
p1118
asg22
V#168
p1119
sg24
V1998-99
p1120
sg26
g27
sg28
(lp1121
VAaron McKie
p1122
assbag1
(g2
g3
Ntp1123
Rp1124
(dp1125
g7
(dp1126
g9
V1998-99 Stadium Club First Day Issue #201 Larry Hughes
p1127
sg11
I200
sg12
VStadium Club First Day Issue
p1128
sg14
(lp1129
Vhttp://www.beckett.com/basketball/1998-99/stadium-club-first-day-issue/201-larry-hughes-3164646
p1130
asg17
g18
sg19
(lp1131
Vhttp://img.beckett.com/images/no-image.jpg
p1132
asg22
V#201
p1133
sg24
V1998-99
p1134
sg26
g27
sg28
(lp1135
VLarry Hughes
p1136
assbag1
(g2
g3
Ntp1137
Rp1138
(dp1139
g7
(dp1140
g9
V1998-99 Stadium Club First Day Issue #220 Nazr Mohammed
p1141
sg11
I200
sg12
VStadium Club First Day Issue
p1142
sg14
(lp1143
Vhttp://www.beckett.com/basketball/1998-99/stadium-club-first-day-issue/220-nazr-mohammed-3164665
p1144
asg17
g18
sg19
(lp1145
Vhttp://img.beckett.com/images/no-image.jpg
p1146
asg22
V#220
p1147
sg24
V1998-99
p1148
sg26
g27
sg28
(lp1149
VNazr Mohammed
p1150
assbag1
(g2
g3
Ntp1151
Rp1152
(dp1153
g7
(dp1154
g9
V1998-99 Stadium Club One Of A Kind #23 Theo Ratliff
p1155
sg11
I150
sg12
VStadium Club One Of A Kind
p1156
sg14
(lp1157
Vhttp://www.beckett.com/basketball/1998-99/stadium-club-one-of-a-kind/23-theo-ratliff-3160723
p1158
asg17
g18
sg19
(lp1159
Vhttp://img.beckett.com/images/items_stock/185226/3160688/3160723/front.jpg
p1160
asg22
V#23
p1161
sg24
V1998-99
p1162
sg26
g27
sg28
(lp1163
VTheo Ratliff
p1164
assbag1
(g2
g3
Ntp1165
Rp1166
(dp1167
g7
(dp1168
g9
V1998-99 Stadium Club One Of A Kind #54 Brian Shaw
p1169
sg11
I150
sg12
VStadium Club One Of A Kind
p1170
sg14
(lp1171
Vhttp://www.beckett.com/basketball/1998-99/stadium-club-one-of-a-kind/54-brian-shaw-3160754
p1172
asg17
g18
sg19
(lp1173
Vhttp://img.beckett.com/images/no-image.jpg
p1174
asg22
V#54
p1175
sg24
V1998-99
p1176
sg26
g27
sg28
(lp1177
VBrian Shaw
p1178
assbag1
(g2
g3
Ntp1179
Rp1180
(dp1181
g7
(dp1182
g9
V1998-99 Stadium Club One Of A Kind #75 Allen Iverson
p1183
sg11
I150
sg12
VStadium Club One Of A Kind
p1184
sg14
(lp1185
Vhttp://www.beckett.com/basketball/1998-99/stadium-club-one-of-a-kind/75-allen-iverson-3160775
p1186
asg17
g18
sg19
(lp1187
Vhttp://img.beckett.com/images/items_stock/185226/3160688/3160775/front.jpg
p1188
asg22
V#75
p1189
sg24
V1998-99
p1190
sg26
g27
sg28
(lp1191
VAllen Iverson
p1192
assbag1
(g2
g3
Ntp1193
Rp1194
(dp1195
g7
(dp1196
g9
V1998-99 Stadium Club One Of A Kind #108 Larry Hughes
p1197
sg11
I150
sg12
VStadium Club One Of A Kind
p1198
sg14
(lp1199
Vhttp://www.beckett.com/basketball/1998-99/stadium-club-one-of-a-kind/108-larry-hughes-3160808
p1200
asg17
g18
sg19
(lp1201
Vhttp://img.beckett.com/images/no-image.jpg
p1202
asg22
V#108
p1203
sg24
V1998-99
p1204
sg26
g27
sg28
(lp1205
VLarry Hughes
p1206
assbag1
(g2
g3
Ntp1207
Rp1208
(dp1209
g7
(dp1210
g9
V1998-99 Stadium Club One Of A Kind #168 Aaron McKie
p1211
sg11
I150
sg12
VStadium Club One Of A Kind
p1212
sg14
(lp1213
Vhttp://www.beckett.com/basketball/1998-99/stadium-club-one-of-a-kind/168-aaron-mckie-3160868
p1214
asg17
g18
sg19
(lp1215
Vhttp://img.beckett.com/images/no-image.jpg
p1216
asg22
V#168
p1217
sg24
V1998-99
p1218
sg26
g27
sg28
(lp1219
VAaron McKie
p1220
assbag1
(g2
g3
Ntp1221
Rp1222
(dp1223
g7
(dp1224
g9
V1998-99 Stadium Club One Of A Kind #201 Larry Hughes
p1225
sg11
I150
sg12
VStadium Club One Of A Kind
p1226
sg14
(lp1227
Vhttp://www.beckett.com/basketball/1998-99/stadium-club-one-of-a-kind/201-larry-hughes-3160901
p1228
asg17
g18
sg19
(lp1229
Vhttp://img.beckett.com/images/no-image.jpg
p1230
asg22
V#201
p1231
sg24
V1998-99
p1232
sg26
g27
sg28
(lp1233
VLarry Hughes
p1234
assbag1
(g2
g3
Ntp1235
Rp1236
(dp1237
g7
(dp1238
g9
V1998-99 Stadium Club One Of A Kind #220 Nazr Mohammed
p1239
sg11
I150
sg12
VStadium Club One Of A Kind
p1240
sg14
(lp1241
Vhttp://www.beckett.com/basketball/1998-99/stadium-club-one-of-a-kind/220-nazr-mohammed-3160920
p1242
asg17
g18
sg19
(lp1243
Vhttp://img.beckett.com/images/items_stock/185226/3160688/3160920/front.jpg
p1244
asg22
V#220
p1245
sg24
V1998-99
p1246
sg26
g27
sg28
(lp1247
VNazr Mohammed
p1248
assbag1
(g2
g3
Ntp1249
Rp1250
(dp1251
g7
(dp1252
g9
V1998-99 Stadium Club Printing Plates #23 Theo Ratliff Black
p1253
sg11
I1
sg12
VStadium Club Printing Plates
p1254
sg14
(lp1255
Vhttp://www.beckett.com/basketball/1998-99/stadium-club-printing-plates/23-theo-ratliff-black-3161038
p1256
asg17
g18
sg19
(lp1257
Vhttp://img.beckett.com/images/no-image.jpg
p1258
asg22
V#23
p1259
sg24
V1998-99
p1260
sg26
g27
sg28
(lp1261
VTheo Ratliff
p1262
assbag1
(g2
g3
Ntp1263
Rp1264
(dp1265
g7
(dp1266
g9
V1998-99 Stadium Club Printing Plates #23A Theo Ratliff Cyan
p1267
sg11
I1
sg12
VStadium Club Printing Plates
p1268
sg14
(lp1269
Vhttp://www.beckett.com/basketball/1998-99/stadium-club-printing-plates/23a-theo-ratliff-cyan-3161039
p1270
asg17
g18
sg19
(lp1271
Vhttp://img.beckett.com/images/no-image.jpg
p1272
asg22
V#23A
p1273
sg24
V1998-99
p1274
sg26
g27
sg28
(lp1275
g1262
assbag1
(g2
g3
Ntp1276
Rp1277
(dp1278
g7
(dp1279
g9
V1998-99 Stadium Club Printing Plates #23B Theo Ratliff Magenta
p1280
sg11
I1
sg12
VStadium Club Printing Plates
p1281
sg14
(lp1282
Vhttp://www.beckett.com/basketball/1998-99/stadium-club-printing-plates/23b-theo-ratliff-magenta-3161040
p1283
asg17
g18
sg19
(lp1284
Vhttp://img.beckett.com/images/no-image.jpg
p1285
asg22
V#23B
p1286
sg24
V1998-99
p1287
sg26
g27
sg28
(lp1288
g1262
assbag1
(g2
g3
Ntp1289
Rp1290
(dp1291
g7
(dp1292
g9
V1998-99 Stadium Club Printing Plates #23C Theo Ratliff Yellow
p1293
sg11
I1
sg12
VStadium Club Printing Plates
p1294
sg14
(lp1295
Vhttp://www.beckett.com/basketball/1998-99/stadium-club-printing-plates/23c-theo-ratliff-yellow-3161041
p1296
asg17
g18
sg19
(lp1297
Vhttp://img.beckett.com/images/no-image.jpg
p1298
asg22
V#23C
p1299
sg24
V1998-99
p1300
sg26
g27
sg28
(lp1301
g1262
assbag1
(g2
g3
Ntp1302
Rp1303
(dp1304
g7
(dp1305
g9
V1998-99 Stadium Club Printing Plates #54 Brian Shaw Black
p1306
sg11
I1
sg12
VStadium Club Printing Plates
p1307
sg14
(lp1308
Vhttp://www.beckett.com/basketball/1998-99/stadium-club-printing-plates/54-brian-shaw-black-3161162
p1309
asg17
g18
sg19
(lp1310
Vhttp://img.beckett.com/images/no-image.jpg
p1311
asg22
V#54
p1312
sg24
V1998-99
p1313
sg26
g27
sg28
(lp1314
VBrian Shaw
p1315
assbag1
(g2
g3
Ntp1316
Rp1317
(dp1318
g7
(dp1319
g9
V1998-99 Stadium Club Printing Plates #54A Brian Shaw Cyan
p1320
sg11
I1
sg12
VStadium Club Printing Plates
p1321
sg14
(lp1322
Vhttp://www.beckett.com/basketball/1998-99/stadium-club-printing-plates/54a-brian-shaw-cyan-3161163
p1323
asg17
g18
sg19
(lp1324
Vhttp://img.beckett.com/images/no-image.jpg
p1325
asg22
V#54A
p1326
sg24
V1998-99
p1327
sg26
g27
sg28
(lp1328
g1315
assbag1
(g2
g3
Ntp1329
Rp1330
(dp1331
g7
(dp1332
g9
V1998-99 Stadium Club Printing Plates #54B Brian Shaw Magenta
p1333
sg11
I1
sg12
VStadium Club Printing Plates
p1334
sg14
(lp1335
Vhttp://www.beckett.com/basketball/1998-99/stadium-club-printing-plates/54b-brian-shaw-magenta-3161164
p1336
asg17
g18
sg19
(lp1337
Vhttp://img.beckett.com/images/no-image.jpg
p1338
asg22
V#54B
p1339
sg24
V1998-99
p1340
sg26
g27
sg28
(lp1341
g1315
assbag1
(g2
g3
Ntp1342
Rp1343
(dp1344
g7
(dp1345
g9
V1998-99 Stadium Club Printing Plates #54C Brian Shaw Yellow
p1346
sg11
I1
sg12
VStadium Club Printing Plates
p1347
sg14
(lp1348
Vhttp://www.beckett.com/basketball/1998-99/stadium-club-printing-plates/54c-brian-shaw-yellow-3161165
p1349
asg17
g18
sg19
(lp1350
Vhttp://img.beckett.com/images/no-image.jpg
p1351
asg22
V#54C
p1352
sg24
V1998-99
p1353
sg26
g27
sg28
(lp1354
g1315
assbag1
(g2
g3
Ntp1355
Rp1356
(dp1357
g7
(dp1358
g9
V1998-99 Stadium Club Printing Plates #75 Allen Iverson Black
p1359
sg11
I1
sg12
VStadium Club Printing Plates
p1360
sg14
(lp1361
Vhttp://www.beckett.com/basketball/1998-99/stadium-club-printing-plates/75-allen-iverson-black-3161246
p1362
asg17
g18
sg19
(lp1363
Vhttp://img.beckett.com/images/no-image.jpg
p1364
asg22
V#75
p1365
sg24
V1998-99
p1366
sg26
g27
sg28
(lp1367
VAllen Iverson
p1368
assbag1
(g2
g3
Ntp1369
Rp1370
(dp1371
g7
(dp1372
g9
V1998-99 Stadium Club Printing Plates #75A Allen Iverson Cyan
p1373
sg11
I1
sg12
VStadium Club Printing Plates
p1374
sg14
(lp1375
Vhttp://www.beckett.com/basketball/1998-99/stadium-club-printing-plates/75a-allen-iverson-cyan-3161247
p1376
asg17
g18
sg19
(lp1377
Vhttp://img.beckett.com/images/no-image.jpg
p1378
asg22
V#75A
p1379
sg24
V1998-99
p1380
sg26
g27
sg28
(lp1381
g1368
assbag1
(g2
g3
Ntp1382
Rp1383
(dp1384
g7
(dp1385
g9
V1998-99 Stadium Club Printing Plates #75B Allen Iverson Magenta
p1386
sg11
I1
sg12
VStadium Club Printing Plates
p1387
sg14
(lp1388
Vhttp://www.beckett.com/basketball/1998-99/stadium-club-printing-plates/75b-allen-iverson-magenta-3161248
p1389
asg17
g18
sg19
(lp1390
Vhttp://img.beckett.com/images/no-image.jpg
p1391
asg22
V#75B
p1392
sg24
V1998-99
p1393
sg26
g27
sg28
(lp1394
g1368
assbag1
(g2
g3
Ntp1395
Rp1396
(dp1397
g7
(dp1398
g9
V1998-99 Stadium Club Printing Plates #75C Allen Iverson Yellow
p1399
sg11
I1
sg12
VStadium Club Printing Plates
p1400
sg14
(lp1401
Vhttp://www.beckett.com/basketball/1998-99/stadium-club-printing-plates/75c-allen-iverson-yellow-3161249
p1402
asg17
g18
sg19
(lp1403
Vhttp://img.beckett.com/images/no-image.jpg
p1404
asg22
V#75C
p1405
sg24
V1998-99
p1406
sg26
g27
sg28
(lp1407
g1368
assbag1
(g2
g3
Ntp1408
Rp1409
(dp1410
g7
(dp1411
g9
V1998-99 Stadium Club Printing Plates #108 Larry Hughes Black
p1412
sg11
I1
sg12
VStadium Club Printing Plates
p1413
sg14
(lp1414
Vhttp://www.beckett.com/basketball/1998-99/stadium-club-printing-plates/108-larry-hughes-black-3161378
p1415
asg17
g18
sg19
(lp1416
Vhttp://img.beckett.com/images/no-image.jpg
p1417
asg22
V#108
p1418
sg24
V1998-99
p1419
sg26
g27
sg28
(lp1420
VLarry Hughes
p1421
assbag1
(g2
g3
Ntp1422
Rp1423
(dp1424
g7
(dp1425
g9
V1998-99 Stadium Club Printing Plates #108A Larry Hughes Cyan
p1426
sg11
I1
sg12
VStadium Club Printing Plates
p1427
sg14
(lp1428
Vhttp://www.beckett.com/basketball/1998-99/stadium-club-printing-plates/108a-larry-hughes-cyan-3161379
p1429
asg17
g18
sg19
(lp1430
Vhttp://img.beckett.com/images/no-image.jpg
p1431
asg22
V#108A
p1432
sg24
V1998-99
p1433
sg26
g27
sg28
(lp1434
g1421
assbag1
(g2
g3
Ntp1435
Rp1436
(dp1437
g7
(dp1438
g9
V1998-99 Stadium Club Printing Plates #108B Larry Hughes Magenta
p1439
sg11
I1
sg12
VStadium Club Printing Plates
p1440
sg14
(lp1441
Vhttp://www.beckett.com/basketball/1998-99/stadium-club-printing-plates/108b-larry-hughes-magenta-3161380
p1442
asg17
g18
sg19
(lp1443
Vhttp://img.beckett.com/images/no-image.jpg
p1444
asg22
V#108B
p1445
sg24
V1998-99
p1446
sg26
g27
sg28
(lp1447
g1421
assbag1
(g2
g3
Ntp1448
Rp1449
(dp1450
g7
(dp1451
g9
V1998-99 Stadium Club Printing Plates #108C Larry Hughes Yellow
p1452
sg11
I1
sg12
VStadium Club Printing Plates
p1453
sg14
(lp1454
Vhttp://www.beckett.com/basketball/1998-99/stadium-club-printing-plates/108c-larry-hughes-yellow-3161381
p1455
asg17
g18
sg19
(lp1456
Vhttp://img.beckett.com/images/no-image.jpg
p1457
asg22
V#108C
p1458
sg24
V1998-99
p1459
sg26
g27
sg28
(lp1460
g1421
assbag1
(g2
g3
Ntp1461
Rp1462
(dp1463
g7
(dp1464
g9
V1998-99 Stadium Club Printing Plates #168 Aaron McKie Black
p1465
sg11
I1
sg12
VStadium Club Printing Plates
p1466
sg14
(lp1467
Vhttp://www.beckett.com/basketball/1998-99/stadium-club-printing-plates/168-aaron-mckie-black-3161618
p1468
asg17
g18
sg19
(lp1469
Vhttp://img.beckett.com/images/no-image.jpg
p1470
asg22
V#168
p1471
sg24
V1998-99
p1472
sg26
g27
sg28
(lp1473
VAaron McKie
p1474
assbag1
(g2
g3
Ntp1475
Rp1476
(dp1477
g7
(dp1478
g9
V1998-99 Stadium Club Printing Plates #168A Aaron McKie Cyan
p1479
sg11
I1
sg12
VStadium Club Printing Plates
p1480
sg14
(lp1481
Vhttp://www.beckett.com/basketball/1998-99/stadium-club-printing-plates/168a-aaron-mckie-cyan-3161619
p1482
asg17
g18
sg19
(lp1483
Vhttp://img.beckett.com/images/no-image.jpg
p1484
asg22
V#168A
p1485
sg24
V1998-99
p1486
sg26
g27
sg28
(lp1487
g1474
assbag1
(g2
g3
Ntp1488
Rp1489
(dp1490
g7
(dp1491
g9
V1998-99 Stadium Club Printing Plates #168B Aaron McKie Magenta
p1492
sg11
I1
sg12
VStadium Club Printing Plates
p1493
sg14
(lp1494
Vhttp://www.beckett.com/basketball/1998-99/stadium-club-printing-plates/168b-aaron-mckie-magenta-3161620
p1495
asg17
g18
sg19
(lp1496
Vhttp://img.beckett.com/images/no-image.jpg
p1497
asg22
V#168B
p1498
sg24
V1998-99
p1499
sg26
g27
sg28
(lp1500
g1474
assbag1
(g2
g3
Ntp1501
Rp1502
(dp1503
g7
(dp1504
g9
V1998-99 Stadium Club Printing Plates #168C Aaron McKie Yellow
p1505
sg11
I1
sg12
VStadium Club Printing Plates
p1506
sg14
(lp1507
Vhttp://www.beckett.com/basketball/1998-99/stadium-club-printing-plates/168c-aaron-mckie-yellow-3161621
p1508
asg17
g18
sg19
(lp1509
Vhttp://img.beckett.com/images/no-image.jpg
p1510
asg22
V#168C
p1511
sg24
V1998-99
p1512
sg26
g27
sg28
(lp1513
g1474
assbag1
(g2
g3
Ntp1514
Rp1515
(dp1516
g7
(dp1517
g9
V1998-99 Stadium Club Printing Plates #201 Larry Hughes Black
p1518
sg11
I1
sg12
VStadium Club Printing Plates
p1519
sg14
(lp1520
Vhttp://www.beckett.com/basketball/1998-99/stadium-club-printing-plates/201-larry-hughes-black-3161750
p1521
asg17
g18
sg19
(lp1522
Vhttp://img.beckett.com/images/no-image.jpg
p1523
asg22
V#201
p1524
sg24
V1998-99
p1525
sg26
g27
sg28
(lp1526
g1421
assbag1
(g2
g3
Ntp1527
Rp1528
(dp1529
g7
(dp1530
g9
V1998-99 Stadium Club Printing Plates #201A Larry Hughes Cyan
p1531
sg11
I1
sg12
VStadium Club Printing Plates
p1532
sg14
(lp1533
Vhttp://www.beckett.com/basketball/1998-99/stadium-club-printing-plates/201a-larry-hughes-cyan-3161751
p1534
asg17
g18
sg19
(lp1535
Vhttp://img.beckett.com/images/no-image.jpg
p1536
asg22
V#201A
p1537
sg24
V1998-99
p1538
sg26
g27
sg28
(lp1539
g1421
assbag1
(g2
g3
Ntp1540
Rp1541
(dp1542
g7
(dp1543
g9
V1998-99 Stadium Club Printing Plates #201B Larry Hughes Magenta
p1544
sg11
I1
sg12
VStadium Club Printing Plates
p1545
sg14
(lp1546
Vhttp://www.beckett.com/basketball/1998-99/stadium-club-printing-plates/201b-larry-hughes-magenta-3161752
p1547
asg17
g18
sg19
(lp1548
Vhttp://img.beckett.com/images/no-image.jpg
p1549
asg22
V#201B
p1550
sg24
V1998-99
p1551
sg26
g27
sg28
(lp1552
g1421
assbag1
(g2
g3
Ntp1553
Rp1554
(dp1555
g7
(dp1556
g9
V1998-99 Stadium Club Printing Plates #201C Larry Hughes Yellow
p1557
sg11
I1
sg12
VStadium Club Printing Plates
p1558
sg14
(lp1559
Vhttp://www.beckett.com/basketball/1998-99/stadium-club-printing-plates/201c-larry-hughes-yellow-3161753
p1560
asg17
g18
sg19
(lp1561
Vhttp://img.beckett.com/images/no-image.jpg
p1562
asg22
V#201C
p1563
sg24
V1998-99
p1564
sg26
g27
sg28
(lp1565
g1421
assbag1
(g2
g3
Ntp1566
Rp1567
(dp1568
g7
(dp1569
g9
V1998-99 Stadium Club Printing Plates #220 Nazr Mohammed Black
p1570
sg11
I1
sg12
VStadium Club Printing Plates
p1571
sg14
(lp1572
Vhttp://www.beckett.com/basketball/1998-99/stadium-club-printing-plates/220-nazr-mohammed-black-3161826
p1573
asg17
g18
sg19
(lp1574
Vhttp://img.beckett.com/images/no-image.jpg
p1575
asg22
V#220
p1576
sg24
V1998-99
p1577
sg26
g27
sg28
(lp1578
VNazr Mohammed
p1579
assbag1
(g2
g3
Ntp1580
Rp1581
(dp1582
g7
(dp1583
g9
V1998-99 Stadium Club Printing Plates #220A Nazr Mohammed Cyan
p1584
sg11
I1
sg12
VStadium Club Printing Plates
p1585
sg14
(lp1586
Vhttp://www.beckett.com/basketball/1998-99/stadium-club-printing-plates/220a-nazr-mohammed-cyan-3161827
p1587
asg17
g18
sg19
(lp1588
Vhttp://img.beckett.com/images/no-image.jpg
p1589
asg22
V#220A
p1590
sg24
V1998-99
p1591
sg26
g27
sg28
(lp1592
g1579
assbag1
(g2
g3
Ntp1593
Rp1594
(dp1595
g7
(dp1596
g9
V1998-99 Stadium Club Printing Plates #220B Nazr Mohammed Magenta
p1597
sg11
I1
sg12
VStadium Club Printing Plates
p1598
sg14
(lp1599
Vhttp://www.beckett.com/basketball/1998-99/stadium-club-printing-plates/220b-nazr-mohammed-magenta-3161828
p1600
asg17
g18
sg19
(lp1601
Vhttp://img.beckett.com/images/no-image.jpg
p1602
asg22
V#220B
p1603
sg24
V1998-99
p1604
sg26
g27
sg28
(lp1605
g1579
assbag1
(g2
g3
Ntp1606
Rp1607
(dp1608
g7
(dp1609
g9
V1998-99 Stadium Club Printing Plates #220C Nazr Mohammed Yellow
p1610
sg11
I1
sg12
VStadium Club Printing Plates
p1611
sg14
(lp1612
Vhttp://www.beckett.com/basketball/1998-99/stadium-club-printing-plates/220c-nazr-mohammed-yellow-3161829
p1613
asg17
g18
sg19
(lp1614
Vhttp://img.beckett.com/images/no-image.jpg
p1615
asg22
V#220C
p1616
sg24
V1998-99
p1617
sg26
g27
sg28
(lp1618
g1579
assbag1
(g2
g3
Ntp1619
Rp1620
(dp1621
g7
(dp1622
g9
V1998-99 UD Choice Premium Choice Reserve #105 Allen Iverson
p1623
sg11
I100
sg12
VUD Choice Premium Choice Reserve
p1624
sg14
(lp1625
Vhttp://www.beckett.com/basketball/1998-99/ud-choice-premium-choice-reserve/105-allen-iverson-3159278
p1626
asg17
g18
sg19
(lp1627
Vhttp://img.beckett.com/images/no-image.jpg
p1628
asg22
V#105
p1629
sg24
V1998-99
p1630
sg26
g27
sg28
(lp1631
VAllen Iverson
p1632
assbag1
(g2
g3
Ntp1633
Rp1634
(dp1635
g7
(dp1636
g9
V1998-99 UD Choice Premium Choice Reserve #106 Joe Smith
p1637
sg11
I100
sg12
VUD Choice Premium Choice Reserve
p1638
sg14
(lp1639
Vhttp://www.beckett.com/basketball/1998-99/ud-choice-premium-choice-reserve/106-joe-smith-3159279
p1640
asg17
g18
sg19
(lp1641
Vhttp://img.beckett.com/images/no-image.jpg
p1642
asg22
V#106
p1643
sg24
V1998-99
p1644
sg26
g27
sg28
(lp1645
VJoe Smith
p1646
assbag1
(g2
g3
Ntp1647
Rp1648
(dp1649
g7
(dp1650
g9
V1998-99 UD Choice Premium Choice Reserve #107 Tim Thomas
p1651
sg11
I100
sg12
VUD Choice Premium Choice Reserve
p1652
sg14
(lp1653
Vhttp://www.beckett.com/basketball/1998-99/ud-choice-premium-choice-reserve/107-tim-thomas-3159280
p1654
asg17
g18
sg19
(lp1655
Vhttp://img.beckett.com/images/no-image.jpg
p1656
asg22
V#107
p1657
sg24
V1998-99
p1658
sg26
g27
sg28
(lp1659
VTim Thomas
p1660
assbag1
(g2
g3
Ntp1661
Rp1662
(dp1663
g7
(dp1664
g9
V1998-99 UD Choice Premium Choice Reserve #108 Brian Shaw
p1665
sg11
I100
sg12
VUD Choice Premium Choice Reserve
p1666
sg14
(lp1667
Vhttp://www.beckett.com/basketball/1998-99/ud-choice-premium-choice-reserve/108-brian-shaw-3159281
p1668
asg17
g18
sg19
(lp1669
Vhttp://img.beckett.com/images/no-image.jpg
p1670
asg22
V#108
p1671
sg24
V1998-99
p1672
sg26
g27
sg28
(lp1673
VBrian Shaw
p1674
assbag1
(g2
g3
Ntp1675
Rp1676
(dp1677
g7
(dp1678
g9
V1998-99 UD Choice Premium Choice Reserve #109 Aaron McKie
p1679
sg11
I100
sg12
VUD Choice Premium Choice Reserve
p1680
sg14
(lp1681
Vhttp://www.beckett.com/basketball/1998-99/ud-choice-premium-choice-reserve/109-aaron-mckie-3159282
p1682
asg17
g18
sg19
(lp1683
Vhttp://img.beckett.com/images/items_stock/185226/3159165/3159282/front.jpg
p1684
asg22
V#109
p1685
sg24
V1998-99
p1686
sg26
g27
sg28
(lp1687
VAaron McKie
p1688
assbag1
(g2
g3
Ntp1689
Rp1690
(dp1691
g7
(dp1692
g9
V1998-99 UD Ionix Reciprocal #46 Allen Iverson
p1693
sg11
I750
sg12
VUD Ionix Reciprocal
p1694
sg14
(lp1695
Vhttp://www.beckett.com/basketball/1998-99/ud-ionix-reciprocal/46-allen-iverson-3159722
p1696
asg17
g18
sg19
(lp1697
Vhttp://img.beckett.com/images/no-image.jpg
p1698
asg22
V#46
p1699
sg24
V1998-99
p1700
sg26
g27
sg28
(lp1701
VAllen Iverson
p1702
assbag1
(g2
g3
Ntp1703
Rp1704
(dp1705
g7
(dp1706
g9
V1998-99 UD Ionix Reciprocal #68 Larry Hughes
p1707
sg11
I100
sg12
VUD Ionix Reciprocal
p1708
sg14
(lp1709
Vhttp://www.beckett.com/basketball/1998-99/ud-ionix-reciprocal/68-larry-hughes-3159744
p1710
asg17
g18
sg19
(lp1711
Vhttp://img.beckett.com/images/no-image.jpg
p1712
asg22
V#68
p1713
sg24
V1998-99
p1714
sg26
g27
sg28
(lp1715
VLarry Hughes
p1716
assbag1
(g2
g3
Ntp1717
Rp1718
(dp1719
g7
(dp1720
g9
V1998-99 Ultra Masterpieces #20 Theo Ratliff
p1721
sg11
I1
sg12
VUltra Masterpieces
p1722
sg14
(lp1723
Vhttp://www.beckett.com/basketball/1998-99/ultra-masterpieces/20-theo-ratliff-3156976
p1724
asg17
g18
sg19
(lp1725
Vhttp://img.beckett.com/images/no-image.jpg
p1726
asg22
V#20
p1727
sg24
V1998-99
p1728
sg26
g27
sg28
(lp1729
VTheo Ratliff
p1730
assbag1
(g2
g3
Ntp1731
Rp1732
(dp1733
g7
(dp1734
g9
V1998-99 Ultra Masterpieces #33 Allen Iverson
p1735
sg11
I1
sg12
VUltra Masterpieces
p1736
sg14
(lp1737
Vhttp://www.beckett.com/basketball/1998-99/ultra-masterpieces/33-allen-iverson-3156989
p1738
asg17
g18
sg19
(lp1739
Vhttp://img.beckett.com/images/no-image.jpg
p1740
asg22
V#33
p1741
sg24
V1998-99
p1742
sg26
g27
sg28
(lp1743
VAllen Iverson
p1744
assbag1
(g2
g3
Ntp1745
Rp1746
(dp1747
g7
(dp1748
g9
V1998-99 Ultra Masterpieces #110 Nazr Mohammed
p1749
sg11
I1
sg12
VUltra Masterpieces
p1750
sg14
(lp1751
Vhttp://www.beckett.com/basketball/1998-99/ultra-masterpieces/110-nazr-mohammed-3157066
p1752
asg17
g18
sg19
(lp1753
Vhttp://img.beckett.com/images/no-image.jpg
p1754
asg22
V#110
p1755
sg24
V1998-99
p1756
sg26
g27
sg28
(lp1757
VNazr Mohammed
p1758
assbag1
(g2
g3
Ntp1759
Rp1760
(dp1761
g7
(dp1762
g9
V1998-99 Ultra Masterpieces #115 Larry Hughes
p1763
sg11
I1
sg12
VUltra Masterpieces
p1764
sg14
(lp1765
Vhttp://www.beckett.com/basketball/1998-99/ultra-masterpieces/115-larry-hughes-3157071
p1766
asg17
g18
sg19
(lp1767
Vhttp://img.beckett.com/images/no-image.jpg
p1768
asg22
V#115
p1769
sg24
V1998-99
p1770
sg26
g27
sg28
(lp1771
VLarry Hughes
p1772
assbag1
(g2
g3
Ntp1773
Rp1774
(dp1775
g7
(dp1776
g9
V1998-99 Ultra Platinum Medallion #20 Theo Ratliff
p1777
sg11
I99
sg12
VUltra Platinum Medallion
p1778
sg14
(lp1779
Vhttp://www.beckett.com/basketball/1998-99/ultra-platinum-medallion/20-theo-ratliff-3157112
p1780
asg17
g18
sg19
(lp1781
Vhttp://img.beckett.com/images/no-image.jpg
p1782
asg22
V#20
p1783
sg24
V1998-99
p1784
sg26
g27
sg28
(lp1785
VTheo Ratliff
p1786
assbag1
(g2
g3
Ntp1787
Rp1788
(dp1789
g7
(dp1790
g9
V1998-99 Ultra Platinum Medallion #33 Allen Iverson
p1791
sg11
I99
sg12
VUltra Platinum Medallion
p1792
sg14
(lp1793
Vhttp://www.beckett.com/basketball/1998-99/ultra-platinum-medallion/33-allen-iverson-3157125
p1794
asg17
g18
sg19
(lp1795
Vhttp://img.beckett.com/images/no-image.jpg
p1796
asg22
V#33
p1797
sg24
V1998-99
p1798
sg26
g27
sg28
(lp1799
VAllen Iverson
p1800
assbag1
(g2
g3
Ntp1801
Rp1802
(dp1803
g7
(dp1804
g9
V1998-99 Ultra Platinum Medallion #110 Nazr Mohammed
p1805
sg11
I66
sg12
VUltra Platinum Medallion
p1806
sg14
(lp1807
Vhttp://www.beckett.com/basketball/1998-99/ultra-platinum-medallion/110-nazr-mohammed-3157202
p1808
asg17
g18
sg19
(lp1809
Vhttp://img.beckett.com/images/no-image.jpg
p1810
asg22
V#110
p1811
sg24
V1998-99
p1812
sg26
g27
sg28
(lp1813
VNazr Mohammed
p1814
assbag1
(g2
g3
Ntp1815
Rp1816
(dp1817
g7
(dp1818
g9
V1998-99 Ultra Platinum Medallion #115 Larry Hughes
p1819
sg11
I66
sg12
VUltra Platinum Medallion
p1820
sg14
(lp1821
Vhttp://www.beckett.com/basketball/1998-99/ultra-platinum-medallion/115-larry-hughes-3157207
p1822
asg17
g18
sg19
(lp1823
Vhttp://img.beckett.com/images/no-image.jpg
p1824
asg22
V#115
p1825
sg24
V1998-99
p1826
sg26
g27
sg28
(lp1827
VLarry Hughes
p1828
assbag1
(g2
g3
Ntp1829
Rp1830
(dp1831
g7
(dp1832
g9
V1998-99 Upper Deck Bronze #114 Allen Iverson
p1833
sg11
I100
sg12
VUpper Deck Bronze
p1834
sg14
(lp1835
Vhttp://www.beckett.com/basketball/1998-99/upper-deck-bronze/114-allen-iverson-3157845
p1836
asg17
g18
sg19
(lp1837
Vhttp://img.beckett.com/images/no-image.jpg
p1838
asg22
V#114
p1839
sg24
V1998-99
p1840
sg26
g27
sg28
(lp1841
VAllen Iverson
p1842
assbag1
(g2
g3
Ntp1843
Rp1844
(dp1845
g7
(dp1846
g9
V1998-99 Upper Deck Bronze #115 Scott Williams
p1847
sg11
I100
sg12
VUpper Deck Bronze
p1848
sg14
(lp1849
Vhttp://www.beckett.com/basketball/1998-99/upper-deck-bronze/115-scott-williams-3157846
p1850
asg17
g18
sg19
(lp1851
Vhttp://img.beckett.com/images/items_stock/185226/3157718/3157846/front.jpg
p1852
asg22
V#115
p1853
sg24
V1998-99
p1854
sg26
g27
sg28
(lp1855
VScott Williams
p1856
assbag1
(g2
g3
Ntp1857
Rp1858
(dp1859
g7
(dp1860
g9
V1998-99 Upper Deck Bronze #117 Brian Shaw
p1861
sg11
I100
sg12
VUpper Deck Bronze
p1862
sg14
(lp1863
Vhttp://www.beckett.com/basketball/1998-99/upper-deck-bronze/117-brian-shaw-3157848
p1864
asg17
g18
sg19
(lp1865
Vhttp://img.beckett.com/images/items_stock/185226/3157718/3157848/front.jpg
p1866
asg22
V#117
p1867
sg24
V1998-99
p1868
sg26
g27
sg28
(lp1869
VBrian Shaw
p1870
assbag1
(g2
g3
Ntp1871
Rp1872
(dp1873
g7
(dp1874
g9
V1998-99 Upper Deck Bronze #118 Anthony Parker
p1875
sg11
I100
sg12
VUpper Deck Bronze
p1876
sg14
(lp1877
Vhttp://www.beckett.com/basketball/1998-99/upper-deck-bronze/118-anthony-parker-3157849
p1878
asg17
g18
sg19
(lp1879
Vhttp://img.beckett.com/images/no-image.jpg
p1880
asg22
V#118
p1881
sg24
V1998-99
p1882
sg26
g27
sg28
(lp1883
VAnthony Parker
p1884
assbag1
(g2
g3
Ntp1885
Rp1886
(dp1887
g7
(dp1888
g9
V1998-99 Upper Deck Bronze #119 Allen Iverson/Tim Thomas HS
p1889
sg11
I100
sg12
VUpper Deck Bronze
p1890
sg14
(lp1891
Vhttp://www.beckett.com/basketball/1998-99/upper-deck-bronze/119-allen-iversontim-thomas-hs-3157850
p1892
asg17
g18
sg19
(lp1893
Vhttp://img.beckett.com/images/no-image.jpg
p1894
asg22
V#119
p1895
sg24
V1998-99
p1896
sg175
VHS
p1897
sg26
g27
sg28
(lp1898
VAllen Iverson
p1899
aVTim Thomas
p1900
assbag1
(g2
g3
Ntp1901
Rp1902
(dp1903
g7
(dp1904
g9
V1998-99 Upper Deck Bronze #203 Aaron McKie
p1905
sg11
I100
sg12
VUpper Deck Bronze
p1906
sg14
(lp1907
Vhttp://www.beckett.com/basketball/1998-99/upper-deck-bronze/203-aaron-mckie-3157934
p1908
asg17
g18
sg19
(lp1909
Vhttp://img.beckett.com/images/no-image.jpg
p1910
asg22
V#203
p1911
sg24
V1998-99
p1912
sg26
g27
sg28
(lp1913
VAaron McKie
p1914
assbag1
(g2
g3
Ntp1915
Rp1916
(dp1917
g7
(dp1918
g9
V1998-99 Upper Deck Bronze #236 Theo Ratliff
p1919
sg11
I100
sg12
VUpper Deck Bronze
p1920
sg14
(lp1921
Vhttp://www.beckett.com/basketball/1998-99/upper-deck-bronze/236-theo-ratliff-3157989
p1922
asg17
g18
sg19
(lp1923
Vhttp://img.beckett.com/images/items_stock/185226/3157718/3157989/front.jpg
p1924
asg22
V#236
p1925
sg24
V1998-99
p1926
sg26
g27
sg28
(lp1927
VTheo Ratliff
p1928
assbag1
(g2
g3
Ntp1929
Rp1930
(dp1931
g7
(dp1932
g9
V1998-99 Upper Deck Bronze #319 Larry Hughes
p1933
sg11
I100
sg12
VUpper Deck Bronze
p1934
sg14
(lp1935
Vhttp://www.beckett.com/basketball/1998-99/upper-deck-bronze/319-larry-hughes-3158072
p1936
asg17
g18
sg19
(lp1937
Vhttp://img.beckett.com/images/items_stock/185226/3157718/3158072/front.jpg
p1938
asg22
V#319
p1939
sg24
V1998-99
p1940
sg26
g27
sg28
(lp1941
VLarry Hughes
p1942
assbag1
(g2
g3
Ntp1943
Rp1944
(dp1945
g7
(dp1946
g9
V1998-99 Upper Deck Gold #114 Allen Iverson
p1947
sg11
I1
sg12
VUpper Deck Gold
p1948
sg14
(lp1949
Vhttp://www.beckett.com/basketball/1998-99/upper-deck-gold/114-allen-iverson-3158210
p1950
asg17
g18
sg19
(lp1951
Vhttp://img.beckett.com/images/no-image.jpg
p1952
asg22
V#114
p1953
sg24
V1998-99
p1954
sg26
g27
sg28
(lp1955
VAllen Iverson
p1956
assbag1
(g2
g3
Ntp1957
Rp1958
(dp1959
g7
(dp1960
g9
V1998-99 Upper Deck Gold #115 Scott Williams
p1961
sg11
I1
sg12
VUpper Deck Gold
p1962
sg14
(lp1963
Vhttp://www.beckett.com/basketball/1998-99/upper-deck-gold/115-scott-williams-3158211
p1964
asg17
g18
sg19
(lp1965
Vhttp://img.beckett.com/images/no-image.jpg
p1966
asg22
V#115
p1967
sg24
V1998-99
p1968
sg26
g27
sg28
(lp1969
VScott Williams
p1970
assbag1
(g2
g3
Ntp1971
Rp1972
(dp1973
g7
(dp1974
g9
V1998-99 Upper Deck Gold #117 Brian Shaw
p1975
sg11
I1
sg12
VUpper Deck Gold
p1976
sg14
(lp1977
Vhttp://www.beckett.com/basketball/1998-99/upper-deck-gold/117-brian-shaw-3158213
p1978
asg17
g18
sg19
(lp1979
Vhttp://img.beckett.com/images/no-image.jpg
p1980
asg22
V#117
p1981
sg24
V1998-99
p1982
sg26
g27
sg28
(lp1983
VBrian Shaw
p1984
assbag1
(g2
g3
Ntp1985
Rp1986
(dp1987
g7
(dp1988
g9
V1998-99 Upper Deck Gold #118 Anthony Parker
p1989
sg11
I1
sg12
VUpper Deck Gold
p1990
sg14
(lp1991
Vhttp://www.beckett.com/basketball/1998-99/upper-deck-gold/118-anthony-parker-3158214
p1992
asg17
g18
sg19
(lp1993
Vhttp://img.beckett.com/images/no-image.jpg
p1994
asg22
V#118
p1995
sg24
V1998-99
p1996
sg26
g27
sg28
(lp1997
VAnthony Parker
p1998
assbag1
(g2
g3
Ntp1999
Rp2000
(dp2001
g7
(dp2002
g9
V1998-99 Upper Deck Gold #119 Allen Iverson/Tim Thomas HS
p2003
sg11
I1
sg12
VUpper Deck Gold
p2004
sg14
(lp2005
Vhttp://www.beckett.com/basketball/1998-99/upper-deck-gold/119-allen-iversontim-thomas-hs-3158215
p2006
asg17
g18
sg19
(lp2007
Vhttp://img.beckett.com/images/no-image.jpg
p2008
asg22
V#119
p2009
sg24
V1998-99
p2010
sg175
VHS
p2011
sg26
g27
sg28
(lp2012
VAllen Iverson
p2013
aVTim Thomas
p2014
assbag1
(g2
g3
Ntp2015
Rp2016
(dp2017
g7
(dp2018
g9
V1998-99 Upper Deck Gold #203 Aaron McKie
p2019
sg11
I1
sg12
VUpper Deck Gold
p2020
sg14
(lp2021
Vhttp://www.beckett.com/basketball/1998-99/upper-deck-gold/203-aaron-mckie-3158299
p2022
asg17
g18
sg19
(lp2023
Vhttp://img.beckett.com/images/no-image.jpg
p2024
asg22
V#203
p2025
sg24
V1998-99
p2026
sg26
g27
sg28
(lp2027
VAaron McKie
p2028
assbag1
(g2
g3
Ntp2029
Rp2030
(dp2031
g7
(dp2032
g9
V1998-99 Upper Deck Gold #236 Theo Ratliff
p2033
sg11
I1
sg12
VUpper Deck Gold
p2034
sg14
(lp2035
Vhttp://www.beckett.com/basketball/1998-99/upper-deck-gold/236-theo-ratliff-3158354
p2036
asg17
g18
sg19
(lp2037
Vhttp://img.beckett.com/images/no-image.jpg
p2038
asg22
V#236
p2039
sg24
V1998-99
p2040
sg26
g27
sg28
(lp2041
VTheo Ratliff
p2042
assbag1
(g2
g3
Ntp2043
Rp2044
(dp2045
g7
(dp2046
g9
V1998-99 Upper Deck Gold #319 Larry Hughes
p2047
sg11
I1
sg12
VUpper Deck Gold
p2048
sg14
(lp2049
Vhttp://www.beckett.com/basketball/1998-99/upper-deck-gold/319-larry-hughes-3158437
p2050
asg17
g18
sg19
(lp2051
Vhttp://img.beckett.com/images/no-image.jpg
p2052
asg22
V#319
p2053
sg24
V1998-99
p2054
sg26
g27
sg28
(lp2055
VLarry Hughes
p2056
assbag1
(g2
g3
Ntp2057
Rp2058
(dp2059
g7
(dp2060
g9
V1998-99 Upper Deck Encore F/X #61 Allen Iverson
p2061
sg11
I125
sg12
VUpper Deck Encore F/X
p2062
sg14
(lp2063
Vhttp://www.beckett.com/basketball/1998-99/upper-deck-encore-fx/61-allen-iverson-3155162
p2064
asg17
g18
sg19
(lp2065
Vhttp://img.beckett.com/images/no-image.jpg
p2066
asg22
V#61
p2067
sg24
V1998-99
p2068
sg26
g27
sg28
(lp2069
VAllen Iverson
p2070
assbag1
(g2
g3
Ntp2071
Rp2072
(dp2073
g7
(dp2074
g9
V1998-99 Upper Deck Encore F/X #63 Theo Ratliff
p2075
sg11
I125
sg12
VUpper Deck Encore F/X
p2076
sg14
(lp2077
Vhttp://www.beckett.com/basketball/1998-99/upper-deck-encore-fx/63-theo-ratliff-3155164
p2078
asg17
g18
sg19
(lp2079
Vhttp://img.beckett.com/images/items_stock/185226/3155089/3155164/front.jpg
p2080
asg22
V#63
p2081
sg24
V1998-99
p2082
sg26
g27
sg28
(lp2083
VTheo Ratliff
p2084
assbag1
(g2
g3
Ntp2085
Rp2086
(dp2087
g7
(dp2088
g9
V1998-99 Upper Deck Encore F/X #121 Larry Hughes
p2089
sg11
I125
sg12
VUpper Deck Encore F/X
p2090
sg14
(lp2091
Vhttp://www.beckett.com/basketball/1998-99/upper-deck-encore-fx/121-larry-hughes-3155222
p2092
asg17
g18
sg19
(lp2093
Vhttp://img.beckett.com/images/items_stock/185226/3155089/3155222/front.jpg
p2094
asg22
V#121
p2095
sg24
V1998-99
p2096
sg26
g27
sg28
(lp2097
VLarry Hughes
p2098
assbag1
(g2
g3
Ntp2099
Rp2100
(dp2101
g7
(dp2102
g9
V1998-99 Upper Deck Encore F/X #139 Nazr Mohammed
p2103
sg11
I125
sg12
VUpper Deck Encore F/X
p2104
sg14
(lp2105
Vhttp://www.beckett.com/basketball/1998-99/upper-deck-encore-fx/139-nazr-mohammed-3155240
p2106
asg17
g18
sg19
(lp2107
Vhttp://img.beckett.com/images/no-image.jpg
p2108
asg22
V#139
p2109
sg24
V1998-99
p2110
sg26
g27
sg28
(lp2111
VNazr Mohammed
p2112
assbag1
(g2
g3
Ntp2113
Rp2114
(dp2115
g7
(dp2116
g9
V1998-99 Upper Deck Encore F/X #141 Casey Shaw
p2117
sg11
I125
sg12
VUpper Deck Encore F/X
p2118
sg14
(lp2119
Vhttp://www.beckett.com/basketball/1998-99/upper-deck-encore-fx/141-casey-shaw-3155242
p2120
asg17
g18
sg19
(lp2121
Vhttp://img.beckett.com/images/items_stock/185226/3155089/3155242/front.jpg
p2122
asg22
V#141
p2123
sg24
V1998-99
p2124
sg26
g27
sg28
(lp2125
VCasey Shaw
p2126
assbag1
(g2
g3
Ntp2127
Rp2128
(dp2129
g7
(dp2130
g9
V1998-99 Upper Deck Ovation Gold #49 Allen Iverson
p2131
sg11
I1000
sg12
VUpper Deck Ovation Gold
p2132
sg14
(lp2133
Vhttp://www.beckett.com/basketball/1998-99/upper-deck-ovation-gold/49-allen-iverson-3155605
p2134
asg17
g18
sg19
(lp2135
Vhttp://img.beckett.com/images/no-image.jpg
p2136
asg22
V#49
p2137
sg24
V1998-99
p2138
sg26
g27
sg28
(lp2139
VAllen Iverson
p2140
assbag1
(g2
g3
Ntp2141
Rp2142
(dp2143
g7
(dp2144
g9
V1998-99 Upper Deck Ovation Gold #78 Larry Hughes
p2145
sg11
I1000
sg12
VUpper Deck Ovation Gold
p2146
sg14
(lp2147
Vhttp://www.beckett.com/basketball/1998-99/upper-deck-ovation-gold/78-larry-hughes-3155634
p2148
asg17
g18
sg19
(lp2149
Vhttp://img.beckett.com/images/items_stock/185226/3155547/3155634/front.jpg
p2150
asg22
V#78
p2151
sg24
V1998-99
p2152
sg26
g27
sg28
(lp2153
VLarry Hughes
p2154
assbag1
(g2
g3
Ntp2155
Rp2156
(dp2157
g7
(dp2158
g9
V1998-99 Black Diamond Diamond Dominance #D20 Allen Iverson
p2159
sg11
I1000
sg12
VBlack Diamond Diamond Dominance
p2160
sg14
(lp2161
Vhttp://www.beckett.com/basketball/1998-99/black-diamond-diamond-dominance/d20-allen-iverson-3170861
p2162
asg17
g18
sg19
(lp2163
Vhttp://img.beckett.com/images/no-image.jpg
p2164
asg22
V#D20
p2165
sg24
V1998-99
p2166
sg26
g27
sg28
(lp2167
VAllen Iverson
p2168
assbag1
(g2
g3
Ntp2169
Rp2170
(dp2171
g7
(dp2172
g9
V1998-99 E-X Century Authen-Kicks #7 Larry Hughes/115
p2173
sg11
I115
sg12
VE-X Century Authen-Kicks
p2174
sg14
(lp2175
Vhttp://www.beckett.com/basketball/1998-99/e-x-century-authen-kicks/7-larry-hughes115-3169151
p2176
asg17
g18
sS'memorabilia'
p2177
I1
sg19
(lp2178
Vhttp://img.beckett.com/images/no-image.jpg
p2179
asg22
V#7
p2180
sg24
V1998-99
p2181
sg26
g27
sg28
(lp2182
VLarry Hughes
p2183
assbag1
(g2
g3
Ntp2184
Rp2185
(dp2186
g7
(dp2187
g9
V1998-99 E-X Century Authen-Kicks #11 Allen Iverson/165
p2188
sg11
I165
sg12
VE-X Century Authen-Kicks
p2189
sg14
(lp2190
Vhttp://www.beckett.com/basketball/1998-99/e-x-century-authen-kicks/11-allen-iverson165-3169156
p2191
asg17
g18
sg2177
I1
sg19
(lp2192
Vhttp://img.beckett.com/images/no-image.jpg
p2193
asg22
V#11
p2194
sg24
V1998-99
p2195
sg26
g27
sg28
(lp2196
VAllen Iverson
p2197
assbag1
(g2
g3
Ntp2198
Rp2199
(dp2200
g7
(dp2201
g9
V1998-99 Finest Centurions #C15 Allen Iverson
p2202
sg11
I500
sg12
VFinest Centurions
p2203
sg14
(lp2204
Vhttp://www.beckett.com/basketball/1998-99/finest-centurions/c15-allen-iverson-3170315
p2205
asg17
g18
sg19
(lp2206
Vhttp://img.beckett.com/images/no-image.jpg
p2207
asg22
V#C15
p2208
sg24
V1998-99
p2209
sg26
g27
sg28
(lp2210
VAllen Iverson
p2211
assbag1
(g2
g3
Ntp2212
Rp2213
(dp2214
g7
(dp2215
g9
V1998-99 Finest Court Control #CC16 Larry Hughes
p2216
sg11
I750
sg12
VFinest Court Control
p2217
sg14
(lp2218
Vhttp://www.beckett.com/basketball/1998-99/finest-court-control/cc16-larry-hughes-3170376
p2219
asg17
g18
sg19
(lp2220
Vhttp://img.beckett.com/images/items_stock/185226/3170349/3170376/front.jpg
p2221
asg22
V#CC16
p2222
sg24
V1998-99
p2223
sg26
g27
sg28
(lp2224
VLarry Hughes
p2225
assbag1
(g2
g3
Ntp2226
Rp2227
(dp2228
g7
(dp2229
g9
V1998-99 Flair Showcase Class of '98 #8 Larry Hughes
p2230
sg11
I500
sg12
VFlair Showcase Class of '98
p2231
sg14
(lp2232
Vhttp://www.beckett.com/basketball/1998-99/flair-showcase-class-of-98/8-larry-hughes-3167741
p2233
asg17
g18
sg19
(lp2234
Vhttp://img.beckett.com/images/items_stock/185226/3167727/3167741/front.jpg
p2235
asg22
V#8
p2236
sg24
V1998-99
p2237
sg26
g27
sg28
(lp2238
VLarry Hughes
p2239
assbag1
(g2
g3
Ntp2240
Rp2241
(dp2242
g7
(dp2243
g9
V1998-99 Flair Showcase takeit2.net #8 Allen Iverson
p2244
sg11
I1000
sg12
VFlair Showcase takeit2.net
p2245
sg14
(lp2246
Vhttp://www.beckett.com/basketball/1998-99/flair-showcase-takeit2net/8-allen-iverson-3167763
p2247
asg17
g18
sg19
(lp2248
Vhttp://img.beckett.com/images/no-image.jpg
p2249
asg22
V#8
p2250
sg24
V1998-99
p2251
sg26
g27
sg28
(lp2252
VAllen Iverson
p2253
assbag1
(g2
g3
Ntp2254
Rp2255
(dp2256
g7
(dp2257
g9
V1998-99 Fleer Playmakers Theatre #8 Allen Iverson
p2258
sg11
I100
sg12
VFleer Playmakers Theatre
p2259
sg14
(lp2260
Vhttp://www.beckett.com/basketball/1998-99/fleer-playmakers-theatre/8-allen-iverson-3168309
p2261
asg17
g18
sg19
(lp2262
Vhttp://img.beckett.com/images/no-image.jpg
p2263
asg22
V#8
p2264
sg24
V1998-99
p2265
sg26
g27
sg28
(lp2266
VAllen Iverson
p2267
assbag1
(g2
g3
Ntp2268
Rp2269
(dp2270
g7
(dp2271
g9
V1998-99 Hoops Bams #3 Allen Iverson
p2272
sg11
I250
sg12
VHoops Bams
p2273
sg14
(lp2274
Vhttp://www.beckett.com/basketball/1998-99/hoops-bams/3-allen-iverson-3166371
p2275
asg17
g18
sg19
(lp2276
Vhttp://img.beckett.com/images/no-image.jpg
p2277
asg22
V#3
p2278
sg24
V1998-99
p2279
sg26
g27
sg28
(lp2280
VAllen Iverson
p2281
assbag1
(g2
g3
Ntp2282
Rp2283
(dp2284
g7
(dp2285
g9
V1998-99 Hoops Prime Twine #2 Allen Iverson
p2286
sg11
I500
sg12
VHoops Prime Twine
p2287
sg14
(lp2288
Vhttp://www.beckett.com/basketball/1998-99/hoops-prime-twine/2-allen-iverson-3166422
p2289
asg17
g18
sg19
(lp2290
Vhttp://img.beckett.com/images/no-image.jpg
p2291
asg22
V#2
p2292
sg24
V1998-99
p2293
sg26
g27
sg28
(lp2294
VAllen Iverson
p2295
assbag1
(g2
g3
Ntp2296
Rp2297
(dp2298
g7
(dp2299
g9
V1998-99 Black Diamond Diamond Dominance Emerald #D20 Allen Iverson
p2300
sg11
I100
sg12
VBlack Diamond Diamond Dominance Emerald
p2301
sg14
(lp2302
Vhttp://www.beckett.com/basketball/1998-99/black-diamond-diamond-dominance-emerald/d20-allen-iverson-3170900
p2303
asg17
g18
sg19
(lp2304
Vhttp://img.beckett.com/images/no-image.jpg
p2305
asg22
V#D20
p2306
sg24
V1998-99
p2307
sg26
g27
sg28
(lp2308
VAllen Iverson
p2309
assbag1
(g2
g3
Ntp2310
Rp2311
(dp2312
g7
(dp2313
g9
V1998-99 Bowman's Best Mirror Image Atomic Refractors #MI3 Anfernee Hardaway/Allen Iverson
p2314
sg11
I25
sg12
VBowman's Best Mirror Image Atomic Refractors
p2315
sg14
(lp2316
Vhttp://www.beckett.com/basketball/1998-99/bowmans-best-mirror-image-atomic-refractors/mi3-anfernee-hardawayallen-iverson-3171546
p2317
asg17
g18
sg19
(lp2318
Vhttp://img.beckett.com/images/no-image.jpg
p2319
asg22
V#MI3
p2320
sg24
V1998-99
p2321
sg26
g27
sg28
(lp2322
VAnfernee Hardaway
p2323
aVAllen Iverson
p2324
assbag1
(g2
g3
Ntp2325
Rp2326
(dp2327
g7
(dp2328
g9
V1998-99 Bowman's Best Mirror Image Atomic Refractors #MI19 Dikembe Mutombo/Theo Ratliff
p2329
sg11
I25
sg12
VBowman's Best Mirror Image Atomic Refractors
p2330
sg14
(lp2331
Vhttp://www.beckett.com/basketball/1998-99/bowmans-best-mirror-image-atomic-refractors/mi19-dikembe-mutombotheo-ratliff-3171562
p2332
asg17
g18
sg19
(lp2333
Vhttp://img.beckett.com/images/no-image.jpg
p2334
asg22
V#MI19
p2335
sg24
V1998-99
p2336
sg26
g27
sg28
(lp2337
VDikembe Mutombo
p2338
aVTheo Ratliff
p2339
assbag1
(g2
g3
Ntp2340
Rp2341
(dp2342
g7
(dp2343
g9
V1998-99 Bowman's Best Mirror Image Refractors #MI3 Anfernee Hardaway/Allen Iverson
p2344
sg11
I100
sg12
VBowman's Best Mirror Image Refractors
p2345
sg14
(lp2346
Vhttp://www.beckett.com/basketball/1998-99/bowmans-best-mirror-image-refractors/mi3-anfernee-hardawayallen-iverson-3171574
p2347
asg17
g18
sg19
(lp2348
Vhttp://img.beckett.com/images/no-image.jpg
p2349
asg22
V#MI3
p2350
sg24
V1998-99
p2351
sg26
g27
sg28
(lp2352
VAnfernee Hardaway
p2353
aVAllen Iverson
p2354
assbag1
(g2
g3
Ntp2355
Rp2356
(dp2357
g7
(dp2358
g9
V1998-99 Bowman's Best Mirror Image Refractors #MI19 Dikembe Mutombo/Theo Ratliff
p2359
sg11
I100
sg12
VBowman's Best Mirror Image Refractors
p2360
sg14
(lp2361
Vhttp://www.beckett.com/basketball/1998-99/bowmans-best-mirror-image-refractors/mi19-dikembe-mutombotheo-ratliff-3171590
p2362
asg17
g18
sg19
(lp2363
Vhttp://img.beckett.com/images/no-image.jpg
p2364
asg22
V#MI19
p2365
sg24
V1998-99
p2366
sg26
g27
sg28
(lp2367
VDikembe Mutombo
p2368
aVTheo Ratliff
p2369
assbag1
(g2
g3
Ntp2370
Rp2371
(dp2372
g7
(dp2373
g9
V1998-99 E-X Century Essential Credentials Future #5 Allen Iverson/86
p2374
sg11
I86
sg12
VE-X Century Essential Credentials Future
p2375
sg14
(lp2376
Vhttp://www.beckett.com/basketball/1998-99/e-x-century-essential-credentials-future/5-allen-iverson86-3168956
p2377
asg17
g18
sg19
(lp2378
Vhttp://img.beckett.com/images/no-image.jpg
p2379
asg22
V#5
p2380
sg24
V1998-99
p2381
sg26
g27
sg28
(lp2382
VAllen Iverson
p2383
assbag1
(g2
g3
Ntp2384
Rp2385
(dp2386
g7
(dp2387
g9
V1998-99 E-X Century Essential Credentials Future #67 Nazr Mohammed/24
p2388
sg11
I24
sg12
VE-X Century Essential Credentials Future
p2389
sg14
(lp2390
Vhttp://www.beckett.com/basketball/1998-99/e-x-century-essential-credentials-future/67-nazr-mohammed24-3169018
p2391
asg17
g18
sg19
(lp2392
Vhttp://img.beckett.com/images/no-image.jpg
p2393
asg22
V#67
p2394
sg24
V1998-99
p2395
sg26
g27
sg28
(lp2396
VNazr Mohammed
p2397
assbag1
(g2
g3
Ntp2398
Rp2399
(dp2400
g7
(dp2401
g9
V1998-99 E-X Century Essential Credentials Future #90 Larry Hughes/1
p2402
sg11
I1
sg12
VE-X Century Essential Credentials Future
p2403
sg14
(lp2404
Vhttp://www.beckett.com/basketball/1998-99/e-x-century-essential-credentials-future/90-larry-hughes1-3169041
p2405
asg17
g18
sg19
(lp2406
Vhttp://img.beckett.com/images/no-image.jpg
p2407
asg22
V#90
p2408
sg24
V1998-99
p2409
sg26
g27
sg28
(lp2410
VLarry Hughes
p2411
assbag1
(g2
g3
Ntp2412
Rp2413
(dp2414
g7
(dp2415
g9
V1998-99 E-X Century Essential Credentials Now #5 Allen Iverson/5
p2416
sg11
I5
sg12
VE-X Century Essential Credentials Now
p2417
sg14
(lp2418
Vhttp://www.beckett.com/basketball/1998-99/e-x-century-essential-credentials-now/5-allen-iverson5-3169053
p2419
asg17
g18
sg19
(lp2420
Vhttp://img.beckett.com/images/no-image.jpg
p2421
asg22
V#5
p2422
sg24
V1998-99
p2423
sg26
g27
sg28
(lp2424
VAllen Iverson
p2425
assbag1
(g2
g3
Ntp2426
Rp2427
(dp2428
g7
(dp2429
g9
V1998-99 E-X Century Essential Credentials Now #67 Nazr Mohammed/67
p2430
sg11
I67
sg12
VE-X Century Essential Credentials Now
p2431
sg14
(lp2432
Vhttp://www.beckett.com/basketball/1998-99/e-x-century-essential-credentials-now/67-nazr-mohammed67-3169115
p2433
asg17
g18
sg19
(lp2434
Vhttp://img.beckett.com/images/no-image.jpg
p2435
asg22
V#67
p2436
sg24
V1998-99
p2437
sg26
g27
sg28
(lp2438
VNazr Mohammed
p2439
assbag1
(g2
g3
Ntp2440
Rp2441
(dp2442
g7
(dp2443
g9
V1998-99 E-X Century Essential Credentials Now #90 Larry Hughes/90
p2444
sg11
I90
sg12
VE-X Century Essential Credentials Now
p2445
sg14
(lp2446
Vhttp://www.beckett.com/basketball/1998-99/e-x-century-essential-credentials-now/90-larry-hughes90-3169138
p2447
asg17
g18
sg19
(lp2448
Vhttp://img.beckett.com/images/no-image.jpg
p2449
asg22
V#90
p2450
sg24
V1998-99
p2451
sg26
g27
sg28
(lp2452
VLarry Hughes
p2453
assbag1
(g2
g3
Ntp2454
Rp2455
(dp2456
g7
(dp2457
g9
V1998-99 Finest Centurions Refractors #C15 Allen Iverson
p2458
sg11
I75
sg12
VFinest Centurions Refractors
p2459
sg14
(lp2460
Vhttp://www.beckett.com/basketball/1998-99/finest-centurions-refractors/c15-allen-iverson-3170343
p2461
asg17
g18
sg19
(lp2462
Vhttp://img.beckett.com/images/no-image.jpg
p2463
asg22
V#C15
p2464
sg24
V1998-99
p2465
sg26
g27
sg28
(lp2466
VAllen Iverson
p2467
assbag1
(g2
g3
Ntp2468
Rp2469
(dp2470
g7
(dp2471
g9
V1998-99 Finest Court Control Refractors #CC16 Larry Hughes
p2472
sg11
I150
sg12
VFinest Court Control Refractors
p2473
sg14
(lp2474
Vhttp://www.beckett.com/basketball/1998-99/finest-court-control-refractors/cc16-larry-hughes-3170404
p2475
asg17
g18
sg19
(lp2476
Vhttp://img.beckett.com/images/no-image.jpg
p2477
asg22
V#CC16
p2478
sg24
V1998-99
p2479
sg26
g27
sg28
(lp2480
VLarry Hughes
p2481
assbag1
(g2
g3
Ntp2482
Rp2483
(dp2484
g7
(dp2485
g9
V1998-99 Hoops Slam Bams #3 Allen Iverson
p2486
sg11
I100
sg12
VHoops Slam Bams
p2487
sg14
(lp2488
Vhttp://www.beckett.com/basketball/1998-99/hoops-slam-bams/3-allen-iverson-3166389
p2489
asg17
g18
sg19
(lp2490
Vhttp://img.beckett.com/images/no-image.jpg
p2491
asg22
V#3
p2492
sg24
V1998-99
p2493
sg26
g27
sg28
(lp2494
VAllen Iverson
p2495
assbag1
(g2
g3
Ntp2496
Rp2497
(dp2498
g7
(dp2499
g9
V1998-99 SkyBox Molten Metal Fusion #38 Larry Hughes
p2500
sg11
I40
sg12
VSkyBox Molten Metal Fusion
p2501
sg14
(lp2502
Vhttp://www.beckett.com/basketball/1998-99/skybox-molten-metal-fusion/38-larry-hughes-3164735
p2503
asg17
g18
sg19
(lp2504
Vhttp://img.beckett.com/images/no-image.jpg
p2505
asg22
V#38
p2506
sg24
V1998-99
p2507
sg26
g27
sg28
(lp2508
VLarry Hughes
p2509
assbag1
(g2
g3
Ntp2510
Rp2511
(dp2512
g7
(dp2513
g9
V1998-99 SkyBox Molten Metal Fusion #39 Allen Iverson
p2514
sg11
I250
sg12
VSkyBox Molten Metal Fusion
p2515
sg14
(lp2516
Vhttp://www.beckett.com/basketball/1998-99/skybox-molten-metal-fusion/39-allen-iverson-3164736
p2517
asg17
g18
sg19
(lp2518
Vhttp://img.beckett.com/images/no-image.jpg
p2519
asg22
V#39
p2520
sg24
V1998-99
p2521
sg26
g27
sg28
(lp2522
VAllen Iverson
p2523
assbag1
(g2
g3
Ntp2524
Rp2525
(dp2526
g7
(dp2527
g9
V1998-99 SkyBox Molten Metal Fusion Titanium #38 Larry Hughes
p2528
sg11
I250
sg12
VSkyBox Molten Metal Fusion Titanium
p2529
sg14
(lp2530
Vhttp://www.beckett.com/basketball/1998-99/skybox-molten-metal-fusion-titanium/38-larry-hughes-3164797
p2531
asg17
g18
sg19
(lp2532
Vhttp://img.beckett.com/images/no-image.jpg
p2533
asg22
V#38
p2534
sg24
V1998-99
p2535
sg26
g27
sg28
(lp2536
VLarry Hughes
p2537
assbag1
(g2
g3
Ntp2538
Rp2539
(dp2540
g7
(dp2541
g9
V1998-99 SkyBox Molten Metal Fusion Titanium #39 Allen Iverson
p2542
sg11
I40
sg12
VSkyBox Molten Metal Fusion Titanium
p2543
sg14
(lp2544
Vhttp://www.beckett.com/basketball/1998-99/skybox-molten-metal-fusion-titanium/39-allen-iverson-3164798
p2545
asg17
g18
sg19
(lp2546
Vhttp://img.beckett.com/images/no-image.jpg
p2547
asg22
V#39
p2548
sg24
V1998-99
p2549
sg26
g27
sg28
(lp2550
VAllen Iverson
p2551
assbag1
(g2
g3
Ntp2552
Rp2553
(dp2554
g7
(dp2555
g9
V1998-99 SkyBox Premium Autographics Blue #58 Larry Hughes
p2556
sg11
I50
sg12
VSkyBox Premium Autographics Blue
p2557
sg14
(lp2558
Vhttp://www.beckett.com/basketball/1998-99/skybox-premium-autographics-blue/58-larry-hughes-3165613
p2559
asg17
g18
sg19
(lp2560
Vhttp://img.beckett.com/images/no-image.jpg
p2561
asg22
V#58
p2562
sg116
I1
sg24
V1998-99
p2563
sg26
g27
sg28
(lp2564
VLarry Hughes
p2565
assbag1
(g2
g3
Ntp2566
Rp2567
(dp2568
g7
(dp2569
g9
V1998-99 SkyBox Premium Autographics Blue #87 Nazr Mohammed
p2570
sg11
I50
sg12
VSkyBox Premium Autographics Blue
p2571
sg14
(lp2572
Vhttp://www.beckett.com/basketball/1998-99/skybox-premium-autographics-blue/87-nazr-mohammed-3165642
p2573
asg17
g18
sg19
(lp2574
Vhttp://img.beckett.com/images/no-image.jpg
p2575
asg22
V#87
p2576
sg116
I1
sg24
V1998-99
p2577
sg26
g27
sg28
(lp2578
VNazr Mohammed
p2579
assbag1
(g2
g3
Ntp2580
Rp2581
(dp2582
g7
(dp2583
g9
V1998-99 SkyBox Premium Autographics Blue #100 Theo Ratliff
p2584
sg11
I50
sg12
VSkyBox Premium Autographics Blue
p2585
sg14
(lp2586
Vhttp://www.beckett.com/basketball/1998-99/skybox-premium-autographics-blue/100-theo-ratliff-3165655
p2587
asg17
g18
sg19
(lp2588
Vhttp://img.beckett.com/images/no-image.jpg
p2589
asg22
V#100
p2590
sg116
I1
sg24
V1998-99
p2591
sg26
g27
sg28
(lp2592
VTheo Ratliff
p2593
assbag1
(g2
g3
Ntp2594
Rp2595
(dp2596
g7
(dp2597
g9
V1998-99 UD Choice StarQuest Gold #SQ20 Allen Iverson
p2598
sg11
I100
sg12
VUD Choice StarQuest Gold
p2599
sg14
(lp2600
Vhttp://www.beckett.com/basketball/1998-99/ud-choice-starquest-gold/sq20-allen-iverson-3159481
p2601
asg17
g18
sg19
(lp2602
Vhttp://img.beckett.com/images/no-image.jpg
p2603
asg22
V#SQ20
p2604
sg24
V1998-99
p2605
sg26
g27
sg28
(lp2606
VAllen Iverson
p2607
assbag1
(g2
g3
Ntp2608
Rp2609
(dp2610
g7
(dp2611
g9
V1998-99 Upper Deck AeroDynamics Bronze #A27 Allen Iverson
p2612
sg11
I2000
sg12
VUpper Deck AeroDynamics Bronze
p2613
sg14
(lp2614
Vhttp://www.beckett.com/basketball/1998-99/upper-deck-aerodynamics-bronze/a27-allen-iverson-3155746
p2615
asg17
g18
sg19
(lp2616
Vhttp://img.beckett.com/images/items_stock/185226/3155712/3155746/front.jpg
p2617
asg22
V#A27
p2618
sg24
V1998-99
p2619
sg26
g27
sg28
(lp2620
VAllen Iverson
p2621
assbag1
(g2
g3
Ntp2622
Rp2623
(dp2624
g7
(dp2625
g9
V1998-99 Upper Deck AeroDynamics Silver #A27 Allen Iverson
p2626
sg11
I100
sg12
VUpper Deck AeroDynamics Silver
p2627
sg14
(lp2628
Vhttp://www.beckett.com/basketball/1998-99/upper-deck-aerodynamics-silver/a27-allen-iverson-3155822
p2629
asg17
g18
sg19
(lp2630
Vhttp://img.beckett.com/images/items_stock/185226/3155788/3155822/front.jpg
p2631
asg22
V#A27
p2632
sg24
V1998-99
p2633
sg26
g27
sg28
(lp2634
VAllen Iverson
p2635
assbag1
(g2
g3
Ntp2636
Rp2637
(dp2638
g7
(dp2639
g9
V1998-99 Upper Deck AeroDynamics Gold #A27 Allen Iverson
p2640
sg11
I25
sg12
VUpper Deck AeroDynamics Gold
p2641
sg14
(lp2642
Vhttp://www.beckett.com/basketball/1998-99/upper-deck-aerodynamics-gold/a27-allen-iverson-3155784
p2643
asg17
g18
sg19
(lp2644
Vhttp://img.beckett.com/images/no-image.jpg
p2645
asg22
V#A27
p2646
sg24
V1998-99
p2647
sg26
g27
sg28
(lp2648
VAllen Iverson
p2649
assbag1
(g2
g3
Ntp2650
Rp2651
(dp2652
g7
(dp2653
g9
V1998-99 Upper Deck Forces Bronze #F5 Allen Iverson
p2654
sg11
I1000
sg12
VUpper Deck Forces Bronze
p2655
sg14
(lp2656
Vhttp://www.beckett.com/basketball/1998-99/upper-deck-forces-bronze/f5-allen-iverson-3155882
p2657
asg17
g18
sg19
(lp2658
Vhttp://img.beckett.com/images/items_stock/185226/3155870/3155882/front.jpg
p2659
asg22
V#F5
p2660
sg24
V1998-99
p2661
sg26
g27
sg28
(lp2662
VAllen Iverson
p2663
assbag1
(g2
g3
Ntp2664
Rp2665
(dp2666
g7
(dp2667
g9
V1998-99 Upper Deck Forces Silver #F5 Allen Iverson
p2668
sg11
I50
sg12
VUpper Deck Forces Silver
p2669
sg14
(lp2670
Vhttp://www.beckett.com/basketball/1998-99/upper-deck-forces-silver/f5-allen-iverson-3155958
p2671
asg17
g18
sg19
(lp2672
Vhttp://img.beckett.com/images/no-image.jpg
p2673
asg22
V#F5
p2674
sg24
V1998-99
p2675
sg26
g27
sg28
(lp2676
VAllen Iverson
p2677
assbag1
(g2
g3
Ntp2678
Rp2679
(dp2680
g7
(dp2681
g9
V1998-99 Upper Deck Forces Gold #F5 Allen Iverson
p2682
sg11
I25
sg12
VUpper Deck Forces Gold
p2683
sg14
(lp2684
Vhttp://www.beckett.com/basketball/1998-99/upper-deck-forces-gold/f5-allen-iverson-3155920
p2685
asg17
g18
sg19
(lp2686
Vhttp://img.beckett.com/images/no-image.jpg
p2687
asg22
V#F5
p2688
sg24
V1998-99
p2689
sg26
g27
sg28
(lp2690
VAllen Iverson
p2691
assbag1
(g2
g3
Ntp2692
Rp2693
(dp2694
g7
(dp2695
g9
V1998-99 Upper Deck Super Powers Bronze #S20 Allen Iverson
p2696
sg11
I1000
sg12
VUpper Deck Super Powers Bronze
p2697
sg14
(lp2698
Vhttp://www.beckett.com/basketball/1998-99/upper-deck-super-powers-bronze/s20-allen-iverson-3154827
p2699
asg17
g18
sg19
(lp2700
Vhttp://img.beckett.com/images/items_stock/185226/3154800/3154827/front.jpg
p2701
asg22
V#S20
p2702
sg24
V1998-99
p2703
sg26
g27
sg28
(lp2704
VAllen Iverson
p2705
assbag1
(g2
g3
Ntp2706
Rp2707
(dp2708
g7
(dp2709
g9
V1998-99 Upper Deck Super Powers Silver #S20 Allen Iverson
p2710
sg11
I100
sg12
VUpper Deck Super Powers Silver
p2711
sg14
(lp2712
Vhttp://www.beckett.com/basketball/1998-99/upper-deck-super-powers-silver/s20-allen-iverson-3154903
p2713
asg17
g18
sg19
(lp2714
Vhttp://img.beckett.com/images/no-image.jpg
p2715
asg22
V#S20
p2716
sg24
V1998-99
p2717
sg26
g27
sg28
(lp2718
VAllen Iverson
p2719
assbag1
(g2
g3
Ntp2720
Rp2721
(dp2722
g7
(dp2723
g9
V1998-99 Upper Deck Super Powers Gold #S20 Allen Iverson
p2724
sg11
I50
sg12
VUpper Deck Super Powers Gold
p2725
sg14
(lp2726
Vhttp://www.beckett.com/basketball/1998-99/upper-deck-super-powers-gold/s20-allen-iverson-3154865
p2727
asg17
g18
sg19
(lp2728
Vhttp://img.beckett.com/images/no-image.jpg
p2729
asg22
V#S20
p2730
sg24
V1998-99
p2731
sg26
g27
sg28
(lp2732
VAllen Iverson
p2733
assbag1
(g2
g3
Ntp2734
Rp2735
(dp2736
g7
(dp2737
g9
V1998-99 Upper Deck Encore Driving Forces F/X #F14 Allen Iverson
p2738
sg11
I500
sg12
VUpper Deck Encore Driving Forces F/X
p2739
sg14
(lp2740
Vhttp://www.beckett.com/basketball/1998-99/upper-deck-encore-driving-forces-fx/f14-allen-iverson-3155299
p2741
asg17
g18
sg19
(lp2742
Vhttp://img.beckett.com/images/items_stock/185226/3155278/3155299/front.jpg
p2743
asg22
V#F14
p2744
sg24
V1998-99
p2745
sg26
g27
sg28
(lp2746
VAllen Iverson
p2747
assbag1
(g2
g3
Ntp2748
Rp2749
(dp2750
g7
(dp2751
g9
V1998-99 Upper Deck Encore Rookie Encore F/X #RE9 Larry Hughes
p2752
sg11
I1000
sg12
VUpper Deck Encore Rookie Encore F/X
p2753
sg14
(lp2754
Vhttp://www.beckett.com/basketball/1998-99/upper-deck-encore-rookie-encore-fx/re9-larry-hughes-3155448
p2755
asg17
g18
sg19
(lp2756
Vhttp://img.beckett.com/images/items_stock/185226/3155432/3155448/front.jpg
p2757
asg22
V#RE9
p2758
sg24
V1998-99
p2759
sg26
g27
sg28
(lp2760
VLarry Hughes
p2761
assba.