(lp0
Naccopy_reg
_reconstructor
p1
(ctutorial.items
BeckettItem
p2
c__builtin__
object
p3
Ntp4
Rp5
(dp6
S'_values'
p7
(dp8
S'originalItemDescription'
p9
V1998 Upper Deck Hardcourt Home Court Advantage Plus #78 Tracy McGrady RE
p10
sS'serialNumber'
p11
I500
sS'setName'
p12
VUpper Deck Hardcourt Home Court Advantage Plus
p13
sS'beckettLink'
p14
(lp15
Vhttp://www.beckett.com/basketball/1998/upper-deck-hardcourt-home-court-advantage-plus/78-tracy-mcgrady-re-3150490
p16
asS'team'
p17
S'Toronto Raptors'
p18
sS'imageLink'
p19
(lp20
Vhttp://img.beckett.com/images/no-image.jpg
p21
asS'cardNumber'
p22
V#78
p23
sS'year'
p24
V1998
p25
sS'subsetName'
p26
VRE
p27
sS'sport'
p28
S'Basketball'
p29
sS'playerNames'
p30
(lp31
VTracy McGrady
p32
assbag1
(g2
g3
Ntp33
Rp34
(dp35
g7
(dp36
g9
V1998-99 SP Authentic #95 Vince Carter RC
p37
sg11
I3500
sg12
VSP Authentic
p38
sg14
(lp39
Vhttp://www.beckett.com/basketball/1998-99/sp-authentic/95-vince-carter-rc-3163017
p40
asg17
g18
sS'rookieCard'
p41
I1
sg19
(lp42
Vhttp://img.beckett.com/images/no-image.jpg
p43
asg22
V#95
p44
sg24
V1998-99
p45
sg28
g29
sg30
(lp46
VVince Carter
p47
assbag1
(g2
g3
Ntp48
Rp49
(dp50
g7
(dp51
g9
V1998-99 SPx Finite #34 Tracy McGrady
p52
sg11
I10000
sg12
VSPx Finite
p53
sg14
(lp54
Vhttp://www.beckett.com/basketball/1998-99/spx-finite/34-tracy-mcgrady-3163310
p55
asg17
g18
sg19
(lp56
Vhttp://img.beckett.com/images/items_stock/185226/3163241/3163310/front.jpg
p57
asg22
V#34
p58
sg24
V1998-99
p59
sg28
g29
sg30
(lp60
VTracy McGrady
p61
assbag1
(g2
g3
Ntp62
Rp63
(dp64
g7
(dp65
g9
V1998-99 SPx Finite #165 Tracy McGrady SPx
p66
sg11
I4050
sg12
VSPx Finite
p67
sg14
(lp68
Vhttp://www.beckett.com/basketball/1998-99/spx-finite/165-tracy-mcgrady-spx-3163441
p69
asg17
g18
sg19
(lp70
Vhttp://img.beckett.com/images/items_stock/185226/3163241/3163441/front.jpg
p71
asg22
V#165
p72
sg24
V1998-99
p73
sg26
VSPx
p74
sg28
g29
sg30
(lp75
VTracy McGrady
p76
assbag1
(g2
g3
Ntp77
Rp78
(dp79
g7
(dp80
g9
V1998-99 SPx Finite #189 Tracy McGrady TF
p81
sg11
I3390
sg12
VSPx Finite
p82
sg14
(lp83
Vhttp://www.beckett.com/basketball/1998-99/spx-finite/189-tracy-mcgrady-tf-3163465
p84
asg17
g18
sg19
(lp85
Vhttp://img.beckett.com/images/items_stock/185226/3163241/3163465/front.jpg
p86
asg22
V#189
p87
sg24
V1998-99
p88
sg26
VTF
p89
sg28
g29
sg30
(lp90
VTracy McGrady
p91
assbag1
(g2
g3
Ntp92
Rp93
(dp94
g7
(dp95
g9
V1998-99 SPx Finite #215 Vince Carter RC
p96
sg11
I2500
sg12
VSPx Finite
p97
sg14
(lp98
Vhttp://www.beckett.com/basketball/1998-99/spx-finite/215-vince-carter-rc-3163491
p99
asg17
g18
sg41
I1
sg19
(lp100
Vhttp://img.beckett.com/images/items_stock/185226/3163241/3163491/front.jpg
p101
asg22
V#215
p102
sg24
V1998-99
p103
sg28
g29
sg30
(lp104
VVince Carter
p105
assbag1
(g2
g3
Ntp106
Rp107
(dp108
g7
(dp109
g9
V1998-99 Black Diamond Double Diamond #81 John Wallace
p110
sg11
I3000
sg12
VBlack Diamond Double Diamond
p111
sg14
(lp112
Vhttp://www.beckett.com/basketball/1998-99/black-diamond-double-diamond/81-john-wallace-3171988
p113
asg17
g18
sg19
(lp114
Vhttp://img.beckett.com/images/items_stock/185226/3171898/3171988/front.jpg
p115
asg22
V#81
p116
sg24
V1998-99
p117
sg28
g29
sg30
(lp118
VJohn Wallace
p119
assbag1
(g2
g3
Ntp120
Rp121
(dp122
g7
(dp123
g9
V1998-99 Black Diamond Double Diamond #82 Tracy McGrady
p124
sg11
I3000
sg12
VBlack Diamond Double Diamond
p125
sg14
(lp126
Vhttp://www.beckett.com/basketball/1998-99/black-diamond-double-diamond/82-tracy-mcgrady-3171989
p127
asg17
g18
sg19
(lp128
Vhttp://img.beckett.com/images/items_stock/185226/3171898/3171989/front.jpg
p129
asg22
V#82
p130
sg24
V1998-99
p131
sg28
g29
sg30
(lp132
VTracy McGrady
p133
assbag1
(g2
g3
Ntp134
Rp135
(dp136
g7
(dp137
g9
V1998-99 Black Diamond Double Diamond #120 Vince Carter
p138
sg11
I2500
sg12
VBlack Diamond Double Diamond
p139
sg14
(lp140
Vhttp://www.beckett.com/basketball/1998-99/black-diamond-double-diamond/120-vince-carter-3172027
p141
asg17
g18
sg19
(lp142
Vhttp://img.beckett.com/images/items_stock/185226/3171898/3172027/front.jpg
p143
asg22
V#120
p144
sg24
V1998-99
p145
sg28
g29
sg30
(lp146
VVince Carter
p147
assbag1
(g2
g3
Ntp148
Rp149
(dp150
g7
(dp151
g9
V1998-99 Black Diamond Triple Diamond #81 John Wallace
p152
sg11
I1500
sg12
VBlack Diamond Triple Diamond
p153
sg14
(lp154
Vhttp://www.beckett.com/basketball/1998-99/black-diamond-triple-diamond/81-john-wallace-3172118
p155
asg17
g18
sg19
(lp156
Vhttp://img.beckett.com/images/no-image.jpg
p157
asg22
V#81
p158
sg24
V1998-99
p159
sg28
g29
sg30
(lp160
VJohn Wallace
p161
assbag1
(g2
g3
Ntp162
Rp163
(dp164
g7
(dp165
g9
V1998-99 Black Diamond Triple Diamond #82 Tracy McGrady
p166
sg11
I1500
sg12
VBlack Diamond Triple Diamond
p167
sg14
(lp168
Vhttp://www.beckett.com/basketball/1998-99/black-diamond-triple-diamond/82-tracy-mcgrady-3172119
p169
asg17
g18
sg19
(lp170
Vhttp://img.beckett.com/images/items_stock/185226/3172028/3172119/front.jpg
p171
asg22
V#82
p172
sg24
V1998-99
p173
sg28
g29
sg30
(lp174
VTracy McGrady
p175
assbag1
(g2
g3
Ntp176
Rp177
(dp178
g7
(dp179
g9
V1998-99 Black Diamond Triple Diamond #120 Vince Carter
p180
sg11
I1000
sg12
VBlack Diamond Triple Diamond
p181
sg14
(lp182
Vhttp://www.beckett.com/basketball/1998-99/black-diamond-triple-diamond/120-vince-carter-3172157
p183
asg17
g18
sg19
(lp184
Vhttp://img.beckett.com/images/no-image.jpg
p185
asg22
V#120
p186
sg24
V1998-99
p187
sg28
g29
sg30
(lp188
VVince Carter
p189
assbag1
(g2
g3
Ntp190
Rp191
(dp192
g7
(dp193
g9
V1998-99 Black Diamond Quadruple Diamond #81 John Wallace
p194
sg11
I150
sg12
VBlack Diamond Quadruple Diamond
p195
sg14
(lp196
Vhttp://www.beckett.com/basketball/1998-99/black-diamond-quadruple-diamond/81-john-wallace-3170789
p197
asg17
g18
sg19
(lp198
Vhttp://img.beckett.com/images/no-image.jpg
p199
asg22
V#81
p200
sg24
V1998-99
p201
sg28
g29
sg30
(lp202
VJohn Wallace
p203
assbag1
(g2
g3
Ntp204
Rp205
(dp206
g7
(dp207
g9
V1998-99 Black Diamond Quadruple Diamond #82 Tracy McGrady
p208
sg11
I150
sg12
VBlack Diamond Quadruple Diamond
p209
sg14
(lp210
Vhttp://www.beckett.com/basketball/1998-99/black-diamond-quadruple-diamond/82-tracy-mcgrady-3170790
p211
asg17
g18
sg19
(lp212
Vhttp://img.beckett.com/images/no-image.jpg
p213
asg22
V#82
p214
sg24
V1998-99
p215
sg28
g29
sg30
(lp216
VTracy McGrady
p217
assbag1
(g2
g3
Ntp218
Rp219
(dp220
g7
(dp221
g9
V1998-99 Black Diamond Quadruple Diamond #120 Vince Carter
p222
sg11
I50
sg12
VBlack Diamond Quadruple Diamond
p223
sg14
(lp224
Vhttp://www.beckett.com/basketball/1998-99/black-diamond-quadruple-diamond/120-vince-carter-3170828
p225
asg17
g18
sg19
(lp226
Vhttp://img.beckett.com/images/no-image.jpg
p227
asg22
V#120
p228
sg24
V1998-99
p229
sg28
g29
sg30
(lp230
VVince Carter
p231
assbag1
(g2
g3
Ntp232
Rp233
(dp234
g7
(dp235
g9
V1998-99 Bowman's Best Refractors #79 John Wallace
p236
sg11
I400
sg12
VBowman's Best Refractors
p237
sg14
(lp238
Vhttp://www.beckett.com/basketball/1998-99/bowmans-best-refractors/79-john-wallace-3171238
p239
asg17
g18
sg19
(lp240
Vhttp://img.beckett.com/images/no-image.jpg
p241
asg22
V#79
p242
sg24
V1998-99
p243
sg28
g29
sg30
(lp244
VJohn Wallace
p245
assbag1
(g2
g3
Ntp246
Rp247
(dp248
g7
(dp249
g9
V1998-99 Bowman's Best Refractors #91 Tracy McGrady
p250
sg11
I400
sg12
VBowman's Best Refractors
p251
sg14
(lp252
Vhttp://www.beckett.com/basketball/1998-99/bowmans-best-refractors/91-tracy-mcgrady-3171250
p253
asg17
g18
sg19
(lp254
Vhttp://img.beckett.com/images/no-image.jpg
p255
asg22
V#91
p256
sg24
V1998-99
p257
sg28
g29
sg30
(lp258
VTracy McGrady
p259
assbag1
(g2
g3
Ntp260
Rp261
(dp262
g7
(dp263
g9
V1998-99 Bowman's Best Refractors #105 Vince Carter
p264
sg11
I400
sg12
VBowman's Best Refractors
p265
sg14
(lp266
Vhttp://www.beckett.com/basketball/1998-99/bowmans-best-refractors/105-vince-carter-3171264
p267
asg17
g18
sg19
(lp268
Vhttp://img.beckett.com/images/no-image.jpg
p269
asg22
V#105
p270
sg24
V1998-99
p271
sg28
g29
sg30
(lp272
VVince Carter
p273
assbag1
(g2
g3
Ntp274
Rp275
(dp276
g7
(dp277
g9
V1998-99 Bowman's Best Atomic Refractors #79 John Wallace
p278
sg11
I100
sg12
VBowman's Best Atomic Refractors
p279
sg14
(lp280
Vhttp://www.beckett.com/basketball/1998-99/bowmans-best-atomic-refractors/79-john-wallace-3171373
p281
asg17
g18
sg19
(lp282
Vhttp://img.beckett.com/images/no-image.jpg
p283
asg22
V#79
p284
sg24
V1998-99
p285
sg28
g29
sg30
(lp286
VJohn Wallace
p287
assbag1
(g2
g3
Ntp288
Rp289
(dp290
g7
(dp291
g9
V1998-99 Bowman's Best Atomic Refractors #91 Tracy McGrady
p292
sg11
I100
sg12
VBowman's Best Atomic Refractors
p293
sg14
(lp294
Vhttp://www.beckett.com/basketball/1998-99/bowmans-best-atomic-refractors/91-tracy-mcgrady-3171385
p295
asg17
g18
sg19
(lp296
Vhttp://img.beckett.com/images/no-image.jpg
p297
asg22
V#91
p298
sg24
V1998-99
p299
sg28
g29
sg30
(lp300
VTracy McGrady
p301
assbag1
(g2
g3
Ntp302
Rp303
(dp304
g7
(dp305
g9
V1998-99 Bowman's Best Atomic Refractors #105 Vince Carter
p306
sg11
I100
sg12
VBowman's Best Atomic Refractors
p307
sg14
(lp308
Vhttp://www.beckett.com/basketball/1998-99/bowmans-best-atomic-refractors/105-vince-carter-3171399
p309
asg17
g18
sg19
(lp310
Vhttp://img.beckett.com/images/no-image.jpg
p311
asg22
V#105
p312
sg24
V1998-99
p313
sg28
g29
sg30
(lp314
VVince Carter
p315
assbag1
(g2
g3
Ntp316
Rp317
(dp318
g7
(dp319
g9
V1998-99 Flair Showcase Row 1 #25 Vince Carter
p320
sg11
I1500
sg12
VFlair Showcase Row 1
p321
sg14
(lp322
Vhttp://www.beckett.com/basketball/1998-99/flair-showcase-row-1/25-vince-carter-3167648
p323
asg17
g18
sg19
(lp324
Vhttp://img.beckett.com/images/items_stock/185226/3167600/3167648/front.jpg
p325
asg22
V#25
p326
sg24
V1998-99
p327
sg28
g29
sg30
(lp328
VVince Carter
p329
assbag1
(g2
g3
Ntp330
Rp331
(dp332
g7
(dp333
g9
V1998-99 Flair Showcase Row 1 #56 Tracy McGrady
p334
sg11
I3000
sg12
VFlair Showcase Row 1
p335
sg14
(lp336
Vhttp://www.beckett.com/basketball/1998-99/flair-showcase-row-1/56-tracy-mcgrady-3167679
p337
asg17
g18
sg19
(lp338
Vhttp://img.beckett.com/images/items_stock/185226/3167600/3167679/front.jpg
p339
asg22
V#56
p340
sg24
V1998-99
p341
sg28
g29
sg30
(lp342
VTracy McGrady
p343
assbag1
(g2
g3
Ntp344
Rp345
(dp346
g7
(dp347
g9
V1998-99 Flair Showcase Legacy Collection Row 3 #25 Vince Carter
p348
sg11
I99
sg12
VFlair Showcase Legacy Collection Row 3
p349
sg14
(lp350
Vhttp://www.beckett.com/basketball/1998-99/flair-showcase-legacy-collection-row-3/25-vince-carter-3172815
p351
asg17
g18
sg19
(lp352
Vhttp://img.beckett.com/images/no-image.jpg
p353
asg22
V#25
p354
sg24
V1998-99
p355
sg28
g29
sg30
(lp356
VVince Carter
p357
assbag1
(g2
g3
Ntp358
Rp359
(dp360
g7
(dp361
g9
V1998-99 Flair Showcase Legacy Collection Row 3 #56 Tracy McGrady
p362
sg11
I99
sg12
VFlair Showcase Legacy Collection Row 3
p363
sg14
(lp364
Vhttp://www.beckett.com/basketball/1998-99/flair-showcase-legacy-collection-row-3/56-tracy-mcgrady-3172846
p365
asg17
g18
sg19
(lp366
Vhttp://img.beckett.com/images/no-image.jpg
p367
asg22
V#56
p368
sg24
V1998-99
p369
sg28
g29
sg30
(lp370
VTracy McGrady
p371
assbag1
(g2
g3
Ntp372
Rp373
(dp374
g7
(dp375
g9
V1998-99 Fleer Classic '61 #56 Tracy McGrady
p376
sg11
I61
sg12
VFleer Classic '61
p377
sg14
(lp378
Vhttp://www.beckett.com/basketball/1998-99/fleer-classic-61/56-tracy-mcgrady-3168150
p379
asg17
g18
sg19
(lp380
Vhttp://img.beckett.com/images/no-image.jpg
p381
asg22
V#56
p382
sg24
V1998-99
p383
sg28
g29
sg30
(lp384
VTracy McGrady
p385
assbag1
(g2
g3
Ntp386
Rp387
(dp388
g7
(dp389
g9
V1998-99 Fleer Classic '61 #90 John Wallace
p390
sg11
I61
sg12
VFleer Classic '61
p391
sg14
(lp392
Vhttp://www.beckett.com/basketball/1998-99/fleer-classic-61/90-john-wallace-3168184
p393
asg17
g18
sg19
(lp394
Vhttp://img.beckett.com/images/no-image.jpg
p395
asg22
V#90
p396
sg24
V1998-99
p397
sg28
g29
sg30
(lp398
VJohn Wallace
p399
assbag1
(g2
g3
Ntp400
Rp401
(dp402
g7
(dp403
g9
V1998-99 Fleer Classic '61 #126 Doug Christie
p404
sg11
I61
sg12
VFleer Classic '61
p405
sg14
(lp406
Vhttp://www.beckett.com/basketball/1998-99/fleer-classic-61/126-doug-christie-3168220
p407
asg17
g18
sg19
(lp408
Vhttp://img.beckett.com/images/no-image.jpg
p409
asg22
V#126
p410
sg24
V1998-99
p411
sg28
g29
sg30
(lp412
VDoug Christie
p413
assbag1
(g2
g3
Ntp414
Rp415
(dp416
g7
(dp417
g9
V1998-99 Fleer Classic '61 #147 Doug Christie PF
p418
sg11
I61
sg12
VFleer Classic '61
p419
sg14
(lp420
Vhttp://www.beckett.com/basketball/1998-99/fleer-classic-61/147-doug-christie-pf-3168241
p421
asg17
g18
sg19
(lp422
Vhttp://img.beckett.com/images/no-image.jpg
p423
asg22
V#147
p424
sg24
V1998-99
p425
sg26
VPF
p426
sg28
g29
sg30
(lp427
VDoug Christie
p428
assbag1
(g2
g3
Ntp429
Rp430
(dp431
g7
(dp432
g9
V1998-99 Fleer Brilliants 24-Karat Gold #56 Doug Christie
p433
sg11
I24
sg12
VFleer Brilliants 24-Karat Gold
p434
sg14
(lp435
Vhttp://www.beckett.com/basketball/1998-99/fleer-brilliants-24-karat-gold/56-doug-christie-3168557
p436
asg17
g18
sg19
(lp437
Vhttp://img.beckett.com/images/no-image.jpg
p438
asg22
V#56
p439
sg24
V1998-99
p440
sg28
g29
sg30
(lp441
VDoug Christie
p442
assbag1
(g2
g3
Ntp443
Rp444
(dp445
g7
(dp446
g9
V1998-99 Fleer Brilliants 24-Karat Gold #63 John Wallace
p447
sg11
I24
sg12
VFleer Brilliants 24-Karat Gold
p448
sg14
(lp449
Vhttp://www.beckett.com/basketball/1998-99/fleer-brilliants-24-karat-gold/63-john-wallace-3168564
p450
asg17
g18
sg19
(lp451
Vhttp://img.beckett.com/images/no-image.jpg
p452
asg22
V#63
p453
sg24
V1998-99
p454
sg28
g29
sg30
(lp455
VJohn Wallace
p456
assbag1
(g2
g3
Ntp457
Rp458
(dp459
g7
(dp460
g9
V1998-99 Fleer Brilliants 24-Karat Gold #105 Vince Carter
p461
sg11
I24
sg12
VFleer Brilliants 24-Karat Gold
p462
sg14
(lp463
Vhttp://www.beckett.com/basketball/1998-99/fleer-brilliants-24-karat-gold/105-vince-carter-3168606
p464
asg17
g18
sg19
(lp465
Vhttp://img.beckett.com/images/no-image.jpg
p466
asg22
V#105
p467
sg24
V1998-99
p468
sg28
g29
sg30
(lp469
VVince Carter
p470
assbag1
(g2
g3
Ntp471
Rp472
(dp473
g7
(dp474
g9
V1998-99 Fleer Brilliants Gold #56 Doug Christie
p475
sg11
I99
sg12
VFleer Brilliants Gold
p476
sg14
(lp477
Vhttp://www.beckett.com/basketball/1998-99/fleer-brilliants-gold/56-doug-christie-3168829
p478
asg17
g18
sg19
(lp479
Vhttp://img.beckett.com/images/items_stock/185226/3168762/3168829/front.jpg
p480
asg22
V#56
p481
sg24
V1998-99
p482
sg28
g29
sg30
(lp483
VDoug Christie
p484
assbag1
(g2
g3
Ntp485
Rp486
(dp487
g7
(dp488
g9
V1998-99 Fleer Brilliants Gold #63 John Wallace
p489
sg11
I99
sg12
VFleer Brilliants Gold
p490
sg14
(lp491
Vhttp://www.beckett.com/basketball/1998-99/fleer-brilliants-gold/63-john-wallace-3168836
p492
asg17
g18
sg19
(lp493
Vhttp://img.beckett.com/images/no-image.jpg
p494
asg22
V#63
p495
sg24
V1998-99
p496
sg28
g29
sg30
(lp497
VJohn Wallace
p498
assbag1
(g2
g3
Ntp499
Rp500
(dp501
g7
(dp502
g9
V1998-99 Fleer Brilliants Gold #105 Vince Carter
p503
sg11
I99
sg12
VFleer Brilliants Gold
p504
sg14
(lp505
Vhttp://www.beckett.com/basketball/1998-99/fleer-brilliants-gold/105-vince-carter-3168878
p506
asg17
g18
sg19
(lp507
Vhttp://img.beckett.com/images/no-image.jpg
p508
asg22
V#105
p509
sg24
V1998-99
p510
sg28
g29
sg30
(lp511
VVince Carter
p512
assbag1
(g2
g3
Ntp513
Rp514
(dp515
g7
(dp516
g9
V1998-99 Hoops Starting Five #76 Tracy McGrady
p517
sg11
I5
sg12
VHoops Starting Five
p518
sg14
(lp519
Vhttp://www.beckett.com/basketball/1998-99/hoops-starting-five/76-tracy-mcgrady-3166582
p520
asg17
g18
sg19
(lp521
Vhttp://img.beckett.com/images/no-image.jpg
p522
asg22
V#76
p523
sg24
V1998-99
p524
sg28
g29
sg30
(lp525
VTracy McGrady
p526
assbag1
(g2
g3
Ntp527
Rp528
(dp529
g7
(dp530
g9
V1998-99 Hoops Starting Five #122 John Wallace
p531
sg11
I5
sg12
VHoops Starting Five
p532
sg14
(lp533
Vhttp://www.beckett.com/basketball/1998-99/hoops-starting-five/122-john-wallace-3166628
p534
asg17
g18
sg19
(lp535
Vhttp://img.beckett.com/images/no-image.jpg
p536
asg22
V#122
p537
sg24
V1998-99
p538
sg28
g29
sg30
(lp539
VJohn Wallace
p540
assbag1
(g2
g3
Ntp541
Rp542
(dp543
g7
(dp544
g9
V1998-99 Hoops Starting Five #141 Doug Christie
p545
sg11
I5
sg12
VHoops Starting Five
p546
sg14
(lp547
Vhttp://www.beckett.com/basketball/1998-99/hoops-starting-five/141-doug-christie-3166647
p548
asg17
g18
sg19
(lp549
Vhttp://img.beckett.com/images/no-image.jpg
p550
asg22
V#141
p551
sg24
V1998-99
p552
sg28
g29
sg30
(lp553
VDoug Christie
p554
assbag1
(g2
g3
Ntp555
Rp556
(dp557
g7
(dp558
g9
V1998-99 Hoops Starting Five #155 Dee Brown
p559
sg11
I5
sg12
VHoops Starting Five
p560
sg14
(lp561
Vhttp://www.beckett.com/basketball/1998-99/hoops-starting-five/155-dee-brown-3166661
p562
asg17
g18
sg19
(lp563
Vhttp://img.beckett.com/images/no-image.jpg
p564
asg22
V#155
p565
sg24
V1998-99
p566
sg28
g29
sg30
(lp567
VDee Brown
p568
assbag1
(g2
g3
Ntp569
Rp570
(dp571
g7
(dp572
g9
V1998-99 Metal Universe Precious Metal Gems #51 Tracy McGrady
p573
sg11
I50
sg12
VMetal Universe Precious Metal Gems
p574
sg14
(lp575
Vhttp://www.beckett.com/basketball/1998-99/metal-universe-precious-metal-gems/51-tracy-mcgrady-3166994
p576
asg17
g18
sg19
(lp577
Vhttp://img.beckett.com/images/no-image.jpg
p578
asg22
V#51
p579
sg24
V1998-99
p580
sg28
g29
sg30
(lp581
VTracy McGrady
p582
assbag1
(g2
g3
Ntp583
Rp584
(dp585
g7
(dp586
g9
V1998-99 Metal Universe Precious Metal Gems #55 John Wallace
p587
sg11
I50
sg12
VMetal Universe Precious Metal Gems
p588
sg14
(lp589
Vhttp://www.beckett.com/basketball/1998-99/metal-universe-precious-metal-gems/55-john-wallace-3166998
p590
asg17
g18
sg19
(lp591
Vhttp://img.beckett.com/images/no-image.jpg
p592
asg22
V#55
p593
sg24
V1998-99
p594
sg28
g29
sg30
(lp595
VJohn Wallace
p596
assbag1
(g2
g3
Ntp597
Rp598
(dp599
g7
(dp600
g9
V1998-99 Metal Universe Gem Masters #51 Tracy McGrady
p601
sg11
I1
sg12
VMetal Universe Gem Masters
p602
sg14
(lp603
Vhttp://www.beckett.com/basketball/1998-99/metal-universe-gem-masters/51-tracy-mcgrady-3166863
p604
asg17
g18
sg19
(lp605
Vhttp://img.beckett.com/images/no-image.jpg
p606
asg22
V#51
p607
sg24
V1998-99
p608
sg28
g29
sg30
(lp609
VTracy McGrady
p610
assbag1
(g2
g3
Ntp611
Rp612
(dp613
g7
(dp614
g9
V1998-99 Metal Universe Gem Masters #55 John Wallace
p615
sg11
I1
sg12
VMetal Universe Gem Masters
p616
sg14
(lp617
Vhttp://www.beckett.com/basketball/1998-99/metal-universe-gem-masters/55-john-wallace-3166867
p618
asg17
g18
sg19
(lp619
Vhttp://img.beckett.com/images/no-image.jpg
p620
asg22
V#55
p621
sg24
V1998-99
p622
sg28
g29
sg30
(lp623
VJohn Wallace
p624
assbag1
(g2
g3
Ntp625
Rp626
(dp627
g7
(dp628
g9
V1998-99 SkyBox Premium Star Rubies #42 Tracy McGrady
p629
sg11
I50
sg12
VSkyBox Premium Star Rubies
p630
sg14
(lp631
Vhttp://www.beckett.com/basketball/1998-99/skybox-premium-star-rubies/42-tracy-mcgrady-3165147
p632
asg17
g18
sg19
(lp633
Vhttp://img.beckett.com/images/no-image.jpg
p634
asg22
V#42
p635
sg24
V1998-99
p636
sg28
g29
sg30
(lp637
VTracy McGrady
p638
assbag1
(g2
g3
Ntp639
Rp640
(dp641
g7
(dp642
g9
V1998-99 SkyBox Premium Star Rubies #45 John Wallace
p643
sg11
I50
sg12
VSkyBox Premium Star Rubies
p644
sg14
(lp645
Vhttp://www.beckett.com/basketball/1998-99/skybox-premium-star-rubies/45-john-wallace-3165150
p646
asg17
g18
sg19
(lp647
Vhttp://img.beckett.com/images/no-image.jpg
p648
asg22
V#45
p649
sg24
V1998-99
p650
sg28
g29
sg30
(lp651
VJohn Wallace
p652
assbag1
(g2
g3
Ntp653
Rp654
(dp655
g7
(dp656
g9
V1998-99 SkyBox Premium Star Rubies #142 Doug Christie
p657
sg11
I50
sg12
VSkyBox Premium Star Rubies
p658
sg14
(lp659
Vhttp://www.beckett.com/basketball/1998-99/skybox-premium-star-rubies/142-doug-christie-3165247
p660
asg17
g18
sg19
(lp661
Vhttp://img.beckett.com/images/no-image.jpg
p662
asg22
V#142
p663
sg24
V1998-99
p664
sg28
g29
sg30
(lp665
VDoug Christie
p666
assbag1
(g2
g3
Ntp667
Rp668
(dp669
g7
(dp670
g9
V1998-99 SkyBox Premium Star Rubies #234 Vince Carter
p671
sg11
I25
sg12
VSkyBox Premium Star Rubies
p672
sg14
(lp673
Vhttp://www.beckett.com/basketball/1998-99/skybox-premium-star-rubies/234-vince-carter-3165339
p674
asg17
g18
sg19
(lp675
Vhttp://img.beckett.com/images/no-image.jpg
p676
asg22
V#234
p677
sg24
V1998-99
p678
sg28
g29
sg30
(lp679
VVince Carter
p680
assbag1
(g2
g3
Ntp681
Rp682
(dp683
g7
(dp684
g9
V1998-99 SkyBox Thunder Rave #14 Doug Christie
p685
sg11
I150
sg12
VSkyBox Thunder Rave
p686
sg14
(lp687
Vhttp://www.beckett.com/basketball/1998-99/skybox-thunder-rave/14-doug-christie-3166052
p688
asg17
g18
sg19
(lp689
Vhttp://img.beckett.com/images/no-image.jpg
p690
asg22
V#14
p691
sg24
V1998-99
p692
sg28
g29
sg30
(lp693
VDoug Christie
p694
assbag1
(g2
g3
Ntp695
Rp696
(dp697
g7
(dp698
g9
V1998-99 SkyBox Thunder Rave #35 Tracy McGrady
p699
sg11
I150
sg12
VSkyBox Thunder Rave
p700
sg14
(lp701
Vhttp://www.beckett.com/basketball/1998-99/skybox-thunder-rave/35-tracy-mcgrady-3166073
p702
asg17
g18
sg19
(lp703
Vhttp://img.beckett.com/images/no-image.jpg
p704
asg22
V#35
p705
sg24
V1998-99
p706
sg28
g29
sg30
(lp707
VTracy McGrady
p708
assbag1
(g2
g3
Ntp709
Rp710
(dp711
g7
(dp712
g9
V1998-99 SkyBox Thunder Super Rave #14 Doug Christie
p713
sg11
I25
sg12
VSkyBox Thunder Super Rave
p714
sg14
(lp715
Vhttp://www.beckett.com/basketball/1998-99/skybox-thunder-super-rave/14-doug-christie-3162704
p716
asg17
g18
sg19
(lp717
Vhttp://img.beckett.com/images/no-image.jpg
p718
asg22
V#14
p719
sg24
V1998-99
p720
sg28
g29
sg30
(lp721
VDoug Christie
p722
assbag1
(g2
g3
Ntp723
Rp724
(dp725
g7
(dp726
g9
V1998-99 SkyBox Thunder Super Rave #35 Tracy McGrady
p727
sg11
I25
sg12
VSkyBox Thunder Super Rave
p728
sg14
(lp729
Vhttp://www.beckett.com/basketball/1998-99/skybox-thunder-super-rave/35-tracy-mcgrady-3162725
p730
asg17
g18
sg19
(lp731
Vhttp://img.beckett.com/images/no-image.jpg
p732
asg22
V#35
p733
sg24
V1998-99
p734
sg28
g29
sg30
(lp735
VTracy McGrady
p736
assbag1
(g2
g3
Ntp737
Rp738
(dp739
g7
(dp740
g9
V1998-99 SPx Finite Extreme #34 Tracy McGrady
p741
sg11
I1
sg12
VSPx Finite Extreme
p742
sg14
(lp743
Vhttp://www.beckett.com/basketball/1998-99/spx-finite-extreme/34-tracy-mcgrady-3163556
p744
asg17
g18
sg19
(lp745
Vhttp://img.beckett.com/images/no-image.jpg
p746
asg22
V#34
p747
sg24
V1998-99
p748
sg28
g29
sg30
(lp749
VTracy McGrady
p750
assbag1
(g2
g3
Ntp751
Rp752
(dp753
g7
(dp754
g9
V1998-99 SPx Finite Radiance #34 Tracy McGrady
p755
sg11
I5000
sg12
VSPx Finite Radiance
p756
sg14
(lp757
Vhttp://www.beckett.com/basketball/1998-99/spx-finite-radiance/34-tracy-mcgrady-3163684
p758
asg17
g18
sg19
(lp759
Vhttp://img.beckett.com/images/items_stock/185226/3163613/3163684/front.jpg
p760
asg22
V#34
p761
sg24
V1998-99
p762
sg28
g29
sg30
(lp763
VTracy McGrady
p764
assbag1
(g2
g3
Ntp765
Rp766
(dp767
g7
(dp768
g9
V1998-99 SPx Finite Radiance #165 Tracy McGrady SPx
p769
sg11
I2025
sg12
VSPx Finite Radiance
p770
sg14
(lp771
Vhttp://www.beckett.com/basketball/1998-99/spx-finite-radiance/165-tracy-mcgrady-spx-3163815
p772
asg17
g18
sg19
(lp773
Vhttp://img.beckett.com/images/items_stock/185226/3163613/3163815/front.jpg
p774
asg22
V#165
p775
sg24
V1998-99
p776
sg26
VSPx
p777
sg28
g29
sg30
(lp778
VTracy McGrady
p779
assbag1
(g2
g3
Ntp780
Rp781
(dp782
g7
(dp783
g9
V1998-99 SPx Finite Radiance #189 Tracy McGrady TF
p784
sg11
I1130
sg12
VSPx Finite Radiance
p785
sg14
(lp786
Vhttp://www.beckett.com/basketball/1998-99/spx-finite-radiance/189-tracy-mcgrady-tf-3163839
p787
asg17
g18
sg19
(lp788
Vhttp://img.beckett.com/images/items_stock/185226/3163613/3163839/front.jpg
p789
asg22
V#189
p790
sg24
V1998-99
p791
sg26
VTF
p792
sg28
g29
sg30
(lp793
VTracy McGrady
p794
assbag1
(g2
g3
Ntp795
Rp796
(dp797
g7
(dp798
g9
V1998-99 SPx Finite Radiance #215 Vince Carter
p799
sg11
I1500
sg12
VSPx Finite Radiance
p800
sg14
(lp801
Vhttp://www.beckett.com/basketball/1998-99/spx-finite-radiance/215-vince-carter-3163865
p802
asg17
g18
sg19
(lp803
Vhttp://img.beckett.com/images/no-image.jpg
p804
asg22
V#215
p805
sg24
V1998-99
p806
sg28
g29
sg30
(lp807
VVince Carter
p808
assbag1
(g2
g3
Ntp809
Rp810
(dp811
g7
(dp812
g9
V1998-99 SPx Finite Spectrum #34 Tracy McGrady
p813
sg11
I350
sg12
VSPx Finite Spectrum
p814
sg14
(lp815
Vhttp://www.beckett.com/basketball/1998-99/spx-finite-spectrum/34-tracy-mcgrady-3163962
p816
asg17
g18
sg19
(lp817
Vhttp://img.beckett.com/images/items_stock/185226/3163891/3163962/front.jpg
p818
asg22
V#34
p819
sg24
V1998-99
p820
sg28
g29
sg30
(lp821
VTracy McGrady
p822
assbag1
(g2
g3
Ntp823
Rp824
(dp825
g7
(dp826
g9
V1998-99 SPx Finite Spectrum #165 Tracy McGrady SPx
p827
sg11
I75
sg12
VSPx Finite Spectrum
p828
sg14
(lp829
Vhttp://www.beckett.com/basketball/1998-99/spx-finite-spectrum/165-tracy-mcgrady-spx-3164093
p830
asg17
g18
sg19
(lp831
Vhttp://img.beckett.com/images/no-image.jpg
p832
asg22
V#165
p833
sg24
V1998-99
p834
sg26
VSPx
p835
sg28
g29
sg30
(lp836
VTracy McGrady
p837
assbag1
(g2
g3
Ntp838
Rp839
(dp840
g7
(dp841
g9
V1998-99 SPx Finite Spectrum #189 Tracy McGrady TF
p842
sg11
I50
sg12
VSPx Finite Spectrum
p843
sg14
(lp844
Vhttp://www.beckett.com/basketball/1998-99/spx-finite-spectrum/189-tracy-mcgrady-tf-3164117
p845
asg17
g18
sg19
(lp846
Vhttp://img.beckett.com/images/no-image.jpg
p847
asg22
V#189
p848
sg24
V1998-99
p849
sg26
VTF
p850
sg28
g29
sg30
(lp851
VTracy McGrady
p852
assbag1
(g2
g3
Ntp853
Rp854
(dp855
g7
(dp856
g9
V1998-99 SPx Finite Spectrum #215 Vince Carter
p857
sg11
I25
sg12
VSPx Finite Spectrum
p858
sg14
(lp859
Vhttp://www.beckett.com/basketball/1998-99/spx-finite-spectrum/215-vince-carter-3164143
p860
asg17
g18
sg19
(lp861
Vhttp://img.beckett.com/images/no-image.jpg
p862
asg22
V#215
p863
sg24
V1998-99
p864
sg28
g29
sg30
(lp865
VVince Carter
p866
assbag1
(g2
g3
Ntp867
Rp868
(dp869
g7
(dp870
g9
V1998-99 Stadium Club First Day Issue #13 Chris Garner
p871
sg11
I200
sg12
VStadium Club First Day Issue
p872
sg14
(lp873
Vhttp://www.beckett.com/basketball/1998-99/stadium-club-first-day-issue/13-chris-garner-3164458
p874
asg17
g18
sg19
(lp875
Vhttp://img.beckett.com/images/no-image.jpg
p876
asg22
V#13
p877
sg24
V1998-99
p878
sg28
g29
sg30
(lp879
VChris Garner
p880
assbag1
(g2
g3
Ntp881
Rp882
(dp883
g7
(dp884
g9
V1998-99 Stadium Club First Day Issue #16 Doug Christie
p885
sg11
I200
sg12
VStadium Club First Day Issue
p886
sg14
(lp887
Vhttp://www.beckett.com/basketball/1998-99/stadium-club-first-day-issue/16-doug-christie-3164461
p888
asg17
g18
sg19
(lp889
Vhttp://img.beckett.com/images/no-image.jpg
p890
asg22
V#16
p891
sg24
V1998-99
p892
sg28
g29
sg30
(lp893
VDoug Christie
p894
assbag1
(g2
g3
Ntp895
Rp896
(dp897
g7
(dp898
g9
V1998-99 Stadium Club First Day Issue #45 Tracy McGrady
p899
sg11
I200
sg12
VStadium Club First Day Issue
p900
sg14
(lp901
Vhttp://www.beckett.com/basketball/1998-99/stadium-club-first-day-issue/45-tracy-mcgrady-3164490
p902
asg17
g18
sg19
(lp903
Vhttp://img.beckett.com/images/items_stock/185226/3164434/3164490/front.jpg
p904
asg22
V#45
p905
sg24
V1998-99
p906
sg28
g29
sg30
(lp907
VTracy McGrady
p908
assbag1
(g2
g3
Ntp909
Rp910
(dp911
g7
(dp912
g9
V1998-99 Stadium Club First Day Issue #105 Vince Carter
p913
sg11
I200
sg12
VStadium Club First Day Issue
p914
sg14
(lp915
Vhttp://www.beckett.com/basketball/1998-99/stadium-club-first-day-issue/105-vince-carter-3164550
p916
asg17
g18
sg19
(lp917
Vhttp://img.beckett.com/images/items_stock/185226/3164434/3164550/front.jpg
p918
asg22
V#105
p919
sg24
V1998-99
p920
sg28
g29
sg30
(lp921
VVince Carter
p922
assbag1
(g2
g3
Ntp923
Rp924
(dp925
g7
(dp926
g9
V1998-99 Stadium Club First Day Issue #121 Dee Brown
p927
sg11
I200
sg12
VStadium Club First Day Issue
p928
sg14
(lp929
Vhttp://www.beckett.com/basketball/1998-99/stadium-club-first-day-issue/121-dee-brown-3164566
p930
asg17
g18
sg19
(lp931
Vhttp://img.beckett.com/images/no-image.jpg
p932
asg22
V#121
p933
sg24
V1998-99
p934
sg28
g29
sg30
(lp935
VDee Brown
p936
assbag1
(g2
g3
Ntp937
Rp938
(dp939
g7
(dp940
g9
V1998-99 Stadium Club First Day Issue #175 John Wallace
p941
sg11
I200
sg12
VStadium Club First Day Issue
p942
sg14
(lp943
Vhttp://www.beckett.com/basketball/1998-99/stadium-club-first-day-issue/175-john-wallace-3164620
p944
asg17
g18
sg19
(lp945
Vhttp://img.beckett.com/images/no-image.jpg
p946
asg22
V#175
p947
sg24
V1998-99
p948
sg28
g29
sg30
(lp949
VJohn Wallace
p950
assbag1
(g2
g3
Ntp951
Rp952
(dp953
g7
(dp954
g9
V1998-99 Stadium Club First Day Issue #198 Vince Carter
p955
sg11
I200
sg12
VStadium Club First Day Issue
p956
sg14
(lp957
Vhttp://www.beckett.com/basketball/1998-99/stadium-club-first-day-issue/198-vince-carter-3164643
p958
asg17
g18
sg19
(lp959
Vhttp://img.beckett.com/images/no-image.jpg
p960
asg22
V#198
p961
sg24
V1998-99
p962
sg28
g29
sg30
(lp963
VVince Carter
p964
assbag1
(g2
g3
Ntp965
Rp966
(dp967
g7
(dp968
g9
V1998-99 Stadium Club One Of A Kind #13 Chris Garner
p969
sg11
I150
sg12
VStadium Club One Of A Kind
p970
sg14
(lp971
Vhttp://www.beckett.com/basketball/1998-99/stadium-club-one-of-a-kind/13-chris-garner-3160713
p972
asg17
g18
sg19
(lp973
Vhttp://img.beckett.com/images/items_stock/185226/3160688/3160713/front.jpg
p974
asg22
V#13
p975
sg24
V1998-99
p976
sg28
g29
sg30
(lp977
VChris Garner
p978
assbag1
(g2
g3
Ntp979
Rp980
(dp981
g7
(dp982
g9
V1998-99 Stadium Club One Of A Kind #16 Doug Christie
p983
sg11
I150
sg12
VStadium Club One Of A Kind
p984
sg14
(lp985
Vhttp://www.beckett.com/basketball/1998-99/stadium-club-one-of-a-kind/16-doug-christie-3160716
p986
asg17
g18
sg19
(lp987
Vhttp://img.beckett.com/images/items_stock/185226/3160688/3160716/front.jpg
p988
asg22
V#16
p989
sg24
V1998-99
p990
sg28
g29
sg30
(lp991
VDoug Christie
p992
assbag1
(g2
g3
Ntp993
Rp994
(dp995
g7
(dp996
g9
V1998-99 Stadium Club One Of A Kind #45 Tracy McGrady
p997
sg11
I150
sg12
VStadium Club One Of A Kind
p998
sg14
(lp999
Vhttp://www.beckett.com/basketball/1998-99/stadium-club-one-of-a-kind/45-tracy-mcgrady-3160745
p1000
asg17
g18
sg19
(lp1001
Vhttp://img.beckett.com/images/no-image.jpg
p1002
asg22
V#45
p1003
sg24
V1998-99
p1004
sg28
g29
sg30
(lp1005
VTracy McGrady
p1006
assbag1
(g2
g3
Ntp1007
Rp1008
(dp1009
g7
(dp1010
g9
V1998-99 Stadium Club One Of A Kind #105 Vince Carter
p1011
sg11
I150
sg12
VStadium Club One Of A Kind
p1012
sg14
(lp1013
Vhttp://www.beckett.com/basketball/1998-99/stadium-club-one-of-a-kind/105-vince-carter-3160805
p1014
asg17
g18
sg19
(lp1015
Vhttp://img.beckett.com/images/no-image.jpg
p1016
asg22
V#105
p1017
sg24
V1998-99
p1018
sg28
g29
sg30
(lp1019
VVince Carter
p1020
assbag1
(g2
g3
Ntp1021
Rp1022
(dp1023
g7
(dp1024
g9
V1998-99 Stadium Club One Of A Kind #121 Dee Brown
p1025
sg11
I150
sg12
VStadium Club One Of A Kind
p1026
sg14
(lp1027
Vhttp://www.beckett.com/basketball/1998-99/stadium-club-one-of-a-kind/121-dee-brown-3160821
p1028
asg17
g18
sg19
(lp1029
Vhttp://img.beckett.com/images/no-image.jpg
p1030
asg22
V#121
p1031
sg24
V1998-99
p1032
sg28
g29
sg30
(lp1033
VDee Brown
p1034
assbag1
(g2
g3
Ntp1035
Rp1036
(dp1037
g7
(dp1038
g9
V1998-99 Stadium Club One Of A Kind #175 John Wallace
p1039
sg11
I150
sg12
VStadium Club One Of A Kind
p1040
sg14
(lp1041
Vhttp://www.beckett.com/basketball/1998-99/stadium-club-one-of-a-kind/175-john-wallace-3160875
p1042
asg17
g18
sg19
(lp1043
Vhttp://img.beckett.com/images/no-image.jpg
p1044
asg22
V#175
p1045
sg24
V1998-99
p1046
sg28
g29
sg30
(lp1047
VJohn Wallace
p1048
assbag1
(g2
g3
Ntp1049
Rp1050
(dp1051
g7
(dp1052
g9
V1998-99 Stadium Club One Of A Kind #198 Vince Carter
p1053
sg11
I150
sg12
VStadium Club One Of A Kind
p1054
sg14
(lp1055
Vhttp://www.beckett.com/basketball/1998-99/stadium-club-one-of-a-kind/198-vince-carter-3160898
p1056
asg17
g18
sg19
(lp1057
Vhttp://img.beckett.com/images/no-image.jpg
p1058
asg22
V#198
p1059
sg24
V1998-99
p1060
sg28
g29
sg30
(lp1061
VVince Carter
p1062
assbag1
(g2
g3
Ntp1063
Rp1064
(dp1065
g7
(dp1066
g9
V1998-99 Stadium Club Printing Plates #13 Chris Garner Black
p1067
sg11
I1
sg12
VStadium Club Printing Plates
p1068
sg14
(lp1069
Vhttp://www.beckett.com/basketball/1998-99/stadium-club-printing-plates/13-chris-garner-black-3160998
p1070
asg17
g18
sg19
(lp1071
Vhttp://img.beckett.com/images/no-image.jpg
p1072
asg22
V#13
p1073
sg24
V1998-99
p1074
sg28
g29
sg30
(lp1075
VChris Garner
p1076
assbag1
(g2
g3
Ntp1077
Rp1078
(dp1079
g7
(dp1080
g9
V1998-99 Stadium Club Printing Plates #13A Chris Garner Cyan
p1081
sg11
I1
sg12
VStadium Club Printing Plates
p1082
sg14
(lp1083
Vhttp://www.beckett.com/basketball/1998-99/stadium-club-printing-plates/13a-chris-garner-cyan-3160999
p1084
asg17
g18
sg19
(lp1085
Vhttp://img.beckett.com/images/no-image.jpg
p1086
asg22
V#13A
p1087
sg24
V1998-99
p1088
sg28
g29
sg30
(lp1089
g1076
assbag1
(g2
g3
Ntp1090
Rp1091
(dp1092
g7
(dp1093
g9
V1998-99 Stadium Club Printing Plates #13B Chris Garner Magenta
p1094
sg11
I1
sg12
VStadium Club Printing Plates
p1095
sg14
(lp1096
Vhttp://www.beckett.com/basketball/1998-99/stadium-club-printing-plates/13b-chris-garner-magenta-3161000
p1097
asg17
g18
sg19
(lp1098
Vhttp://img.beckett.com/images/no-image.jpg
p1099
asg22
V#13B
p1100
sg24
V1998-99
p1101
sg28
g29
sg30
(lp1102
g1076
assbag1
(g2
g3
Ntp1103
Rp1104
(dp1105
g7
(dp1106
g9
V1998-99 Stadium Club Printing Plates #13C Chris Garner Yellow
p1107
sg11
I1
sg12
VStadium Club Printing Plates
p1108
sg14
(lp1109
Vhttp://www.beckett.com/basketball/1998-99/stadium-club-printing-plates/13c-chris-garner-yellow-3161001
p1110
asg17
g18
sg19
(lp1111
Vhttp://img.beckett.com/images/no-image.jpg
p1112
asg22
V#13C
p1113
sg24
V1998-99
p1114
sg28
g29
sg30
(lp1115
g1076
assbag1
(g2
g3
Ntp1116
Rp1117
(dp1118
g7
(dp1119
g9
V1998-99 Stadium Club Printing Plates #16 Doug Christie Black
p1120
sg11
I1
sg12
VStadium Club Printing Plates
p1121
sg14
(lp1122
Vhttp://www.beckett.com/basketball/1998-99/stadium-club-printing-plates/16-doug-christie-black-3161010
p1123
asg17
g18
sg19
(lp1124
Vhttp://img.beckett.com/images/no-image.jpg
p1125
asg22
V#16
p1126
sg24
V1998-99
p1127
sg28
g29
sg30
(lp1128
VDoug Christie
p1129
assbag1
(g2
g3
Ntp1130
Rp1131
(dp1132
g7
(dp1133
g9
V1998-99 Stadium Club Printing Plates #16A Doug Christie Cyan
p1134
sg11
I1
sg12
VStadium Club Printing Plates
p1135
sg14
(lp1136
Vhttp://www.beckett.com/basketball/1998-99/stadium-club-printing-plates/16a-doug-christie-cyan-3161011
p1137
asg17
g18
sg19
(lp1138
Vhttp://img.beckett.com/images/no-image.jpg
p1139
asg22
V#16A
p1140
sg24
V1998-99
p1141
sg28
g29
sg30
(lp1142
g1129
assbag1
(g2
g3
Ntp1143
Rp1144
(dp1145
g7
(dp1146
g9
V1998-99 Stadium Club Printing Plates #16B Doug Christie Magenta
p1147
sg11
I1
sg12
VStadium Club Printing Plates
p1148
sg14
(lp1149
Vhttp://www.beckett.com/basketball/1998-99/stadium-club-printing-plates/16b-doug-christie-magenta-3161012
p1150
asg17
g18
sg19
(lp1151
Vhttp://img.beckett.com/images/no-image.jpg
p1152
asg22
V#16B
p1153
sg24
V1998-99
p1154
sg28
g29
sg30
(lp1155
g1129
assbag1
(g2
g3
Ntp1156
Rp1157
(dp1158
g7
(dp1159
g9
V1998-99 Stadium Club Printing Plates #16C Doug Christie Yellow
p1160
sg11
I1
sg12
VStadium Club Printing Plates
p1161
sg14
(lp1162
Vhttp://www.beckett.com/basketball/1998-99/stadium-club-printing-plates/16c-doug-christie-yellow-3161013
p1163
asg17
g18
sg19
(lp1164
Vhttp://img.beckett.com/images/no-image.jpg
p1165
asg22
V#16C
p1166
sg24
V1998-99
p1167
sg28
g29
sg30
(lp1168
g1129
assbag1
(g2
g3
Ntp1169
Rp1170
(dp1171
g7
(dp1172
g9
V1998-99 Stadium Club Printing Plates #45 Tracy McGrady Black
p1173
sg11
I1
sg12
VStadium Club Printing Plates
p1174
sg14
(lp1175
Vhttp://www.beckett.com/basketball/1998-99/stadium-club-printing-plates/45-tracy-mcgrady-black-3161126
p1176
asg17
g18
sg19
(lp1177
Vhttp://img.beckett.com/images/no-image.jpg
p1178
asg22
V#45
p1179
sg24
V1998-99
p1180
sg28
g29
sg30
(lp1181
VTracy McGrady
p1182
assbag1
(g2
g3
Ntp1183
Rp1184
(dp1185
g7
(dp1186
g9
V1998-99 Stadium Club Printing Plates #45A Tracy McGrady Cyan
p1187
sg11
I1
sg12
VStadium Club Printing Plates
p1188
sg14
(lp1189
Vhttp://www.beckett.com/basketball/1998-99/stadium-club-printing-plates/45a-tracy-mcgrady-cyan-3161127
p1190
asg17
g18
sg19
(lp1191
Vhttp://img.beckett.com/images/no-image.jpg
p1192
asg22
V#45A
p1193
sg24
V1998-99
p1194
sg28
g29
sg30
(lp1195
g1182
assbag1
(g2
g3
Ntp1196
Rp1197
(dp1198
g7
(dp1199
g9
V1998-99 Stadium Club Printing Plates #45B Tracy McGrady Magenta
p1200
sg11
I1
sg12
VStadium Club Printing Plates
p1201
sg14
(lp1202
Vhttp://www.beckett.com/basketball/1998-99/stadium-club-printing-plates/45b-tracy-mcgrady-magenta-3161128
p1203
asg17
g18
sg19
(lp1204
Vhttp://img.beckett.com/images/no-image.jpg
p1205
asg22
V#45B
p1206
sg24
V1998-99
p1207
sg28
g29
sg30
(lp1208
g1182
assbag1
(g2
g3
Ntp1209
Rp1210
(dp1211
g7
(dp1212
g9
V1998-99 Stadium Club Printing Plates #45C Tracy McGrady Yellow
p1213
sg11
I1
sg12
VStadium Club Printing Plates
p1214
sg14
(lp1215
Vhttp://www.beckett.com/basketball/1998-99/stadium-club-printing-plates/45c-tracy-mcgrady-yellow-3161129
p1216
asg17
g18
sg19
(lp1217
Vhttp://img.beckett.com/images/no-image.jpg
p1218
asg22
V#45C
p1219
sg24
V1998-99
p1220
sg28
g29
sg30
(lp1221
g1182
assbag1
(g2
g3
Ntp1222
Rp1223
(dp1224
g7
(dp1225
g9
V1998-99 Stadium Club Printing Plates #105 Vince Carter Black
p1226
sg11
I1
sg12
VStadium Club Printing Plates
p1227
sg14
(lp1228
Vhttp://www.beckett.com/basketball/1998-99/stadium-club-printing-plates/105-vince-carter-black-3161366
p1229
asg17
g18
sg19
(lp1230
Vhttp://img.beckett.com/images/no-image.jpg
p1231
asg22
V#105
p1232
sg24
V1998-99
p1233
sg28
g29
sg30
(lp1234
VVince Carter
p1235
assbag1
(g2
g3
Ntp1236
Rp1237
(dp1238
g7
(dp1239
g9
V1998-99 Stadium Club Printing Plates #105A Vince Carter Cyan
p1240
sg11
I1
sg12
VStadium Club Printing Plates
p1241
sg14
(lp1242
Vhttp://www.beckett.com/basketball/1998-99/stadium-club-printing-plates/105a-vince-carter-cyan-3161367
p1243
asg17
g18
sg19
(lp1244
Vhttp://img.beckett.com/images/no-image.jpg
p1245
asg22
V#105A
p1246
sg24
V1998-99
p1247
sg28
g29
sg30
(lp1248
g1235
assbag1
(g2
g3
Ntp1249
Rp1250
(dp1251
g7
(dp1252
g9
V1998-99 Stadium Club Printing Plates #105B Vince Carter Magenta
p1253
sg11
I1
sg12
VStadium Club Printing Plates
p1254
sg14
(lp1255
Vhttp://www.beckett.com/basketball/1998-99/stadium-club-printing-plates/105b-vince-carter-magenta-3161368
p1256
asg17
g18
sg19
(lp1257
Vhttp://img.beckett.com/images/no-image.jpg
p1258
asg22
V#105B
p1259
sg24
V1998-99
p1260
sg28
g29
sg30
(lp1261
g1235
assbag1
(g2
g3
Ntp1262
Rp1263
(dp1264
g7
(dp1265
g9
V1998-99 Stadium Club Printing Plates #105C Vince Carter Yellow
p1266
sg11
I1
sg12
VStadium Club Printing Plates
p1267
sg14
(lp1268
Vhttp://www.beckett.com/basketball/1998-99/stadium-club-printing-plates/105c-vince-carter-yellow-3161369
p1269
asg17
g18
sg19
(lp1270
Vhttp://img.beckett.com/images/no-image.jpg
p1271
asg22
V#105C
p1272
sg24
V1998-99
p1273
sg28
g29
sg30
(lp1274
g1235
assbag1
(g2
g3
Ntp1275
Rp1276
(dp1277
g7
(dp1278
g9
V1998-99 Stadium Club Printing Plates #121 Dee Brown Black
p1279
sg11
I1
sg12
VStadium Club Printing Plates
p1280
sg14
(lp1281
Vhttp://www.beckett.com/basketball/1998-99/stadium-club-printing-plates/121-dee-brown-black-3161430
p1282
asg17
g18
sg19
(lp1283
Vhttp://img.beckett.com/images/no-image.jpg
p1284
asg22
V#121
p1285
sg24
V1998-99
p1286
sg28
g29
sg30
(lp1287
VDee Brown
p1288
assbag1
(g2
g3
Ntp1289
Rp1290
(dp1291
g7
(dp1292
g9
V1998-99 Stadium Club Printing Plates #121A Dee Brown Cyan
p1293
sg11
I1
sg12
VStadium Club Printing Plates
p1294
sg14
(lp1295
Vhttp://www.beckett.com/basketball/1998-99/stadium-club-printing-plates/121a-dee-brown-cyan-3161431
p1296
asg17
g18
sg19
(lp1297
Vhttp://img.beckett.com/images/no-image.jpg
p1298
asg22
V#121A
p1299
sg24
V1998-99
p1300
sg28
g29
sg30
(lp1301
g1288
assbag1
(g2
g3
Ntp1302
Rp1303
(dp1304
g7
(dp1305
g9
V1998-99 Stadium Club Printing Plates #121B Dee Brown Magenta
p1306
sg11
I1
sg12
VStadium Club Printing Plates
p1307
sg14
(lp1308
Vhttp://www.beckett.com/basketball/1998-99/stadium-club-printing-plates/121b-dee-brown-magenta-3161432
p1309
asg17
g18
sg19
(lp1310
Vhttp://img.beckett.com/images/no-image.jpg
p1311
asg22
V#121B
p1312
sg24
V1998-99
p1313
sg28
g29
sg30
(lp1314
g1288
assbag1
(g2
g3
Ntp1315
Rp1316
(dp1317
g7
(dp1318
g9
V1998-99 Stadium Club Printing Plates #121C Dee Brown Yellow
p1319
sg11
I1
sg12
VStadium Club Printing Plates
p1320
sg14
(lp1321
Vhttp://www.beckett.com/basketball/1998-99/stadium-club-printing-plates/121c-dee-brown-yellow-3161433
p1322
asg17
g18
sg19
(lp1323
Vhttp://img.beckett.com/images/no-image.jpg
p1324
asg22
V#121C
p1325
sg24
V1998-99
p1326
sg28
g29
sg30
(lp1327
g1288
assbag1
(g2
g3
Ntp1328
Rp1329
(dp1330
g7
(dp1331
g9
V1998-99 Stadium Club Printing Plates #175 John Wallace Black
p1332
sg11
I1
sg12
VStadium Club Printing Plates
p1333
sg14
(lp1334
Vhttp://www.beckett.com/basketball/1998-99/stadium-club-printing-plates/175-john-wallace-black-3161646
p1335
asg17
g18
sg19
(lp1336
Vhttp://img.beckett.com/images/no-image.jpg
p1337
asg22
V#175
p1338
sg24
V1998-99
p1339
sg28
g29
sg30
(lp1340
VJohn Wallace
p1341
assbag1
(g2
g3
Ntp1342
Rp1343
(dp1344
g7
(dp1345
g9
V1998-99 Stadium Club Printing Plates #175A John Wallace Cyan
p1346
sg11
I1
sg12
VStadium Club Printing Plates
p1347
sg14
(lp1348
Vhttp://www.beckett.com/basketball/1998-99/stadium-club-printing-plates/175a-john-wallace-cyan-3161647
p1349
asg17
g18
sg19
(lp1350
Vhttp://img.beckett.com/images/no-image.jpg
p1351
asg22
V#175A
p1352
sg24
V1998-99
p1353
sg28
g29
sg30
(lp1354
g1341
assbag1
(g2
g3
Ntp1355
Rp1356
(dp1357
g7
(dp1358
g9
V1998-99 Stadium Club Printing Plates #175B John Wallace Magenta
p1359
sg11
I1
sg12
VStadium Club Printing Plates
p1360
sg14
(lp1361
Vhttp://www.beckett.com/basketball/1998-99/stadium-club-printing-plates/175b-john-wallace-magenta-3161648
p1362
asg17
g18
sg19
(lp1363
Vhttp://img.beckett.com/images/no-image.jpg
p1364
asg22
V#175B
p1365
sg24
V1998-99
p1366
sg28
g29
sg30
(lp1367
g1341
assbag1
(g2
g3
Ntp1368
Rp1369
(dp1370
g7
(dp1371
g9
V1998-99 Stadium Club Printing Plates #175C John Wallace Yellow
p1372
sg11
I1
sg12
VStadium Club Printing Plates
p1373
sg14
(lp1374
Vhttp://www.beckett.com/basketball/1998-99/stadium-club-printing-plates/175c-john-wallace-yellow-3161649
p1375
asg17
g18
sg19
(lp1376
Vhttp://img.beckett.com/images/no-image.jpg
p1377
asg22
V#175C
p1378
sg24
V1998-99
p1379
sg28
g29
sg30
(lp1380
g1341
assbag1
(g2
g3
Ntp1381
Rp1382
(dp1383
g7
(dp1384
g9
V1998-99 Stadium Club Printing Plates #198 Vince Carter Black
p1385
sg11
I1
sg12
VStadium Club Printing Plates
p1386
sg14
(lp1387
Vhttp://www.beckett.com/basketball/1998-99/stadium-club-printing-plates/198-vince-carter-black-3161738
p1388
asg17
g18
sg19
(lp1389
Vhttp://img.beckett.com/images/no-image.jpg
p1390
asg22
V#198
p1391
sg24
V1998-99
p1392
sg28
g29
sg30
(lp1393
g1235
assbag1
(g2
g3
Ntp1394
Rp1395
(dp1396
g7
(dp1397
g9
V1998-99 Stadium Club Printing Plates #198A Vince Carter Cyan
p1398
sg11
I1
sg12
VStadium Club Printing Plates
p1399
sg14
(lp1400
Vhttp://www.beckett.com/basketball/1998-99/stadium-club-printing-plates/198a-vince-carter-cyan-3161739
p1401
asg17
g18
sg19
(lp1402
Vhttp://img.beckett.com/images/no-image.jpg
p1403
asg22
V#198A
p1404
sg24
V1998-99
p1405
sg28
g29
sg30
(lp1406
g1235
assbag1
(g2
g3
Ntp1407
Rp1408
(dp1409
g7
(dp1410
g9
V1998-99 Stadium Club Printing Plates #198B Vince Carter Magenta
p1411
sg11
I1
sg12
VStadium Club Printing Plates
p1412
sg14
(lp1413
Vhttp://www.beckett.com/basketball/1998-99/stadium-club-printing-plates/198b-vince-carter-magenta-3161740
p1414
asg17
g18
sg19
(lp1415
Vhttp://img.beckett.com/images/no-image.jpg
p1416
asg22
V#198B
p1417
sg24
V1998-99
p1418
sg28
g29
sg30
(lp1419
g1235
assbag1
(g2
g3
Ntp1420
Rp1421
(dp1422
g7
(dp1423
g9
V1998-99 Stadium Club Printing Plates #198C Vince Carter Yellow
p1424
sg11
I1
sg12
VStadium Club Printing Plates
p1425
sg14
(lp1426
Vhttp://www.beckett.com/basketball/1998-99/stadium-club-printing-plates/198c-vince-carter-yellow-3161741
p1427
asg17
g18
sg19
(lp1428
Vhttp://img.beckett.com/images/no-image.jpg
p1429
asg22
V#198C
p1430
sg24
V1998-99
p1431
sg28
g29
sg30
(lp1432
g1235
assbag1
(g2
g3
Ntp1433
Rp1434
(dp1435
g7
(dp1436
g9
V1998-99 UD Choice Premium Choice Reserve #137 Chauncey Billups
p1437
sg11
I100
sg12
VUD Choice Premium Choice Reserve
p1438
sg14
(lp1439
Vhttp://www.beckett.com/basketball/1998-99/ud-choice-premium-choice-reserve/137-chauncey-billups-3159310
p1440
asg17
g18
sg19
(lp1441
Vhttp://img.beckett.com/images/no-image.jpg
p1442
asg22
V#137
p1443
sg24
V1998-99
p1444
sg28
g29
sg30
(lp1445
VChauncey Billups
p1446
assbag1
(g2
g3
Ntp1447
Rp1448
(dp1449
g7
(dp1450
g9
V1998-99 UD Choice Premium Choice Reserve #138 Doug Christie
p1451
sg11
I100
sg12
VUD Choice Premium Choice Reserve
p1452
sg14
(lp1453
Vhttp://www.beckett.com/basketball/1998-99/ud-choice-premium-choice-reserve/138-doug-christie-3159311
p1454
asg17
g18
sg19
(lp1455
Vhttp://img.beckett.com/images/no-image.jpg
p1456
asg22
V#138
p1457
sg24
V1998-99
p1458
sg28
g29
sg30
(lp1459
VDoug Christie
p1460
assbag1
(g2
g3
Ntp1461
Rp1462
(dp1463
g7
(dp1464
g9
V1998-99 UD Choice Premium Choice Reserve #139 John Wallace
p1465
sg11
I100
sg12
VUD Choice Premium Choice Reserve
p1466
sg14
(lp1467
Vhttp://www.beckett.com/basketball/1998-99/ud-choice-premium-choice-reserve/139-john-wallace-3159312
p1468
asg17
g18
sg19
(lp1469
Vhttp://img.beckett.com/images/no-image.jpg
p1470
asg22
V#139
p1471
sg24
V1998-99
p1472
sg28
g29
sg30
(lp1473
VJohn Wallace
p1474
assbag1
(g2
g3
Ntp1475
Rp1476
(dp1477
g7
(dp1478
g9
V1998-99 UD Choice Premium Choice Reserve #140 Tracy McGrady
p1479
sg11
I100
sg12
VUD Choice Premium Choice Reserve
p1480
sg14
(lp1481
Vhttp://www.beckett.com/basketball/1998-99/ud-choice-premium-choice-reserve/140-tracy-mcgrady-3159313
p1482
asg17
g18
sg19
(lp1483
Vhttp://img.beckett.com/images/no-image.jpg
p1484
asg22
V#140
p1485
sg24
V1998-99
p1486
sg28
g29
sg30
(lp1487
VTracy McGrady
p1488
assbag1
(g2
g3
Ntp1489
Rp1490
(dp1491
g7
(dp1492
g9
V1998-99 UD Choice Premium Choice Reserve #141 Dee Brown
p1493
sg11
I100
sg12
VUD Choice Premium Choice Reserve
p1494
sg14
(lp1495
Vhttp://www.beckett.com/basketball/1998-99/ud-choice-premium-choice-reserve/141-dee-brown-3159314
p1496
asg17
g18
sg19
(lp1497
Vhttp://img.beckett.com/images/no-image.jpg
p1498
asg22
V#141
p1499
sg24
V1998-99
p1500
sg28
g29
sg30
(lp1501
VDee Brown
p1502
assbag1
(g2
g3
Ntp1503
Rp1504
(dp1505
g7
(dp1506
g9
V1998-99 UD Ionix Reciprocal #55 Tracy McGrady
p1507
sg11
I750
sg12
VUD Ionix Reciprocal
p1508
sg14
(lp1509
Vhttp://www.beckett.com/basketball/1998-99/ud-ionix-reciprocal/55-tracy-mcgrady-3159731
p1510
asg17
g18
sg19
(lp1511
Vhttp://img.beckett.com/images/no-image.jpg
p1512
asg22
V#55
p1513
sg24
V1998-99
p1514
sg28
g29
sg30
(lp1515
VTracy McGrady
p1516
assbag1
(g2
g3
Ntp1517
Rp1518
(dp1519
g7
(dp1520
g9
V1998-99 UD Ionix Reciprocal #65 Vince Carter
p1521
sg11
I100
sg12
VUD Ionix Reciprocal
p1522
sg14
(lp1523
Vhttp://www.beckett.com/basketball/1998-99/ud-ionix-reciprocal/65-vince-carter-3159741
p1524
asg17
g18
sg19
(lp1525
Vhttp://img.beckett.com/images/no-image.jpg
p1526
asg22
V#65
p1527
sg24
V1998-99
p1528
sg28
g29
sg30
(lp1529
VVince Carter
p1530
assbag1
(g2
g3
Ntp1531
Rp1532
(dp1533
g7
(dp1534
g9
V1998-99 Ultra Masterpieces #51 Doug Christie
p1535
sg11
I1
sg12
VUltra Masterpieces
p1536
sg14
(lp1537
Vhttp://www.beckett.com/basketball/1998-99/ultra-masterpieces/51-doug-christie-3157007
p1538
asg17
g18
sg19
(lp1539
Vhttp://img.beckett.com/images/no-image.jpg
p1540
asg22
V#51
p1541
sg24
V1998-99
p1542
sg28
g29
sg30
(lp1543
VDoug Christie
p1544
assbag1
(g2
g3
Ntp1545
Rp1546
(dp1547
g7
(dp1548
g9
V1998-99 Ultra Masterpieces #65 John Wallace
p1549
sg11
I1
sg12
VUltra Masterpieces
p1550
sg14
(lp1551
Vhttp://www.beckett.com/basketball/1998-99/ultra-masterpieces/65-john-wallace-3157021
p1552
asg17
g18
sg19
(lp1553
Vhttp://img.beckett.com/images/no-image.jpg
p1554
asg22
V#65
p1555
sg24
V1998-99
p1556
sg28
g29
sg30
(lp1557
VJohn Wallace
p1558
assbag1
(g2
g3
Ntp1559
Rp1560
(dp1561
g7
(dp1562
g9
V1998-99 Ultra Masterpieces #82 Tracy McGrady
p1563
sg11
I1
sg12
VUltra Masterpieces
p1564
sg14
(lp1565
Vhttp://www.beckett.com/basketball/1998-99/ultra-masterpieces/82-tracy-mcgrady-3157038
p1566
asg17
g18
sg19
(lp1567
Vhttp://img.beckett.com/images/no-image.jpg
p1568
asg22
V#82
p1569
sg24
V1998-99
p1570
sg28
g29
sg30
(lp1571
VTracy McGrady
p1572
assbag1
(g2
g3
Ntp1573
Rp1574
(dp1575
g7
(dp1576
g9
V1998-99 Ultra Masterpieces #106 Vince Carter
p1577
sg11
I1
sg12
VUltra Masterpieces
p1578
sg14
(lp1579
Vhttp://www.beckett.com/basketball/1998-99/ultra-masterpieces/106-vince-carter-3157062
p1580
asg17
g18
sg19
(lp1581
Vhttp://img.beckett.com/images/no-image.jpg
p1582
asg22
V#106
p1583
sg24
V1998-99
p1584
sg28
g29
sg30
(lp1585
VVince Carter
p1586
assbag1
(g2
g3
Ntp1587
Rp1588
(dp1589
g7
(dp1590
g9
V1998-99 Ultra Platinum Medallion #51 Doug Christie
p1591
sg11
I99
sg12
VUltra Platinum Medallion
p1592
sg14
(lp1593
Vhttp://www.beckett.com/basketball/1998-99/ultra-platinum-medallion/51-doug-christie-3157143
p1594
asg17
g18
sg19
(lp1595
Vhttp://img.beckett.com/images/no-image.jpg
p1596
asg22
V#51
p1597
sg24
V1998-99
p1598
sg28
g29
sg30
(lp1599
VDoug Christie
p1600
assbag1
(g2
g3
Ntp1601
Rp1602
(dp1603
g7
(dp1604
g9
V1998-99 Ultra Platinum Medallion #65 John Wallace
p1605
sg11
I99
sg12
VUltra Platinum Medallion
p1606
sg14
(lp1607
Vhttp://www.beckett.com/basketball/1998-99/ultra-platinum-medallion/65-john-wallace-3157157
p1608
asg17
g18
sg19
(lp1609
Vhttp://img.beckett.com/images/no-image.jpg
p1610
asg22
V#65
p1611
sg24
V1998-99
p1612
sg28
g29
sg30
(lp1613
VJohn Wallace
p1614
assbag1
(g2
g3
Ntp1615
Rp1616
(dp1617
g7
(dp1618
g9
V1998-99 Ultra Platinum Medallion #82 Tracy McGrady
p1619
sg11
I99
sg12
VUltra Platinum Medallion
p1620
sg14
(lp1621
Vhttp://www.beckett.com/basketball/1998-99/ultra-platinum-medallion/82-tracy-mcgrady-3157174
p1622
asg17
g18
sg19
(lp1623
Vhttp://img.beckett.com/images/no-image.jpg
p1624
asg22
V#82
p1625
sg24
V1998-99
p1626
sg28
g29
sg30
(lp1627
VTracy McGrady
p1628
assbag1
(g2
g3
Ntp1629
Rp1630
(dp1631
g7
(dp1632
g9
V1998-99 Ultra Platinum Medallion #106 Vince Carter
p1633
sg11
I66
sg12
VUltra Platinum Medallion
p1634
sg14
(lp1635
Vhttp://www.beckett.com/basketball/1998-99/ultra-platinum-medallion/106-vince-carter-3157198
p1636
asg17
g18
sg19
(lp1637
Vhttp://img.beckett.com/images/no-image.jpg
p1638
asg22
V#106
p1639
sg24
V1998-99
p1640
sg28
g29
sg30
(lp1641
VVince Carter
p1642
assbag1
(g2
g3
Ntp1643
Rp1644
(dp1645
g7
(dp1646
g9
V1998-99 Upper Deck Bronze #146 Tracy McGrady
p1647
sg11
I100
sg12
VUpper Deck Bronze
p1648
sg14
(lp1649
Vhttp://www.beckett.com/basketball/1998-99/upper-deck-bronze/146-tracy-mcgrady-3157877
p1650
asg17
g18
sg19
(lp1651
Vhttp://img.beckett.com/images/no-image.jpg
p1652
asg22
V#146
p1653
sg24
V1998-99
p1654
sg28
g29
sg30
(lp1655
VTracy McGrady
p1656
assbag1
(g2
g3
Ntp1657
Rp1658
(dp1659
g7
(dp1660
g9
V1998-99 Upper Deck Bronze #147 John Wallace
p1661
sg11
I100
sg12
VUpper Deck Bronze
p1662
sg14
(lp1663
Vhttp://www.beckett.com/basketball/1998-99/upper-deck-bronze/147-john-wallace-3157878
p1664
asg17
g18
sg19
(lp1665
Vhttp://img.beckett.com/images/no-image.jpg
p1666
asg22
V#147
p1667
sg24
V1998-99
p1668
sg28
g29
sg30
(lp1669
VJohn Wallace
p1670
assbag1
(g2
g3
Ntp1671
Rp1672
(dp1673
g7
(dp1674
g9
V1998-99 Upper Deck Bronze #148 Doug Christie
p1675
sg11
I100
sg12
VUpper Deck Bronze
p1676
sg14
(lp1677
Vhttp://www.beckett.com/basketball/1998-99/upper-deck-bronze/148-doug-christie-3157879
p1678
asg17
g18
sg19
(lp1679
Vhttp://img.beckett.com/images/no-image.jpg
p1680
asg22
V#148
p1681
sg24
V1998-99
p1682
sg28
g29
sg30
(lp1683
VDoug Christie
p1684
assbag1
(g2
g3
Ntp1685
Rp1686
(dp1687
g7
(dp1688
g9
V1998-99 Upper Deck Bronze #149 Dee Brown
p1689
sg11
I100
sg12
VUpper Deck Bronze
p1690
sg14
(lp1691
Vhttp://www.beckett.com/basketball/1998-99/upper-deck-bronze/149-dee-brown-3157880
p1692
asg17
g18
sg19
(lp1693
Vhttp://img.beckett.com/images/no-image.jpg
p1694
asg22
V#149
p1695
sg24
V1998-99
p1696
sg28
g29
sg30
(lp1697
VDee Brown
p1698
assbag1
(g2
g3
Ntp1699
Rp1700
(dp1701
g7
(dp1702
g9
V1998-99 Upper Deck Bronze #150 Tracy McGrady/Chauncey Billups HS
p1703
sg11
I100
sg12
VUpper Deck Bronze
p1704
sg14
(lp1705
Vhttp://www.beckett.com/basketball/1998-99/upper-deck-bronze/150-tracy-mcgradychauncey-billups-hs-3157881
p1706
asg17
g18
sg19
(lp1707
Vhttp://img.beckett.com/images/items_stock/185226/3157718/3157881/front.jpg
p1708
asg22
V#150
p1709
sg24
V1998-99
p1710
sg26
VHS
p1711
sg28
g29
sg30
(lp1712
VTracy McGrady
p1713
aVChauncey Billups
p1714
assbag1
(g2
g3
Ntp1715
Rp1716
(dp1717
g7
(dp1718
g9
V1998-99 Upper Deck Bronze #167 Tracy McGrady TN
p1719
sg11
I100
sg12
VUpper Deck Bronze
p1720
sg14
(lp1721
Vhttp://www.beckett.com/basketball/1998-99/upper-deck-bronze/167-tracy-mcgrady-tn-3157898
p1722
asg17
g18
sg19
(lp1723
Vhttp://img.beckett.com/images/items_stock/185226/3157718/3157898/front.jpg
p1724
asg22
V#167
p1725
sg24
V1998-99
p1726
sg26
VTN
p1727
sg28
g29
sg30
(lp1728
VTracy McGrady
p1729
assbag1
(g2
g3
Ntp1730
Rp1731
(dp1732
g7
(dp1733
g9
V1998-99 Upper Deck Bronze #292 Tracy McGrady H99
p1734
sg11
I100
sg12
VUpper Deck Bronze
p1735
sg14
(lp1736
Vhttp://www.beckett.com/basketball/1998-99/upper-deck-bronze/292-tracy-mcgrady-h99-3158045
p1737
asg17
g18
sg19
(lp1738
Vhttp://img.beckett.com/images/items_stock/185226/3157718/3158045/front.jpg
p1739
asg22
V#292
p1740
sg24
V1998-99
p1741
sg28
g29
sg30
(lp1742
VTracy McGrady
p1743
assbag1
(g2
g3
Ntp1744
Rp1745
(dp1746
g7
(dp1747
g9
V1998-99 Upper Deck Bronze #316 Vince Carter
p1748
sg11
I100
sg12
VUpper Deck Bronze
p1749
sg14
(lp1750
Vhttp://www.beckett.com/basketball/1998-99/upper-deck-bronze/316-vince-carter-3158069
p1751
asg17
g18
sg19
(lp1752
Vhttp://img.beckett.com/images/no-image.jpg
p1753
asg22
V#316
p1754
sg24
V1998-99
p1755
sg28
g29
sg30
(lp1756
VVince Carter
p1757
assbag1
(g2
g3
Ntp1758
Rp1759
(dp1760
g7
(dp1761
g9
V1998-99 Upper Deck Gold #146 Tracy McGrady
p1762
sg11
I1
sg12
VUpper Deck Gold
p1763
sg14
(lp1764
Vhttp://www.beckett.com/basketball/1998-99/upper-deck-gold/146-tracy-mcgrady-3158242
p1765
asg17
g18
sg19
(lp1766
Vhttp://img.beckett.com/images/no-image.jpg
p1767
asg22
V#146
p1768
sg24
V1998-99
p1769
sg28
g29
sg30
(lp1770
VTracy McGrady
p1771
assbag1
(g2
g3
Ntp1772
Rp1773
(dp1774
g7
(dp1775
g9
V1998-99 Upper Deck Gold #147 John Wallace
p1776
sg11
I1
sg12
VUpper Deck Gold
p1777
sg14
(lp1778
Vhttp://www.beckett.com/basketball/1998-99/upper-deck-gold/147-john-wallace-3158243
p1779
asg17
g18
sg19
(lp1780
Vhttp://img.beckett.com/images/no-image.jpg
p1781
asg22
V#147
p1782
sg24
V1998-99
p1783
sg28
g29
sg30
(lp1784
VJohn Wallace
p1785
assbag1
(g2
g3
Ntp1786
Rp1787
(dp1788
g7
(dp1789
g9
V1998-99 Upper Deck Gold #148 Doug Christie
p1790
sg11
I1
sg12
VUpper Deck Gold
p1791
sg14
(lp1792
Vhttp://www.beckett.com/basketball/1998-99/upper-deck-gold/148-doug-christie-3158244
p1793
asg17
g18
sg19
(lp1794
Vhttp://img.beckett.com/images/no-image.jpg
p1795
asg22
V#148
p1796
sg24
V1998-99
p1797
sg28
g29
sg30
(lp1798
VDoug Christie
p1799
assbag1
(g2
g3
Ntp1800
Rp1801
(dp1802
g7
(dp1803
g9
V1998-99 Upper Deck Gold #149 Dee Brown
p1804
sg11
I1
sg12
VUpper Deck Gold
p1805
sg14
(lp1806
Vhttp://www.beckett.com/basketball/1998-99/upper-deck-gold/149-dee-brown-3158245
p1807
asg17
g18
sg19
(lp1808
Vhttp://img.beckett.com/images/no-image.jpg
p1809
asg22
V#149
p1810
sg24
V1998-99
p1811
sg28
g29
sg30
(lp1812
VDee Brown
p1813
assbag1
(g2
g3
Ntp1814
Rp1815
(dp1816
g7
(dp1817
g9
V1998-99 Upper Deck Gold #150 Tracy McGrady/Chauncey Billups HS
p1818
sg11
I1
sg12
VUpper Deck Gold
p1819
sg14
(lp1820
Vhttp://www.beckett.com/basketball/1998-99/upper-deck-gold/150-tracy-mcgradychauncey-billups-hs-3158246
p1821
asg17
g18
sg19
(lp1822
Vhttp://img.beckett.com/images/no-image.jpg
p1823
asg22
V#150
p1824
sg24
V1998-99
p1825
sg26
VHS
p1826
sg28
g29
sg30
(lp1827
VTracy McGrady
p1828
aVChauncey Billups
p1829
assbag1
(g2
g3
Ntp1830
Rp1831
(dp1832
g7
(dp1833
g9
V1998-99 Upper Deck Gold #167 Tracy McGrady TN
p1834
sg11
I1
sg12
VUpper Deck Gold
p1835
sg14
(lp1836
Vhttp://www.beckett.com/basketball/1998-99/upper-deck-gold/167-tracy-mcgrady-tn-3158263
p1837
asg17
g18
sg19
(lp1838
Vhttp://img.beckett.com/images/no-image.jpg
p1839
asg22
V#167
p1840
sg24
V1998-99
p1841
sg26
VTN
p1842
sg28
g29
sg30
(lp1843
VTracy McGrady
p1844
assbag1
(g2
g3
Ntp1845
Rp1846
(dp1847
g7
(dp1848
g9
V1998-99 Upper Deck Gold #292 Tracy McGrady H99
p1849
sg11
I1
sg12
VUpper Deck Gold
p1850
sg14
(lp1851
Vhttp://www.beckett.com/basketball/1998-99/upper-deck-gold/292-tracy-mcgrady-h99-3158410
p1852
asg17
g18
sg19
(lp1853
Vhttp://img.beckett.com/images/no-image.jpg
p1854
asg22
V#292
p1855
sg24
V1998-99
p1856
sg28
g29
sg30
(lp1857
VTracy McGrady
p1858
assbag1
(g2
g3
Ntp1859
Rp1860
(dp1861
g7
(dp1862
g9
V1998-99 Upper Deck Gold #316 Vince Carter
p1863
sg11
I1
sg12
VUpper Deck Gold
p1864
sg14
(lp1865
Vhttp://www.beckett.com/basketball/1998-99/upper-deck-gold/316-vince-carter-3158434
p1866
asg17
g18
sg19
(lp1867
Vhttp://img.beckett.com/images/no-image.jpg
p1868
asg22
V#316
p1869
sg24
V1998-99
p1870
sg28
g29
sg30
(lp1871
VVince Carter
p1872
assbag1
(g2
g3
Ntp1873
Rp1874
(dp1875
g7
(dp1876
g9
V1998-99 Upper Deck Encore F/X #79 Tracy McGrady
p1877
sg11
I125
sg12
VUpper Deck Encore F/X
p1878
sg14
(lp1879
Vhttp://www.beckett.com/basketball/1998-99/upper-deck-encore-fx/79-tracy-mcgrady-3155180
p1880
asg17
g18
sg19
(lp1881
Vhttp://img.beckett.com/images/items_stock/185226/3155089/3155180/front.jpg
p1882
asg22
V#79
p1883
sg24
V1998-99
p1884
sg28
g29
sg30
(lp1885
VTracy McGrady
p1886
assbag1
(g2
g3
Ntp1887
Rp1888
(dp1889
g7
(dp1890
g9
V1998-99 Upper Deck Encore F/X #80 John Wallace
p1891
sg11
I125
sg12
VUpper Deck Encore F/X
p1892
sg14
(lp1893
Vhttp://www.beckett.com/basketball/1998-99/upper-deck-encore-fx/80-john-wallace-3155181
p1894
asg17
g18
sg19
(lp1895
Vhttp://img.beckett.com/images/no-image.jpg
p1896
asg22
V#80
p1897
sg24
V1998-99
p1898
sg28
g29
sg30
(lp1899
VJohn Wallace
p1900
assbag1
(g2
g3
Ntp1901
Rp1902
(dp1903
g7
(dp1904
g9
V1998-99 Upper Deck Encore F/X #81 Doug Christie
p1905
sg11
I125
sg12
VUpper Deck Encore F/X
p1906
sg14
(lp1907
Vhttp://www.beckett.com/basketball/1998-99/upper-deck-encore-fx/81-doug-christie-3155182
p1908
asg17
g18
sg19
(lp1909
Vhttp://img.beckett.com/images/items_stock/185226/3155089/3155182/front.jpg
p1910
asg22
V#81
p1911
sg24
V1998-99
p1912
sg28
g29
sg30
(lp1913
VDoug Christie
p1914
assbag1
(g2
g3
Ntp1915
Rp1916
(dp1917
g7
(dp1918
g9
V1998-99 Upper Deck Encore F/X #118 Vince Carter
p1919
sg11
I125
sg12
VUpper Deck Encore F/X
p1920
sg14
(lp1921
Vhttp://www.beckett.com/basketball/1998-99/upper-deck-encore-fx/118-vince-carter-3155219
p1922
asg17
g18
sg19
(lp1923
Vhttp://img.beckett.com/images/no-image.jpg
p1924
asg22
V#118
p1925
sg24
V1998-99
p1926
sg28
g29
sg30
(lp1927
VVince Carter
p1928
assbag1
(g2
g3
Ntp1929
Rp1930
(dp1931
g7
(dp1932
g9
V1998-99 Upper Deck Encore F/X #146 Vince Carter
p1933
sg11
I125
sg12
VUpper Deck Encore F/X
p1934
sg14
(lp1935
Vhttp://www.beckett.com/basketball/1998-99/upper-deck-encore-fx/146-vince-carter-3155247
p1936
asg17
g18
sg19
(lp1937
Vhttp://img.beckett.com/images/no-image.jpg
p1938
asg22
V#146
p1939
sg24
V1998-99
p1940
sg28
g29
sg30
(lp1941
VVince Carter
p1942
assbag1
(g2
g3
Ntp1943
Rp1944
(dp1945
g7
(dp1946
g9
V1998-99 Upper Deck Ovation Gold #64 Tracy McGrady
p1947
sg11
I1000
sg12
VUpper Deck Ovation Gold
p1948
sg14
(lp1949
Vhttp://www.beckett.com/basketball/1998-99/upper-deck-ovation-gold/64-tracy-mcgrady-3155620
p1950
asg17
g18
sg19
(lp1951
Vhttp://img.beckett.com/images/items_stock/185226/3155547/3155620/front.jpg
p1952
asg22
V#64
p1953
sg24
V1998-99
p1954
sg28
g29
sg30
(lp1955
VTracy McGrady
p1956
assbag1
(g2
g3
Ntp1957
Rp1958
(dp1959
g7
(dp1960
g9
V1998-99 Upper Deck Ovation Gold #75 Vince Carter
p1961
sg11
I1000
sg12
VUpper Deck Ovation Gold
p1962
sg14
(lp1963
Vhttp://www.beckett.com/basketball/1998-99/upper-deck-ovation-gold/75-vince-carter-3155631
p1964
asg17
g18
sg19
(lp1965
Vhttp://img.beckett.com/images/items_stock/185226/3155547/3155631/front.jpg
p1966
asg22
V#75
p1967
sg24
V1998-99
p1968
sg28
g29
sg30
(lp1969
VVince Carter
p1970
assbag1
(g2
g3
Ntp1971
Rp1972
(dp1973
g7
(dp1974
g9
V1998-99 Black Diamond Diamond Dominance #D26 Vince Carter
p1975
sg11
I1000
sg12
VBlack Diamond Diamond Dominance
p1976
sg14
(lp1977
Vhttp://www.beckett.com/basketball/1998-99/black-diamond-diamond-dominance/d26-vince-carter-3170867
p1978
asg17
g18
sg19
(lp1979
Vhttp://img.beckett.com/images/items_stock/185226/3170829/3170867/front.jpg
p1980
asg22
V#D26
p1981
sg24
V1998-99
p1982
sg28
g29
sg30
(lp1983
VVince Carter
p1984
assbag1
(g2
g3
Ntp1985
Rp1986
(dp1987
g7
(dp1988
g9
V1998-99 E-X Century Authen-Kicks #2 Tracy McGrady/225
p1989
sg11
I225
sg12
VE-X Century Authen-Kicks
p1990
sg14
(lp1991
Vhttp://www.beckett.com/basketball/1998-99/e-x-century-authen-kicks/2-tracy-mcgrady225-3169146
p1992
asg17
g18
sS'memorabilia'
p1993
I1
sg19
(lp1994
Vhttp://img.beckett.com/images/no-image.jpg
p1995
asg22
V#2
p1996
sg24
V1998-99
p1997
sg28
g29
sg30
(lp1998
VTracy McGrady
p1999
assbag1
(g2
g3
Ntp2000
Rp2001
(dp2002
g7
(dp2003
g9
V1998-99 Finest Court Control #CC14 Vince Carter
p2004
sg11
I750
sg12
VFinest Court Control
p2005
sg14
(lp2006
Vhttp://www.beckett.com/basketball/1998-99/finest-court-control/cc14-vince-carter-3170374
p2007
asg17
g18
sg19
(lp2008
Vhttp://img.beckett.com/images/no-image.jpg
p2009
asg22
V#CC14
p2010
sg24
V1998-99
p2011
sg28
g29
sg30
(lp2012
VVince Carter
p2013
assbag1
(g2
g3
Ntp2014
Rp2015
(dp2016
g7
(dp2017
g9
V1998-99 Flair Showcase Class of '98 #5 Vince Carter
p2018
sg11
I500
sg12
VFlair Showcase Class of '98
p2019
sg14
(lp2020
Vhttp://www.beckett.com/basketball/1998-99/flair-showcase-class-of-98/5-vince-carter-3167738
p2021
asg17
g18
sg19
(lp2022
Vhttp://img.beckett.com/images/no-image.jpg
p2023
asg22
V#5
p2024
sg24
V1998-99
p2025
sg28
g29
sg30
(lp2026
VVince Carter
p2027
assbag1
(g2
g3
Ntp2028
Rp2029
(dp2030
g7
(dp2031
g9
V1998-99 Black Diamond Diamond Dominance Emerald #D26 Vince Carter
p2032
sg11
I100
sg12
VBlack Diamond Diamond Dominance Emerald
p2033
sg14
(lp2034
Vhttp://www.beckett.com/basketball/1998-99/black-diamond-diamond-dominance-emerald/d26-vince-carter-3170906
p2035
asg17
g18
sg19
(lp2036
Vhttp://img.beckett.com/images/no-image.jpg
p2037
asg22
V#D26
p2038
sg24
V1998-99
p2039
sg28
g29
sg30
(lp2040
VVince Carter
p2041
assbag1
(g2
g3
Ntp2042
Rp2043
(dp2044
g7
(dp2045
g9
V1998-99 E-X Century Essential Credentials Future #17 Tracy McGrady/74
p2046
sg11
I74
sg12
VE-X Century Essential Credentials Future
p2047
sg14
(lp2048
Vhttp://www.beckett.com/basketball/1998-99/e-x-century-essential-credentials-future/17-tracy-mcgrady74-3168968
p2049
asg17
g18
sg19
(lp2050
Vhttp://img.beckett.com/images/no-image.jpg
p2051
asg22
V#17
p2052
sg24
V1998-99
p2053
sg28
g29
sg30
(lp2054
VTracy McGrady
p2055
assbag1
(g2
g3
Ntp2056
Rp2057
(dp2058
g7
(dp2059
g9
V1998-99 E-X Century Essential Credentials Future #89 Vince Carter/2
p2060
sg11
I2
sg12
VE-X Century Essential Credentials Future
p2061
sg14
(lp2062
Vhttp://www.beckett.com/basketball/1998-99/e-x-century-essential-credentials-future/89-vince-carter2-3169040
p2063
asg17
g18
sg19
(lp2064
Vhttp://img.beckett.com/images/no-image.jpg
p2065
asg22
V#89
p2066
sg24
V1998-99
p2067
sg28
g29
sg30
(lp2068
VVince Carter
p2069
assbag1
(g2
g3
Ntp2070
Rp2071
(dp2072
g7
(dp2073
g9
V1998-99 E-X Century Essential Credentials Now #17 Tracy McGrady/17
p2074
sg11
I17
sg12
VE-X Century Essential Credentials Now
p2075
sg14
(lp2076
Vhttp://www.beckett.com/basketball/1998-99/e-x-century-essential-credentials-now/17-tracy-mcgrady17-3169065
p2077
asg17
g18
sg19
(lp2078
Vhttp://img.beckett.com/images/no-image.jpg
p2079
asg22
V#17
p2080
sg24
V1998-99
p2081
sg28
g29
sg30
(lp2082
VTracy McGrady
p2083
assbag1
(g2
g3
Ntp2084
Rp2085
(dp2086
g7
(dp2087
g9
V1998-99 E-X Century Essential Credentials Now #89 Vince Carter/89
p2088
sg11
I89
sg12
VE-X Century Essential Credentials Now
p2089
sg14
(lp2090
Vhttp://www.beckett.com/basketball/1998-99/e-x-century-essential-credentials-now/89-vince-carter89-3169137
p2091
asg17
g18
sg19
(lp2092
Vhttp://img.beckett.com/images/no-image.jpg
p2093
asg22
V#89
p2094
sg24
V1998-99
p2095
sg28
g29
sg30
(lp2096
VVince Carter
p2097
assbag1
(g2
g3
Ntp2098
Rp2099
(dp2100
g7
(dp2101
g9
V1998-99 Finest Court Control Refractors #CC14 Vince Carter
p2102
sg11
I150
sg12
VFinest Court Control Refractors
p2103
sg14
(lp2104
Vhttp://www.beckett.com/basketball/1998-99/finest-court-control-refractors/cc14-vince-carter-3170402
p2105
asg17
g18
sg19
(lp2106
Vhttp://img.beckett.com/images/no-image.jpg
p2107
asg22
V#CC14
p2108
sg24
V1998-99
p2109
sg28
g29
sg30
(lp2110
VVince Carter
p2111
assbag1
(g2
g3
Ntp2112
Rp2113
(dp2114
g7
(dp2115
g9
V1998-99 SkyBox Molten Metal Fusion #34 Vince Carter
p2116
sg11
I40
sg12
VSkyBox Molten Metal Fusion
p2117
sg14
(lp2118
Vhttp://www.beckett.com/basketball/1998-99/skybox-molten-metal-fusion/34-vince-carter-3164731
p2119
asg17
g18
sg19
(lp2120
Vhttp://img.beckett.com/images/no-image.jpg
p2121
asg22
V#34
p2122
sg24
V1998-99
p2123
sg28
g29
sg30
(lp2124
VVince Carter
p2125
assbag1
(g2
g3
Ntp2126
Rp2127
(dp2128
g7
(dp2129
g9
V1998-99 SkyBox Molten Metal Fusion Titanium #34 Vince Carter
p2130
sg11
I250
sg12
VSkyBox Molten Metal Fusion Titanium
p2131
sg14
(lp2132
Vhttp://www.beckett.com/basketball/1998-99/skybox-molten-metal-fusion-titanium/34-vince-carter-3164793
p2133
asg17
g18
sg19
(lp2134
Vhttp://img.beckett.com/images/no-image.jpg
p2135
asg22
V#34
p2136
sg24
V1998-99
p2137
sg28
g29
sg30
(lp2138
VVince Carter
p2139
assbag1
(g2
g3
Ntp2140
Rp2141
(dp2142
g7
(dp2143
g9
V1998-99 SkyBox Premium Autographics Blue #25 Vince Carter
p2144
sg11
I50
sg12
VSkyBox Premium Autographics Blue
p2145
sg14
(lp2146
Vhttp://www.beckett.com/basketball/1998-99/skybox-premium-autographics-blue/25-vince-carter-3165580
p2147
asg17
g18
sg19
(lp2148
Vhttp://img.beckett.com/images/no-image.jpg
p2149
asg22
V#25
p2150
sS'autograph'
p2151
I1
sg24
V1998-99
p2152
sg28
g29
sg30
(lp2153
VVince Carter
p2154
assbag1
(g2
g3
Ntp2155
Rp2156
(dp2157
g7
(dp2158
g9
V1998-99 SkyBox Premium Autographics Blue #84 Tracy McGrady
p2159
sg11
I50
sg12
VSkyBox Premium Autographics Blue
p2160
sg14
(lp2161
Vhttp://www.beckett.com/basketball/1998-99/skybox-premium-autographics-blue/84-tracy-mcgrady-3165639
p2162
asg17
g18
sg19
(lp2163
Vhttp://img.beckett.com/images/no-image.jpg
p2164
asg22
V#84
p2165
sg2151
I1
sg24
V1998-99
p2166
sg28
g29
sg30
(lp2167
VTracy McGrady
p2168
assbag1
(g2
g3
Ntp2169
Rp2170
(dp2171
g7
(dp2172
g9
V1998-99 Upper Deck AeroDynamics Bronze #A4 Tracy McGrady
p2173
sg11
I2000
sg12
VUpper Deck AeroDynamics Bronze
p2174
sg14
(lp2175
Vhttp://www.beckett.com/basketball/1998-99/upper-deck-aerodynamics-bronze/a4-tracy-mcgrady-3155723
p2176
asg17
g18
sg19
(lp2177
Vhttp://img.beckett.com/images/items_stock/185226/3155712/3155723/front.jpg
p2178
asg22
V#A4
p2179
sg24
V1998-99
p2180
sg28
g29
sg30
(lp2181
VTracy McGrady
p2182
assbag1
(g2
g3
Ntp2183
Rp2184
(dp2185
g7
(dp2186
g9
V1998-99 Upper Deck AeroDynamics Silver #A4 Tracy McGrady
p2187
sg11
I100
sg12
VUpper Deck AeroDynamics Silver
p2188
sg14
(lp2189
Vhttp://www.beckett.com/basketball/1998-99/upper-deck-aerodynamics-silver/a4-tracy-mcgrady-3155799
p2190
asg17
g18
sg19
(lp2191
Vhttp://img.beckett.com/images/no-image.jpg
p2192
asg22
V#A4
p2193
sg24
V1998-99
p2194
sg28
g29
sg30
(lp2195
VTracy McGrady
p2196
assbag1
(g2
g3
Ntp2197
Rp2198
(dp2199
g7
(dp2200
g9
V1998-99 Upper Deck AeroDynamics Gold #A4 Tracy McGrady
p2201
sg11
I25
sg12
VUpper Deck AeroDynamics Gold
p2202
sg14
(lp2203
Vhttp://www.beckett.com/basketball/1998-99/upper-deck-aerodynamics-gold/a4-tracy-mcgrady-3155761
p2204
asg17
g18
sg19
(lp2205
Vhttp://img.beckett.com/images/no-image.jpg
p2206
asg22
V#A4
p2207
sg24
V1998-99
p2208
sg28
g29
sg30
(lp2209
VTracy McGrady
p2210
assbag1
(g2
g3
Ntp2211
Rp2212
(dp2213
g7
(dp2214
g9
V1998-99 Upper Deck Next Wave Bronze #NW2 John Wallace
p2215
sg11
I1500
sg12
VUpper Deck Next Wave Bronze
p2216
sg14
(lp2217
Vhttp://www.beckett.com/basketball/1998-99/upper-deck-next-wave-bronze/nw2-john-wallace-3156453
p2218
asg17
g18
sg19
(lp2219
Vhttp://img.beckett.com/images/items_stock/185226/3156444/3156453/front.jpg
p2220
asg22
V#NW2
p2221
sg24
V1998-99
p2222
sg28
g29
sg30
(lp2223
VJohn Wallace
p2224
assbag1
(g2
g3
Ntp2225
Rp2226
(dp2227
g7
(dp2228
g9
V1998-99 Upper Deck Next Wave Bronze #NW26 Tracy McGrady
p2229
sg11
I1500
sg12
VUpper Deck Next Wave Bronze
p2230
sg14
(lp2231
Vhttp://www.beckett.com/basketball/1998-99/upper-deck-next-wave-bronze/nw26-tracy-mcgrady-3156477
p2232
asg17
g18
sg19
(lp2233
Vhttp://img.beckett.com/images/items_stock/185226/3156444/3156477/front.jpg
p2234
asg22
V#NW26
p2235
sg24
V1998-99
p2236
sg28
g29
sg30
(lp2237
VTracy McGrady
p2238
assbag1
(g2
g3
Ntp2239
Rp2240
(dp2241
g7
(dp2242
g9
V1998-99 Upper Deck Next Wave Silver #NW2 John Wallace
p2243
sg11
I200
sg12
VUpper Deck Next Wave Silver
p2244
sg14
(lp2245
Vhttp://www.beckett.com/basketball/1998-99/upper-deck-next-wave-silver/nw2-john-wallace-3156529
p2246
asg17
g18
sg19
(lp2247
Vhttp://img.beckett.com/images/no-image.jpg
p2248
asg22
V#NW2
p2249
sg24
V1998-99
p2250
sg28
g29
sg30
(lp2251
VJohn Wallace
p2252
assbag1
(g2
g3
Ntp2253
Rp2254
(dp2255
g7
(dp2256
g9
V1998-99 Upper Deck Next Wave Silver #NW26 Tracy McGrady
p2257
sg11
I200
sg12
VUpper Deck Next Wave Silver
p2258
sg14
(lp2259
Vhttp://www.beckett.com/basketball/1998-99/upper-deck-next-wave-silver/nw26-tracy-mcgrady-3156553
p2260
asg17
g18
sg19
(lp2261
Vhttp://img.beckett.com/images/no-image.jpg
p2262
asg22
V#NW26
p2263
sg24
V1998-99
p2264
sg28
g29
sg30
(lp2265
VTracy McGrady
p2266
assbag1
(g2
g3
Ntp2267
Rp2268
(dp2269
g7
(dp2270
g9
V1998-99 Upper Deck Next Wave Gold #NW2 John Wallace
p2271
sg11
I75
sg12
VUpper Deck Next Wave Gold
p2272
sg14
(lp2273
Vhttp://www.beckett.com/basketball/1998-99/upper-deck-next-wave-gold/nw2-john-wallace-3156491
p2274
asg17
g18
sg19
(lp2275
Vhttp://img.beckett.com/images/no-image.jpg
p2276
asg22
V#NW2
p2277
sg24
V1998-99
p2278
sg28
g29
sg30
(lp2279
VJohn Wallace
p2280
assbag1
(g2
g3
Ntp2281
Rp2282
(dp2283
g7
(dp2284
g9
V1998-99 Upper Deck Next Wave Gold #NW26 Tracy McGrady
p2285
sg11
I75
sg12
VUpper Deck Next Wave Gold
p2286
sg14
(lp2287
Vhttp://www.beckett.com/basketball/1998-99/upper-deck-next-wave-gold/nw26-tracy-mcgrady-3156515
p2288
asg17
g18
sg19
(lp2289
Vhttp://img.beckett.com/images/no-image.jpg
p2290
asg22
V#NW26
p2291
sg24
V1998-99
p2292
sg28
g29
sg30
(lp2293
VTracy McGrady
p2294
assbag1
(g2
g3
Ntp2295
Rp2296
(dp2297
g7
(dp2298
g9
V1998-99 Upper Deck Super Powers Bronze #S26 Tracy McGrady
p2299
sg11
I1000
sg12
VUpper Deck Super Powers Bronze
p2300
sg14
(lp2301
Vhttp://www.beckett.com/basketball/1998-99/upper-deck-super-powers-bronze/s26-tracy-mcgrady-3154833
p2302
asg17
g18
sg19
(lp2303
Vhttp://img.beckett.com/images/items_stock/185226/3154800/3154833/front.jpg
p2304
asg22
V#S26
p2305
sg24
V1998-99
p2306
sg28
g29
sg30
(lp2307
VTracy McGrady
p2308
assbag1
(g2
g3
Ntp2309
Rp2310
(dp2311
g7
(dp2312
g9
V1998-99 Upper Deck Super Powers Silver #S26 Tracy McGrady
p2313
sg11
I100
sg12
VUpper Deck Super Powers Silver
p2314
sg14
(lp2315
Vhttp://www.beckett.com/basketball/1998-99/upper-deck-super-powers-silver/s26-tracy-mcgrady-3154909
p2316
asg17
g18
sg19
(lp2317
Vhttp://img.beckett.com/images/no-image.jpg
p2318
asg22
V#S26
p2319
sg24
V1998-99
p2320
sg28
g29
sg30
(lp2321
VTracy McGrady
p2322
assbag1
(g2
g3
Ntp2323
Rp2324
(dp2325
g7
(dp2326
g9
V1998-99 Upper Deck Super Powers Gold #S26 Tracy McGrady
p2327
sg11
I50
sg12
VUpper Deck Super Powers Gold
p2328
sg14
(lp2329
Vhttp://www.beckett.com/basketball/1998-99/upper-deck-super-powers-gold/s26-tracy-mcgrady-3154871
p2330
asg17
g18
sg19
(lp2331
Vhttp://img.beckett.com/images/items_stock/185226/3154838/3154871/front.jpg
p2332
asg22
V#S26
p2333
sg24
V1998-99
p2334
sg28
g29
sg30
(lp2335
VTracy McGrady
p2336
assbag1
(g2
g3
Ntp2337
Rp2338
(dp2339
g7
(dp2340
g9
V1998-99 Upper Deck Encore Rookie Encore F/X #RE10 Vince Carter
p2341
sg11
I1000
sg12
VUpper Deck Encore Rookie Encore F/X
p2342
sg14
(lp2343
Vhttp://www.beckett.com/basketball/1998-99/upper-deck-encore-rookie-encore-fx/re10-vince-carter-3155449
p2344
asg17
g18
sg19
(lp2345
Vhttp://img.beckett.com/images/items_stock/185226/3155432/3155449/front.jpg
p2346
asg22
V#RE10
p2347
sg24
V1998-99
p2348
sg28
g29
sg30
(lp2349
VVince Carter
p2350
assba.