(lp0
Naccopy_reg
_reconstructor
p1
(ctutorial.items
BeckettItem
p2
c__builtin__
object
p3
Ntp4
Rp5
(dp6
S'_values'
p7
(dp8
S'originalItemDescription'
p9
V1998 Upper Deck Hardcourt Home Court Advantage Plus #36 John Stockton
p10
sS'serialNumber'
p11
I500
sS'setName'
p12
VUpper Deck Hardcourt Home Court Advantage Plus
p13
sS'beckettLink'
p14
(lp15
Vhttp://www.beckett.com/basketball/1998/upper-deck-hardcourt-home-court-advantage-plus/36-john-stockton-3150448
p16
asS'team'
p17
S'Utah Jazz'
p18
sS'imageLink'
p19
(lp20
Vhttp://img.beckett.com/images/no-image.jpg
p21
asS'cardNumber'
p22
V#36
p23
sS'year'
p24
V1998
p25
sS'sport'
p26
S'Basketball'
p27
sS'playerNames'
p28
(lp29
VJohn Stockton
p30
assbag1
(g2
g3
Ntp31
Rp32
(dp33
g7
(dp34
g9
V1998 Upper Deck Hardcourt Home Court Advantage Plus #68 Jeff Hornacek
p35
sg11
I500
sg12
VUpper Deck Hardcourt Home Court Advantage Plus
p36
sg14
(lp37
Vhttp://www.beckett.com/basketball/1998/upper-deck-hardcourt-home-court-advantage-plus/68-jeff-hornacek-3150480
p38
asg17
g18
sg19
(lp39
Vhttp://img.beckett.com/images/no-image.jpg
p40
asg22
V#68
p41
sg24
V1998
p42
sg26
g27
sg28
(lp43
VJeff Hornacek
p44
assbag1
(g2
g3
Ntp45
Rp46
(dp47
g7
(dp48
g9
V1998 Upper Deck Hardcourt Home Court Advantage Plus #70 Karl Malone
p49
sg11
I500
sg12
VUpper Deck Hardcourt Home Court Advantage Plus
p50
sg14
(lp51
Vhttp://www.beckett.com/basketball/1998/upper-deck-hardcourt-home-court-advantage-plus/70-karl-malone-3150482
p52
asg17
g18
sg19
(lp53
Vhttp://img.beckett.com/images/no-image.jpg
p54
asg22
V#70
p55
sg24
V1998
p56
sg26
g27
sg28
(lp57
VKarl Malone
p58
assbag1
(g2
g3
Ntp59
Rp60
(dp61
g7
(dp62
g9
V1998 Upper Deck Hardcourt High Court #H27 John Stockton
p63
sg11
I1300
sg12
VUpper Deck Hardcourt High Court
p64
sg14
(lp65
Vhttp://www.beckett.com/basketball/1998/upper-deck-hardcourt-high-court/h27-john-stockton-3150536
p66
asg17
g18
sg19
(lp67
Vhttp://img.beckett.com/images/items_stock/185226/3150503/3150536/front_old.jpg
p68
asg22
V#H27
p69
sg24
V1998
p70
sg26
g27
sg28
(lp71
VJohn Stockton
p72
assbag1
(g2
g3
Ntp73
Rp74
(dp75
g7
(dp76
g9
V1998 Upper Deck Hardcourt Jordan Holding Court Red #J27 Karl Malone/Michael Jordan
p77
sg11
I2300
sg12
VUpper Deck Hardcourt Jordan Holding Court Red
p78
sg14
(lp79
Vhttp://www.beckett.com/basketball/1998/upper-deck-hardcourt-jordan-holding-court-red/j27-karl-malonemichael-jordan-3150580
p80
asg17
g18
sg19
(lp81
Vhttp://img.beckett.com/images/no-image.jpg
p82
asg22
V#J27
p83
sg24
V1998
p84
sg26
g27
sg28
(lp85
VKarl Malone
p86
aVMichael Jordan
p87
assbag1
(g2
g3
Ntp88
Rp89
(dp90
g7
(dp91
g9
V1998 Upper Deck Hardcourt Jordan Holding Court Bronze #J27 Karl Malone/Michael Jordan
p92
sg11
I230
sg12
VUpper Deck Hardcourt Jordan Holding Court Bronze
p93
sg14
(lp94
Vhttp://www.beckett.com/basketball/1998/upper-deck-hardcourt-jordan-holding-court-bronze/j27-karl-malonemichael-jordan-3150618
p95
asg17
g18
sg19
(lp96
Vhttp://img.beckett.com/images/no-image.jpg
p97
asg22
V#J27
p98
sg24
V1998
p99
sg26
g27
sg28
(lp100
VKarl Malone
p101
aVMichael Jordan
p102
assbag1
(g2
g3
Ntp103
Rp104
(dp105
g7
(dp106
g9
V1998 Upper Deck Hardcourt Jordan Holding Court Silver #J27 Karl Malone/Michael Jordan
p107
sg11
I23
sg12
VUpper Deck Hardcourt Jordan Holding Court Silver
p108
sg14
(lp109
Vhttp://www.beckett.com/basketball/1998/upper-deck-hardcourt-jordan-holding-court-silver/j27-karl-malonemichael-jordan-3150693
p110
asg17
g18
sg19
(lp111
Vhttp://img.beckett.com/images/no-image.jpg
p112
asg22
V#J27
p113
sg24
V1998
p114
sg26
g27
sg28
(lp115
VKarl Malone
p116
aVMichael Jordan
p117
assbag1
(g2
g3
Ntp118
Rp119
(dp120
g7
(dp121
g9
V1998 Upper Deck Hardcourt Jordan Holding Court Gold #J27 Karl Malone/Michael Jordan
p122
sg11
I1
sg12
VUpper Deck Hardcourt Jordan Holding Court Gold
p123
sg14
(lp124
Vhttp://www.beckett.com/basketball/1998/upper-deck-hardcourt-jordan-holding-court-gold/j27-karl-malonemichael-jordan-3150655
p125
asg17
g18
sg19
(lp126
Vhttp://img.beckett.com/images/no-image.jpg
p127
asg22
V#J27
p128
sg24
V1998
p129
sg26
g27
sg28
(lp130
VKarl Malone
p131
aVMichael Jordan
p132
assbag1
(g2
g3
Ntp133
Rp134
(dp135
g7
(dp136
g9
V1998-99 SPx Finite #30 Jeff Hornacek
p137
sg11
I10000
sg12
VSPx Finite
p138
sg14
(lp139
Vhttp://www.beckett.com/basketball/1998-99/spx-finite/30-jeff-hornacek-3163306
p140
asg17
g18
sg19
(lp141
Vhttp://img.beckett.com/images/items_stock/185226/3163241/3163306/front.jpg
p142
asg22
V#30
p143
sg24
V1998-99
p144
sg26
g27
sg28
(lp145
VJeff Hornacek
p146
assbag1
(g2
g3
Ntp147
Rp148
(dp149
g7
(dp150
g9
V1998-99 SPx Finite #45 John Stockton
p151
sg11
I10000
sg12
VSPx Finite
p152
sg14
(lp153
Vhttp://www.beckett.com/basketball/1998-99/spx-finite/45-john-stockton-3163321
p154
asg17
g18
sg19
(lp155
Vhttp://img.beckett.com/images/no-image.jpg
p156
asg22
V#45
p157
sg24
V1998-99
p158
sg26
g27
sg28
(lp159
VJohn Stockton
p160
assbag1
(g2
g3
Ntp161
Rp162
(dp163
g7
(dp164
g9
V1998-99 SPx Finite #81 Karl Malone
p165
sg11
I10000
sg12
VSPx Finite
p166
sg14
(lp167
Vhttp://www.beckett.com/basketball/1998-99/spx-finite/81-karl-malone-3163357
p168
asg17
g18
sg19
(lp169
Vhttp://img.beckett.com/images/items_stock/185226/3163241/3163357/front_old.jpg
p170
asg22
V#81
p171
sg24
V1998-99
p172
sg26
g27
sg28
(lp173
VKarl Malone
p174
assbag1
(g2
g3
Ntp175
Rp176
(dp177
g7
(dp178
g9
V1998-99 SPx Finite #110 John Stockton SP
p179
sg11
I5400
sg12
VSPx Finite
p180
sg14
(lp181
Vhttp://www.beckett.com/basketball/1998-99/spx-finite/110-john-stockton-sp-3163386
p182
asg17
g18
sg19
(lp183
Vhttp://img.beckett.com/images/no-image.jpg
p184
asg22
V#110
p185
sg24
V1998-99
p186
sS'subsetName'
p187
VSP
p188
sg26
g27
sg28
(lp189
VJohn Stockton
p190
assbag1
(g2
g3
Ntp191
Rp192
(dp193
g7
(dp194
g9
V1998-99 SPx Finite #142 Karl Malone SP
p195
sg11
I5400
sg12
VSPx Finite
p196
sg14
(lp197
Vhttp://www.beckett.com/basketball/1998-99/spx-finite/142-karl-malone-sp-3163418
p198
asg17
g18
sg19
(lp199
Vhttp://img.beckett.com/images/items_stock/185226/3163241/3163418/front.jpg
p200
asg22
V#142
p201
sg24
V1998-99
p202
sg187
VSP
p203
sg26
g27
sg28
(lp204
VKarl Malone
p205
assbag1
(g2
g3
Ntp206
Rp207
(dp208
g7
(dp209
g9
V1998-99 SPx Finite #180 Bryon Russell SPx
p210
sg11
I4050
sg12
VSPx Finite
p211
sg14
(lp212
Vhttp://www.beckett.com/basketball/1998-99/spx-finite/180-bryon-russell-spx-3163456
p213
asg17
g18
sg19
(lp214
Vhttp://img.beckett.com/images/items_stock/185226/3163241/3163456/front.jpg
p215
asg22
V#180
p216
sg24
V1998-99
p217
sg187
VSPx
p218
sg26
g27
sg28
(lp219
VBryon Russell
p220
assbag1
(g2
g3
Ntp221
Rp222
(dp223
g7
(dp224
g9
V1998-99 SPx Finite #202 Karl Malone FE
p225
sg11
I1770
sg12
VSPx Finite
p226
sg14
(lp227
Vhttp://www.beckett.com/basketball/1998-99/spx-finite/202-karl-malone-fe-3163478
p228
asg17
g18
sg19
(lp229
Vhttp://img.beckett.com/images/items_stock/185226/3163241/3163478/front.jpg
p230
asg22
V#202
p231
sg24
V1998-99
p232
sg187
VFE
p233
sg26
g27
sg28
(lp234
VKarl Malone
p235
assbag1
(g2
g3
Ntp236
Rp237
(dp238
g7
(dp239
g9
V1998-99 SPx Finite #206 John Stockton FE
p240
sg11
I1770
sg12
VSPx Finite
p241
sg14
(lp242
Vhttp://www.beckett.com/basketball/1998-99/spx-finite/206-john-stockton-fe-3163482
p243
asg17
g18
sg19
(lp244
Vhttp://img.beckett.com/images/items_stock/185226/3163241/3163482/front.jpg
p245
asg22
V#206
p246
sg24
V1998-99
p247
sg187
VFE
p248
sg26
g27
sg28
(lp249
VJohn Stockton
p250
assbag1
(g2
g3
Ntp251
Rp252
(dp253
g7
(dp254
g9
V1998-99 Black Diamond Double Diamond #83 Jeff Hornacek
p255
sg11
I3000
sg12
VBlack Diamond Double Diamond
p256
sg14
(lp257
Vhttp://www.beckett.com/basketball/1998-99/black-diamond-double-diamond/83-jeff-hornacek-3171990
p258
asg17
g18
sg19
(lp259
Vhttp://img.beckett.com/images/items_stock/185226/3171898/3171990/front.jpg
p260
asg22
V#83
p261
sg24
V1998-99
p262
sg26
g27
sg28
(lp263
VJeff Hornacek
p264
assbag1
(g2
g3
Ntp265
Rp266
(dp267
g7
(dp268
g9
V1998-99 Black Diamond Double Diamond #84 Karl Malone
p269
sg11
I3000
sg12
VBlack Diamond Double Diamond
p270
sg14
(lp271
Vhttp://www.beckett.com/basketball/1998-99/black-diamond-double-diamond/84-karl-malone-3171991
p272
asg17
g18
sg19
(lp273
Vhttp://img.beckett.com/images/items_stock/185226/3171898/3171991/front.jpg
p274
asg22
V#84
p275
sg24
V1998-99
p276
sg26
g27
sg28
(lp277
VKarl Malone
p278
assbag1
(g2
g3
Ntp279
Rp280
(dp281
g7
(dp282
g9
V1998-99 Black Diamond Double Diamond #85 John Stockton
p283
sg11
I3000
sg12
VBlack Diamond Double Diamond
p284
sg14
(lp285
Vhttp://www.beckett.com/basketball/1998-99/black-diamond-double-diamond/85-john-stockton-3171992
p286
asg17
g18
sg19
(lp287
Vhttp://img.beckett.com/images/no-image.jpg
p288
asg22
V#85
p289
sg24
V1998-99
p290
sg26
g27
sg28
(lp291
VJohn Stockton
p292
assbag1
(g2
g3
Ntp293
Rp294
(dp295
g7
(dp296
g9
V1998-99 Black Diamond Triple Diamond #83 Jeff Hornacek
p297
sg11
I1500
sg12
VBlack Diamond Triple Diamond
p298
sg14
(lp299
Vhttp://www.beckett.com/basketball/1998-99/black-diamond-triple-diamond/83-jeff-hornacek-3172120
p300
asg17
g18
sg19
(lp301
Vhttp://img.beckett.com/images/no-image.jpg
p302
asg22
V#83
p303
sg24
V1998-99
p304
sg26
g27
sg28
(lp305
VJeff Hornacek
p306
assbag1
(g2
g3
Ntp307
Rp308
(dp309
g7
(dp310
g9
V1998-99 Black Diamond Triple Diamond #84 Karl Malone
p311
sg11
I1500
sg12
VBlack Diamond Triple Diamond
p312
sg14
(lp313
Vhttp://www.beckett.com/basketball/1998-99/black-diamond-triple-diamond/84-karl-malone-3172121
p314
asg17
g18
sg19
(lp315
Vhttp://img.beckett.com/images/items_stock/185226/3172028/3172121/front.jpg
p316
asg22
V#84
p317
sg24
V1998-99
p318
sg26
g27
sg28
(lp319
VKarl Malone
p320
assbag1
(g2
g3
Ntp321
Rp322
(dp323
g7
(dp324
g9
V1998-99 Black Diamond Triple Diamond #85 John Stockton
p325
sg11
I1500
sg12
VBlack Diamond Triple Diamond
p326
sg14
(lp327
Vhttp://www.beckett.com/basketball/1998-99/black-diamond-triple-diamond/85-john-stockton-3172122
p328
asg17
g18
sg19
(lp329
Vhttp://img.beckett.com/images/items_stock/185226/3172028/3172122/front.jpg
p330
asg22
V#85
p331
sg24
V1998-99
p332
sg26
g27
sg28
(lp333
VJohn Stockton
p334
assbag1
(g2
g3
Ntp335
Rp336
(dp337
g7
(dp338
g9
V1998-99 Black Diamond Quadruple Diamond #83 Jeff Hornacek
p339
sg11
I150
sg12
VBlack Diamond Quadruple Diamond
p340
sg14
(lp341
Vhttp://www.beckett.com/basketball/1998-99/black-diamond-quadruple-diamond/83-jeff-hornacek-3170791
p342
asg17
g18
sg19
(lp343
Vhttp://img.beckett.com/images/no-image.jpg
p344
asg22
V#83
p345
sg24
V1998-99
p346
sg26
g27
sg28
(lp347
VJeff Hornacek
p348
assbag1
(g2
g3
Ntp349
Rp350
(dp351
g7
(dp352
g9
V1998-99 Black Diamond Quadruple Diamond #84 Karl Malone
p353
sg11
I150
sg12
VBlack Diamond Quadruple Diamond
p354
sg14
(lp355
Vhttp://www.beckett.com/basketball/1998-99/black-diamond-quadruple-diamond/84-karl-malone-3170792
p356
asg17
g18
sg19
(lp357
Vhttp://img.beckett.com/images/no-image.jpg
p358
asg22
V#84
p359
sg24
V1998-99
p360
sg26
g27
sg28
(lp361
VKarl Malone
p362
assbag1
(g2
g3
Ntp363
Rp364
(dp365
g7
(dp366
g9
V1998-99 Black Diamond Quadruple Diamond #85 John Stockton
p367
sg11
I150
sg12
VBlack Diamond Quadruple Diamond
p368
sg14
(lp369
Vhttp://www.beckett.com/basketball/1998-99/black-diamond-quadruple-diamond/85-john-stockton-3170793
p370
asg17
g18
sg19
(lp371
Vhttp://img.beckett.com/images/no-image.jpg
p372
asg22
V#85
p373
sg24
V1998-99
p374
sg26
g27
sg28
(lp375
VJohn Stockton
p376
assbag1
(g2
g3
Ntp377
Rp378
(dp379
g7
(dp380
g9
V1998-99 Bowman's Best Refractors #15 Jeff Hornacek
p381
sg11
I400
sg12
VBowman's Best Refractors
p382
sg14
(lp383
Vhttp://www.beckett.com/basketball/1998-99/bowmans-best-refractors/15-jeff-hornacek-3171174
p384
asg17
g18
sg19
(lp385
Vhttp://img.beckett.com/images/items_stock/185226/3171150/3171174/front.jpg
p386
asg22
V#15
p387
sg24
V1998-99
p388
sg26
g27
sg28
(lp389
VJeff Hornacek
p390
assbag1
(g2
g3
Ntp391
Rp392
(dp393
g7
(dp394
g9
V1998-99 Bowman's Best Refractors #26 John Stockton
p395
sg11
I400
sg12
VBowman's Best Refractors
p396
sg14
(lp397
Vhttp://www.beckett.com/basketball/1998-99/bowmans-best-refractors/26-john-stockton-3171185
p398
asg17
g18
sg19
(lp399
Vhttp://img.beckett.com/images/no-image.jpg
p400
asg22
V#26
p401
sg24
V1998-99
p402
sg26
g27
sg28
(lp403
VJohn Stockton
p404
assbag1
(g2
g3
Ntp405
Rp406
(dp407
g7
(dp408
g9
V1998-99 Bowman's Best Refractors #66 Bryon Russell
p409
sg11
I400
sg12
VBowman's Best Refractors
p410
sg14
(lp411
Vhttp://www.beckett.com/basketball/1998-99/bowmans-best-refractors/66-bryon-russell-3171225
p412
asg17
g18
sg19
(lp413
Vhttp://img.beckett.com/images/items_stock/185226/3171150/3171225/front.jpg
p414
asg22
V#66
p415
sg24
V1998-99
p416
sg26
g27
sg28
(lp417
VBryon Russell
p418
assbag1
(g2
g3
Ntp419
Rp420
(dp421
g7
(dp422
g9
V1998-99 Bowman's Best Refractors #80 Karl Malone
p423
sg11
I400
sg12
VBowman's Best Refractors
p424
sg14
(lp425
Vhttp://www.beckett.com/basketball/1998-99/bowmans-best-refractors/80-karl-malone-3171239
p426
asg17
g18
sg19
(lp427
Vhttp://img.beckett.com/images/items_stock/185226/3171150/3171239/front.jpg
p428
asg22
V#80
p429
sg24
V1998-99
p430
sg26
g27
sg28
(lp431
VKarl Malone
p432
assbag1
(g2
g3
Ntp433
Rp434
(dp435
g7
(dp436
g9
V1998-99 Bowman's Best Atomic Refractors #15 Jeff Hornacek
p437
sg11
I100
sg12
VBowman's Best Atomic Refractors
p438
sg14
(lp439
Vhttp://www.beckett.com/basketball/1998-99/bowmans-best-atomic-refractors/15-jeff-hornacek-3171309
p440
asg17
g18
sg19
(lp441
Vhttp://img.beckett.com/images/no-image.jpg
p442
asg22
V#15
p443
sg24
V1998-99
p444
sg26
g27
sg28
(lp445
VJeff Hornacek
p446
assbag1
(g2
g3
Ntp447
Rp448
(dp449
g7
(dp450
g9
V1998-99 Bowman's Best Atomic Refractors #26 John Stockton
p451
sg11
I100
sg12
VBowman's Best Atomic Refractors
p452
sg14
(lp453
Vhttp://www.beckett.com/basketball/1998-99/bowmans-best-atomic-refractors/26-john-stockton-3171320
p454
asg17
g18
sg19
(lp455
Vhttp://img.beckett.com/images/no-image.jpg
p456
asg22
V#26
p457
sg24
V1998-99
p458
sg26
g27
sg28
(lp459
VJohn Stockton
p460
assbag1
(g2
g3
Ntp461
Rp462
(dp463
g7
(dp464
g9
V1998-99 Bowman's Best Atomic Refractors #66 Bryon Russell
p465
sg11
I100
sg12
VBowman's Best Atomic Refractors
p466
sg14
(lp467
Vhttp://www.beckett.com/basketball/1998-99/bowmans-best-atomic-refractors/66-bryon-russell-3171360
p468
asg17
g18
sg19
(lp469
Vhttp://img.beckett.com/images/no-image.jpg
p470
asg22
V#66
p471
sg24
V1998-99
p472
sg26
g27
sg28
(lp473
VBryon Russell
p474
assbag1
(g2
g3
Ntp475
Rp476
(dp477
g7
(dp478
g9
V1998-99 Bowman's Best Atomic Refractors #80 Karl Malone
p479
sg11
I100
sg12
VBowman's Best Atomic Refractors
p480
sg14
(lp481
Vhttp://www.beckett.com/basketball/1998-99/bowmans-best-atomic-refractors/80-karl-malone-3171374
p482
asg17
g18
sg19
(lp483
Vhttp://img.beckett.com/images/no-image.jpg
p484
asg22
V#80
p485
sg24
V1998-99
p486
sg26
g27
sg28
(lp487
VKarl Malone
p488
assbag1
(g2
g3
Ntp489
Rp490
(dp491
g7
(dp492
g9
V1998-99 Flair Showcase Row 1 #39 Karl Malone
p493
sg11
I3000
sg12
VFlair Showcase Row 1
p494
sg14
(lp495
Vhttp://www.beckett.com/basketball/1998-99/flair-showcase-row-1/39-karl-malone-3167662
p496
asg17
g18
sg19
(lp497
Vhttp://img.beckett.com/images/items_stock/185226/3167600/3167662/front.jpg
p498
asg22
V#39
p499
sg24
V1998-99
p500
sg26
g27
sg28
(lp501
VKarl Malone
p502
assbag1
(g2
g3
Ntp503
Rp504
(dp505
g7
(dp506
g9
V1998-99 Flair Showcase Row 1 #60 John Stockton
p507
sg11
I3000
sg12
VFlair Showcase Row 1
p508
sg14
(lp509
Vhttp://www.beckett.com/basketball/1998-99/flair-showcase-row-1/60-john-stockton-3167683
p510
asg17
g18
sg19
(lp511
Vhttp://img.beckett.com/images/no-image.jpg
p512
asg22
V#60
p513
sg24
V1998-99
p514
sg26
g27
sg28
(lp515
VJohn Stockton
p516
assbag1
(g2
g3
Ntp517
Rp518
(dp519
g7
(dp520
g9
V1998-99 Flair Showcase Row 1 #87 Bryon Russell
p521
sg11
I6000
sg12
VFlair Showcase Row 1
p522
sg14
(lp523
Vhttp://www.beckett.com/basketball/1998-99/flair-showcase-row-1/87-bryon-russell-3167710
p524
asg17
g18
sg19
(lp525
Vhttp://img.beckett.com/images/items_stock/185226/3167600/3167710/front.jpg
p526
asg22
V#87
p527
sg24
V1998-99
p528
sg26
g27
sg28
(lp529
VBryon Russell
p530
assbag1
(g2
g3
Ntp531
Rp532
(dp533
g7
(dp534
g9
V1998-99 Flair Showcase Legacy Collection Row 3 #39 Karl Malone
p535
sg11
I99
sg12
VFlair Showcase Legacy Collection Row 3
p536
sg14
(lp537
Vhttp://www.beckett.com/basketball/1998-99/flair-showcase-legacy-collection-row-3/39-karl-malone-3172829
p538
asg17
g18
sg19
(lp539
Vhttp://img.beckett.com/images/no-image.jpg
p540
asg22
V#39
p541
sg24
V1998-99
p542
sg26
g27
sg28
(lp543
VKarl Malone
p544
assbag1
(g2
g3
Ntp545
Rp546
(dp547
g7
(dp548
g9
V1998-99 Flair Showcase Legacy Collection Row 3 #60 John Stockton
p549
sg11
I99
sg12
VFlair Showcase Legacy Collection Row 3
p550
sg14
(lp551
Vhttp://www.beckett.com/basketball/1998-99/flair-showcase-legacy-collection-row-3/60-john-stockton-3172850
p552
asg17
g18
sg19
(lp553
Vhttp://img.beckett.com/images/no-image.jpg
p554
asg22
V#60
p555
sg24
V1998-99
p556
sg26
g27
sg28
(lp557
VJohn Stockton
p558
assbag1
(g2
g3
Ntp559
Rp560
(dp561
g7
(dp562
g9
V1998-99 Flair Showcase Legacy Collection Row 3 #87 Bryon Russell
p563
sg11
I99
sg12
VFlair Showcase Legacy Collection Row 3
p564
sg14
(lp565
Vhttp://www.beckett.com/basketball/1998-99/flair-showcase-legacy-collection-row-3/87-bryon-russell-3172877
p566
asg17
g18
sg19
(lp567
Vhttp://img.beckett.com/images/no-image.jpg
p568
asg22
V#87
p569
sg24
V1998-99
p570
sg26
g27
sg28
(lp571
VBryon Russell
p572
assbag1
(g2
g3
Ntp573
Rp574
(dp575
g7
(dp576
g9
V1998-99 Fleer Classic '61 #12 John Stockton
p577
sg11
I61
sg12
VFleer Classic '61
p578
sg14
(lp579
Vhttp://www.beckett.com/basketball/1998-99/fleer-classic-61/12-john-stockton-3168106
p580
asg17
g18
sg19
(lp581
Vhttp://img.beckett.com/images/no-image.jpg
p582
asg22
V#12
p583
sg24
V1998-99
p584
sg26
g27
sg28
(lp585
VJohn Stockton
p586
assbag1
(g2
g3
Ntp587
Rp588
(dp589
g7
(dp590
g9
V1998-99 Fleer Classic '61 #32 Karl Malone
p591
sg11
I61
sg12
VFleer Classic '61
p592
sg14
(lp593
Vhttp://www.beckett.com/basketball/1998-99/fleer-classic-61/32-karl-malone-3168126
p594
asg17
g18
sg19
(lp595
Vhttp://img.beckett.com/images/no-image.jpg
p596
asg22
V#32
p597
sg24
V1998-99
p598
sg26
g27
sg28
(lp599
VKarl Malone
p600
assbag1
(g2
g3
Ntp601
Rp602
(dp603
g7
(dp604
g9
V1998-99 Fleer Classic '61 #64 Shandon Anderson
p605
sg11
I61
sg12
VFleer Classic '61
p606
sg14
(lp607
Vhttp://www.beckett.com/basketball/1998-99/fleer-classic-61/64-shandon-anderson-3168158
p608
asg17
g18
sg19
(lp609
Vhttp://img.beckett.com/images/no-image.jpg
p610
asg22
V#64
p611
sg24
V1998-99
p612
sg26
g27
sg28
(lp613
VShandon Anderson
p614
assbag1
(g2
g3
Ntp615
Rp616
(dp617
g7
(dp618
g9
V1998-99 Fleer Classic '61 #83 Bryon Russell
p619
sg11
I61
sg12
VFleer Classic '61
p620
sg14
(lp621
Vhttp://www.beckett.com/basketball/1998-99/fleer-classic-61/83-bryon-russell-3168177
p622
asg17
g18
sg19
(lp623
Vhttp://img.beckett.com/images/no-image.jpg
p624
asg22
V#83
p625
sg24
V1998-99
p626
sg26
g27
sg28
(lp627
VBryon Russell
p628
assbag1
(g2
g3
Ntp629
Rp630
(dp631
g7
(dp632
g9
V1998-99 Fleer Classic '61 #117 Jeff Hornacek
p633
sg11
I61
sg12
VFleer Classic '61
p634
sg14
(lp635
Vhttp://www.beckett.com/basketball/1998-99/fleer-classic-61/117-jeff-hornacek-3168211
p636
asg17
g18
sg19
(lp637
Vhttp://img.beckett.com/images/no-image.jpg
p638
asg22
V#117
p639
sg24
V1998-99
p640
sg26
g27
sg28
(lp641
VJeff Hornacek
p642
assbag1
(g2
g3
Ntp643
Rp644
(dp645
g7
(dp646
g9
V1998-99 Fleer Classic '61 #118 Todd Fuller
p647
sg11
I61
sg12
VFleer Classic '61
p648
sg14
(lp649
Vhttp://www.beckett.com/basketball/1998-99/fleer-classic-61/118-todd-fuller-3168212
p650
asg17
g18
sg19
(lp651
Vhttp://img.beckett.com/images/no-image.jpg
p652
asg22
V#118
p653
sg24
V1998-99
p654
sg26
g27
sg28
(lp655
VTodd Fuller
p656
assbag1
(g2
g3
Ntp657
Rp658
(dp659
g7
(dp660
g9
V1998-99 Fleer Classic '61 #144 Karl Malone PF
p661
sg11
I61
sg12
VFleer Classic '61
p662
sg14
(lp663
Vhttp://www.beckett.com/basketball/1998-99/fleer-classic-61/144-karl-malone-pf-3168238
p664
asg17
g18
sg19
(lp665
Vhttp://img.beckett.com/images/no-image.jpg
p666
asg22
V#144
p667
sg24
V1998-99
p668
sg187
VPF
p669
sg26
g27
sg28
(lp670
VKarl Malone
p671
assbag1
(g2
g3
Ntp672
Rp673
(dp674
g7
(dp675
g9
V1998-99 Fleer Brilliants 24-Karat Gold #32 Jeff Hornacek
p676
sg11
I24
sg12
VFleer Brilliants 24-Karat Gold
p677
sg14
(lp678
Vhttp://www.beckett.com/basketball/1998-99/fleer-brilliants-24-karat-gold/32-jeff-hornacek-3168533
p679
asg17
g18
sg19
(lp680
Vhttp://img.beckett.com/images/no-image.jpg
p681
asg22
V#32
p682
sg24
V1998-99
p683
sg26
g27
sg28
(lp684
VJeff Hornacek
p685
assbag1
(g2
g3
Ntp686
Rp687
(dp688
g7
(dp689
g9
V1998-99 Fleer Brilliants 24-Karat Gold #65 Bryon Russell
p690
sg11
I24
sg12
VFleer Brilliants 24-Karat Gold
p691
sg14
(lp692
Vhttp://www.beckett.com/basketball/1998-99/fleer-brilliants-24-karat-gold/65-bryon-russell-3168566
p693
asg17
g18
sg19
(lp694
Vhttp://img.beckett.com/images/no-image.jpg
p695
asg22
V#65
p696
sg24
V1998-99
p697
sg26
g27
sg28
(lp698
VBryon Russell
p699
assbag1
(g2
g3
Ntp700
Rp701
(dp702
g7
(dp703
g9
V1998-99 Fleer Brilliants 24-Karat Gold #75 Karl Malone
p704
sg11
I24
sg12
VFleer Brilliants 24-Karat Gold
p705
sg14
(lp706
Vhttp://www.beckett.com/basketball/1998-99/fleer-brilliants-24-karat-gold/75-karl-malone-3168576
p707
asg17
g18
sg19
(lp708
Vhttp://img.beckett.com/images/no-image.jpg
p709
asg22
V#75
p710
sg24
V1998-99
p711
sg26
g27
sg28
(lp712
VKarl Malone
p713
assbag1
(g2
g3
Ntp714
Rp715
(dp716
g7
(dp717
g9
V1998-99 Fleer Brilliants 24-Karat Gold #99 John Stockton
p718
sg11
I24
sg12
VFleer Brilliants 24-Karat Gold
p719
sg14
(lp720
Vhttp://www.beckett.com/basketball/1998-99/fleer-brilliants-24-karat-gold/99-john-stockton-3168600
p721
asg17
g18
sg19
(lp722
Vhttp://img.beckett.com/images/no-image.jpg
p723
asg22
V#99
p724
sg24
V1998-99
p725
sg26
g27
sg28
(lp726
VJohn Stockton
p727
assbag1
(g2
g3
Ntp728
Rp729
(dp730
g7
(dp731
g9
V1998-99 Fleer Brilliants Gold #32 Jeff Hornacek
p732
sg11
I99
sg12
VFleer Brilliants Gold
p733
sg14
(lp734
Vhttp://www.beckett.com/basketball/1998-99/fleer-brilliants-gold/32-jeff-hornacek-3168805
p735
asg17
g18
sg19
(lp736
Vhttp://img.beckett.com/images/no-image.jpg
p737
asg22
V#32
p738
sg24
V1998-99
p739
sg26
g27
sg28
(lp740
VJeff Hornacek
p741
assbag1
(g2
g3
Ntp742
Rp743
(dp744
g7
(dp745
g9
V1998-99 Fleer Brilliants Gold #65 Bryon Russell
p746
sg11
I99
sg12
VFleer Brilliants Gold
p747
sg14
(lp748
Vhttp://www.beckett.com/basketball/1998-99/fleer-brilliants-gold/65-bryon-russell-3168838
p749
asg17
g18
sg19
(lp750
Vhttp://img.beckett.com/images/no-image.jpg
p751
asg22
V#65
p752
sg24
V1998-99
p753
sg26
g27
sg28
(lp754
VBryon Russell
p755
assbag1
(g2
g3
Ntp756
Rp757
(dp758
g7
(dp759
g9
V1998-99 Fleer Brilliants Gold #75 Karl Malone
p760
sg11
I99
sg12
VFleer Brilliants Gold
p761
sg14
(lp762
Vhttp://www.beckett.com/basketball/1998-99/fleer-brilliants-gold/75-karl-malone-3168848
p763
asg17
g18
sg19
(lp764
Vhttp://img.beckett.com/images/no-image.jpg
p765
asg22
V#75
p766
sg24
V1998-99
p767
sg26
g27
sg28
(lp768
VKarl Malone
p769
assbag1
(g2
g3
Ntp770
Rp771
(dp772
g7
(dp773
g9
V1998-99 Fleer Brilliants Gold #99 John Stockton
p774
sg11
I99
sg12
VFleer Brilliants Gold
p775
sg14
(lp776
Vhttp://www.beckett.com/basketball/1998-99/fleer-brilliants-gold/99-john-stockton-3168872
p777
asg17
g18
sg19
(lp778
Vhttp://img.beckett.com/images/no-image.jpg
p779
asg22
V#99
p780
sg24
V1998-99
p781
sg26
g27
sg28
(lp782
VJohn Stockton
p783
assbag1
(g2
g3
Ntp784
Rp785
(dp786
g7
(dp787
g9
V1998-99 Hoops Starting Five #9 John Stockton
p788
sg11
I5
sg12
VHoops Starting Five
p789
sg14
(lp790
Vhttp://www.beckett.com/basketball/1998-99/hoops-starting-five/9-john-stockton-3166515
p791
asg17
g18
sg19
(lp792
Vhttp://img.beckett.com/images/no-image.jpg
p793
asg22
V#9
p794
sg24
V1998-99
p795
sg26
g27
sg28
(lp796
VJohn Stockton
p797
assbag1
(g2
g3
Ntp798
Rp799
(dp800
g7
(dp801
g9
V1998-99 Hoops Starting Five #26 Jacque Vaughn
p802
sg11
I5
sg12
VHoops Starting Five
p803
sg14
(lp804
Vhttp://www.beckett.com/basketball/1998-99/hoops-starting-five/26-jacque-vaughn-3166532
p805
asg17
g18
sg19
(lp806
Vhttp://img.beckett.com/images/no-image.jpg
p807
asg22
V#26
p808
sg24
V1998-99
p809
sg26
g27
sg28
(lp810
VJacque Vaughn
p811
assbag1
(g2
g3
Ntp812
Rp813
(dp814
g7
(dp815
g9
V1998-99 Hoops Starting Five #31 Jeff Hornacek
p816
sg11
I5
sg12
VHoops Starting Five
p817
sg14
(lp818
Vhttp://www.beckett.com/basketball/1998-99/hoops-starting-five/31-jeff-hornacek-3166537
p819
asg17
g18
sg19
(lp820
Vhttp://img.beckett.com/images/no-image.jpg
p821
asg22
V#31
p822
sg24
V1998-99
p823
sg26
g27
sg28
(lp824
VJeff Hornacek
p825
assbag1
(g2
g3
Ntp826
Rp827
(dp828
g7
(dp829
g9
V1998-99 Hoops Starting Five #60 Karl Malone
p830
sg11
I5
sg12
VHoops Starting Five
p831
sg14
(lp832
Vhttp://www.beckett.com/basketball/1998-99/hoops-starting-five/60-karl-malone-3166566
p833
asg17
g18
sg19
(lp834
Vhttp://img.beckett.com/images/no-image.jpg
p835
asg22
V#60
p836
sg24
V1998-99
p837
sg26
g27
sg28
(lp838
VKarl Malone
p839
assbag1
(g2
g3
Ntp840
Rp841
(dp842
g7
(dp843
g9
V1998-99 Hoops Starting Five #61 Greg Ostertag
p844
sg11
I5
sg12
VHoops Starting Five
p845
sg14
(lp846
Vhttp://www.beckett.com/basketball/1998-99/hoops-starting-five/61-greg-ostertag-3166567
p847
asg17
g18
sg19
(lp848
Vhttp://img.beckett.com/images/no-image.jpg
p849
asg22
V#61
p850
sg24
V1998-99
p851
sg26
g27
sg28
(lp852
VGreg Ostertag
p853
assbag1
(g2
g3
Ntp854
Rp855
(dp856
g7
(dp857
g9
V1998-99 Hoops Starting Five #64 Howard Eisley
p858
sg11
I5
sg12
VHoops Starting Five
p859
sg14
(lp860
Vhttp://www.beckett.com/basketball/1998-99/hoops-starting-five/64-howard-eisley-3166570
p861
asg17
g18
sg19
(lp862
Vhttp://img.beckett.com/images/no-image.jpg
p863
asg22
V#64
p864
sg24
V1998-99
p865
sg26
g27
sg28
(lp866
VHoward Eisley
p867
assbag1
(g2
g3
Ntp868
Rp869
(dp870
g7
(dp871
g9
V1998-99 Metal Universe Precious Metal Gems #45 John Stockton
p872
sg11
I50
sg12
VMetal Universe Precious Metal Gems
p873
sg14
(lp874
Vhttp://www.beckett.com/basketball/1998-99/metal-universe-precious-metal-gems/45-john-stockton-3166988
p875
asg17
g18
sg19
(lp876
Vhttp://img.beckett.com/images/no-image.jpg
p877
asg22
V#45
p878
sg24
V1998-99
p879
sg26
g27
sg28
(lp880
VJohn Stockton
p881
assbag1
(g2
g3
Ntp882
Rp883
(dp884
g7
(dp885
g9
V1998-99 Metal Universe Precious Metal Gems #60 Shandon Anderson
p886
sg11
I50
sg12
VMetal Universe Precious Metal Gems
p887
sg14
(lp888
Vhttp://www.beckett.com/basketball/1998-99/metal-universe-precious-metal-gems/60-shandon-anderson-3167003
p889
asg17
g18
sg19
(lp890
Vhttp://img.beckett.com/images/no-image.jpg
p891
asg22
V#60
p892
sg24
V1998-99
p893
sg26
g27
sg28
(lp894
VShandon Anderson
p895
assbag1
(g2
g3
Ntp896
Rp897
(dp898
g7
(dp899
g9
V1998-99 Metal Universe Precious Metal Gems #61 Jeff Hornacek
p900
sg11
I50
sg12
VMetal Universe Precious Metal Gems
p901
sg14
(lp902
Vhttp://www.beckett.com/basketball/1998-99/metal-universe-precious-metal-gems/61-jeff-hornacek-3167004
p903
asg17
g18
sg19
(lp904
Vhttp://img.beckett.com/images/no-image.jpg
p905
asg22
V#61
p906
sg24
V1998-99
p907
sg26
g27
sg28
(lp908
VJeff Hornacek
p909
assbag1
(g2
g3
Ntp910
Rp911
(dp912
g7
(dp913
g9
V1998-99 Metal Universe Precious Metal Gems #70 Bryon Russell
p914
sg11
I50
sg12
VMetal Universe Precious Metal Gems
p915
sg14
(lp916
Vhttp://www.beckett.com/basketball/1998-99/metal-universe-precious-metal-gems/70-bryon-russell-3167013
p917
asg17
g18
sg19
(lp918
Vhttp://img.beckett.com/images/no-image.jpg
p919
asg22
V#70
p920
sg24
V1998-99
p921
sg26
g27
sg28
(lp922
VBryon Russell
p923
assbag1
(g2
g3
Ntp924
Rp925
(dp926
g7
(dp927
g9
V1998-99 Metal Universe Precious Metal Gems #75 Karl Malone
p928
sg11
I50
sg12
VMetal Universe Precious Metal Gems
p929
sg14
(lp930
Vhttp://www.beckett.com/basketball/1998-99/metal-universe-precious-metal-gems/75-karl-malone-3167018
p931
asg17
g18
sg19
(lp932
Vhttp://img.beckett.com/images/no-image.jpg
p933
asg22
V#75
p934
sg24
V1998-99
p935
sg26
g27
sg28
(lp936
VKarl Malone
p937
assbag1
(g2
g3
Ntp938
Rp939
(dp940
g7
(dp941
g9
V1998-99 Metal Universe Gem Masters #45 John Stockton
p942
sg11
I1
sg12
VMetal Universe Gem Masters
p943
sg14
(lp944
Vhttp://www.beckett.com/basketball/1998-99/metal-universe-gem-masters/45-john-stockton-3166857
p945
asg17
g18
sg19
(lp946
Vhttp://img.beckett.com/images/no-image.jpg
p947
asg22
V#45
p948
sg24
V1998-99
p949
sg26
g27
sg28
(lp950
VJohn Stockton
p951
assbag1
(g2
g3
Ntp952
Rp953
(dp954
g7
(dp955
g9
V1998-99 Metal Universe Gem Masters #60 Shandon Anderson
p956
sg11
I1
sg12
VMetal Universe Gem Masters
p957
sg14
(lp958
Vhttp://www.beckett.com/basketball/1998-99/metal-universe-gem-masters/60-shandon-anderson-3166872
p959
asg17
g18
sg19
(lp960
Vhttp://img.beckett.com/images/no-image.jpg
p961
asg22
V#60
p962
sg24
V1998-99
p963
sg26
g27
sg28
(lp964
VShandon Anderson
p965
assbag1
(g2
g3
Ntp966
Rp967
(dp968
g7
(dp969
g9
V1998-99 Metal Universe Gem Masters #61 Jeff Hornacek
p970
sg11
I1
sg12
VMetal Universe Gem Masters
p971
sg14
(lp972
Vhttp://www.beckett.com/basketball/1998-99/metal-universe-gem-masters/61-jeff-hornacek-3166873
p973
asg17
g18
sg19
(lp974
Vhttp://img.beckett.com/images/no-image.jpg
p975
asg22
V#61
p976
sg24
V1998-99
p977
sg26
g27
sg28
(lp978
VJeff Hornacek
p979
assbag1
(g2
g3
Ntp980
Rp981
(dp982
g7
(dp983
g9
V1998-99 Metal Universe Gem Masters #70 Bryon Russell
p984
sg11
I1
sg12
VMetal Universe Gem Masters
p985
sg14
(lp986
Vhttp://www.beckett.com/basketball/1998-99/metal-universe-gem-masters/70-bryon-russell-3166882
p987
asg17
g18
sg19
(lp988
Vhttp://img.beckett.com/images/no-image.jpg
p989
asg22
V#70
p990
sg24
V1998-99
p991
sg26
g27
sg28
(lp992
VBryon Russell
p993
assbag1
(g2
g3
Ntp994
Rp995
(dp996
g7
(dp997
g9
V1998-99 Metal Universe Gem Masters #75 Karl Malone
p998
sg11
I1
sg12
VMetal Universe Gem Masters
p999
sg14
(lp1000
Vhttp://www.beckett.com/basketball/1998-99/metal-universe-gem-masters/75-karl-malone-3166887
p1001
asg17
g18
sg19
(lp1002
Vhttp://img.beckett.com/images/no-image.jpg
p1003
asg22
V#75
p1004
sg24
V1998-99
p1005
sg26
g27
sg28
(lp1006
VKarl Malone
p1007
assbag1
(g2
g3
Ntp1008
Rp1009
(dp1010
g7
(dp1011
g9
V1998-99 SkyBox Premium Star Rubies #12 Shandon Anderson
p1012
sg11
I50
sg12
VSkyBox Premium Star Rubies
p1013
sg14
(lp1014
Vhttp://www.beckett.com/basketball/1998-99/skybox-premium-star-rubies/12-shandon-anderson-3165117
p1015
asg17
g18
sg19
(lp1016
Vhttp://img.beckett.com/images/no-image.jpg
p1017
asg22
V#12
p1018
sg24
V1998-99
p1019
sg26
g27
sg28
(lp1020
VShandon Anderson
p1021
assbag1
(g2
g3
Ntp1022
Rp1023
(dp1024
g7
(dp1025
g9
V1998-99 SkyBox Premium Star Rubies #37 John Stockton
p1026
sg11
I50
sg12
VSkyBox Premium Star Rubies
p1027
sg14
(lp1028
Vhttp://www.beckett.com/basketball/1998-99/skybox-premium-star-rubies/37-john-stockton-3165142
p1029
asg17
g18
sg19
(lp1030
Vhttp://img.beckett.com/images/no-image.jpg
p1031
asg22
V#37
p1032
sg24
V1998-99
p1033
sg26
g27
sg28
(lp1034
VJohn Stockton
p1035
assbag1
(g2
g3
Ntp1036
Rp1037
(dp1038
g7
(dp1039
g9
V1998-99 SkyBox Premium Star Rubies #49 Jeff Hornacek
p1040
sg11
I50
sg12
VSkyBox Premium Star Rubies
p1041
sg14
(lp1042
Vhttp://www.beckett.com/basketball/1998-99/skybox-premium-star-rubies/49-jeff-hornacek-3165154
p1043
asg17
g18
sg19
(lp1044
Vhttp://img.beckett.com/images/no-image.jpg
p1045
asg22
V#49
p1046
sg24
V1998-99
p1047
sg26
g27
sg28
(lp1048
VJeff Hornacek
p1049
assbag1
(g2
g3
Ntp1050
Rp1051
(dp1052
g7
(dp1053
g9
V1998-99 SkyBox Premium Star Rubies #57 Bryon Russell
p1054
sg11
I50
sg12
VSkyBox Premium Star Rubies
p1055
sg14
(lp1056
Vhttp://www.beckett.com/basketball/1998-99/skybox-premium-star-rubies/57-bryon-russell-3165162
p1057
asg17
g18
sg19
(lp1058
Vhttp://img.beckett.com/images/no-image.jpg
p1059
asg22
V#57
p1060
sg24
V1998-99
p1061
sg26
g27
sg28
(lp1062
VBryon Russell
p1063
assbag1
(g2
g3
Ntp1064
Rp1065
(dp1066
g7
(dp1067
g9
V1998-99 SkyBox Premium Star Rubies #62 Karl Malone
p1068
sg11
I50
sg12
VSkyBox Premium Star Rubies
p1069
sg14
(lp1070
Vhttp://www.beckett.com/basketball/1998-99/skybox-premium-star-rubies/62-karl-malone-3165167
p1071
asg17
g18
sg19
(lp1072
Vhttp://img.beckett.com/images/no-image.jpg
p1073
asg22
V#62
p1074
sg24
V1998-99
p1075
sg26
g27
sg28
(lp1076
VKarl Malone
p1077
assbag1
(g2
g3
Ntp1078
Rp1079
(dp1080
g7
(dp1081
g9
V1998-99 SkyBox Premium Star Rubies #144 Todd Fuller
p1082
sg11
I50
sg12
VSkyBox Premium Star Rubies
p1083
sg14
(lp1084
Vhttp://www.beckett.com/basketball/1998-99/skybox-premium-star-rubies/144-todd-fuller-3165249
p1085
asg17
g18
sg19
(lp1086
Vhttp://img.beckett.com/images/no-image.jpg
p1087
asg22
V#144
p1088
sg24
V1998-99
p1089
sg26
g27
sg28
(lp1090
VTodd Fuller
p1091
assbag1
(g2
g3
Ntp1092
Rp1093
(dp1094
g7
(dp1095
g9
V1998-99 SkyBox Premium Star Rubies #159 Adam Keefe
p1096
sg11
I50
sg12
VSkyBox Premium Star Rubies
p1097
sg14
(lp1098
Vhttp://www.beckett.com/basketball/1998-99/skybox-premium-star-rubies/159-adam-keefe-3165264
p1099
asg17
g18
sg19
(lp1100
Vhttp://img.beckett.com/images/no-image.jpg
p1101
asg22
V#159
p1102
sg24
V1998-99
p1103
sg26
g27
sg28
(lp1104
VAdam Keefe
p1105
assbag1
(g2
g3
Ntp1106
Rp1107
(dp1108
g7
(dp1109
g9
V1998-99 SkyBox Premium Star Rubies #162 Greg Ostertag
p1110
sg11
I50
sg12
VSkyBox Premium Star Rubies
p1111
sg14
(lp1112
Vhttp://www.beckett.com/basketball/1998-99/skybox-premium-star-rubies/162-greg-ostertag-3165267
p1113
asg17
g18
sg19
(lp1114
Vhttp://img.beckett.com/images/no-image.jpg
p1115
asg22
V#162
p1116
sg24
V1998-99
p1117
sg26
g27
sg28
(lp1118
VGreg Ostertag
p1119
assbag1
(g2
g3
Ntp1120
Rp1121
(dp1122
g7
(dp1123
g9
V1998-99 SkyBox Premium Star Rubies #181 Howard Eisley
p1124
sg11
I50
sg12
VSkyBox Premium Star Rubies
p1125
sg14
(lp1126
Vhttp://www.beckett.com/basketball/1998-99/skybox-premium-star-rubies/181-howard-eisley-3165286
p1127
asg17
g18
sg19
(lp1128
Vhttp://img.beckett.com/images/no-image.jpg
p1129
asg22
V#181
p1130
sg24
V1998-99
p1131
sg26
g27
sg28
(lp1132
VHoward Eisley
p1133
assbag1
(g2
g3
Ntp1134
Rp1135
(dp1136
g7
(dp1137
g9
V1998-99 SkyBox Premium Star Rubies #214 Karl Malone NF
p1138
sg11
I50
sg12
VSkyBox Premium Star Rubies
p1139
sg14
(lp1140
Vhttp://www.beckett.com/basketball/1998-99/skybox-premium-star-rubies/214-karl-malone-nf-3165319
p1141
asg17
g18
sg19
(lp1142
Vhttp://img.beckett.com/images/no-image.jpg
p1143
asg22
V#214
p1144
sg24
V1998-99
p1145
sg187
VNF
p1146
sg26
g27
sg28
(lp1147
VKarl Malone
p1148
assbag1
(g2
g3
Ntp1149
Rp1150
(dp1151
g7
(dp1152
g9
V1998-99 SkyBox Thunder Rave #24 Todd Fuller
p1153
sg11
I150
sg12
VSkyBox Thunder Rave
p1154
sg14
(lp1155
Vhttp://www.beckett.com/basketball/1998-99/skybox-thunder-rave/24-todd-fuller-3166062
p1156
asg17
g18
sg19
(lp1157
Vhttp://img.beckett.com/images/no-image.jpg
p1158
asg22
V#24
p1159
sg24
V1998-99
p1160
sg26
g27
sg28
(lp1161
VTodd Fuller
p1162
assbag1
(g2
g3
Ntp1163
Rp1164
(dp1165
g7
(dp1166
g9
V1998-99 SkyBox Thunder Rave #25 Jeff Hornacek
p1167
sg11
I150
sg12
VSkyBox Thunder Rave
p1168
sg14
(lp1169
Vhttp://www.beckett.com/basketball/1998-99/skybox-thunder-rave/25-jeff-hornacek-3166063
p1170
asg17
g18
sg19
(lp1171
Vhttp://img.beckett.com/images/no-image.jpg
p1172
asg22
V#25
p1173
sg24
V1998-99
p1174
sg26
g27
sg28
(lp1175
VJeff Hornacek
p1176
assbag1
(g2
g3
Ntp1177
Rp1178
(dp1179
g7
(dp1180
g9
V1998-99 SkyBox Thunder Rave #52 Bryon Russell
p1181
sg11
I150
sg12
VSkyBox Thunder Rave
p1182
sg14
(lp1183
Vhttp://www.beckett.com/basketball/1998-99/skybox-thunder-rave/52-bryon-russell-3166090
p1184
asg17
g18
sg19
(lp1185
Vhttp://img.beckett.com/images/no-image.jpg
p1186
asg22
V#52
p1187
sg24
V1998-99
p1188
sg26
g27
sg28
(lp1189
VBryon Russell
p1190
assbag1
(g2
g3
Ntp1191
Rp1192
(dp1193
g7
(dp1194
g9
V1998-99 SkyBox Thunder Rave #70 Shandon Anderson
p1195
sg11
I150
sg12
VSkyBox Thunder Rave
p1196
sg14
(lp1197
Vhttp://www.beckett.com/basketball/1998-99/skybox-thunder-rave/70-shandon-anderson-3166108
p1198
asg17
g18
sg19
(lp1199
Vhttp://img.beckett.com/images/no-image.jpg
p1200
asg22
V#70
p1201
sg24
V1998-99
p1202
sg26
g27
sg28
(lp1203
VShandon Anderson
p1204
assbag1
(g2
g3
Ntp1205
Rp1206
(dp1207
g7
(dp1208
g9
V1998-99 SkyBox Thunder Rave #109 Karl Malone
p1209
sg11
I150
sg12
VSkyBox Thunder Rave
p1210
sg14
(lp1211
Vhttp://www.beckett.com/basketball/1998-99/skybox-thunder-rave/109-karl-malone-3166147
p1212
asg17
g18
sg19
(lp1213
Vhttp://img.beckett.com/images/no-image.jpg
p1214
asg22
V#109
p1215
sg24
V1998-99
p1216
sg26
g27
sg28
(lp1217
VKarl Malone
p1218
assbag1
(g2
g3
Ntp1219
Rp1220
(dp1221
g7
(dp1222
g9
V1998-99 SkyBox Thunder Rave #123 John Stockton
p1223
sg11
I150
sg12
VSkyBox Thunder Rave
p1224
sg14
(lp1225
Vhttp://www.beckett.com/basketball/1998-99/skybox-thunder-rave/123-john-stockton-3166161
p1226
asg17
g18
sg19
(lp1227
Vhttp://img.beckett.com/images/no-image.jpg
p1228
asg22
V#123
p1229
sg24
V1998-99
p1230
sg26
g27
sg28
(lp1231
VJohn Stockton
p1232
assbag1
(g2
g3
Ntp1233
Rp1234
(dp1235
g7
(dp1236
g9
V1998-99 SkyBox Thunder Super Rave #24 Todd Fuller
p1237
sg11
I25
sg12
VSkyBox Thunder Super Rave
p1238
sg14
(lp1239
Vhttp://www.beckett.com/basketball/1998-99/skybox-thunder-super-rave/24-todd-fuller-3162714
p1240
asg17
g18
sg19
(lp1241
Vhttp://img.beckett.com/images/no-image.jpg
p1242
asg22
V#24
p1243
sg24
V1998-99
p1244
sg26
g27
sg28
(lp1245
VTodd Fuller
p1246
assbag1
(g2
g3
Ntp1247
Rp1248
(dp1249
g7
(dp1250
g9
V1998-99 SkyBox Thunder Super Rave #25 Jeff Hornacek
p1251
sg11
I25
sg12
VSkyBox Thunder Super Rave
p1252
sg14
(lp1253
Vhttp://www.beckett.com/basketball/1998-99/skybox-thunder-super-rave/25-jeff-hornacek-3162715
p1254
asg17
g18
sg19
(lp1255
Vhttp://img.beckett.com/images/no-image.jpg
p1256
asg22
V#25
p1257
sg24
V1998-99
p1258
sg26
g27
sg28
(lp1259
VJeff Hornacek
p1260
assbag1
(g2
g3
Ntp1261
Rp1262
(dp1263
g7
(dp1264
g9
V1998-99 SkyBox Thunder Super Rave #52 Bryon Russell
p1265
sg11
I25
sg12
VSkyBox Thunder Super Rave
p1266
sg14
(lp1267
Vhttp://www.beckett.com/basketball/1998-99/skybox-thunder-super-rave/52-bryon-russell-3162742
p1268
asg17
g18
sg19
(lp1269
Vhttp://img.beckett.com/images/no-image.jpg
p1270
asg22
V#52
p1271
sg24
V1998-99
p1272
sg26
g27
sg28
(lp1273
VBryon Russell
p1274
assbag1
(g2
g3
Ntp1275
Rp1276
(dp1277
g7
(dp1278
g9
V1998-99 SkyBox Thunder Super Rave #70 Shandon Anderson
p1279
sg11
I25
sg12
VSkyBox Thunder Super Rave
p1280
sg14
(lp1281
Vhttp://www.beckett.com/basketball/1998-99/skybox-thunder-super-rave/70-shandon-anderson-3162760
p1282
asg17
g18
sg19
(lp1283
Vhttp://img.beckett.com/images/no-image.jpg
p1284
asg22
V#70
p1285
sg24
V1998-99
p1286
sg26
g27
sg28
(lp1287
VShandon Anderson
p1288
assbag1
(g2
g3
Ntp1289
Rp1290
(dp1291
g7
(dp1292
g9
V1998-99 SkyBox Thunder Super Rave #109 Karl Malone
p1293
sg11
I25
sg12
VSkyBox Thunder Super Rave
p1294
sg14
(lp1295
Vhttp://www.beckett.com/basketball/1998-99/skybox-thunder-super-rave/109-karl-malone-3162799
p1296
asg17
g18
sg19
(lp1297
Vhttp://img.beckett.com/images/no-image.jpg
p1298
asg22
V#109
p1299
sg24
V1998-99
p1300
sg26
g27
sg28
(lp1301
VKarl Malone
p1302
assbag1
(g2
g3
Ntp1303
Rp1304
(dp1305
g7
(dp1306
g9
V1998-99 SkyBox Thunder Super Rave #123 John Stockton
p1307
sg11
I25
sg12
VSkyBox Thunder Super Rave
p1308
sg14
(lp1309
Vhttp://www.beckett.com/basketball/1998-99/skybox-thunder-super-rave/123-john-stockton-3162813
p1310
asg17
g18
sg19
(lp1311
Vhttp://img.beckett.com/images/no-image.jpg
p1312
asg22
V#123
p1313
sg24
V1998-99
p1314
sg26
g27
sg28
(lp1315
VJohn Stockton
p1316
assbag1
(g2
g3
Ntp1317
Rp1318
(dp1319
g7
(dp1320
g9
V1998-99 SPx Finite Extreme #30 Jeff Hornacek
p1321
sg11
I1
sg12
VSPx Finite Extreme
p1322
sg14
(lp1323
Vhttp://www.beckett.com/basketball/1998-99/spx-finite-extreme/30-jeff-hornacek-3163552
p1324
asg17
g18
sg19
(lp1325
Vhttp://img.beckett.com/images/no-image.jpg
p1326
asg22
V#30
p1327
sg24
V1998-99
p1328
sg26
g27
sg28
(lp1329
VJeff Hornacek
p1330
assbag1
(g2
g3
Ntp1331
Rp1332
(dp1333
g7
(dp1334
g9
V1998-99 SPx Finite Extreme #45 John Stockton
p1335
sg11
I1
sg12
VSPx Finite Extreme
p1336
sg14
(lp1337
Vhttp://www.beckett.com/basketball/1998-99/spx-finite-extreme/45-john-stockton-3163567
p1338
asg17
g18
sg19
(lp1339
Vhttp://img.beckett.com/images/no-image.jpg
p1340
asg22
V#45
p1341
sg24
V1998-99
p1342
sg26
g27
sg28
(lp1343
VJohn Stockton
p1344
assbag1
(g2
g3
Ntp1345
Rp1346
(dp1347
g7
(dp1348
g9
V1998-99 SPx Finite Extreme #81 Karl Malone
p1349
sg11
I1
sg12
VSPx Finite Extreme
p1350
sg14
(lp1351
Vhttp://www.beckett.com/basketball/1998-99/spx-finite-extreme/81-karl-malone-3163603
p1352
asg17
g18
sg19
(lp1353
Vhttp://img.beckett.com/images/no-image.jpg
p1354
asg22
V#81
p1355
sg24
V1998-99
p1356
sg26
g27
sg28
(lp1357
VKarl Malone
p1358
assbag1
(g2
g3
Ntp1359
Rp1360
(dp1361
g7
(dp1362
g9
V1998-99 SPx Finite Radiance #30 Jeff Hornacek
p1363
sg11
I5000
sg12
VSPx Finite Radiance
p1364
sg14
(lp1365
Vhttp://www.beckett.com/basketball/1998-99/spx-finite-radiance/30-jeff-hornacek-3163680
p1366
asg17
g18
sg19
(lp1367
Vhttp://img.beckett.com/images/items_stock/185226/3163613/3163680/front.jpg
p1368
asg22
V#30
p1369
sg24
V1998-99
p1370
sg26
g27
sg28
(lp1371
VJeff Hornacek
p1372
assbag1
(g2
g3
Ntp1373
Rp1374
(dp1375
g7
(dp1376
g9
V1998-99 SPx Finite Radiance #45 John Stockton
p1377
sg11
I5000
sg12
VSPx Finite Radiance
p1378
sg14
(lp1379
Vhttp://www.beckett.com/basketball/1998-99/spx-finite-radiance/45-john-stockton-3163695
p1380
asg17
g18
sg19
(lp1381
Vhttp://img.beckett.com/images/no-image.jpg
p1382
asg22
V#45
p1383
sg24
V1998-99
p1384
sg26
g27
sg28
(lp1385
VJohn Stockton
p1386
assbag1
(g2
g3
Ntp1387
Rp1388
(dp1389
g7
(dp1390
g9
V1998-99 SPx Finite Radiance #81 Karl Malone
p1391
sg11
I5000
sg12
VSPx Finite Radiance
p1392
sg14
(lp1393
Vhttp://www.beckett.com/basketball/1998-99/spx-finite-radiance/81-karl-malone-3163731
p1394
asg17
g18
sg19
(lp1395
Vhttp://img.beckett.com/images/items_stock/185226/3163613/3163731/front.jpg
p1396
asg22
V#81
p1397
sg24
V1998-99
p1398
sg26
g27
sg28
(lp1399
VKarl Malone
p1400
assbag1
(g2
g3
Ntp1401
Rp1402
(dp1403
g7
(dp1404
g9
V1998-99 SPx Finite Radiance #110 John Stockton SP
p1405
sg11
I2700
sg12
VSPx Finite Radiance
p1406
sg14
(lp1407
Vhttp://www.beckett.com/basketball/1998-99/spx-finite-radiance/110-john-stockton-sp-3163760
p1408
asg17
g18
sg19
(lp1409
Vhttp://img.beckett.com/images/items_stock/185226/3163613/3163760/front_old.jpg
p1410
asg22
V#110
p1411
sg24
V1998-99
p1412
sg187
VSP
p1413
sg26
g27
sg28
(lp1414
VJohn Stockton
p1415
assbag1
(g2
g3
Ntp1416
Rp1417
(dp1418
g7
(dp1419
g9
V1998-99 SPx Finite Radiance #142 Karl Malone SP
p1420
sg11
I2700
sg12
VSPx Finite Radiance
p1421
sg14
(lp1422
Vhttp://www.beckett.com/basketball/1998-99/spx-finite-radiance/142-karl-malone-sp-3163792
p1423
asg17
g18
sg19
(lp1424
Vhttp://img.beckett.com/images/items_stock/185226/3163613/3163792/front.jpg
p1425
asg22
V#142
p1426
sg24
V1998-99
p1427
sg187
VSP
p1428
sg26
g27
sg28
(lp1429
VKarl Malone
p1430
assbag1
(g2
g3
Ntp1431
Rp1432
(dp1433
g7
(dp1434
g9
V1998-99 SPx Finite Radiance #180 Bryon Russell SPx
p1435
sg11
I2025
sg12
VSPx Finite Radiance
p1436
sg14
(lp1437
Vhttp://www.beckett.com/basketball/1998-99/spx-finite-radiance/180-bryon-russell-spx-3163830
p1438
asg17
g18
sg19
(lp1439
Vhttp://img.beckett.com/images/items_stock/185226/3163613/3163830/front.jpg
p1440
asg22
V#180
p1441
sg24
V1998-99
p1442
sg187
VSPx
p1443
sg26
g27
sg28
(lp1444
VBryon Russell
p1445
assbag1
(g2
g3
Ntp1446
Rp1447
(dp1448
g7
(dp1449
g9
V1998-99 SPx Finite Radiance #202 Karl Malone FE
p1450
sg11
I590
sg12
VSPx Finite Radiance
p1451
sg14
(lp1452
Vhttp://www.beckett.com/basketball/1998-99/spx-finite-radiance/202-karl-malone-fe-3163852
p1453
asg17
g18
sg19
(lp1454
Vhttp://img.beckett.com/images/items_stock/185226/3163613/3163852/front.jpg
p1455
asg22
V#202
p1456
sg24
V1998-99
p1457
sg187
VFE
p1458
sg26
g27
sg28
(lp1459
VKarl Malone
p1460
assbag1
(g2
g3
Ntp1461
Rp1462
(dp1463
g7
(dp1464
g9
V1998-99 SPx Finite Radiance #206 John Stockton FE
p1465
sg11
I590
sg12
VSPx Finite Radiance
p1466
sg14
(lp1467
Vhttp://www.beckett.com/basketball/1998-99/spx-finite-radiance/206-john-stockton-fe-3163856
p1468
asg17
g18
sg19
(lp1469
Vhttp://img.beckett.com/images/no-image.jpg
p1470
asg22
V#206
p1471
sg24
V1998-99
p1472
sg187
VFE
p1473
sg26
g27
sg28
(lp1474
VJohn Stockton
p1475
assbag1
(g2
g3
Ntp1476
Rp1477
(dp1478
g7
(dp1479
g9
V1998-99 SPx Finite Spectrum #30 Jeff Hornacek
p1480
sg11
I350
sg12
VSPx Finite Spectrum
p1481
sg14
(lp1482
Vhttp://www.beckett.com/basketball/1998-99/spx-finite-spectrum/30-jeff-hornacek-3163958
p1483
asg17
g18
sg19
(lp1484
Vhttp://img.beckett.com/images/items_stock/185226/3163891/3163958/front.jpg
p1485
asg22
V#30
p1486
sg24
V1998-99
p1487
sg26
g27
sg28
(lp1488
VJeff Hornacek
p1489
assbag1
(g2
g3
Ntp1490
Rp1491
(dp1492
g7
(dp1493
g9
V1998-99 SPx Finite Spectrum #45 John Stockton
p1494
sg11
I350
sg12
VSPx Finite Spectrum
p1495
sg14
(lp1496
Vhttp://www.beckett.com/basketball/1998-99/spx-finite-spectrum/45-john-stockton-3163973
p1497
asg17
g18
sg19
(lp1498
Vhttp://img.beckett.com/images/items_stock/185226/3163891/3163973/front.jpg
p1499
asg22
V#45
p1500
sg24
V1998-99
p1501
sg26
g27
sg28
(lp1502
VJohn Stockton
p1503
assbag1
(g2
g3
Ntp1504
Rp1505
(dp1506
g7
(dp1507
g9
V1998-99 SPx Finite Spectrum #81 Karl Malone
p1508
sg11
I350
sg12
VSPx Finite Spectrum
p1509
sg14
(lp1510
Vhttp://www.beckett.com/basketball/1998-99/spx-finite-spectrum/81-karl-malone-3164009
p1511
asg17
g18
sg19
(lp1512
Vhttp://img.beckett.com/images/no-image.jpg
p1513
asg22
V#81
p1514
sg24
V1998-99
p1515
sg26
g27
sg28
(lp1516
VKarl Malone
p1517
assbag1
(g2
g3
Ntp1518
Rp1519
(dp1520
g7
(dp1521
g9
V1998-99 SPx Finite Spectrum #110 John Stockton SP
p1522
sg11
I250
sg12
VSPx Finite Spectrum
p1523
sg14
(lp1524
Vhttp://www.beckett.com/basketball/1998-99/spx-finite-spectrum/110-john-stockton-sp-3164038
p1525
asg17
g18
sg19
(lp1526
Vhttp://img.beckett.com/images/items_stock/185226/3163891/3164038/front.jpg
p1527
asg22
V#110
p1528
sg24
V1998-99
p1529
sg187
VSP
p1530
sg26
g27
sg28
(lp1531
VJohn Stockton
p1532
assbag1
(g2
g3
Ntp1533
Rp1534
(dp1535
g7
(dp1536
g9
V1998-99 SPx Finite Spectrum #142 Karl Malone SP
p1537
sg11
I250
sg12
VSPx Finite Spectrum
p1538
sg14
(lp1539
Vhttp://www.beckett.com/basketball/1998-99/spx-finite-spectrum/142-karl-malone-sp-3164070
p1540
asg17
g18
sg19
(lp1541
Vhttp://img.beckett.com/images/no-image.jpg
p1542
asg22
V#142
p1543
sg24
V1998-99
p1544
sg187
VSP
p1545
sg26
g27
sg28
(lp1546
VKarl Malone
p1547
assbag1
(g2
g3
Ntp1548
Rp1549
(dp1550
g7
(dp1551
g9
V1998-99 SPx Finite Spectrum #180 Bryon Russell SPx
p1552
sg11
I75
sg12
VSPx Finite Spectrum
p1553
sg14
(lp1554
Vhttp://www.beckett.com/basketball/1998-99/spx-finite-spectrum/180-bryon-russell-spx-3164108
p1555
asg17
g18
sg19
(lp1556
Vhttp://img.beckett.com/images/no-image.jpg
p1557
asg22
V#180
p1558
sg24
V1998-99
p1559
sg187
VSPx
p1560
sg26
g27
sg28
(lp1561
VBryon Russell
p1562
assbag1
(g2
g3
Ntp1563
Rp1564
(dp1565
g7
(dp1566
g9
V1998-99 SPx Finite Spectrum #202 Karl Malone FE
p1567
sg11
I25
sg12
VSPx Finite Spectrum
p1568
sg14
(lp1569
Vhttp://www.beckett.com/basketball/1998-99/spx-finite-spectrum/202-karl-malone-fe-3164130
p1570
asg17
g18
sg19
(lp1571
Vhttp://img.beckett.com/images/no-image.jpg
p1572
asg22
V#202
p1573
sg24
V1998-99
p1574
sg187
VFE
p1575
sg26
g27
sg28
(lp1576
VKarl Malone
p1577
assbag1
(g2
g3
Ntp1578
Rp1579
(dp1580
g7
(dp1581
g9
V1998-99 SPx Finite Spectrum #206 John Stockton FE
p1582
sg11
I25
sg12
VSPx Finite Spectrum
p1583
sg14
(lp1584
Vhttp://www.beckett.com/basketball/1998-99/spx-finite-spectrum/206-john-stockton-fe-3164134
p1585
asg17
g18
sg19
(lp1586
Vhttp://img.beckett.com/images/no-image.jpg
p1587
asg22
V#206
p1588
sg24
V1998-99
p1589
sg187
VFE
p1590
sg26
g27
sg28
(lp1591
VJohn Stockton
p1592
assbag1
(g2
g3
Ntp1593
Rp1594
(dp1595
g7
(dp1596
g9
V1998-99 Stadium Club First Day Issue #55 John Stockton
p1597
sg11
I200
sg12
VStadium Club First Day Issue
p1598
sg14
(lp1599
Vhttp://www.beckett.com/basketball/1998-99/stadium-club-first-day-issue/55-john-stockton-3164500
p1600
asg17
g18
sg19
(lp1601
Vhttp://img.beckett.com/images/no-image.jpg
p1602
asg22
V#55
p1603
sg24
V1998-99
p1604
sg26
g27
sg28
(lp1605
VJohn Stockton
p1606
assbag1
(g2
g3
Ntp1607
Rp1608
(dp1609
g7
(dp1610
g9
V1998-99 Stadium Club First Day Issue #87 Shandon Anderson
p1611
sg11
I200
sg12
VStadium Club First Day Issue
p1612
sg14
(lp1613
Vhttp://www.beckett.com/basketball/1998-99/stadium-club-first-day-issue/87-shandon-anderson-3164532
p1614
asg17
g18
sg19
(lp1615
Vhttp://img.beckett.com/images/no-image.jpg
p1616
asg22
V#87
p1617
sg24
V1998-99
p1618
sg26
g27
sg28
(lp1619
VShandon Anderson
p1620
assbag1
(g2
g3
Ntp1621
Rp1622
(dp1623
g7
(dp1624
g9
V1998-99 Stadium Club First Day Issue #92 Jeff Hornacek
p1625
sg11
I200
sg12
VStadium Club First Day Issue
p1626
sg14
(lp1627
Vhttp://www.beckett.com/basketball/1998-99/stadium-club-first-day-issue/92-jeff-hornacek-3164537
p1628
asg17
g18
sg19
(lp1629
Vhttp://img.beckett.com/images/no-image.jpg
p1630
asg22
V#92
p1631
sg24
V1998-99
p1632
sg26
g27
sg28
(lp1633
VJeff Hornacek
p1634
assbag1
(g2
g3
Ntp1635
Rp1636
(dp1637
g7
(dp1638
g9
V1998-99 Stadium Club First Day Issue #93 Antoine Carr
p1639
sg11
I200
sg12
VStadium Club First Day Issue
p1640
sg14
(lp1641
Vhttp://www.beckett.com/basketball/1998-99/stadium-club-first-day-issue/93-antoine-carr-3164538
p1642
asg17
g18
sg19
(lp1643
Vhttp://img.beckett.com/images/items_stock/185226/3164434/3164538/front.jpg
p1644
asg22
V#93
p1645
sg24
V1998-99
p1646
sg26
g27
sg28
(lp1647
VAntoine Carr
p1648
assbag1
(g2
g3
Ntp1649
Rp1650
(dp1651
g7
(dp1652
g9
V1998-99 Stadium Club First Day Issue #140 Bryon Russell
p1653
sg11
I200
sg12
VStadium Club First Day Issue
p1654
sg14
(lp1655
Vhttp://www.beckett.com/basketball/1998-99/stadium-club-first-day-issue/140-bryon-russell-3164585
p1656
asg17
g18
sg19
(lp1657
Vhttp://img.beckett.com/images/no-image.jpg
p1658
asg22
V#140
p1659
sg24
V1998-99
p1660
sg26
g27
sg28
(lp1661
VBryon Russell
p1662
assbag1
(g2
g3
Ntp1663
Rp1664
(dp1665
g7
(dp1666
g9
V1998-99 Stadium Club First Day Issue #171 Karl Malone
p1667
sg11
I200
sg12
VStadium Club First Day Issue
p1668
sg14
(lp1669
Vhttp://www.beckett.com/basketball/1998-99/stadium-club-first-day-issue/171-karl-malone-3164616
p1670
asg17
g18
sg19
(lp1671
Vhttp://img.beckett.com/images/no-image.jpg
p1672
asg22
V#171
p1673
sg24
V1998-99
p1674
sg26
g27
sg28
(lp1675
VKarl Malone
p1676
assbag1
(g2
g3
Ntp1677
Rp1678
(dp1679
g7
(dp1680
g9
V1998-99 Stadium Club First Day Issue #181 Howard Eisley
p1681
sg11
I200
sg12
VStadium Club First Day Issue
p1682
sg14
(lp1683
Vhttp://www.beckett.com/basketball/1998-99/stadium-club-first-day-issue/181-howard-eisley-3164626
p1684
asg17
g18
sg19
(lp1685
Vhttp://img.beckett.com/images/no-image.jpg
p1686
asg22
V#181
p1687
sg24
V1998-99
p1688
sg26
g27
sg28
(lp1689
VHoward Eisley
p1690
assbag1
(g2
g3
Ntp1691
Rp1692
(dp1693
g7
(dp1694
g9
V1998-99 Stadium Club One Of A Kind #55 John Stockton
p1695
sg11
I150
sg12
VStadium Club One Of A Kind
p1696
sg14
(lp1697
Vhttp://www.beckett.com/basketball/1998-99/stadium-club-one-of-a-kind/55-john-stockton-3160755
p1698
asg17
g18
sg19
(lp1699
Vhttp://img.beckett.com/images/no-image.jpg
p1700
asg22
V#55
p1701
sg24
V1998-99
p1702
sg26
g27
sg28
(lp1703
VJohn Stockton
p1704
assbag1
(g2
g3
Ntp1705
Rp1706
(dp1707
g7
(dp1708
g9
V1998-99 Stadium Club One Of A Kind #87 Shandon Anderson
p1709
sg11
I150
sg12
VStadium Club One Of A Kind
p1710
sg14
(lp1711
Vhttp://www.beckett.com/basketball/1998-99/stadium-club-one-of-a-kind/87-shandon-anderson-3160787
p1712
asg17
g18
sg19
(lp1713
Vhttp://img.beckett.com/images/no-image.jpg
p1714
asg22
V#87
p1715
sg24
V1998-99
p1716
sg26
g27
sg28
(lp1717
VShandon Anderson
p1718
assbag1
(g2
g3
Ntp1719
Rp1720
(dp1721
g7
(dp1722
g9
V1998-99 Stadium Club One Of A Kind #92 Jeff Hornacek
p1723
sg11
I150
sg12
VStadium Club One Of A Kind
p1724
sg14
(lp1725
Vhttp://www.beckett.com/basketball/1998-99/stadium-club-one-of-a-kind/92-jeff-hornacek-3160792
p1726
asg17
g18
sg19
(lp1727
Vhttp://img.beckett.com/images/no-image.jpg
p1728
asg22
V#92
p1729
sg24
V1998-99
p1730
sg26
g27
sg28
(lp1731
VJeff Hornacek
p1732
assbag1
(g2
g3
Ntp1733
Rp1734
(dp1735
g7
(dp1736
g9
V1998-99 Stadium Club One Of A Kind #93 Antoine Carr
p1737
sg11
I150
sg12
VStadium Club One Of A Kind
p1738
sg14
(lp1739
Vhttp://www.beckett.com/basketball/1998-99/stadium-club-one-of-a-kind/93-antoine-carr-3160793
p1740
asg17
g18
sg19
(lp1741
Vhttp://img.beckett.com/images/items_stock/185226/3160688/3160793/front.jpg
p1742
asg22
V#93
p1743
sg24
V1998-99
p1744
sg26
g27
sg28
(lp1745
VAntoine Carr
p1746
assbag1
(g2
g3
Ntp1747
Rp1748
(dp1749
g7
(dp1750
g9
V1998-99 Stadium Club One Of A Kind #140 Bryon Russell
p1751
sg11
I150
sg12
VStadium Club One Of A Kind
p1752
sg14
(lp1753
Vhttp://www.beckett.com/basketball/1998-99/stadium-club-one-of-a-kind/140-bryon-russell-3160840
p1754
asg17
g18
sg19
(lp1755
Vhttp://img.beckett.com/images/items_stock/185226/3160688/3160840/front.jpg
p1756
asg22
V#140
p1757
sg24
V1998-99
p1758
sg26
g27
sg28
(lp1759
VBryon Russell
p1760
assbag1
(g2
g3
Ntp1761
Rp1762
(dp1763
g7
(dp1764
g9
V1998-99 Stadium Club One Of A Kind #171 Karl Malone
p1765
sg11
I150
sg12
VStadium Club One Of A Kind
p1766
sg14
(lp1767
Vhttp://www.beckett.com/basketball/1998-99/stadium-club-one-of-a-kind/171-karl-malone-3160871
p1768
asg17
g18
sg19
(lp1769
Vhttp://img.beckett.com/images/no-image.jpg
p1770
asg22
V#171
p1771
sg24
V1998-99
p1772
sg26
g27
sg28
(lp1773
VKarl Malone
p1774
assbag1
(g2
g3
Ntp1775
Rp1776
(dp1777
g7
(dp1778
g9
V1998-99 Stadium Club One Of A Kind #181 Howard Eisley
p1779
sg11
I150
sg12
VStadium Club One Of A Kind
p1780
sg14
(lp1781
Vhttp://www.beckett.com/basketball/1998-99/stadium-club-one-of-a-kind/181-howard-eisley-3160881
p1782
asg17
g18
sg19
(lp1783
Vhttp://img.beckett.com/images/items_stock/185226/3160688/3160881/front.jpg
p1784
asg22
V#181
p1785
sg24
V1998-99
p1786
sg26
g27
sg28
(lp1787
VHoward Eisley
p1788
assbag1
(g2
g3
Ntp1789
Rp1790
(dp1791
g7
(dp1792
g9
V1998-99 Stadium Club Printing Plates #55 John Stockton Black
p1793
sg11
I1
sg12
VStadium Club Printing Plates
p1794
sg14
(lp1795
Vhttp://www.beckett.com/basketball/1998-99/stadium-club-printing-plates/55-john-stockton-black-3161166
p1796
asg17
g18
sg19
(lp1797
Vhttp://img.beckett.com/images/no-image.jpg
p1798
asg22
V#55
p1799
sg24
V1998-99
p1800
sg26
g27
sg28
(lp1801
VJohn Stockton
p1802
assbag1
(g2
g3
Ntp1803
Rp1804
(dp1805
g7
(dp1806
g9
V1998-99 Stadium Club Printing Plates #55A John Stockton Cyan
p1807
sg11
I1
sg12
VStadium Club Printing Plates
p1808
sg14
(lp1809
Vhttp://www.beckett.com/basketball/1998-99/stadium-club-printing-plates/55a-john-stockton-cyan-3161167
p1810
asg17
g18
sg19
(lp1811
Vhttp://img.beckett.com/images/no-image.jpg
p1812
asg22
V#55A
p1813
sg24
V1998-99
p1814
sg26
g27
sg28
(lp1815
g1802
assbag1
(g2
g3
Ntp1816
Rp1817
(dp1818
g7
(dp1819
g9
V1998-99 Stadium Club Printing Plates #55B John Stockton Magenta
p1820
sg11
I1
sg12
VStadium Club Printing Plates
p1821
sg14
(lp1822
Vhttp://www.beckett.com/basketball/1998-99/stadium-club-printing-plates/55b-john-stockton-magenta-3161168
p1823
asg17
g18
sg19
(lp1824
Vhttp://img.beckett.com/images/no-image.jpg
p1825
asg22
V#55B
p1826
sg24
V1998-99
p1827
sg26
g27
sg28
(lp1828
g1802
assbag1
(g2
g3
Ntp1829
Rp1830
(dp1831
g7
(dp1832
g9
V1998-99 Stadium Club Printing Plates #55C John Stockton Yellow
p1833
sg11
I1
sg12
VStadium Club Printing Plates
p1834
sg14
(lp1835
Vhttp://www.beckett.com/basketball/1998-99/stadium-club-printing-plates/55c-john-stockton-yellow-3161169
p1836
asg17
g18
sg19
(lp1837
Vhttp://img.beckett.com/images/no-image.jpg
p1838
asg22
V#55C
p1839
sg24
V1998-99
p1840
sg26
g27
sg28
(lp1841
g1802
assbag1
(g2
g3
Ntp1842
Rp1843
(dp1844
g7
(dp1845
g9
V1998-99 Stadium Club Printing Plates #87 Shandon Anderson Black
p1846
sg11
I1
sg12
VStadium Club Printing Plates
p1847
sg14
(lp1848
Vhttp://www.beckett.com/basketball/1998-99/stadium-club-printing-plates/87-shandon-anderson-black-3161294
p1849
asg17
g18
sg19
(lp1850
Vhttp://img.beckett.com/images/no-image.jpg
p1851
asg22
V#87
p1852
sg24
V1998-99
p1853
sg26
g27
sg28
(lp1854
VShandon Anderson
p1855
assbag1
(g2
g3
Ntp1856
Rp1857
(dp1858
g7
(dp1859
g9
V1998-99 Stadium Club Printing Plates #87A Shandon Anderson Cyan
p1860
sg11
I1
sg12
VStadium Club Printing Plates
p1861
sg14
(lp1862
Vhttp://www.beckett.com/basketball/1998-99/stadium-club-printing-plates/87a-shandon-anderson-cyan-3161295
p1863
asg17
g18
sg19
(lp1864
Vhttp://img.beckett.com/images/no-image.jpg
p1865
asg22
V#87A
p1866
sg24
V1998-99
p1867
sg26
g27
sg28
(lp1868
g1855
assbag1
(g2
g3
Ntp1869
Rp1870
(dp1871
g7
(dp1872
g9
V1998-99 Stadium Club Printing Plates #87B Shandon Anderson Magenta
p1873
sg11
I1
sg12
VStadium Club Printing Plates
p1874
sg14
(lp1875
Vhttp://www.beckett.com/basketball/1998-99/stadium-club-printing-plates/87b-shandon-anderson-magenta-3161296
p1876
asg17
g18
sg19
(lp1877
Vhttp://img.beckett.com/images/no-image.jpg
p1878
asg22
V#87B
p1879
sg24
V1998-99
p1880
sg26
g27
sg28
(lp1881
g1855
assbag1
(g2
g3
Ntp1882
Rp1883
(dp1884
g7
(dp1885
g9
V1998-99 Stadium Club Printing Plates #87C Shandon Anderson Yellow
p1886
sg11
I1
sg12
VStadium Club Printing Plates
p1887
sg14
(lp1888
Vhttp://www.beckett.com/basketball/1998-99/stadium-club-printing-plates/87c-shandon-anderson-yellow-3161297
p1889
asg17
g18
sg19
(lp1890
Vhttp://img.beckett.com/images/no-image.jpg
p1891
asg22
V#87C
p1892
sg24
V1998-99
p1893
sg26
g27
sg28
(lp1894
g1855
assbag1
(g2
g3
Ntp1895
Rp1896
(dp1897
g7
(dp1898
g9
V1998-99 Stadium Club Printing Plates #92 Jeff Hornacek Black
p1899
sg11
I1
sg12
VStadium Club Printing Plates
p1900
sg14
(lp1901
Vhttp://www.beckett.com/basketball/1998-99/stadium-club-printing-plates/92-jeff-hornacek-black-3161314
p1902
asg17
g18
sg19
(lp1903
Vhttp://img.beckett.com/images/no-image.jpg
p1904
asg22
V#92
p1905
sg24
V1998-99
p1906
sg26
g27
sg28
(lp1907
VJeff Hornacek
p1908
assbag1
(g2
g3
Ntp1909
Rp1910
(dp1911
g7
(dp1912
g9
V1998-99 Stadium Club Printing Plates #92A Jeff Hornacek Cyan
p1913
sg11
I1
sg12
VStadium Club Printing Plates
p1914
sg14
(lp1915
Vhttp://www.beckett.com/basketball/1998-99/stadium-club-printing-plates/92a-jeff-hornacek-cyan-3161315
p1916
asg17
g18
sg19
(lp1917
Vhttp://img.beckett.com/images/no-image.jpg
p1918
asg22
V#92A
p1919
sg24
V1998-99
p1920
sg26
g27
sg28
(lp1921
g1908
assbag1
(g2
g3
Ntp1922
Rp1923
(dp1924
g7
(dp1925
g9
V1998-99 Stadium Club Printing Plates #92B Jeff Hornacek Magenta
p1926
sg11
I1
sg12
VStadium Club Printing Plates
p1927
sg14
(lp1928
Vhttp://www.beckett.com/basketball/1998-99/stadium-club-printing-plates/92b-jeff-hornacek-magenta-3161316
p1929
asg17
g18
sg19
(lp1930
Vhttp://img.beckett.com/images/no-image.jpg
p1931
asg22
V#92B
p1932
sg24
V1998-99
p1933
sg26
g27
sg28
(lp1934
g1908
assbag1
(g2
g3
Ntp1935
Rp1936
(dp1937
g7
(dp1938
g9
V1998-99 Stadium Club Printing Plates #92C Jeff Hornacek Yellow
p1939
sg11
I1
sg12
VStadium Club Printing Plates
p1940
sg14
(lp1941
Vhttp://www.beckett.com/basketball/1998-99/stadium-club-printing-plates/92c-jeff-hornacek-yellow-3161317
p1942
asg17
g18
sg19
(lp1943
Vhttp://img.beckett.com/images/no-image.jpg
p1944
asg22
V#92C
p1945
sg24
V1998-99
p1946
sg26
g27
sg28
(lp1947
g1908
assbag1
(g2
g3
Ntp1948
Rp1949
(dp1950
g7
(dp1951
g9
V1998-99 Stadium Club Printing Plates #93 Antoine Carr Black
p1952
sg11
I1
sg12
VStadium Club Printing Plates
p1953
sg14
(lp1954
Vhttp://www.beckett.com/basketball/1998-99/stadium-club-printing-plates/93-antoine-carr-black-3161318
p1955
asg17
g18
sg19
(lp1956
Vhttp://img.beckett.com/images/no-image.jpg
p1957
asg22
V#93
p1958
sg24
V1998-99
p1959
sg26
g27
sg28
(lp1960
VAntoine Carr
p1961
assbag1
(g2
g3
Ntp1962
Rp1963
(dp1964
g7
(dp1965
g9
V1998-99 Stadium Club Printing Plates #93A Antoine Carr Cyan
p1966
sg11
I1
sg12
VStadium Club Printing Plates
p1967
sg14
(lp1968
Vhttp://www.beckett.com/basketball/1998-99/stadium-club-printing-plates/93a-antoine-carr-cyan-3161319
p1969
asg17
g18
sg19
(lp1970
Vhttp://img.beckett.com/images/no-image.jpg
p1971
asg22
V#93A
p1972
sg24
V1998-99
p1973
sg26
g27
sg28
(lp1974
g1961
assbag1
(g2
g3
Ntp1975
Rp1976
(dp1977
g7
(dp1978
g9
V1998-99 Stadium Club Printing Plates #93B Antoine Carr Magenta
p1979
sg11
I1
sg12
VStadium Club Printing Plates
p1980
sg14
(lp1981
Vhttp://www.beckett.com/basketball/1998-99/stadium-club-printing-plates/93b-antoine-carr-magenta-3161320
p1982
asg17
g18
sg19
(lp1983
Vhttp://img.beckett.com/images/no-image.jpg
p1984
asg22
V#93B
p1985
sg24
V1998-99
p1986
sg26
g27
sg28
(lp1987
g1961
assbag1
(g2
g3
Ntp1988
Rp1989
(dp1990
g7
(dp1991
g9
V1998-99 Stadium Club Printing Plates #93C Antoine Carr Yellow
p1992
sg11
I1
sg12
VStadium Club Printing Plates
p1993
sg14
(lp1994
Vhttp://www.beckett.com/basketball/1998-99/stadium-club-printing-plates/93c-antoine-carr-yellow-3161321
p1995
asg17
g18
sg19
(lp1996
Vhttp://img.beckett.com/images/no-image.jpg
p1997
asg22
V#93C
p1998
sg24
V1998-99
p1999
sg26
g27
sg28
(lp2000
g1961
assbag1
(g2
g3
Ntp2001
Rp2002
(dp2003
g7
(dp2004
g9
V1998-99 Stadium Club Printing Plates #140 Bryon Russell Black
p2005
sg11
I1
sg12
VStadium Club Printing Plates
p2006
sg14
(lp2007
Vhttp://www.beckett.com/basketball/1998-99/stadium-club-printing-plates/140-bryon-russell-black-3161506
p2008
asg17
g18
sg19
(lp2009
Vhttp://img.beckett.com/images/no-image.jpg
p2010
asg22
V#140
p2011
sg24
V1998-99
p2012
sg26
g27
sg28
(lp2013
VBryon Russell
p2014
assbag1
(g2
g3
Ntp2015
Rp2016
(dp2017
g7
(dp2018
g9
V1998-99 Stadium Club Printing Plates #140A Bryon Russell Cyan
p2019
sg11
I1
sg12
VStadium Club Printing Plates
p2020
sg14
(lp2021
Vhttp://www.beckett.com/basketball/1998-99/stadium-club-printing-plates/140a-bryon-russell-cyan-3161507
p2022
asg17
g18
sg19
(lp2023
Vhttp://img.beckett.com/images/no-image.jpg
p2024
asg22
V#140A
p2025
sg24
V1998-99
p2026
sg26
g27
sg28
(lp2027
g2014
assbag1
(g2
g3
Ntp2028
Rp2029
(dp2030
g7
(dp2031
g9
V1998-99 Stadium Club Printing Plates #140B Bryon Russell Magenta
p2032
sg11
I1
sg12
VStadium Club Printing Plates
p2033
sg14
(lp2034
Vhttp://www.beckett.com/basketball/1998-99/stadium-club-printing-plates/140b-bryon-russell-magenta-3161508
p2035
asg17
g18
sg19
(lp2036
Vhttp://img.beckett.com/images/no-image.jpg
p2037
asg22
V#140B
p2038
sg24
V1998-99
p2039
sg26
g27
sg28
(lp2040
g2014
assbag1
(g2
g3
Ntp2041
Rp2042
(dp2043
g7
(dp2044
g9
V1998-99 Stadium Club Printing Plates #140C Bryon Russell Yellow
p2045
sg11
I1
sg12
VStadium Club Printing Plates
p2046
sg14
(lp2047
Vhttp://www.beckett.com/basketball/1998-99/stadium-club-printing-plates/140c-bryon-russell-yellow-3161509
p2048
asg17
g18
sg19
(lp2049
Vhttp://img.beckett.com/images/no-image.jpg
p2050
asg22
V#140C
p2051
sg24
V1998-99
p2052
sg26
g27
sg28
(lp2053
g2014
assbag1
(g2
g3
Ntp2054
Rp2055
(dp2056
g7
(dp2057
g9
V1998-99 Stadium Club Printing Plates #171 Karl Malone Black
p2058
sg11
I1
sg12
VStadium Club Printing Plates
p2059
sg14
(lp2060
Vhttp://www.beckett.com/basketball/1998-99/stadium-club-printing-plates/171-karl-malone-black-3161630
p2061
asg17
g18
sg19
(lp2062
Vhttp://img.beckett.com/images/no-image.jpg
p2063
asg22
V#171
p2064
sg24
V1998-99
p2065
sg26
g27
sg28
(lp2066
VKarl Malone
p2067
assbag1
(g2
g3
Ntp2068
Rp2069
(dp2070
g7
(dp2071
g9
V1998-99 Stadium Club Printing Plates #171A Karl Malone Cyan
p2072
sg11
I1
sg12
VStadium Club Printing Plates
p2073
sg14
(lp2074
Vhttp://www.beckett.com/basketball/1998-99/stadium-club-printing-plates/171a-karl-malone-cyan-3161631
p2075
asg17
g18
sg19
(lp2076
Vhttp://img.beckett.com/images/no-image.jpg
p2077
asg22
V#171A
p2078
sg24
V1998-99
p2079
sg26
g27
sg28
(lp2080
g2067
assbag1
(g2
g3
Ntp2081
Rp2082
(dp2083
g7
(dp2084
g9
V1998-99 Stadium Club Printing Plates #171B Karl Malone Magenta
p2085
sg11
I1
sg12
VStadium Club Printing Plates
p2086
sg14
(lp2087
Vhttp://www.beckett.com/basketball/1998-99/stadium-club-printing-plates/171b-karl-malone-magenta-3161632
p2088
asg17
g18
sg19
(lp2089
Vhttp://img.beckett.com/images/no-image.jpg
p2090
asg22
V#171B
p2091
sg24
V1998-99
p2092
sg26
g27
sg28
(lp2093
g2067
assbag1
(g2
g3
Ntp2094
Rp2095
(dp2096
g7
(dp2097
g9
V1998-99 Stadium Club Printing Plates #171C Karl Malone Yellow
p2098
sg11
I1
sg12
VStadium Club Printing Plates
p2099
sg14
(lp2100
Vhttp://www.beckett.com/basketball/1998-99/stadium-club-printing-plates/171c-karl-malone-yellow-3161633
p2101
asg17
g18
sg19
(lp2102
Vhttp://img.beckett.com/images/no-image.jpg
p2103
asg22
V#171C
p2104
sg24
V1998-99
p2105
sg26
g27
sg28
(lp2106
g2067
assbag1
(g2
g3
Ntp2107
Rp2108
(dp2109
g7
(dp2110
g9
V1998-99 Stadium Club Printing Plates #181 Howard Eisley Black
p2111
sg11
I1
sg12
VStadium Club Printing Plates
p2112
sg14
(lp2113
Vhttp://www.beckett.com/basketball/1998-99/stadium-club-printing-plates/181-howard-eisley-black-3161670
p2114
asg17
g18
sg19
(lp2115
Vhttp://img.beckett.com/images/no-image.jpg
p2116
asg22
V#181
p2117
sg24
V1998-99
p2118
sg26
g27
sg28
(lp2119
VHoward Eisley
p2120
assbag1
(g2
g3
Ntp2121
Rp2122
(dp2123
g7
(dp2124
g9
V1998-99 Stadium Club Printing Plates #181A Howard Eisley Cyan
p2125
sg11
I1
sg12
VStadium Club Printing Plates
p2126
sg14
(lp2127
Vhttp://www.beckett.com/basketball/1998-99/stadium-club-printing-plates/181a-howard-eisley-cyan-3161671
p2128
asg17
g18
sg19
(lp2129
Vhttp://img.beckett.com/images/no-image.jpg
p2130
asg22
V#181A
p2131
sg24
V1998-99
p2132
sg26
g27
sg28
(lp2133
g2120
assbag1
(g2
g3
Ntp2134
Rp2135
(dp2136
g7
(dp2137
g9
V1998-99 Stadium Club Printing Plates #181B Howard Eisley Magenta
p2138
sg11
I1
sg12
VStadium Club Printing Plates
p2139
sg14
(lp2140
Vhttp://www.beckett.com/basketball/1998-99/stadium-club-printing-plates/181b-howard-eisley-magenta-3161672
p2141
asg17
g18
sg19
(lp2142
Vhttp://img.beckett.com/images/no-image.jpg
p2143
asg22
V#181B
p2144
sg24
V1998-99
p2145
sg26
g27
sg28
(lp2146
g2120
assbag1
(g2
g3
Ntp2147
Rp2148
(dp2149
g7
(dp2150
g9
V1998-99 Stadium Club Printing Plates #181C Howard Eisley Yellow
p2151
sg11
I1
sg12
VStadium Club Printing Plates
p2152
sg14
(lp2153
Vhttp://www.beckett.com/basketball/1998-99/stadium-club-printing-plates/181c-howard-eisley-yellow-3161673
p2154
asg17
g18
sg19
(lp2155
Vhttp://img.beckett.com/images/no-image.jpg
p2156
asg22
V#181C
p2157
sg24
V1998-99
p2158
sg26
g27
sg28
(lp2159
g2120
assbag1
(g2
g3
Ntp2160
Rp2161
(dp2162
g7
(dp2163
g9
V1998-99 UD Choice Premium Choice Reserve #142 John Stockton
p2164
sg11
I100
sg12
VUD Choice Premium Choice Reserve
p2165
sg14
(lp2166
Vhttp://www.beckett.com/basketball/1998-99/ud-choice-premium-choice-reserve/142-john-stockton-3159315
p2167
asg17
g18
sg19
(lp2168
Vhttp://img.beckett.com/images/no-image.jpg
p2169
asg22
V#142
p2170
sg24
V1998-99
p2171
sg26
g27
sg28
(lp2172
VJohn Stockton
p2173
assbag1
(g2
g3
Ntp2174
Rp2175
(dp2176
g7
(dp2177
g9
V1998-99 UD Choice Premium Choice Reserve #143 Karl Malone
p2178
sg11
I100
sg12
VUD Choice Premium Choice Reserve
p2179
sg14
(lp2180
Vhttp://www.beckett.com/basketball/1998-99/ud-choice-premium-choice-reserve/143-karl-malone-3159316
p2181
asg17
g18
sg19
(lp2182
Vhttp://img.beckett.com/images/no-image.jpg
p2183
asg22
V#143
p2184
sg24
V1998-99
p2185
sg26
g27
sg28
(lp2186
VKarl Malone
p2187
assbag1
(g2
g3
Ntp2188
Rp2189
(dp2190
g7
(dp2191
g9
V1998-99 UD Choice Premium Choice Reserve #144 Shandon Anderson
p2192
sg11
I100
sg12
VUD Choice Premium Choice Reserve
p2193
sg14
(lp2194
Vhttp://www.beckett.com/basketball/1998-99/ud-choice-premium-choice-reserve/144-shandon-anderson-3159317
p2195
asg17
g18
sg19
(lp2196
Vhttp://img.beckett.com/images/no-image.jpg
p2197
asg22
V#144
p2198
sg24
V1998-99
p2199
sg26
g27
sg28
(lp2200
VShandon Anderson
p2201
assbag1
(g2
g3
Ntp2202
Rp2203
(dp2204
g7
(dp2205
g9
V1998-99 UD Choice Premium Choice Reserve #145 Jacque Vaughn
p2206
sg11
I100
sg12
VUD Choice Premium Choice Reserve
p2207
sg14
(lp2208
Vhttp://www.beckett.com/basketball/1998-99/ud-choice-premium-choice-reserve/145-jacque-vaughn-3159318
p2209
asg17
g18
sg19
(lp2210
Vhttp://img.beckett.com/images/no-image.jpg
p2211
asg22
V#145
p2212
sg24
V1998-99
p2213
sg26
g27
sg28
(lp2214
VJacque Vaughn
p2215
assbag1
(g2
g3
Ntp2216
Rp2217
(dp2218
g7
(dp2219
g9
V1998-99 UD Choice Premium Choice Reserve #146 Bryon Russell
p2220
sg11
I100
sg12
VUD Choice Premium Choice Reserve
p2221
sg14
(lp2222
Vhttp://www.beckett.com/basketball/1998-99/ud-choice-premium-choice-reserve/146-bryon-russell-3159319
p2223
asg17
g18
sg19
(lp2224
Vhttp://img.beckett.com/images/no-image.jpg
p2225
asg22
V#146
p2226
sg24
V1998-99
p2227
sg26
g27
sg28
(lp2228
VBryon Russell
p2229
assbag1
(g2
g3
Ntp2230
Rp2231
(dp2232
g7
(dp2233
g9
V1998-99 UD Choice Premium Choice Reserve #182 John Stockton FS
p2234
sg11
I100
sg12
VUD Choice Premium Choice Reserve
p2235
sg14
(lp2236
Vhttp://www.beckett.com/basketball/1998-99/ud-choice-premium-choice-reserve/182-john-stockton-fs-3159355
p2237
asg17
g18
sg19
(lp2238
Vhttp://img.beckett.com/images/no-image.jpg
p2239
asg22
V#182
p2240
sg24
V1998-99
p2241
sg187
VFS
p2242
sg26
g27
sg28
(lp2243
VJohn Stockton
p2244
assbag1
(g2
g3
Ntp2245
Rp2246
(dp2247
g7
(dp2248
g9
V1998-99 UD Choice Premium Choice Reserve #192 Karl Malone YIR
p2249
sg11
I100
sg12
VUD Choice Premium Choice Reserve
p2250
sg14
(lp2251
Vhttp://www.beckett.com/basketball/1998-99/ud-choice-premium-choice-reserve/192-karl-malone-yir-3159365
p2252
asg17
g18
sg19
(lp2253
Vhttp://img.beckett.com/images/no-image.jpg
p2254
asg22
V#192
p2255
sg24
V1998-99
p2256
sg187
VYIR
p2257
sg26
g27
sg28
(lp2258
VKarl Malone
p2259
assbag1
(g2
g3
Ntp2260
Rp2261
(dp2262
g7
(dp2263
g9
V1998-99 UD Ionix Reciprocal #56 John Stockton
p2264
sg11
I750
sg12
VUD Ionix Reciprocal
p2265
sg14
(lp2266
Vhttp://www.beckett.com/basketball/1998-99/ud-ionix-reciprocal/56-john-stockton-3159732
p2267
asg17
g18
sg19
(lp2268
Vhttp://img.beckett.com/images/no-image.jpg
p2269
asg22
V#56
p2270
sg24
V1998-99
p2271
sg26
g27
sg28
(lp2272
VJohn Stockton
p2273
assbag1
(g2
g3
Ntp2274
Rp2275
(dp2276
g7
(dp2277
g9
V1998-99 UD Ionix Reciprocal #57 Karl Malone
p2278
sg11
I750
sg12
VUD Ionix Reciprocal
p2279
sg14
(lp2280
Vhttp://www.beckett.com/basketball/1998-99/ud-ionix-reciprocal/57-karl-malone-3159733
p2281
asg17
g18
sg19
(lp2282
Vhttp://img.beckett.com/images/no-image.jpg
p2283
asg22
V#57
p2284
sg24
V1998-99
p2285
sg26
g27
sg28
(lp2286
VKarl Malone
p2287
assbag1
(g2
g3
Ntp2288
Rp2289
(dp2290
g7
(dp2291
g9
V1998-99 Ultra Masterpieces #15 Bryon Russell
p2292
sg11
I1
sg12
VUltra Masterpieces
p2293
sg14
(lp2294
Vhttp://www.beckett.com/basketball/1998-99/ultra-masterpieces/15-bryon-russell-3156971
p2295
asg17
g18
sg19
(lp2296
Vhttp://img.beckett.com/images/no-image.jpg
p2297
asg22
V#15
p2298
sg24
V1998-99
p2299
sg26
g27
sg28
(lp2300
VBryon Russell
p2301
assbag1
(g2
g3
Ntp2302
Rp2303
(dp2304
g7
(dp2305
g9
V1998-99 Ultra Masterpieces #36 Jeff Hornacek
p2306
sg11
I1
sg12
VUltra Masterpieces
p2307
sg14
(lp2308
Vhttp://www.beckett.com/basketball/1998-99/ultra-masterpieces/36-jeff-hornacek-3156992
p2309
asg17
g18
sg19
(lp2310
Vhttp://img.beckett.com/images/no-image.jpg
p2311
asg22
V#36
p2312
sg24
V1998-99
p2313
sg26
g27
sg28
(lp2314
VJeff Hornacek
p2315
assbag1
(g2
g3
Ntp2316
Rp2317
(dp2318
g7
(dp2319
g9
V1998-99 Ultra Masterpieces #53 Karl Malone
p2320
sg11
I1
sg12
VUltra Masterpieces
p2321
sg14
(lp2322
Vhttp://www.beckett.com/basketball/1998-99/ultra-masterpieces/53-karl-malone-3157009
p2323
asg17
g18
sg19
(lp2324
Vhttp://img.beckett.com/images/no-image.jpg
p2325
asg22
V#53
p2326
sg24
V1998-99
p2327
sg26
g27
sg28
(lp2328
VKarl Malone
p2329
assbag1
(g2
g3
Ntp2330
Rp2331
(dp2332
g7
(dp2333
g9
V1998-99 Ultra Masterpieces #90 John Stockton
p2334
sg11
I1
sg12
VUltra Masterpieces
p2335
sg14
(lp2336
Vhttp://www.beckett.com/basketball/1998-99/ultra-masterpieces/90-john-stockton-3157046
p2337
asg17
g18
sg19
(lp2338
Vhttp://img.beckett.com/images/no-image.jpg
p2339
asg22
V#90
p2340
sg24
V1998-99
p2341
sg26
g27
sg28
(lp2342
VJohn Stockton
p2343
assbag1
(g2
g3
Ntp2344
Rp2345
(dp2346
g7
(dp2347
g9
V1998-99 Ultra Platinum Medallion #15 Bryon Russell
p2348
sg11
I99
sg12
VUltra Platinum Medallion
p2349
sg14
(lp2350
Vhttp://www.beckett.com/basketball/1998-99/ultra-platinum-medallion/15-bryon-russell-3157107
p2351
asg17
g18
sg19
(lp2352
Vhttp://img.beckett.com/images/no-image.jpg
p2353
asg22
V#15
p2354
sg24
V1998-99
p2355
sg26
g27
sg28
(lp2356
VBryon Russell
p2357
assbag1
(g2
g3
Ntp2358
Rp2359
(dp2360
g7
(dp2361
g9
V1998-99 Ultra Platinum Medallion #36 Jeff Hornacek
p2362
sg11
I99
sg12
VUltra Platinum Medallion
p2363
sg14
(lp2364
Vhttp://www.beckett.com/basketball/1998-99/ultra-platinum-medallion/36-jeff-hornacek-3157128
p2365
asg17
g18
sg19
(lp2366
Vhttp://img.beckett.com/images/no-image.jpg
p2367
asg22
V#36
p2368
sg24
V1998-99
p2369
sg26
g27
sg28
(lp2370
VJeff Hornacek
p2371
assbag1
(g2
g3
Ntp2372
Rp2373
(dp2374
g7
(dp2375
g9
V1998-99 Ultra Platinum Medallion #53 Karl Malone
p2376
sg11
I99
sg12
VUltra Platinum Medallion
p2377
sg14
(lp2378
Vhttp://www.beckett.com/basketball/1998-99/ultra-platinum-medallion/53-karl-malone-3157145
p2379
asg17
g18
sg19
(lp2380
Vhttp://img.beckett.com/images/no-image.jpg
p2381
asg22
V#53
p2382
sg24
V1998-99
p2383
sg26
g27
sg28
(lp2384
VKarl Malone
p2385
assbag1
(g2
g3
Ntp2386
Rp2387
(dp2388
g7
(dp2389
g9
V1998-99 Ultra Platinum Medallion #90 John Stockton
p2390
sg11
I99
sg12
VUltra Platinum Medallion
p2391
sg14
(lp2392
Vhttp://www.beckett.com/basketball/1998-99/ultra-platinum-medallion/90-john-stockton-3157182
p2393
asg17
g18
sg19
(lp2394
Vhttp://img.beckett.com/images/no-image.jpg
p2395
asg22
V#90
p2396
sg24
V1998-99
p2397
sg26
g27
sg28
(lp2398
VJohn Stockton
p2399
assbag1
(g2
g3
Ntp2400
Rp2401
(dp2402
g7
(dp2403
g9
V1998-99 Upper Deck Bronze #151 Karl Malone
p2404
sg11
I100
sg12
VUpper Deck Bronze
p2405
sg14
(lp2406
Vhttp://www.beckett.com/basketball/1998-99/upper-deck-bronze/151-karl-malone-3157882
p2407
asg17
g18
sg19
(lp2408
Vhttp://img.beckett.com/images/no-image.jpg
p2409
asg22
V#151
p2410
sg24
V1998-99
p2411
sg26
g27
sg28
(lp2412
VKarl Malone
p2413
assbag1
(g2
g3
Ntp2414
Rp2415
(dp2416
g7
(dp2417
g9
V1998-99 Upper Deck Bronze #152 John Stockton
p2418
sg11
I100
sg12
VUpper Deck Bronze
p2419
sg14
(lp2420
Vhttp://www.beckett.com/basketball/1998-99/upper-deck-bronze/152-john-stockton-3157883
p2421
asg17
g18
sg19
(lp2422
Vhttp://img.beckett.com/images/no-image.jpg
p2423
asg22
V#152
p2424
sg24
V1998-99
p2425
sg26
g27
sg28
(lp2426
VJohn Stockton
p2427
assbag1
(g2
g3
Ntp2428
Rp2429
(dp2430
g7
(dp2431
g9
V1998-99 Upper Deck Bronze #153 Adam Keefe
p2432
sg11
I100
sg12
VUpper Deck Bronze
p2433
sg14
(lp2434
Vhttp://www.beckett.com/basketball/1998-99/upper-deck-bronze/153-adam-keefe-3157884
p2435
asg17
g18
sg19
(lp2436
Vhttp://img.beckett.com/images/no-image.jpg
p2437
asg22
V#153
p2438
sg24
V1998-99
p2439
sg26
g27
sg28
(lp2440
VAdam Keefe
p2441
assbag1
(g2
g3
Ntp2442
Rp2443
(dp2444
g7
(dp2445
g9
V1998-99 Upper Deck Bronze #154 Howard Eisley
p2446
sg11
I100
sg12
VUpper Deck Bronze
p2447
sg14
(lp2448
Vhttp://www.beckett.com/basketball/1998-99/upper-deck-bronze/154-howard-eisley-3157885
p2449
asg17
g18
sg19
(lp2450
Vhttp://img.beckett.com/images/no-image.jpg
p2451
asg22
V#154
p2452
sg24
V1998-99
p2453
sg26
g27
sg28
(lp2454
VHoward Eisley
p2455
assbag1
(g2
g3
Ntp2456
Rp2457
(dp2458
g7
(dp2459
g9
V1998-99 Upper Deck Bronze #155 Karl Malone/John Stockton HS
p2460
sg11
I100
sg12
VUpper Deck Bronze
p2461
sg14
(lp2462
Vhttp://www.beckett.com/basketball/1998-99/upper-deck-bronze/155-karl-malonejohn-stockton-hs-3157886
p2463
asg17
g18
sg19
(lp2464
Vhttp://img.beckett.com/images/no-image.jpg
p2465
asg22
V#155
p2466
sg24
V1998-99
p2467
sg187
VHS
p2468
sg26
g27
sg28
(lp2469
VKarl Malone
p2470
aVJohn Stockton
p2471
assbag1
(g2
g3
Ntp2472
Rp2473
(dp2474
g7
(dp2475
g9
V1998-99 Upper Deck Bronze #187 Bryon Russell
p2476
sg11
I100
sg12
VUpper Deck Bronze
p2477
sg14
(lp2478
Vhttp://www.beckett.com/basketball/1998-99/upper-deck-bronze/187-bryon-russell-3157918
p2479
asg17
g18
sg19
(lp2480
Vhttp://img.beckett.com/images/items_stock/185226/3157718/3157918/front.jpg
p2481
asg22
V#187
p2482
sg24
V1998-99
p2483
sg26
g27
sg28
(lp2484
VBryon Russell
p2485
assbag1
(g2
g3
Ntp2486
Rp2487
(dp2488
g7
(dp2489
g9
V1998-99 Upper Deck Bronze #197 Shandon Anderson
p2490
sg11
I100
sg12
VUpper Deck Bronze
p2491
sg14
(lp2492
Vhttp://www.beckett.com/basketball/1998-99/upper-deck-bronze/197-shandon-anderson-3157928
p2493
asg17
g18
sg19
(lp2494
Vhttp://img.beckett.com/images/items_stock/185226/3157718/3157928/front.jpg
p2495
asg22
V#197
p2496
sg24
V1998-99
p2497
sg26
g27
sg28
(lp2498
VShandon Anderson
p2499
assbag1
(g2
g3
Ntp2500
Rp2501
(dp2502
g7
(dp2503
g9
V1998-99 Upper Deck Bronze #208 Greg Ostertag
p2504
sg11
I100
sg12
VUpper Deck Bronze
p2505
sg14
(lp2506
Vhttp://www.beckett.com/basketball/1998-99/upper-deck-bronze/208-greg-ostertag-3157939
p2507
asg17
g18
sg19
(lp2508
Vhttp://img.beckett.com/images/no-image.jpg
p2509
asg22
V#208
p2510
sg24
V1998-99
p2511
sg26
g27
sg28
(lp2512
VGreg Ostertag
p2513
assbag1
(g2
g3
Ntp2514
Rp2515
(dp2516
g7
(dp2517
g9
V1998-99 Upper Deck Bronze #241 Todd Fuller
p2518
sg11
I100
sg12
VUpper Deck Bronze
p2519
sg14
(lp2520
Vhttp://www.beckett.com/basketball/1998-99/upper-deck-bronze/241-todd-fuller-3157994
p2521
asg17
g18
sg19
(lp2522
Vhttp://img.beckett.com/images/no-image.jpg
p2523
asg22
V#241
p2524
sg24
V1998-99
p2525
sg26
g27
sg28
(lp2526
VTodd Fuller
p2527
assbag1
(g2
g3
Ntp2528
Rp2529
(dp2530
g7
(dp2531
g9
V1998-99 Upper Deck Bronze #255 Jacque Vaughn
p2532
sg11
I100
sg12
VUpper Deck Bronze
p2533
sg14
(lp2534
Vhttp://www.beckett.com/basketball/1998-99/upper-deck-bronze/255-jacque-vaughn-3158008
p2535
asg17
g18
sg19
(lp2536
Vhttp://img.beckett.com/images/items_stock/185226/3157718/3158008/front.jpg
p2537
asg22
V#255
p2538
sg24
V1998-99
p2539
sg26
g27
sg28
(lp2540
VJacque Vaughn
p2541
assbag1
(g2
g3
Ntp2542
Rp2543
(dp2544
g7
(dp2545
g9
V1998-99 Upper Deck Bronze #280 Jeff Hornacek
p2546
sg11
I100
sg12
VUpper Deck Bronze
p2547
sg14
(lp2548
Vhttp://www.beckett.com/basketball/1998-99/upper-deck-bronze/280-jeff-hornacek-3158033
p2549
asg17
g18
sg19
(lp2550
Vhttp://img.beckett.com/images/items_stock/185226/3157718/3158033/front.jpg
p2551
asg22
V#280
p2552
sg24
V1998-99
p2553
sg26
g27
sg28
(lp2554
VJeff Hornacek
p2555
assbag1
(g2
g3
Ntp2556
Rp2557
(dp2558
g7
(dp2559
g9
V1998-99 Upper Deck Gold #151 Karl Malone
p2560
sg11
I1
sg12
VUpper Deck Gold
p2561
sg14
(lp2562
Vhttp://www.beckett.com/basketball/1998-99/upper-deck-gold/151-karl-malone-3158247
p2563
asg17
g18
sg19
(lp2564
Vhttp://img.beckett.com/images/no-image.jpg
p2565
asg22
V#151
p2566
sg24
V1998-99
p2567
sg26
g27
sg28
(lp2568
VKarl Malone
p2569
assbag1
(g2
g3
Ntp2570
Rp2571
(dp2572
g7
(dp2573
g9
V1998-99 Upper Deck Gold #152 John Stockton
p2574
sg11
I1
sg12
VUpper Deck Gold
p2575
sg14
(lp2576
Vhttp://www.beckett.com/basketball/1998-99/upper-deck-gold/152-john-stockton-3158248
p2577
asg17
g18
sg19
(lp2578
Vhttp://img.beckett.com/images/no-image.jpg
p2579
asg22
V#152
p2580
sg24
V1998-99
p2581
sg26
g27
sg28
(lp2582
VJohn Stockton
p2583
assbag1
(g2
g3
Ntp2584
Rp2585
(dp2586
g7
(dp2587
g9
V1998-99 Upper Deck Gold #153 Adam Keefe
p2588
sg11
I1
sg12
VUpper Deck Gold
p2589
sg14
(lp2590
Vhttp://www.beckett.com/basketball/1998-99/upper-deck-gold/153-adam-keefe-3158249
p2591
asg17
g18
sg19
(lp2592
Vhttp://img.beckett.com/images/no-image.jpg
p2593
asg22
V#153
p2594
sg24
V1998-99
p2595
sg26
g27
sg28
(lp2596
VAdam Keefe
p2597
assbag1
(g2
g3
Ntp2598
Rp2599
(dp2600
g7
(dp2601
g9
V1998-99 Upper Deck Gold #154 Howard Eisley
p2602
sg11
I1
sg12
VUpper Deck Gold
p2603
sg14
(lp2604
Vhttp://www.beckett.com/basketball/1998-99/upper-deck-gold/154-howard-eisley-3158250
p2605
asg17
g18
sg19
(lp2606
Vhttp://img.beckett.com/images/no-image.jpg
p2607
asg22
V#154
p2608
sg24
V1998-99
p2609
sg26
g27
sg28
(lp2610
VHoward Eisley
p2611
assbag1
(g2
g3
Ntp2612
Rp2613
(dp2614
g7
(dp2615
g9
V1998-99 Upper Deck Gold #155 Karl Malone/John Stockton HS
p2616
sg11
I1
sg12
VUpper Deck Gold
p2617
sg14
(lp2618
Vhttp://www.beckett.com/basketball/1998-99/upper-deck-gold/155-karl-malonejohn-stockton-hs-3158251
p2619
asg17
g18
sg19
(lp2620
Vhttp://img.beckett.com/images/no-image.jpg
p2621
asg22
V#155
p2622
sg24
V1998-99
p2623
sg187
VHS
p2624
sg26
g27
sg28
(lp2625
VKarl Malone
p2626
aVJohn Stockton
p2627
assbag1
(g2
g3
Ntp2628
Rp2629
(dp2630
g7
(dp2631
g9
V1998-99 Upper Deck Gold #187 Bryon Russell
p2632
sg11
I1
sg12
VUpper Deck Gold
p2633
sg14
(lp2634
Vhttp://www.beckett.com/basketball/1998-99/upper-deck-gold/187-bryon-russell-3158283
p2635
asg17
g18
sg19
(lp2636
Vhttp://img.beckett.com/images/no-image.jpg
p2637
asg22
V#187
p2638
sg24
V1998-99
p2639
sg26
g27
sg28
(lp2640
VBryon Russell
p2641
assbag1
(g2
g3
Ntp2642
Rp2643
(dp2644
g7
(dp2645
g9
V1998-99 Upper Deck Gold #197 Shandon Anderson
p2646
sg11
I1
sg12
VUpper Deck Gold
p2647
sg14
(lp2648
Vhttp://www.beckett.com/basketball/1998-99/upper-deck-gold/197-shandon-anderson-3158293
p2649
asg17
g18
sg19
(lp2650
Vhttp://img.beckett.com/images/no-image.jpg
p2651
asg22
V#197
p2652
sg24
V1998-99
p2653
sg26
g27
sg28
(lp2654
VShandon Anderson
p2655
assbag1
(g2
g3
Ntp2656
Rp2657
(dp2658
g7
(dp2659
g9
V1998-99 Upper Deck Gold #208 Greg Ostertag
p2660
sg11
I1
sg12
VUpper Deck Gold
p2661
sg14
(lp2662
Vhttp://www.beckett.com/basketball/1998-99/upper-deck-gold/208-greg-ostertag-3158304
p2663
asg17
g18
sg19
(lp2664
Vhttp://img.beckett.com/images/no-image.jpg
p2665
asg22
V#208
p2666
sg24
V1998-99
p2667
sg26
g27
sg28
(lp2668
VGreg Ostertag
p2669
assbag1
(g2
g3
Ntp2670
Rp2671
(dp2672
g7
(dp2673
g9
V1998-99 Upper Deck Gold #241 Todd Fuller
p2674
sg11
I1
sg12
VUpper Deck Gold
p2675
sg14
(lp2676
Vhttp://www.beckett.com/basketball/1998-99/upper-deck-gold/241-todd-fuller-3158359
p2677
asg17
g18
sg19
(lp2678
Vhttp://img.beckett.com/images/no-image.jpg
p2679
asg22
V#241
p2680
sg24
V1998-99
p2681
sg26
g27
sg28
(lp2682
VTodd Fuller
p2683
assbag1
(g2
g3
Ntp2684
Rp2685
(dp2686
g7
(dp2687
g9
V1998-99 Upper Deck Gold #255 Jacque Vaughn
p2688
sg11
I1
sg12
VUpper Deck Gold
p2689
sg14
(lp2690
Vhttp://www.beckett.com/basketball/1998-99/upper-deck-gold/255-jacque-vaughn-3158373
p2691
asg17
g18
sg19
(lp2692
Vhttp://img.beckett.com/images/no-image.jpg
p2693
asg22
V#255
p2694
sg24
V1998-99
p2695
sg26
g27
sg28
(lp2696
VJacque Vaughn
p2697
assbag1
(g2
g3
Ntp2698
Rp2699
(dp2700
g7
(dp2701
g9
V1998-99 Upper Deck Gold #280 Jeff Hornacek
p2702
sg11
I1
sg12
VUpper Deck Gold
p2703
sg14
(lp2704
Vhttp://www.beckett.com/basketball/1998-99/upper-deck-gold/280-jeff-hornacek-3158398
p2705
asg17
g18
sg19
(lp2706
Vhttp://img.beckett.com/images/no-image.jpg
p2707
asg22
V#280
p2708
sg24
V1998-99
p2709
sg26
g27
sg28
(lp2710
VJeff Hornacek
p2711
assbag1
(g2
g3
Ntp2712
Rp2713
(dp2714
g7
(dp2715
g9
V1998-99 Upper Deck Encore F/X #82 Karl Malone
p2716
sg11
I125
sg12
VUpper Deck Encore F/X
p2717
sg14
(lp2718
Vhttp://www.beckett.com/basketball/1998-99/upper-deck-encore-fx/82-karl-malone-3155183
p2719
asg17
g18
sg19
(lp2720
Vhttp://img.beckett.com/images/items_stock/185226/3155089/3155183/front.jpg
p2721
asg22
V#82
p2722
sg24
V1998-99
p2723
sg26
g27
sg28
(lp2724
VKarl Malone
p2725
assbag1
(g2
g3
Ntp2726
Rp2727
(dp2728
g7
(dp2729
g9
V1998-99 Upper Deck Encore F/X #83 John Stockton
p2730
sg11
I125
sg12
VUpper Deck Encore F/X
p2731
sg14
(lp2732
Vhttp://www.beckett.com/basketball/1998-99/upper-deck-encore-fx/83-john-stockton-3155184
p2733
asg17
g18
sg19
(lp2734
Vhttp://img.beckett.com/images/no-image.jpg
p2735
asg22
V#83
p2736
sg24
V1998-99
p2737
sg26
g27
sg28
(lp2738
VJohn Stockton
p2739
assbag1
(g2
g3
Ntp2740
Rp2741
(dp2742
g7
(dp2743
g9
V1998-99 Upper Deck Encore F/X #84 Jeff Hornacek
p2744
sg11
I125
sg12
VUpper Deck Encore F/X
p2745
sg14
(lp2746
Vhttp://www.beckett.com/basketball/1998-99/upper-deck-encore-fx/84-jeff-hornacek-3155185
p2747
asg17
g18
sg19
(lp2748
Vhttp://img.beckett.com/images/items_stock/185226/3155089/3155185/front.jpg
p2749
asg22
V#84
p2750
sg24
V1998-99
p2751
sg26
g27
sg28
(lp2752
VJeff Hornacek
p2753
assbag1
(g2
g3
Ntp2754
Rp2755
(dp2756
g7
(dp2757
g9
V1998-99 Upper Deck Ovation Gold #65 Karl Malone
p2758
sg11
I1000
sg12
VUpper Deck Ovation Gold
p2759
sg14
(lp2760
Vhttp://www.beckett.com/basketball/1998-99/upper-deck-ovation-gold/65-karl-malone-3155621
p2761
asg17
g18
sg19
(lp2762
Vhttp://img.beckett.com/images/items_stock/185226/3155547/3155621/front.jpg
p2763
asg22
V#65
p2764
sg24
V1998-99
p2765
sg26
g27
sg28
(lp2766
VKarl Malone
p2767
assbag1
(g2
g3
Ntp2768
Rp2769
(dp2770
g7
(dp2771
g9
V1998-99 Upper Deck Ovation Gold #66 John Stockton
p2772
sg11
I1000
sg12
VUpper Deck Ovation Gold
p2773
sg14
(lp2774
Vhttp://www.beckett.com/basketball/1998-99/upper-deck-ovation-gold/66-john-stockton-3155622
p2775
asg17
g18
sg19
(lp2776
Vhttp://img.beckett.com/images/no-image.jpg
p2777
asg22
V#66
p2778
sg24
V1998-99
p2779
sg26
g27
sg28
(lp2780
VJohn Stockton
p2781
assbag1
(g2
g3
Ntp2782
Rp2783
(dp2784
g7
(dp2785
g9
V1998-99 Black Diamond Diamond Dominance #D27 Karl Malone
p2786
sg11
I1000
sg12
VBlack Diamond Diamond Dominance
p2787
sg14
(lp2788
Vhttp://www.beckett.com/basketball/1998-99/black-diamond-diamond-dominance/d27-karl-malone-3170868
p2789
asg17
g18
sg19
(lp2790
Vhttp://img.beckett.com/images/no-image.jpg
p2791
asg22
V#D27
p2792
sg24
V1998-99
p2793
sg26
g27
sg28
(lp2794
VKarl Malone
p2795
assbag1
(g2
g3
Ntp2796
Rp2797
(dp2798
g7
(dp2799
g9
V1998-99 Fleer Playmakers Theatre #10 Karl Malone
p2800
sg11
I100
sg12
VFleer Playmakers Theatre
p2801
sg14
(lp2802
Vhttp://www.beckett.com/basketball/1998-99/fleer-playmakers-theatre/10-karl-malone-3168311
p2803
asg17
g18
sg19
(lp2804
Vhttp://img.beckett.com/images/no-image.jpg
p2805
asg22
V#10
p2806
sg24
V1998-99
p2807
sg26
g27
sg28
(lp2808
VKarl Malone
p2809
assbag1
(g2
g3
Ntp2810
Rp2811
(dp2812
g7
(dp2813
g9
V1998-99 Hoops Prime Twine #3 Karl Malone
p2814
sg11
I500
sg12
VHoops Prime Twine
p2815
sg14
(lp2816
Vhttp://www.beckett.com/basketball/1998-99/hoops-prime-twine/3-karl-malone-3166423
p2817
asg17
g18
sg19
(lp2818
Vhttp://img.beckett.com/images/no-image.jpg
p2819
asg22
V#3
p2820
sg24
V1998-99
p2821
sg26
g27
sg28
(lp2822
VKarl Malone
p2823
assbag1
(g2
g3
Ntp2824
Rp2825
(dp2826
g7
(dp2827
g9
V1998-99 Black Diamond Diamond Dominance Emerald #D27 Karl Malone
p2828
sg11
I100
sg12
VBlack Diamond Diamond Dominance Emerald
p2829
sg14
(lp2830
Vhttp://www.beckett.com/basketball/1998-99/black-diamond-diamond-dominance-emerald/d27-karl-malone-3170907
p2831
asg17
g18
sg19
(lp2832
Vhttp://img.beckett.com/images/no-image.jpg
p2833
asg22
V#D27
p2834
sg24
V1998-99
p2835
sg26
g27
sg28
(lp2836
VKarl Malone
p2837
assbag1
(g2
g3
Ntp2838
Rp2839
(dp2840
g7
(dp2841
g9
V1998-99 Bowman's Best Mirror Image Atomic Refractors #MI4 John Stockton/Stephon Marbury
p2842
sg11
I25
sg12
VBowman's Best Mirror Image Atomic Refractors
p2843
sg14
(lp2844
Vhttp://www.beckett.com/basketball/1998-99/bowmans-best-mirror-image-atomic-refractors/mi4-john-stocktonstephon-marbury-3171547
p2845
asg17
g18
sg19
(lp2846
Vhttp://img.beckett.com/images/no-image.jpg
p2847
asg22
V#MI4
p2848
sg24
V1998-99
p2849
sg26
g27
sg28
(lp2850
VJohn Stockton
p2851
aVStephon Marbury
p2852
assbag1
(g2
g3
Ntp2853
Rp2854
(dp2855
g7
(dp2856
g9
V1998-99 Bowman's Best Mirror Image Atomic Refractors #MI16 Karl Malone/Tim Duncan
p2857
sg11
I25
sg12
VBowman's Best Mirror Image Atomic Refractors
p2858
sg14
(lp2859
Vhttp://www.beckett.com/basketball/1998-99/bowmans-best-mirror-image-atomic-refractors/mi16-karl-malonetim-duncan-3171559
p2860
asg17
g18
sg19
(lp2861
Vhttp://img.beckett.com/images/no-image.jpg
p2862
asg22
V#MI16
p2863
sg24
V1998-99
p2864
sg26
g27
sg28
(lp2865
VKarl Malone
p2866
aVTim Duncan
p2867
assbag1
(g2
g3
Ntp2868
Rp2869
(dp2870
g7
(dp2871
g9
V1998-99 Bowman's Best Mirror Image Atomic Refractors #MI20 David Robinson/Greg Ostertag
p2872
sg11
I25
sg12
VBowman's Best Mirror Image Atomic Refractors
p2873
sg14
(lp2874
Vhttp://www.beckett.com/basketball/1998-99/bowmans-best-mirror-image-atomic-refractors/mi20-david-robinsongreg-ostertag-3171563
p2875
asg17
g18
sg19
(lp2876
Vhttp://img.beckett.com/images/no-image.jpg
p2877
asg22
V#MI20
p2878
sg24
V1998-99
p2879
sg26
g27
sg28
(lp2880
VDavid Robinson
p2881
aVGreg Ostertag
p2882
assbag1
(g2
g3
Ntp2883
Rp2884
(dp2885
g7
(dp2886
g9
V1998-99 Bowman's Best Mirror Image Refractors #MI4 John Stockton/Stephon Marbury
p2887
sg11
I100
sg12
VBowman's Best Mirror Image Refractors
p2888
sg14
(lp2889
Vhttp://www.beckett.com/basketball/1998-99/bowmans-best-mirror-image-refractors/mi4-john-stocktonstephon-marbury-3171575
p2890
asg17
g18
sg19
(lp2891
Vhttp://img.beckett.com/images/no-image.jpg
p2892
asg22
V#MI4
p2893
sg24
V1998-99
p2894
sg26
g27
sg28
(lp2895
VJohn Stockton
p2896
aVStephon Marbury
p2897
assbag1
(g2
g3
Ntp2898
Rp2899
(dp2900
g7
(dp2901
g9
V1998-99 Bowman's Best Mirror Image Refractors #MI16 Karl Malone/Tim Duncan
p2902
sg11
I100
sg12
VBowman's Best Mirror Image Refractors
p2903
sg14
(lp2904
Vhttp://www.beckett.com/basketball/1998-99/bowmans-best-mirror-image-refractors/mi16-karl-malonetim-duncan-3171587
p2905
asg17
g18
sg19
(lp2906
Vhttp://img.beckett.com/images/no-image.jpg
p2907
asg22
V#MI16
p2908
sg24
V1998-99
p2909
sg26
g27
sg28
(lp2910
VKarl Malone
p2911
aVTim Duncan
p2912
assbag1
(g2
g3
Ntp2913
Rp2914
(dp2915
g7
(dp2916
g9
V1998-99 Bowman's Best Mirror Image Refractors #MI20 David Robinson/Greg Ostertag
p2917
sg11
I100
sg12
VBowman's Best Mirror Image Refractors
p2918
sg14
(lp2919
Vhttp://www.beckett.com/basketball/1998-99/bowmans-best-mirror-image-refractors/mi20-david-robinsongreg-ostertag-3171591
p2920
asg17
g18
sg19
(lp2921
Vhttp://img.beckett.com/images/no-image.jpg
p2922
asg22
V#MI20
p2923
sg24
V1998-99
p2924
sg26
g27
sg28
(lp2925
VDavid Robinson
p2926
aVGreg Ostertag
p2927
assbag1
(g2
g3
Ntp2928
Rp2929
(dp2930
g7
(dp2931
g9
V1998-99 E-X Century Essential Credentials Future #15 Karl Malone/76
p2932
sg11
I76
sg12
VE-X Century Essential Credentials Future
p2933
sg14
(lp2934
Vhttp://www.beckett.com/basketball/1998-99/e-x-century-essential-credentials-future/15-karl-malone76-3168966
p2935
asg17
g18
sg19
(lp2936
Vhttp://img.beckett.com/images/no-image.jpg
p2937
asg22
V#15
p2938
sg24
V1998-99
p2939
sg26
g27
sg28
(lp2940
VKarl Malone
p2941
assbag1
(g2
g3
Ntp2942
Rp2943
(dp2944
g7
(dp2945
g9
V1998-99 E-X Century Essential Credentials Future #30 John Stockton/61
p2946
sg11
I61
sg12
VE-X Century Essential Credentials Future
p2947
sg14
(lp2948
Vhttp://www.beckett.com/basketball/1998-99/e-x-century-essential-credentials-future/30-john-stockton61-3168981
p2949
asg17
g18
sg19
(lp2950
Vhttp://img.beckett.com/images/no-image.jpg
p2951
asg22
V#30
p2952
sg24
V1998-99
p2953
sg26
g27
sg28
(lp2954
VJohn Stockton
p2955
assbag1
(g2
g3
Ntp2956
Rp2957
(dp2958
g7
(dp2959
g9
V1998-99 E-X Century Essential Credentials Future #56 Jeff Hornacek/35
p2960
sg11
I35
sg12
VE-X Century Essential Credentials Future
p2961
sg14
(lp2962
Vhttp://www.beckett.com/basketball/1998-99/e-x-century-essential-credentials-future/56-jeff-hornacek35-3169007
p2963
asg17
g18
sg19
(lp2964
Vhttp://img.beckett.com/images/no-image.jpg
p2965
asg22
V#56
p2966
sg24
V1998-99
p2967
sg26
g27
sg28
(lp2968
VJeff Hornacek
p2969
assbag1
(g2
g3
Ntp2970
Rp2971
(dp2972
g7
(dp2973
g9
V1998-99 E-X Century Essential Credentials Now #15 Karl Malone/15
p2974
sg11
I15
sg12
VE-X Century Essential Credentials Now
p2975
sg14
(lp2976
Vhttp://www.beckett.com/basketball/1998-99/e-x-century-essential-credentials-now/15-karl-malone15-3169063
p2977
asg17
g18
sg19
(lp2978
Vhttp://img.beckett.com/images/no-image.jpg
p2979
asg22
V#15
p2980
sg24
V1998-99
p2981
sg26
g27
sg28
(lp2982
VKarl Malone
p2983
assbag1
(g2
g3
Ntp2984
Rp2985
(dp2986
g7
(dp2987
g9
V1998-99 E-X Century Essential Credentials Now #30 John Stockton/30
p2988
sg11
I30
sg12
VE-X Century Essential Credentials Now
p2989
sg14
(lp2990
Vhttp://www.beckett.com/basketball/1998-99/e-x-century-essential-credentials-now/30-john-stockton30-3169078
p2991
asg17
g18
sg19
(lp2992
Vhttp://img.beckett.com/images/no-image.jpg
p2993
asg22
V#30
p2994
sg24
V1998-99
p2995
sg26
g27
sg28
(lp2996
VJohn Stockton
p2997
assbag1
(g2
g3
Ntp2998
Rp2999
(dp3000
g7
(dp3001
g9
V1998-99 E-X Century Essential Credentials Now #56 Jeff Hornacek/56
p3002
sg11
I56
sg12
VE-X Century Essential Credentials Now
p3003
sg14
(lp3004
Vhttp://www.beckett.com/basketball/1998-99/e-x-century-essential-credentials-now/56-jeff-hornacek56-3169104
p3005
asg17
g18
sg19
(lp3006
Vhttp://img.beckett.com/images/no-image.jpg
p3007
asg22
V#56
p3008
sg24
V1998-99
p3009
sg26
g27
sg28
(lp3010
VJeff Hornacek
p3011
assbag1
(g2
g3
Ntp3012
Rp3013
(dp3014
g7
(dp3015
g9
V1998-99 SkyBox Premium Autographics Blue #38 Howard Eisley
p3016
sg11
I50
sg12
VSkyBox Premium Autographics Blue
p3017
sg14
(lp3018
Vhttp://www.beckett.com/basketball/1998-99/skybox-premium-autographics-blue/38-howard-eisley-3165593
p3019
asg17
g18
sg19
(lp3020
Vhttp://img.beckett.com/images/no-image.jpg
p3021
asg22
V#38
p3022
sS'autograph'
p3023
I1
sg24
V1998-99
p3024
sg26
g27
sg28
(lp3025
VHoward Eisley
p3026
assbag1
(g2
g3
Ntp3027
Rp3028
(dp3029
g7
(dp3030
g9
V1998-99 SkyBox Premium Autographics Blue #43 Todd Fuller
p3031
sg11
I50
sg12
VSkyBox Premium Autographics Blue
p3032
sg14
(lp3033
Vhttp://www.beckett.com/basketball/1998-99/skybox-premium-autographics-blue/43-todd-fuller-3165598
p3034
asg17
g18
sg19
(lp3035
Vhttp://img.beckett.com/images/no-image.jpg
p3036
asg22
V#43
p3037
sg3023
I1
sg24
V1998-99
p3038
sg26
g27
sg28
(lp3039
VTodd Fuller
p3040
assbag1
(g2
g3
Ntp3041
Rp3042
(dp3043
g7
(dp3044
g9
V1998-99 SkyBox Premium Autographics Blue #67 Adam Keefe
p3045
sg11
I50
sg12
VSkyBox Premium Autographics Blue
p3046
sg14
(lp3047
Vhttp://www.beckett.com/basketball/1998-99/skybox-premium-autographics-blue/67-adam-keefe-3165622
p3048
asg17
g18
sg19
(lp3049
Vhttp://img.beckett.com/images/no-image.jpg
p3050
asg22
V#67
p3051
sg3023
I1
sg24
V1998-99
p3052
sg26
g27
sg28
(lp3053
VAdam Keefe
p3054
assbag1
(g2
g3
Ntp3055
Rp3056
(dp3057
g7
(dp3058
g9
V1998-99 SkyBox Premium Autographics Blue #76 Karl Malone
p3059
sg11
I50
sg12
VSkyBox Premium Autographics Blue
p3060
sg14
(lp3061
Vhttp://www.beckett.com/basketball/1998-99/skybox-premium-autographics-blue/76-karl-malone-3165631
p3062
asg17
g18
sg19
(lp3063
Vhttp://img.beckett.com/images/no-image.jpg
p3064
asg22
V#76
p3065
sg3023
I1
sg24
V1998-99
p3066
sg26
g27
sg28
(lp3067
VKarl Malone
p3068
assbag1
(g2
g3
Ntp3069
Rp3070
(dp3071
g7
(dp3072
g9
V1998-99 SkyBox Premium Autographics Blue #108 Bryon Russell
p3073
sg11
I50
sg12
VSkyBox Premium Autographics Blue
p3074
sg14
(lp3075
Vhttp://www.beckett.com/basketball/1998-99/skybox-premium-autographics-blue/108-bryon-russell-3165663
p3076
asg17
g18
sg19
(lp3077
Vhttp://img.beckett.com/images/no-image.jpg
p3078
asg22
V#108
p3079
sg3023
I1
sg24
V1998-99
p3080
sg26
g27
sg28
(lp3081
VBryon Russell
p3082
assbag1
(g2
g3
Ntp3083
Rp3084
(dp3085
g7
(dp3086
g9
V1998-99 SkyBox Premium Autographics Blue #128 Jacque Vaughn
p3087
sg11
I50
sg12
VSkyBox Premium Autographics Blue
p3088
sg14
(lp3089
Vhttp://www.beckett.com/basketball/1998-99/skybox-premium-autographics-blue/128-jacque-vaughn-3165683
p3090
asg17
g18
sg19
(lp3091
Vhttp://img.beckett.com/images/no-image.jpg
p3092
asg22
V#128
p3093
sg3023
I1
sg24
V1998-99
p3094
sg26
g27
sg28
(lp3095
VJacque Vaughn
p3096
assbag1
(g2
g3
Ntp3097
Rp3098
(dp3099
g7
(dp3100
g9
V1998-99 Topps Chrome Apparitions Refractors #A4 Karl Malone
p3101
sg11
I100
sg12
VTopps Chrome Apparitions Refractors
p3102
sg14
(lp3103
Vhttp://www.beckett.com/basketball/1998-99/topps-chrome-apparitions-refractors/a4-karl-malone-3160664
p3104
asg17
g18
sg19
(lp3105
Vhttp://img.beckett.com/images/no-image.jpg
p3106
asg22
V#A4
p3107
sg24
V1998-99
p3108
sg26
g27
sg28
(lp3109
VKarl Malone
p3110
assbag1
(g2
g3
Ntp3111
Rp3112
(dp3113
g7
(dp3114
g9
V1998-99 UD Choice StarQuest Gold #SQ27 Karl Malone
p3115
sg11
I100
sg12
VUD Choice StarQuest Gold
p3116
sg14
(lp3117
Vhttp://www.beckett.com/basketball/1998-99/ud-choice-starquest-gold/sq27-karl-malone-3159488
p3118
asg17
g18
sg19
(lp3119
Vhttp://img.beckett.com/images/no-image.jpg
p3120
asg22
V#SQ27
p3121
sg24
V1998-99
p3122
sg26
g27
sg28
(lp3123
VKarl Malone
p3124
assbag1
(g2
g3
Ntp3125
Rp3126
(dp3127
g7
(dp3128
g9
V1998-99 Upper Deck AeroDynamics Bronze #A28 Karl Malone
p3129
sg11
I2000
sg12
VUpper Deck AeroDynamics Bronze
p3130
sg14
(lp3131
Vhttp://www.beckett.com/basketball/1998-99/upper-deck-aerodynamics-bronze/a28-karl-malone-3155747
p3132
asg17
g18
sg19
(lp3133
Vhttp://img.beckett.com/images/items_stock/185226/3155712/3155747/front.jpg
p3134
asg22
V#A28
p3135
sg24
V1998-99
p3136
sg26
g27
sg28
(lp3137
VKarl Malone
p3138
assbag1
(g2
g3
Ntp3139
Rp3140
(dp3141
g7
(dp3142
g9
V1998-99 Upper Deck AeroDynamics Silver #A28 Karl Malone
p3143
sg11
I100
sg12
VUpper Deck AeroDynamics Silver
p3144
sg14
(lp3145
Vhttp://www.beckett.com/basketball/1998-99/upper-deck-aerodynamics-silver/a28-karl-malone-3155823
p3146
asg17
g18
sg19
(lp3147
Vhttp://img.beckett.com/images/no-image.jpg
p3148
asg22
V#A28
p3149
sg24
V1998-99
p3150
sg26
g27
sg28
(lp3151
VKarl Malone
p3152
assbag1
(g2
g3
Ntp3153
Rp3154
(dp3155
g7
(dp3156
g9
V1998-99 Upper Deck AeroDynamics Gold #A28 Karl Malone
p3157
sg11
I25
sg12
VUpper Deck AeroDynamics Gold
p3158
sg14
(lp3159
Vhttp://www.beckett.com/basketball/1998-99/upper-deck-aerodynamics-gold/a28-karl-malone-3155785
p3160
asg17
g18
sg19
(lp3161
Vhttp://img.beckett.com/images/no-image.jpg
p3162
asg22
V#A28
p3163
sg24
V1998-99
p3164
sg26
g27
sg28
(lp3165
VKarl Malone
p3166
assbag1
(g2
g3
Ntp3167
Rp3168
(dp3169
g7
(dp3170
g9
V1998-99 Upper Deck Forces Bronze #F19 Karl Malone
p3171
sg11
I1000
sg12
VUpper Deck Forces Bronze
p3172
sg14
(lp3173
Vhttp://www.beckett.com/basketball/1998-99/upper-deck-forces-bronze/f19-karl-malone-3155896
p3174
asg17
g18
sg19
(lp3175
Vhttp://img.beckett.com/images/items_stock/185226/3155870/3155896/front.jpg
p3176
asg22
V#F19
p3177
sg24
V1998-99
p3178
sg26
g27
sg28
(lp3179
VKarl Malone
p3180
assbag1
(g2
g3
Ntp3181
Rp3182
(dp3183
g7
(dp3184
g9
V1998-99 Upper Deck Forces Silver #F19 Karl Malone
p3185
sg11
I50
sg12
VUpper Deck Forces Silver
p3186
sg14
(lp3187
Vhttp://www.beckett.com/basketball/1998-99/upper-deck-forces-silver/f19-karl-malone-3155972
p3188
asg17
g18
sg19
(lp3189
Vhttp://img.beckett.com/images/no-image.jpg
p3190
asg22
V#F19
p3191
sg24
V1998-99
p3192
sg26
g27
sg28
(lp3193
VKarl Malone
p3194
assbag1
(g2
g3
Ntp3195
Rp3196
(dp3197
g7
(dp3198
g9
V1998-99 Upper Deck Forces Gold #F19 Karl Malone
p3199
sg11
I25
sg12
VUpper Deck Forces Gold
p3200
sg14
(lp3201
Vhttp://www.beckett.com/basketball/1998-99/upper-deck-forces-gold/f19-karl-malone-3155934
p3202
asg17
g18
sg19
(lp3203
Vhttp://img.beckett.com/images/no-image.jpg
p3204
asg22
V#F19
p3205
sg24
V1998-99
p3206
sg26
g27
sg28
(lp3207
VKarl Malone
p3208
assbag1
(g2
g3
Ntp3209
Rp3210
(dp3211
g7
(dp3212
g9
V1998-99 Upper Deck Intensity Bronze #I21 John Stockton
p3213
sg11
I1500
sg12
VUpper Deck Intensity Bronze
p3214
sg14
(lp3215
Vhttp://www.beckett.com/basketball/1998-99/upper-deck-intensity-bronze/i21-john-stockton-3156117
p3216
asg17
g18
sg19
(lp3217
Vhttp://img.beckett.com/images/items_stock/185226/3156089/3156117/front.jpg
p3218
asg22
V#I21
p3219
sg24
V1998-99
p3220
sg26
g27
sg28
(lp3221
VJohn Stockton
p3222
assbag1
(g2
g3
Ntp3223
Rp3224
(dp3225
g7
(dp3226
g9
V1998-99 Upper Deck Intensity Silver #I21 John Stockton
p3227
sg11
I75
sg12
VUpper Deck Intensity Silver
p3228
sg14
(lp3229
Vhttp://www.beckett.com/basketball/1998-99/upper-deck-intensity-silver/i21-john-stockton-3156193
p3230
asg17
g18
sg19
(lp3231
Vhttp://img.beckett.com/images/no-image.jpg
p3232
asg22
V#I21
p3233
sg24
V1998-99
p3234
sg26
g27
sg28
(lp3235
VJohn Stockton
p3236
assbag1
(g2
g3
Ntp3237
Rp3238
(dp3239
g7
(dp3240
g9
V1998-99 Upper Deck Intensity Gold #I21 John Stockton
p3241
sg11
I25
sg12
VUpper Deck Intensity Gold
p3242
sg14
(lp3243
Vhttp://www.beckett.com/basketball/1998-99/upper-deck-intensity-gold/i21-john-stockton-3156155
p3244
asg17
g18
sg19
(lp3245
Vhttp://img.beckett.com/images/no-image.jpg
p3246
asg22
V#I21
p3247
sg24
V1998-99
p3248
sg26
g27
sg28
(lp3249
VJohn Stockton
p3250
assbag1
(g2
g3
Ntp3251
Rp3252
(dp3253
g7
(dp3254
g9
V1998-99 Upper Deck Super Powers Bronze #S27 Karl Malone
p3255
sg11
I1000
sg12
VUpper Deck Super Powers Bronze
p3256
sg14
(lp3257
Vhttp://www.beckett.com/basketball/1998-99/upper-deck-super-powers-bronze/s27-karl-malone-3154834
p3258
asg17
g18
sg19
(lp3259
Vhttp://img.beckett.com/images/items_stock/185226/3154800/3154834/front.jpg
p3260
asg22
V#S27
p3261
sg24
V1998-99
p3262
sg26
g27
sg28
(lp3263
VKarl Malone
p3264
assbag1
(g2
g3
Ntp3265
Rp3266
(dp3267
g7
(dp3268
g9
V1998-99 Upper Deck Super Powers Silver #S27 Karl Malone
p3269
sg11
I100
sg12
VUpper Deck Super Powers Silver
p3270
sg14
(lp3271
Vhttp://www.beckett.com/basketball/1998-99/upper-deck-super-powers-silver/s27-karl-malone-3154910
p3272
asg17
g18
sg19
(lp3273
Vhttp://img.beckett.com/images/no-image.jpg
p3274
asg22
V#S27
p3275
sg24
V1998-99
p3276
sg26
g27
sg28
(lp3277
VKarl Malone
p3278
assbag1
(g2
g3
Ntp3279
Rp3280
(dp3281
g7
(dp3282
g9
V1998-99 Upper Deck Super Powers Gold #S27 Karl Malone
p3283
sg11
I50
sg12
VUpper Deck Super Powers Gold
p3284
sg14
(lp3285
Vhttp://www.beckett.com/basketball/1998-99/upper-deck-super-powers-gold/s27-karl-malone-3154872
p3286
asg17
g18
sg19
(lp3287
Vhttp://img.beckett.com/images/no-image.jpg
p3288
asg22
V#S27
p3289
sg24
V1998-99
p3290
sg26
g27
sg28
(lp3291
VKarl Malone
p3292
assba.