(lp0
Naccopy_reg
_reconstructor
p1
(ctutorial.items
BeckettItem
p2
c__builtin__
object
p3
Ntp4
Rp5
(dp6
S'_values'
p7
(dp8
S'originalItemDescription'
p9
V1996-97 E-X2000 Credentials #1 Christian Laettner
p10
sS'serialNumber'
p11
I499
sS'setName'
p12
VE-X2000 Credentials
p13
sS'beckettLink'
p14
(lp15
Vhttp://www.beckett.com/basketball/1996-97/e-x2000-credentials/1-christian-laettner-3121459
p16
asS'team'
p17
S'Atlanta Hawks'
p18
sS'imageLink'
p19
(lp20
Vhttp://img.beckett.com/images/no-image.jpg
p21
asS'cardNumber'
p22
V#1
p23
sS'year'
p24
V1996-97
p25
sS'sport'
p26
S'Basketball'
p27
sS'playerNames'
p28
(lp29
VChristian Laettner
p30
assbag1
(g2
g3
Ntp31
Rp32
(dp33
g7
(dp34
g9
V1996-97 E-X2000 Credentials #2 Dikembe Mutombo
p35
sg11
I499
sg12
VE-X2000 Credentials
p36
sg14
(lp37
Vhttp://www.beckett.com/basketball/1996-97/e-x2000-credentials/2-dikembe-mutombo-3121460
p38
asg17
g18
sg19
(lp39
Vhttp://img.beckett.com/images/no-image.jpg
p40
asg22
V#2
p41
sg24
V1996-97
p42
sg26
g27
sg28
(lp43
VDikembe Mutombo
p44
assbag1
(g2
g3
Ntp45
Rp46
(dp47
g7
(dp48
g9
V1996-97 E-X2000 Credentials #3 Steve Smith
p49
sg11
I499
sg12
VE-X2000 Credentials
p50
sg14
(lp51
Vhttp://www.beckett.com/basketball/1996-97/e-x2000-credentials/3-steve-smith-3121461
p52
asg17
g18
sg19
(lp53
Vhttp://img.beckett.com/images/items_stock/185226/3121449/3121461/front.jpg
p54
asg22
V#3
p55
sg24
V1996-97
p56
sg26
g27
sg28
(lp57
VSteve Smith
p58
assbag1
(g2
g3
Ntp59
Rp60
(dp61
g7
(dp62
g9
V1996-97 Flair Showcase Legacy Collection Row 2 #39 Christian Laettner
p63
sg11
I150
sg12
VFlair Showcase Legacy Collection Row 2
p64
sg14
(lp65
Vhttp://www.beckett.com/basketball/1996-97/flair-showcase-legacy-collection-row-2/39-christian-laettner-3126164
p66
asg17
g18
sg19
(lp67
Vhttp://img.beckett.com/images/items_stock/185226/3126116/3126164/front.jpg
p68
asg22
V#39
p69
sg24
V1996-97
p70
sg26
g27
sg28
(lp71
VChristian Laettner
p72
assbag1
(g2
g3
Ntp73
Rp74
(dp75
g7
(dp76
g9
V1996-97 Flair Showcase Legacy Collection Row 2 #53 Mookie Blaylock
p77
sg11
I150
sg12
VFlair Showcase Legacy Collection Row 2
p78
sg14
(lp79
Vhttp://www.beckett.com/basketball/1996-97/flair-showcase-legacy-collection-row-2/53-mookie-blaylock-3126178
p80
asg17
g18
sg19
(lp81
Vhttp://img.beckett.com/images/items_stock/185226/3126116/3126178/front.jpg
p82
asg22
V#53
p83
sg24
V1996-97
p84
sg26
g27
sg28
(lp85
VMookie Blaylock
p86
assbag1
(g2
g3
Ntp87
Rp88
(dp89
g7
(dp90
g9
V1996-97 Flair Showcase Legacy Collection Row 1 #39 Christian Laettner
p91
sg11
I150
sg12
VFlair Showcase Legacy Collection Row 1
p92
sg14
(lp93
Vhttp://www.beckett.com/basketball/1996-97/flair-showcase-legacy-collection-row-1/39-christian-laettner-3126064
p94
asg17
g18
sg19
(lp95
Vhttp://img.beckett.com/images/no-image.jpg
p96
asg22
V#39
p97
sg24
V1996-97
p98
sg26
g27
sg28
(lp99
VChristian Laettner
p100
assbag1
(g2
g3
Ntp101
Rp102
(dp103
g7
(dp104
g9
V1996-97 Flair Showcase Legacy Collection Row 1 #53 Mookie Blaylock
p105
sg11
I150
sg12
VFlair Showcase Legacy Collection Row 1
p106
sg14
(lp107
Vhttp://www.beckett.com/basketball/1996-97/flair-showcase-legacy-collection-row-1/53-mookie-blaylock-3126078
p108
asg17
g18
sg19
(lp109
Vhttp://img.beckett.com/images/items_stock/185226/3126021/3126078/front.jpg
p110
asg22
V#53
p111
sg24
V1996-97
p112
sg26
g27
sg28
(lp113
VMookie Blaylock
p114
assbag1
(g2
g3
Ntp115
Rp116
(dp117
g7
(dp118
g9
V1996-97 Flair Showcase Legacy Collection Row 0 #39 Christian Laettner
p119
sg11
I150
sg12
VFlair Showcase Legacy Collection Row 0
p120
sg14
(lp121
Vhttp://www.beckett.com/basketball/1996-97/flair-showcase-legacy-collection-row-0/39-christian-laettner-3126775
p122
asg17
g18
sg19
(lp123
Vhttp://img.beckett.com/images/no-image.jpg
p124
asg22
V#39
p125
sg24
V1996-97
p126
sg26
g27
sg28
(lp127
VChristian Laettner
p128
assbag1
(g2
g3
Ntp129
Rp130
(dp131
g7
(dp132
g9
V1996-97 Flair Showcase Legacy Collection Row 0 #53 Mookie Blaylock
p133
sg11
I150
sg12
VFlair Showcase Legacy Collection Row 0
p134
sg14
(lp135
Vhttp://www.beckett.com/basketball/1996-97/flair-showcase-legacy-collection-row-0/53-mookie-blaylock-3126789
p136
asg17
g18
sg19
(lp137
Vhttp://img.beckett.com/images/no-image.jpg
p138
asg22
V#53
p139
sg24
V1996-97
p140
sg26
g27
sg28
(lp141
VMookie Blaylock
p142
assba.