(lp0
Naccopy_reg
_reconstructor
p1
(ctutorial.items
BeckettItem
p2
c__builtin__
object
p3
Ntp4
Rp5
(dp6
S'_values'
p7
(dp8
S'originalItemDescription'
p9
V1996-97 E-X2000 Credentials #4 Antoine Walker
p10
sS'serialNumber'
p11
I499
sS'setName'
p12
VE-X2000 Credentials
p13
sS'beckettLink'
p14
(lp15
Vhttp://www.beckett.com/basketball/1996-97/e-x2000-credentials/4-antoine-walker-3121462
p16
asS'team'
p17
S'Boston Celtics'
p18
sS'imageLink'
p19
(lp20
Vhttp://img.beckett.com/images/items_stock/185226/3121449/3121462/front.jpg
p21
asS'cardNumber'
p22
V#4
p23
sS'year'
p24
V1996-97
p25
sS'sport'
p26
S'Basketball'
p27
sS'playerNames'
p28
(lp29
VAntoine Walker
p30
assbag1
(g2
g3
Ntp31
Rp32
(dp33
g7
(dp34
g9
V1996-97 E-X2000 Credentials #5 David Wesley
p35
sg11
I499
sg12
VE-X2000 Credentials
p36
sg14
(lp37
Vhttp://www.beckett.com/basketball/1996-97/e-x2000-credentials/5-david-wesley-3121463
p38
asg17
g18
sg19
(lp39
Vhttp://img.beckett.com/images/no-image.jpg
p40
asg22
V#5
p41
sg24
V1996-97
p42
sg26
g27
sg28
(lp43
VDavid Wesley
p44
assbag1
(g2
g3
Ntp45
Rp46
(dp47
g7
(dp48
g9
V1996-97 Flair Showcase Legacy Collection Row 2 #26 Antoine Walker
p49
sg11
I150
sg12
VFlair Showcase Legacy Collection Row 2
p50
sg14
(lp51
Vhttp://www.beckett.com/basketball/1996-97/flair-showcase-legacy-collection-row-2/26-antoine-walker-3126151
p52
asg17
g18
sg19
(lp53
Vhttp://img.beckett.com/images/items_stock/185226/3126116/3126151/front.jpg
p54
asg22
V#26
p55
sg24
V1996-97
p56
sg26
g27
sg28
(lp57
VAntoine Walker
p58
assbag1
(g2
g3
Ntp59
Rp60
(dp61
g7
(dp62
g9
V1996-97 Flair Showcase Legacy Collection Row 2 #64 Dino Radja
p63
sg11
I150
sg12
VFlair Showcase Legacy Collection Row 2
p64
sg14
(lp65
Vhttp://www.beckett.com/basketball/1996-97/flair-showcase-legacy-collection-row-2/64-dino-radja-3126189
p66
asg17
g18
sg19
(lp67
Vhttp://img.beckett.com/images/items_stock/185226/3126116/3126189/front.jpg
p68
asg22
V#64
p69
sg24
V1996-97
p70
sg26
g27
sg28
(lp71
VDino Radja
p72
assbag1
(g2
g3
Ntp73
Rp74
(dp75
g7
(dp76
g9
V1996-97 Flair Showcase Legacy Collection Row 2 #80 David Wesley
p77
sg11
I150
sg12
VFlair Showcase Legacy Collection Row 2
p78
sg14
(lp79
Vhttp://www.beckett.com/basketball/1996-97/flair-showcase-legacy-collection-row-2/80-david-wesley-3126205
p80
asg17
g18
sg19
(lp81
Vhttp://img.beckett.com/images/items_stock/185226/3126116/3126205/front.jpg
p82
asg22
V#80
p83
sg24
V1996-97
p84
sg26
g27
sg28
(lp85
VDavid Wesley
p86
assbag1
(g2
g3
Ntp87
Rp88
(dp89
g7
(dp90
g9
V1996-97 Flair Showcase Legacy Collection Row 1 #26 Antoine Walker
p91
sg11
I150
sg12
VFlair Showcase Legacy Collection Row 1
p92
sg14
(lp93
Vhttp://www.beckett.com/basketball/1996-97/flair-showcase-legacy-collection-row-1/26-antoine-walker-3126051
p94
asg17
g18
sg19
(lp95
Vhttp://img.beckett.com/images/no-image.jpg
p96
asg22
V#26
p97
sg24
V1996-97
p98
sg26
g27
sg28
(lp99
VAntoine Walker
p100
assbag1
(g2
g3
Ntp101
Rp102
(dp103
g7
(dp104
g9
V1996-97 Flair Showcase Legacy Collection Row 1 #64 Dino Radja
p105
sg11
I150
sg12
VFlair Showcase Legacy Collection Row 1
p106
sg14
(lp107
Vhttp://www.beckett.com/basketball/1996-97/flair-showcase-legacy-collection-row-1/64-dino-radja-3126089
p108
asg17
g18
sg19
(lp109
Vhttp://img.beckett.com/images/items_stock/185226/3126021/3126089/front.jpg
p110
asg22
V#64
p111
sg24
V1996-97
p112
sg26
g27
sg28
(lp113
VDino Radja
p114
assbag1
(g2
g3
Ntp115
Rp116
(dp117
g7
(dp118
g9
V1996-97 Flair Showcase Legacy Collection Row 1 #80 David Wesley
p119
sg11
I150
sg12
VFlair Showcase Legacy Collection Row 1
p120
sg14
(lp121
Vhttp://www.beckett.com/basketball/1996-97/flair-showcase-legacy-collection-row-1/80-david-wesley-3126105
p122
asg17
g18
sg19
(lp123
Vhttp://img.beckett.com/images/no-image.jpg
p124
asg22
V#80
p125
sg24
V1996-97
p126
sg26
g27
sg28
(lp127
VDavid Wesley
p128
assbag1
(g2
g3
Ntp129
Rp130
(dp131
g7
(dp132
g9
V1996-97 Flair Showcase Legacy Collection Row 0 #26 Antoine Walker
p133
sg11
I150
sg12
VFlair Showcase Legacy Collection Row 0
p134
sg14
(lp135
Vhttp://www.beckett.com/basketball/1996-97/flair-showcase-legacy-collection-row-0/26-antoine-walker-3126762
p136
asg17
g18
sg19
(lp137
Vhttp://img.beckett.com/images/no-image.jpg
p138
asg22
V#26
p139
sg24
V1996-97
p140
sg26
g27
sg28
(lp141
VAntoine Walker
p142
assbag1
(g2
g3
Ntp143
Rp144
(dp145
g7
(dp146
g9
V1996-97 Flair Showcase Legacy Collection Row 0 #64 Dino Radja
p147
sg11
I150
sg12
VFlair Showcase Legacy Collection Row 0
p148
sg14
(lp149
Vhttp://www.beckett.com/basketball/1996-97/flair-showcase-legacy-collection-row-0/64-dino-radja-3126800
p150
asg17
g18
sg19
(lp151
Vhttp://img.beckett.com/images/no-image.jpg
p152
asg22
V#64
p153
sg24
V1996-97
p154
sg26
g27
sg28
(lp155
VDino Radja
p156
assbag1
(g2
g3
Ntp157
Rp158
(dp159
g7
(dp160
g9
V1996-97 Flair Showcase Legacy Collection Row 0 #80 David Wesley
p161
sg11
I150
sg12
VFlair Showcase Legacy Collection Row 0
p162
sg14
(lp163
Vhttp://www.beckett.com/basketball/1996-97/flair-showcase-legacy-collection-row-0/80-david-wesley-3126816
p164
asg17
g18
sg19
(lp165
Vhttp://img.beckett.com/images/items_stock/185226/3126732/3126816/front.jpg
p166
asg22
V#80
p167
sg24
V1996-97
p168
sg26
g27
sg28
(lp169
VDavid Wesley
p170
assba.