(lp0
Naccopy_reg
_reconstructor
p1
(ctutorial.items
BeckettItem
p2
c__builtin__
object
p3
Ntp4
Rp5
(dp6
S'_values'
p7
(dp8
S'originalItemDescription'
p9
V1996 UDA SPx Record Breaker Michael Jordan #R1 Michael Jordan AU/250
p10
sS'serialNumber'
p11
I250
sS'setName'
p12
VUDA SPx Record Breaker Michael Jordan
p13
sS'beckettLink'
p14
(lp15
Vhttp://www.beckett.com/basketball/1996/uda-spx-record-breaker-michael-jordan/r1-michael-jordan-au250-3107896
p16
asS'team'
p17
S'Chicago Bulls'
p18
sS'imageLink'
p19
(lp20
Vhttp://img.beckett.com/images/no-image.jpg
p21
asS'cardNumber'
p22
V#R1
p23
sS'autograph'
p24
I1
sS'year'
p25
V1996
p26
sS'sport'
p27
S'Basketball'
p28
sS'playerNames'
p29
(lp30
VMichael Jordan
p31
assbag1
(g2
g3
Ntp32
Rp33
(dp34
g7
(dp35
g9
V1996 Upper Deck 22K Gold Michael Jordan #NNO Michael Jordan/He's Back
p36
sg11
I10000
sg12
VUpper Deck 22K Gold Michael Jordan
p37
sg14
(lp38
Vhttp://www.beckett.com/basketball/1996/upper-deck-22k-gold-michael-jordan/nno-michael-jordanhes-back-3113121
p39
asg17
g18
sg19
(lp40
Vhttp://img.beckett.com/images/no-image.jpg
p41
asg22
V#NNO
p42
sg25
V1996
p43
sg27
g28
sg29
(lp44
VMichael Jordan
p45
aVHe's Back
p46
assbag1
(g2
g3
Ntp47
Rp48
(dp49
g7
(dp50
g9
V1996 Upper Deck 22K Gold Michael Jordan #NNO Michael Jordan/First Championship
p51
sg11
I10000
sg12
VUpper Deck 22K Gold Michael Jordan
p52
sg14
(lp53
Vhttp://www.beckett.com/basketball/1996/upper-deck-22k-gold-michael-jordan/nno-michael-jordanfirst-championship-3113122
p54
asg17
g18
sg19
(lp55
Vhttp://img.beckett.com/images/no-image.jpg
p56
asg22
V#NNO
p57
sg25
V1996
p58
sg27
g28
sg29
(lp59
VMichael Jordan
p60
aVFirst Championship
p61
assbag1
(g2
g3
Ntp62
Rp63
(dp64
g7
(dp65
g9
V1996 Upper Deck Authenticated Space Jam Celcards #NNO Michael Jordan/Bugs Bunny
p66
sg11
I5000
sg12
VUpper Deck Authenticated Space Jam Celcards
p67
sg14
(lp68
Vhttp://www.beckett.com/basketball/1996/upper-deck-authenticated-space-jam-celcards/nno-michael-jordanbugs-bunny-3107888
p69
asg17
g18
sg19
(lp70
Vhttp://img.beckett.com/images/no-image.jpg
p71
asg22
V#NNO
p72
sg25
V1996
p73
sg27
g28
sg29
(lp74
VMichael Jordan
p75
aVBugs Bunny
p76
assbag1
(g2
g3
Ntp77
Rp78
(dp79
g7
(dp80
g9
V1996 Upper Deck Authenticated Space Jam Celcards #NNO Michael Jordan/Bugs Bunny #2
p81
sg11
I5000
sg12
VUpper Deck Authenticated Space Jam Celcards
p82
sg14
(lp83
Vhttp://www.beckett.com/basketball/1996/upper-deck-authenticated-space-jam-celcards/nno-michael-jordanbugs-bunny-2-3107889
p84
asg17
g18
sg19
(lp85
Vhttp://img.beckett.com/images/no-image.jpg
p86
asg22
V#NNO
p87
sg25
V1996
p88
sg27
g28
sg29
(lp89
VMichael Jordan
p90
aVBugs Bunny
p91
assbag1
(g2
g3
Ntp92
Rp93
(dp94
g7
(dp95
g9
V1996 Upper Deck Authenticated Space Jam Celcards #NNO Michael Jordan/Monstar
p96
sg11
I5000
sg12
VUpper Deck Authenticated Space Jam Celcards
p97
sg14
(lp98
Vhttp://www.beckett.com/basketball/1996/upper-deck-authenticated-space-jam-celcards/nno-michael-jordanmonstar-3107890
p99
asg17
g18
sg19
(lp100
Vhttp://img.beckett.com/images/no-image.jpg
p101
asg22
V#NNO
p102
sg25
V1996
p103
sg27
g28
sg29
(lp104
VMichael Jordan
p105
aVMonstar
p106
assbag1
(g2
g3
Ntp107
Rp108
(dp109
g7
(dp110
g9
V1996 Upper Deck Authenticated Space Jam Celcards #NNO Michael Jordan/The Tune Squad
p111
sg11
I5000
sg12
VUpper Deck Authenticated Space Jam Celcards
p112
sg14
(lp113
Vhttp://www.beckett.com/basketball/1996/upper-deck-authenticated-space-jam-celcards/nno-michael-jordanthe-tune-squad-3107891
p114
asg17
g18
sg19
(lp115
Vhttp://img.beckett.com/images/no-image.jpg
p116
asg22
V#NNO
p117
sg25
V1996
p118
sg27
g28
sg29
(lp119
VMichael Jordan
p120
aVThe Tune Squad
p121
assbag1
(g2
g3
Ntp122
Rp123
(dp124
g7
(dp125
g9
V1996 Upper Deck Authenticated Space Jam Celcards #NNO Michael Jordan/Bugs Bunny
p126
sg11
I10000
sg12
VUpper Deck Authenticated Space Jam Celcards
p127
sg14
(lp128
Vhttp://www.beckett.com/basketball/1996/upper-deck-authenticated-space-jam-celcards/nno-michael-jordanbugs-bunny-3107892
p129
asg17
g18
sg19
(lp130
Vhttp://img.beckett.com/images/no-image.jpg
p131
asg22
V#NNO
p132
sg25
V1996
p133
sg27
g28
sg29
(lp134
VMichael Jordan
p135
aVBugs Bunny
p136
assbag1
(g2
g3
Ntp137
Rp138
(dp139
g7
(dp140
g9
V1996 Upper Deck Authenticated Space Jam Celcards #NNO Michael Jordan/Porky Pig
p141
sg11
I10000
sg12
VUpper Deck Authenticated Space Jam Celcards
p142
sg14
(lp143
Vhttp://www.beckett.com/basketball/1996/upper-deck-authenticated-space-jam-celcards/nno-michael-jordanporky-pig-3107893
p144
asg17
g18
sg19
(lp145
Vhttp://img.beckett.com/images/no-image.jpg
p146
asg22
V#NNO
p147
sg25
V1996
p148
sg27
g28
sg29
(lp149
VMichael Jordan
p150
aVPorky Pig
p151
assbag1
(g2
g3
Ntp152
Rp153
(dp154
g7
(dp155
g9
V1996-97 Flair Showcase Legacy Collection Row 2 #23 Michael Jordan
p156
sg11
I150
sg12
VFlair Showcase Legacy Collection Row 2
p157
sg14
(lp158
Vhttp://www.beckett.com/basketball/1996-97/flair-showcase-legacy-collection-row-2/23-michael-jordan-3126148
p159
asg17
g18
sg19
(lp160
Vhttp://img.beckett.com/images/no-image.jpg
p161
asg22
V#23
p162
sg25
V1996-97
p163
sg27
g28
sg29
(lp164
VMichael Jordan
p165
assbag1
(g2
g3
Ntp166
Rp167
(dp168
g7
(dp169
g9
V1996-97 Flair Showcase Legacy Collection Row 1 #23 Michael Jordan
p170
sg11
I150
sg12
VFlair Showcase Legacy Collection Row 1
p171
sg14
(lp172
Vhttp://www.beckett.com/basketball/1996-97/flair-showcase-legacy-collection-row-1/23-michael-jordan-3126048
p173
asg17
g18
sg19
(lp174
Vhttp://img.beckett.com/images/no-image.jpg
p175
asg22
V#23
p176
sg25
V1996-97
p177
sg27
g28
sg29
(lp178
VMichael Jordan
p179
assbag1
(g2
g3
Ntp180
Rp181
(dp182
g7
(dp183
g9
V1996-97 Flair Showcase Legacy Collection Row 0 #23 Michael Jordan
p184
sg11
I150
sg12
VFlair Showcase Legacy Collection Row 0
p185
sg14
(lp186
Vhttp://www.beckett.com/basketball/1996-97/flair-showcase-legacy-collection-row-0/23-michael-jordan-3126759
p187
asg17
g18
sg19
(lp188
Vhttp://img.beckett.com/images/no-image.jpg
p189
asg22
V#23
p190
sg25
V1996-97
p191
sg27
g28
sg29
(lp192
VMichael Jordan
p193
assbag1
(g2
g3
Ntp194
Rp195
(dp196
g7
(dp197
g9
V1996-97 UDA Chicago Bulls Commemorative Cards #NNO 1996 4th NBA Championship/25000/Michael Jordan
p198
sg11
I25000
sg12
VUDA Chicago Bulls Commemorative Cards
p199
sg14
(lp200
Vhttp://www.beckett.com/basketball/1996-97/uda-chicago-bulls-commemorative-cards/nno-1996-4th-nba-championship25000michael-jordan-3127860
p201
asg17
g18
sg19
(lp202
Vhttp://img.beckett.com/images/no-image.jpg
p203
asg22
V#NNO
p204
sg25
V1996-97
p205
sg27
g28
sg29
(lp206
VChampionship
p207
aVMichael Jordan
p208
assbag1
(g2
g3
Ntp209
Rp210
(dp211
g7
(dp212
g9
V1996-97 UDA Chicago Bulls Commemorative Cards #NNO 1996 1st 70 Win Season/15000/Michael Jordan
p213
sg11
I15000
sg12
VUDA Chicago Bulls Commemorative Cards
p214
sg14
(lp215
Vhttp://www.beckett.com/basketball/1996-97/uda-chicago-bulls-commemorative-cards/nno-1996-1st-70-win-season15000michael-jordan-3127861
p216
asg17
g18
sg19
(lp217
Vhttp://img.beckett.com/images/no-image.jpg
p218
asg22
V#NNO
p219
sg25
V1996-97
p220
sg27
g28
sg29
(lp221
VWin Season
p222
aVMichael Jordan
p223
assbag1
(g2
g3
Ntp224
Rp225
(dp226
g7
(dp227
g9
V1996-97 UDA Chicago Bulls Commemorative Cards #NNO 1996 Best Ever NBA Start/4103/Michael Jordan/Scottie Pippen/Dennis Rodman
p228
sg11
I4103
sg12
VUDA Chicago Bulls Commemorative Cards
p229
sg14
(lp230
Vhttp://www.beckett.com/basketball/1996-97/uda-chicago-bulls-commemorative-cards/nno-1996-best-ever-nba-start4103michael-jordanscottie-pippendennis-rodman-3127863
p231
asg17
g18
sg19
(lp232
Vhttp://img.beckett.com/images/no-image.jpg
p233
asg22
V#NNO
p234
sg25
V1996-97
p235
sg27
g28
sg29
(lp236
VBest Ever Start
p237
aVMichael Jordan
p238
aVScottie Pippen
p239
aVDennis Rodman
p240
assbag1
(g2
g3
Ntp241
Rp242
(dp243
g7
(dp244
g9
V1996-97 UDA Chicago Bulls Commemorative Cards #NNO 1996 70 Wins/10000/Michael Jordan/Scottie Pippen/Dennis Rodman
p245
sg11
I10000
sg12
VUDA Chicago Bulls Commemorative Cards
p246
sg14
(lp247
Vhttp://www.beckett.com/basketball/1996-97/uda-chicago-bulls-commemorative-cards/nno-1996-70-wins10000michael-jordanscottie-pippendennis-rodman-3127866
p248
asg17
g18
sg19
(lp249
Vhttp://img.beckett.com/images/no-image.jpg
p250
asg22
V#NNO
p251
sg25
V1996-97
p252
sg27
g28
sg29
(lp253
VWins
p254
aVMichael Jordan
p255
aVScottie Pippen
p256
aVDennis Rodman
p257
assbag1
(g2
g3
Ntp258
Rp259
(dp260
g7
(dp261
g9
V1996-97 UDA Chicago Bulls Commemorative Cards #NNO 1996 4th NBA Championship/10000/Michael Jordan/Scottie Pippen/Dennis Rodman
p262
sg11
I10000
sg12
VUDA Chicago Bulls Commemorative Cards
p263
sg14
(lp264
Vhttp://www.beckett.com/basketball/1996-97/uda-chicago-bulls-commemorative-cards/nno-1996-4th-nba-championship10000michael-jordanscottie-pippendennis-rodman-3127867
p265
asg17
g18
sg19
(lp266
Vhttp://img.beckett.com/images/no-image.jpg
p267
asg22
V#NNO
p268
sg25
V1996-97
p269
sg27
g28
sg29
(lp270
VChampionship
p271
aVMichael Jordan
p272
aVScottie Pippen
p273
aVDennis Rodman
p274
assbag1
(g2
g3
Ntp275
Rp276
(dp277
g7
(dp278
g9
V1996-97 UDA Chicago Bulls Commemorative Cards #NNO 1996 70 Victory Season/7096/Michael Jordan/Scottie Pippen/Dennis Rodman
p279
sg11
I7096
sg12
VUDA Chicago Bulls Commemorative Cards
p280
sg14
(lp281
Vhttp://www.beckett.com/basketball/1996-97/uda-chicago-bulls-commemorative-cards/nno-1996-70-victory-season7096michael-jordanscottie-pippendennis-rodman-3127868
p282
asg17
g18
sg19
(lp283
Vhttp://img.beckett.com/images/no-image.jpg
p284
asg22
V#NNO
p285
sg25
V1996-97
p286
sg27
g28
sg29
(lp287
VVictory Season
p288
aVMichael Jordan
p289
aVScottie Pippen
p290
aVDennis Rodman
p291
assbag1
(g2
g3
Ntp292
Rp293
(dp294
g7
(dp295
g9
V1996-97 UDA Chicago Bulls Commemorative Cards #NNO 1996 1st 70-Game Winners/2500/Michael Jordan/Toni Kukoc/Scottie Pippen/Dennis Rodman
p296
sg11
I2500
sg12
VUDA Chicago Bulls Commemorative Cards
p297
sg14
(lp298
Vhttp://www.beckett.com/basketball/1996-97/uda-chicago-bulls-commemorative-cards/nno-1996-1st-70-game-winners2500michael-jordantoni-kukocscottie-pippendennis-rodman-3127869
p299
asg17
g18
sg19
(lp300
Vhttp://img.beckett.com/images/no-image.jpg
p301
asg22
V#NNO
p302
sg25
V1996-97
p303
sg27
g28
sg29
(lp304
VWinners
p305
aVMichael Jordan
p306
aVToni Kukoc
p307
aVScottie Pippen
p308
aVDennis Rodman
p309
assbag1
(g2
g3
Ntp310
Rp311
(dp312
g7
(dp313
g9
V1996-97 UDA Chicago Bulls Commemorative Cards #NNO 1997 NBA Champions/5000/Michael Jordan/Scottie Pippen/Dennis Rodman
p314
sg11
I5000
sg12
VUDA Chicago Bulls Commemorative Cards
p315
sg14
(lp316
Vhttp://www.beckett.com/basketball/1996-97/uda-chicago-bulls-commemorative-cards/nno-1997-nba-champions5000michael-jordanscottie-pippendennis-rodman-3127870
p317
asg17
g18
sg19
(lp318
Vhttp://img.beckett.com/images/no-image.jpg
p319
asg22
V#NNO
p320
sg25
V1996-97
p321
sg27
g28
sg29
(lp322
VChampions
p323
aVMichael Jordan
p324
aVScottie Pippen
p325
aVDennis Rodman
p326
assbag1
(g2
g3
Ntp327
Rp328
(dp329
g7
(dp330
g9
V1996-97 UDA Chicago Bulls Commemorative Cards #NNO 1997 90s Dynasty/15000/Michael Jordan/Scottie Pippen/Dennis Rodman
p331
sg11
I15000
sg12
VUDA Chicago Bulls Commemorative Cards
p332
sg14
(lp333
Vhttp://www.beckett.com/basketball/1996-97/uda-chicago-bulls-commemorative-cards/nno-1997-90s-dynasty15000michael-jordanscottie-pippendennis-rodman-3127871
p334
asg17
g18
sg19
(lp335
Vhttp://img.beckett.com/images/no-image.jpg
p336
asg22
V#NNO
p337
sg25
V1996-97
p338
sg27
g28
sg29
(lp339
VDynasty
p340
aVMichael Jordan
p341
aVScottie Pippen
p342
aVDennis Rodman
p343
assbag1
(g2
g3
Ntp344
Rp345
(dp346
g7
(dp347
g9
V1996-97 UDA Chicago Bulls Commemorative Cards #NNO 1997 East.Conf.Champs/2500/Michael Jordan/Scottie Pippen/Dennis Rodman
p348
sg11
I2500
sg12
VUDA Chicago Bulls Commemorative Cards
p349
sg14
(lp350
Vhttp://www.beckett.com/basketball/1996-97/uda-chicago-bulls-commemorative-cards/nno-1997-eastconfchamps2500michael-jordanscottie-pippendennis-rodman-3127872
p351
asg17
g18
sg19
(lp352
Vhttp://img.beckett.com/images/no-image.jpg
p353
asg22
V#NNO
p354
sg25
V1996-97
p355
sg27
g28
sg29
(lp356
VEast.Conf.Champs
p357
aVMichael Jordan
p358
aVScottie Pippen
p359
aVDennis Rodman
p360
assbag1
(g2
g3
Ntp361
Rp362
(dp363
g7
(dp364
g9
V1996-97 E-X2000 Credentials #9 Michael Jordan
p365
sg11
I499
sg12
VE-X2000 Credentials
p366
sg14
(lp367
Vhttp://www.beckett.com/basketball/1996-97/e-x2000-credentials/9-michael-jordan-3121467
p368
asg17
g18
sg19
(lp369
Vhttp://img.beckett.com/images/no-image.jpg
p370
asg22
V#9
p371
sg25
V1996-97
p372
sg27
g28
sg29
(lp373
VMichael Jordan
p374
assbag1
(g2
g3
Ntp375
Rp376
(dp377
g7
(dp378
g9
V1996-97 E-X2000 Credentials #10 Scottie Pippen
p379
sg11
I499
sg12
VE-X2000 Credentials
p380
sg14
(lp381
Vhttp://www.beckett.com/basketball/1996-97/e-x2000-credentials/10-scottie-pippen-3121468
p382
asg17
g18
sg19
(lp383
Vhttp://img.beckett.com/images/no-image.jpg
p384
asg22
V#10
p385
sg25
V1996-97
p386
sg27
g28
sg29
(lp387
VScottie Pippen
p388
assbag1
(g2
g3
Ntp389
Rp390
(dp391
g7
(dp392
g9
V1996-97 E-X2000 Credentials #11 Dennis Rodman
p393
sg11
I499
sg12
VE-X2000 Credentials
p394
sg14
(lp395
Vhttp://www.beckett.com/basketball/1996-97/e-x2000-credentials/11-dennis-rodman-3121469
p396
asg17
g18
sg19
(lp397
Vhttp://img.beckett.com/images/no-image.jpg
p398
asg22
V#11
p399
sg25
V1996-97
p400
sg27
g28
sg29
(lp401
VDennis Rodman
p402
assbag1
(g2
g3
Ntp403
Rp404
(dp405
g7
(dp406
g9
V1996-97 Flair Showcase Legacy Collection Row 2 #9 Dennis Rodman
p407
sg11
I150
sg12
VFlair Showcase Legacy Collection Row 2
p408
sg14
(lp409
Vhttp://www.beckett.com/basketball/1996-97/flair-showcase-legacy-collection-row-2/9-dennis-rodman-3126134
p410
asg17
g18
sg19
(lp411
Vhttp://img.beckett.com/images/items_stock/185226/3126116/3126134/front.jpg
p412
asg22
V#9
p413
sg25
V1996-97
p414
sg27
g28
sg29
(lp415
VDennis Rodman
p416
assbag1
(g2
g3
Ntp417
Rp418
(dp419
g7
(dp420
g9
V1996-97 Flair Showcase Legacy Collection Row 2 #27 Scottie Pippen
p421
sg11
I150
sg12
VFlair Showcase Legacy Collection Row 2
p422
sg14
(lp423
Vhttp://www.beckett.com/basketball/1996-97/flair-showcase-legacy-collection-row-2/27-scottie-pippen-3126152
p424
asg17
g18
sg19
(lp425
Vhttp://img.beckett.com/images/items_stock/185226/3126116/3126152/front.jpg
p426
asg22
V#27
p427
sg25
V1996-97
p428
sg27
g28
sg29
(lp429
VScottie Pippen
p430
assbag1
(g2
g3
Ntp431
Rp432
(dp433
g7
(dp434
g9
V1996-97 Flair Showcase Legacy Collection Row 2 #48 Toni Kukoc
p435
sg11
I150
sg12
VFlair Showcase Legacy Collection Row 2
p436
sg14
(lp437
Vhttp://www.beckett.com/basketball/1996-97/flair-showcase-legacy-collection-row-2/48-toni-kukoc-3126173
p438
asg17
g18
sg19
(lp439
Vhttp://img.beckett.com/images/items_stock/185226/3126116/3126173/front.jpg
p440
asg22
V#48
p441
sg25
V1996-97
p442
sg27
g28
sg29
(lp443
VToni Kukoc
p444
assbag1
(g2
g3
Ntp445
Rp446
(dp447
g7
(dp448
g9
V1996-97 Flair Showcase Legacy Collection Row 1 #9 Dennis Rodman
p449
sg11
I150
sg12
VFlair Showcase Legacy Collection Row 1
p450
sg14
(lp451
Vhttp://www.beckett.com/basketball/1996-97/flair-showcase-legacy-collection-row-1/9-dennis-rodman-3126034
p452
asg17
g18
sg19
(lp453
Vhttp://img.beckett.com/images/no-image.jpg
p454
asg22
V#9
p455
sg25
V1996-97
p456
sg27
g28
sg29
(lp457
VDennis Rodman
p458
assbag1
(g2
g3
Ntp459
Rp460
(dp461
g7
(dp462
g9
V1996-97 Flair Showcase Legacy Collection Row 1 #27 Scottie Pippen
p463
sg11
I150
sg12
VFlair Showcase Legacy Collection Row 1
p464
sg14
(lp465
Vhttp://www.beckett.com/basketball/1996-97/flair-showcase-legacy-collection-row-1/27-scottie-pippen-3126052
p466
asg17
g18
sg19
(lp467
Vhttp://img.beckett.com/images/no-image.jpg
p468
asg22
V#27
p469
sg25
V1996-97
p470
sg27
g28
sg29
(lp471
VScottie Pippen
p472
assbag1
(g2
g3
Ntp473
Rp474
(dp475
g7
(dp476
g9
V1996-97 Flair Showcase Legacy Collection Row 1 #48 Toni Kukoc
p477
sg11
I150
sg12
VFlair Showcase Legacy Collection Row 1
p478
sg14
(lp479
Vhttp://www.beckett.com/basketball/1996-97/flair-showcase-legacy-collection-row-1/48-toni-kukoc-3126073
p480
asg17
g18
sg19
(lp481
Vhttp://img.beckett.com/images/no-image.jpg
p482
asg22
V#48
p483
sg25
V1996-97
p484
sg27
g28
sg29
(lp485
VToni Kukoc
p486
assbag1
(g2
g3
Ntp487
Rp488
(dp489
g7
(dp490
g9
V1996-97 Flair Showcase Legacy Collection Row 0 #9 Dennis Rodman
p491
sg11
I150
sg12
VFlair Showcase Legacy Collection Row 0
p492
sg14
(lp493
Vhttp://www.beckett.com/basketball/1996-97/flair-showcase-legacy-collection-row-0/9-dennis-rodman-3126745
p494
asg17
g18
sg19
(lp495
Vhttp://img.beckett.com/images/no-image.jpg
p496
asg22
V#9
p497
sg25
V1996-97
p498
sg27
g28
sg29
(lp499
VDennis Rodman
p500
assbag1
(g2
g3
Ntp501
Rp502
(dp503
g7
(dp504
g9
V1996-97 Flair Showcase Legacy Collection Row 0 #27 Scottie Pippen
p505
sg11
I150
sg12
VFlair Showcase Legacy Collection Row 0
p506
sg14
(lp507
Vhttp://www.beckett.com/basketball/1996-97/flair-showcase-legacy-collection-row-0/27-scottie-pippen-3126763
p508
asg17
g18
sg19
(lp509
Vhttp://img.beckett.com/images/no-image.jpg
p510
asg22
V#27
p511
sg25
V1996-97
p512
sg27
g28
sg29
(lp513
VScottie Pippen
p514
assbag1
(g2
g3
Ntp515
Rp516
(dp517
g7
(dp518
g9
V1996-97 Flair Showcase Legacy Collection Row 0 #48 Toni Kukoc
p519
sg11
I150
sg12
VFlair Showcase Legacy Collection Row 0
p520
sg14
(lp521
Vhttp://www.beckett.com/basketball/1996-97/flair-showcase-legacy-collection-row-0/48-toni-kukoc-3126784
p522
asg17
g18
sg19
(lp523
Vhttp://img.beckett.com/images/no-image.jpg
p524
asg22
V#48
p525
sg25
V1996-97
p526
sg27
g28
sg29
(lp527
VToni Kukoc
p528
assbag1
(g2
g3
Ntp529
Rp530
(dp531
g7
(dp532
g9
V1996-97 SP SPx Force #F5A Michael Jordan AU
p533
sg11
I100
sg12
VSP SPx Force
p534
sg14
(lp535
Vhttp://www.beckett.com/basketball/1996-97/sp-spx-force/f5a-michael-jordan-au-3118687
p536
asg17
g18
sg19
(lp537
Vhttp://img.beckett.com/images/no-image.jpg
p538
asg22
V#F5A
p539
sg24
I1
sg25
V1996-97
p540
sg27
g28
sg29
(lp541
VMichael Jordan
p542
assba.