(lp0
Naccopy_reg
_reconstructor
p1
(ctutorial.items
BeckettItem
p2
c__builtin__
object
p3
Ntp4
Rp5
(dp6
S'_values'
p7
(dp8
S'originalItemDescription'
p9
V1996-97 E-X2000 #NNO Grant Hill/Blow-Up/3000
p10
sS'serialNumber'
p11
I3000
sS'setName'
p12
VE-X2000
p13
sS'beckettLink'
p14
(lp15
Vhttp://www.beckett.com/basketball/1996-97/e-x2000/nno-grant-hillblow-up3000-3121446
p16
asS'team'
p17
S'Detroit Pistons'
p18
sS'imageLink'
p19
(lp20
Vhttp://img.beckett.com/images/no-image.jpg
p21
asS'cardNumber'
p22
V#NNO
p23
sS'year'
p24
V1996-97
p25
sS'sport'
p26
S'Basketball'
p27
sS'playerNames'
p28
(lp29
VGrant Hill
p30
aVBlow-Up
p31
assbag1
(g2
g3
Ntp32
Rp33
(dp34
g7
(dp35
g9
V1996-97 E-X2000 Credentials #18 Joe Dumars
p36
sg11
I499
sg12
VE-X2000 Credentials
p37
sg14
(lp38
Vhttp://www.beckett.com/basketball/1996-97/e-x2000-credentials/18-joe-dumars-3121476
p39
asg17
g18
sg19
(lp40
Vhttp://img.beckett.com/images/no-image.jpg
p41
asg22
V#18
p42
sg24
V1996-97
p43
sg26
g27
sg28
(lp44
VJoe Dumars
p45
assbag1
(g2
g3
Ntp46
Rp47
(dp48
g7
(dp49
g9
V1996-97 E-X2000 Credentials #19 Grant Hill
p50
sg11
I499
sg12
VE-X2000 Credentials
p51
sg14
(lp52
Vhttp://www.beckett.com/basketball/1996-97/e-x2000-credentials/19-grant-hill-3121477
p53
asg17
g18
sg19
(lp54
Vhttp://img.beckett.com/images/no-image.jpg
p55
asg22
V#19
p56
sg24
V1996-97
p57
sg26
g27
sg28
(lp58
VGrant Hill
p59
assbag1
(g2
g3
Ntp60
Rp61
(dp62
g7
(dp63
g9
V1996-97 Flair Showcase Legacy Collection Row 2 #19 Grant Hill
p64
sg11
I150
sg12
VFlair Showcase Legacy Collection Row 2
p65
sg14
(lp66
Vhttp://www.beckett.com/basketball/1996-97/flair-showcase-legacy-collection-row-2/19-grant-hill-3126144
p67
asg17
g18
sg19
(lp68
Vhttp://img.beckett.com/images/items_stock/185226/3126116/3126144/front.jpg
p69
asg22
V#19
p70
sg24
V1996-97
p71
sg26
g27
sg28
(lp72
VGrant Hill
p73
assbag1
(g2
g3
Ntp74
Rp75
(dp76
g7
(dp77
g9
V1996-97 Flair Showcase Legacy Collection Row 2 #65 Joe Dumars
p78
sg11
I150
sg12
VFlair Showcase Legacy Collection Row 2
p79
sg14
(lp80
Vhttp://www.beckett.com/basketball/1996-97/flair-showcase-legacy-collection-row-2/65-joe-dumars-3126190
p81
asg17
g18
sg19
(lp82
Vhttp://img.beckett.com/images/items_stock/185226/3126116/3126190/front.jpg
p83
asg22
V#65
p84
sg24
V1996-97
p85
sg26
g27
sg28
(lp86
VJoe Dumars
p87
assbag1
(g2
g3
Ntp88
Rp89
(dp90
g7
(dp91
g9
V1996-97 Flair Showcase Legacy Collection Row 2 #85 Lindsey Hunter
p92
sg11
I150
sg12
VFlair Showcase Legacy Collection Row 2
p93
sg14
(lp94
Vhttp://www.beckett.com/basketball/1996-97/flair-showcase-legacy-collection-row-2/85-lindsey-hunter-3126210
p95
asg17
g18
sg19
(lp96
Vhttp://img.beckett.com/images/items_stock/185226/3126116/3126210/front.jpg
p97
asg22
V#85
p98
sg24
V1996-97
p99
sg26
g27
sg28
(lp100
VLindsey Hunter
p101
assbag1
(g2
g3
Ntp102
Rp103
(dp104
g7
(dp105
g9
V1996-97 Flair Showcase Legacy Collection Row 1 #19 Grant Hill
p106
sg11
I150
sg12
VFlair Showcase Legacy Collection Row 1
p107
sg14
(lp108
Vhttp://www.beckett.com/basketball/1996-97/flair-showcase-legacy-collection-row-1/19-grant-hill-3126044
p109
asg17
g18
sg19
(lp110
Vhttp://img.beckett.com/images/no-image.jpg
p111
asg22
V#19
p112
sg24
V1996-97
p113
sg26
g27
sg28
(lp114
VGrant Hill
p115
assbag1
(g2
g3
Ntp116
Rp117
(dp118
g7
(dp119
g9
V1996-97 Flair Showcase Legacy Collection Row 1 #65 Joe Dumars
p120
sg11
I150
sg12
VFlair Showcase Legacy Collection Row 1
p121
sg14
(lp122
Vhttp://www.beckett.com/basketball/1996-97/flair-showcase-legacy-collection-row-1/65-joe-dumars-3126090
p123
asg17
g18
sg19
(lp124
Vhttp://img.beckett.com/images/items_stock/185226/3126021/3126090/front.jpg
p125
asg22
V#65
p126
sg24
V1996-97
p127
sg26
g27
sg28
(lp128
VJoe Dumars
p129
assbag1
(g2
g3
Ntp130
Rp131
(dp132
g7
(dp133
g9
V1996-97 Flair Showcase Legacy Collection Row 1 #85 Lindsey Hunter
p134
sg11
I150
sg12
VFlair Showcase Legacy Collection Row 1
p135
sg14
(lp136
Vhttp://www.beckett.com/basketball/1996-97/flair-showcase-legacy-collection-row-1/85-lindsey-hunter-3126110
p137
asg17
g18
sg19
(lp138
Vhttp://img.beckett.com/images/items_stock/185226/3126021/3126110/front.jpg
p139
asg22
V#85
p140
sg24
V1996-97
p141
sg26
g27
sg28
(lp142
VLindsey Hunter
p143
assbag1
(g2
g3
Ntp144
Rp145
(dp146
g7
(dp147
g9
V1996-97 Flair Showcase Legacy Collection Row 0 #19 Grant Hill
p148
sg11
I150
sg12
VFlair Showcase Legacy Collection Row 0
p149
sg14
(lp150
Vhttp://www.beckett.com/basketball/1996-97/flair-showcase-legacy-collection-row-0/19-grant-hill-3126755
p151
asg17
g18
sg19
(lp152
Vhttp://img.beckett.com/images/no-image.jpg
p153
asg22
V#19
p154
sg24
V1996-97
p155
sg26
g27
sg28
(lp156
VGrant Hill
p157
assbag1
(g2
g3
Ntp158
Rp159
(dp160
g7
(dp161
g9
V1996-97 Flair Showcase Legacy Collection Row 0 #65 Joe Dumars
p162
sg11
I150
sg12
VFlair Showcase Legacy Collection Row 0
p163
sg14
(lp164
Vhttp://www.beckett.com/basketball/1996-97/flair-showcase-legacy-collection-row-0/65-joe-dumars-3126801
p165
asg17
g18
sg19
(lp166
Vhttp://img.beckett.com/images/no-image.jpg
p167
asg22
V#65
p168
sg24
V1996-97
p169
sg26
g27
sg28
(lp170
VJoe Dumars
p171
assbag1
(g2
g3
Ntp172
Rp173
(dp174
g7
(dp175
g9
V1996-97 Flair Showcase Legacy Collection Row 0 #85 Lindsey Hunter
p176
sg11
I150
sg12
VFlair Showcase Legacy Collection Row 0
p177
sg14
(lp178
Vhttp://www.beckett.com/basketball/1996-97/flair-showcase-legacy-collection-row-0/85-lindsey-hunter-3126821
p179
asg17
g18
sg19
(lp180
Vhttp://img.beckett.com/images/no-image.jpg
p181
asg22
V#85
p182
sg24
V1996-97
p183
sg26
g27
sg28
(lp184
VLindsey Hunter
p185
assba.