(lp0
Naccopy_reg
_reconstructor
p1
(ctutorial.items
BeckettItem
p2
c__builtin__
object
p3
Ntp4
Rp5
(dp6
S'_values'
p7
(dp8
S'originalItemDescription'
p9
V1996 Collector's Edge Key Kraze Die Cuts #3 Kobe Bryant
p10
sS'serialNumber'
p11
I3100
sS'setName'
p12
VCollector's Edge Key Kraze Die Cuts
p13
sS'beckettLink'
p14
(lp15
Vhttp://www.beckett.com/basketball/1996/collectors-edge-key-kraze-die-cuts/3-kobe-bryant-3511771
p16
asS'team'
p17
S'Los Angeles Lakers'
p18
sS'imageLink'
p19
(lp20
Vhttp://img.beckett.com/images/no-image.jpg
p21
asS'cardNumber'
p22
V#3
p23
sS'year'
p24
V1996
p25
sS'sport'
p26
S'Basketball'
p27
sS'playerNames'
p28
(lp29
VKobe Bryant
p30
assbag1
(g2
g3
Ntp31
Rp32
(dp33
g7
(dp34
g9
V1996 Collector's Edge Key Kraze #3 Kobe Bryant
p35
sg11
I3200
sg12
VCollector's Edge Key Kraze
p36
sg14
(lp37
Vhttp://www.beckett.com/basketball/1996/collectors-edge-key-kraze/3-kobe-bryant-3110730
p38
asg17
g18
sg19
(lp39
Vhttp://img.beckett.com/images/items_stock/185226/3110718/3110730/front.jpg
p40
asg22
V#3
p41
sg24
V1996
p42
sg26
g27
sg28
(lp43
VKobe Bryant
p44
assbag1
(g2
g3
Ntp45
Rp46
(dp47
g7
(dp48
g9
V1996 Collector's Edge Radical Recruits #3 Kobe Bryant
p49
sg11
I6750
sg12
VCollector's Edge Radical Recruits
p50
sg14
(lp51
Vhttp://www.beckett.com/basketball/1996/collectors-edge-radical-recruits/3-kobe-bryant-3110827
p52
asg17
g18
sg19
(lp53
Vhttp://img.beckett.com/images/items_stock/185226/3110816/3110827/front.jpg
p54
asg22
V#3
p55
sg24
V1996
p56
sg26
g27
sg28
(lp57
VKobe Bryant
p58
assbag1
(g2
g3
Ntp59
Rp60
(dp61
g7
(dp62
g9
V1996 Collector's Edge Time Warp #3 Kobe Bryant/Alex English
p63
sg11
I12000
sg12
VCollector's Edge Time Warp
p64
sg14
(lp65
Vhttp://www.beckett.com/basketball/1996/collectors-edge-time-warp/3-kobe-bryantalex-english-3112564
p66
asg17
g18
sg19
(lp67
Vhttp://img.beckett.com/images/items_stock/185226/3112553/3112564/front.jpg
p68
asg22
V#3
p69
sg24
V1996
p70
sg26
g27
sg28
(lp71
VKobe Bryant
p72
aVAlex English
p73
assbag1
(g2
g3
Ntp74
Rp75
(dp76
g7
(dp77
g9
V1996 Collector's Edge Time Warp Vintage Autographs #3 Kobe Bryant/Alex English AU
p78
sg11
I1000
sg12
VCollector's Edge Time Warp Vintage Autographs
p79
sg14
(lp80
Vhttp://www.beckett.com/basketball/1996/collectors-edge-time-warp-vintage-autographs/3-kobe-bryantalex-english-au-3112622
p81
asg17
g18
sg19
(lp82
Vhttp://img.beckett.com/images/no-image.jpg
p83
asg22
V#3
p84
sS'autograph'
p85
I1
sg24
V1996
p86
sg26
g27
sg28
(lp87
VKobe Bryant
p88
aVAlex English
p89
assbag1
(g2
g3
Ntp90
Rp91
(dp92
g7
(dp93
g9
V1996 Collector's Edge Key Kraze Gold #3 Kobe Bryant
p94
sg11
I1000
sg12
VCollector's Edge Key Kraze Gold
p95
sg14
(lp96
Vhttp://www.beckett.com/basketball/1996/collectors-edge-key-kraze-gold/3-kobe-bryant-3110761
p97
asg17
g18
sg19
(lp98
Vhttp://img.beckett.com/images/no-image.jpg
p99
asg22
V#3
p100
sg24
V1996
p101
sg26
g27
sg28
(lp102
VKobe Bryant
p103
assbag1
(g2
g3
Ntp104
Rp105
(dp106
g7
(dp107
g9
V1996 Collector's Edge Key Kraze Holofoil #3 Kobe Bryant
p108
sg11
I2000
sg12
VCollector's Edge Key Kraze Holofoil
p109
sg14
(lp110
Vhttp://www.beckett.com/basketball/1996/collectors-edge-key-kraze-holofoil/3-kobe-bryant-3110793
p111
asg17
g18
sg19
(lp112
Vhttp://img.beckett.com/images/no-image.jpg
p113
asg22
V#3
p114
sg24
V1996
p115
sg26
g27
sg28
(lp116
VKobe Bryant
p117
assbag1
(g2
g3
Ntp118
Rp119
(dp120
g7
(dp121
g9
V1996 Collector's Edge Radical Recruits Gold #3 Kobe Bryant
p122
sg11
I1000
sg12
VCollector's Edge Radical Recruits Gold
p123
sg14
(lp124
Vhttp://www.beckett.com/basketball/1996/collectors-edge-radical-recruits-gold/3-kobe-bryant-3110859
p125
asg17
g18
sg19
(lp126
Vhttp://img.beckett.com/images/no-image.jpg
p127
asg22
V#3
p128
sg24
V1996
p129
sg26
g27
sg28
(lp130
VKobe Bryant
p131
assbag1
(g2
g3
Ntp132
Rp133
(dp134
g7
(dp135
g9
V1996 Collector's Edge Radical Recruits Holofoil #3 Kobe Bryant
p136
sg11
I2500
sg12
VCollector's Edge Radical Recruits Holofoil
p137
sg14
(lp138
Vhttp://www.beckett.com/basketball/1996/collectors-edge-radical-recruits-holofoil/3-kobe-bryant-3112530
p139
asg17
g18
sg19
(lp140
Vhttp://img.beckett.com/images/no-image.jpg
p141
asg22
V#3
p142
sg24
V1996
p143
sg26
g27
sg28
(lp144
VKobe Bryant
p145
assbag1
(g2
g3
Ntp146
Rp147
(dp148
g7
(dp149
g9
V1996 Collector's Edge Time Warp Gold #3 Kobe Bryant/Alex English
p150
sg11
I1000
sg12
VCollector's Edge Time Warp Gold
p151
sg14
(lp152
Vhttp://www.beckett.com/basketball/1996/collectors-edge-time-warp-gold/3-kobe-bryantalex-english-3112584
p153
asg17
g18
sg19
(lp154
Vhttp://img.beckett.com/images/no-image.jpg
p155
asg22
V#3
p156
sg24
V1996
p157
sg26
g27
sg28
(lp158
VKobe Bryant
p159
aVAlex English
p160
assbag1
(g2
g3
Ntp161
Rp162
(dp163
g7
(dp164
g9
V1996 Collector's Edge Time Warp Holofoil #3 Kobe Bryant/Alex English
p165
sg11
I2500
sg12
VCollector's Edge Time Warp Holofoil
p166
sg14
(lp167
Vhttp://www.beckett.com/basketball/1996/collectors-edge-time-warp-holofoil/3-kobe-bryantalex-english-3112604
p168
asg17
g18
sg19
(lp169
Vhttp://img.beckett.com/images/no-image.jpg
p170
asg22
V#3
p171
sg24
V1996
p172
sg26
g27
sg28
(lp173
VKobe Bryant
p174
aVAlex English
p175
assbag1
(g2
g3
Ntp176
Rp177
(dp178
g7
(dp179
g9
V1996 Score Board Autographed BK Autographs Red #15 Kobe Bryant/390
p180
sg11
I390
sg12
VScore Board Autographed BK Autographs Red
p181
sg14
(lp182
Vhttp://www.beckett.com/basketball/1996/score-board-autographed-bk-autographs-red/15-kobe-bryant390-3111838
p183
asg17
g18
sg19
(lp184
Vhttp://img.beckett.com/images/no-image.jpg
p185
asg22
V#15
p186
sg85
I1
sg24
V1996
p187
sg26
g27
sg28
(lp188
VKobe Bryant
p189
assbag1
(g2
g3
Ntp190
Rp191
(dp192
g7
(dp193
g9
V1996 Score Board Autographed BK Autographs Red #15B Kobe Bryant NNO/No Serial Number
p194
sg11
I400
sg12
VScore Board Autographed BK Autographs Red
p195
sg14
(lp196
Vhttp://www.beckett.com/basketball/1996/score-board-autographed-bk-autographs-red/15b-kobe-bryant-nnono-serial-number-3111839
p197
asg17
g18
sg19
(lp198
Vhttp://img.beckett.com/images/no-image.jpg
p199
asg22
V#15B
p200
sg85
I1
sg24
V1996
p201
sg26
g27
sg28
(lp202
VKobe Bryant
p203
aVNo Serial Number
p204
assbag1
(g2
g3
Ntp205
Rp206
(dp207
g7
(dp208
g9
V1996 Score Board Autographed BK Autographs Silver #15 Kobe Bryant
p209
sg11
I325
sg12
VScore Board Autographed BK Autographs Silver
p210
sg14
(lp211
Vhttp://www.beckett.com/basketball/1996/score-board-autographed-bk-autographs-silver/15-kobe-bryant-3111881
p212
asg17
g18
sg19
(lp213
Vhttp://img.beckett.com/images/no-image.jpg
p214
asg22
V#15
p215
sg85
I1
sg24
V1996
p216
sg26
g27
sg28
(lp217
VKobe Bryant
p218
assbag1
(g2
g3
Ntp219
Rp220
(dp221
g7
(dp222
g9
V1996-97 E-X2000 Credentials #30 Kobe Bryant
p223
sg11
I499
sg12
VE-X2000 Credentials
p224
sg14
(lp225
Vhttp://www.beckett.com/basketball/1996-97/e-x2000-credentials/30-kobe-bryant-3121488
p226
asg17
g18
sg19
(lp227
Vhttp://img.beckett.com/images/no-image.jpg
p228
asg22
V#30
p229
sg24
V1996-97
p230
sg26
g27
sg28
(lp231
VKobe Bryant
p232
assbag1
(g2
g3
Ntp233
Rp234
(dp235
g7
(dp236
g9
V1996-97 E-X2000 Credentials #31 Eddie Jones
p237
sg11
I499
sg12
VE-X2000 Credentials
p238
sg14
(lp239
Vhttp://www.beckett.com/basketball/1996-97/e-x2000-credentials/31-eddie-jones-3121489
p240
asg17
g18
sg19
(lp241
Vhttp://img.beckett.com/images/no-image.jpg
p242
asg22
V#31
p243
sg24
V1996-97
p244
sg26
g27
sg28
(lp245
VEddie Jones
p246
assbag1
(g2
g3
Ntp247
Rp248
(dp249
g7
(dp250
g9
V1996-97 E-X2000 Credentials #32 Shaquille O'Neal
p251
sg11
I499
sg12
VE-X2000 Credentials
p252
sg14
(lp253
Vhttp://www.beckett.com/basketball/1996-97/e-x2000-credentials/32-shaquille-oneal-3121490
p254
asg17
g18
sg19
(lp255
Vhttp://img.beckett.com/images/items_stock/185226/3121449/3121490/front.jpg
p256
asg22
V#32
p257
sg24
V1996-97
p258
sg26
g27
sg28
(lp259
VShaquille O'Neal
p260
assbag1
(g2
g3
Ntp261
Rp262
(dp263
g7
(dp264
g9
V1996-97 E-X2000 Credentials #33 Nick Van Exel
p265
sg11
I499
sg12
VE-X2000 Credentials
p266
sg14
(lp267
Vhttp://www.beckett.com/basketball/1996-97/e-x2000-credentials/33-nick-van-exel-3121491
p268
asg17
g18
sg19
(lp269
Vhttp://img.beckett.com/images/no-image.jpg
p270
asg22
V#33
p271
sg24
V1996-97
p272
sg26
g27
sg28
(lp273
VNick Van Exel
p274
assbag1
(g2
g3
Ntp275
Rp276
(dp277
g7
(dp278
g9
V1996-97 Flair Showcase Legacy Collection Row 2 #10 Shaquille O'Neal
p279
sg11
I150
sg12
VFlair Showcase Legacy Collection Row 2
p280
sg14
(lp281
Vhttp://www.beckett.com/basketball/1996-97/flair-showcase-legacy-collection-row-2/10-shaquille-oneal-3126135
p282
asg17
g18
sg19
(lp283
Vhttp://img.beckett.com/images/items_stock/185226/3126116/3126135/front.jpg
p284
asg22
V#10
p285
sg24
V1996-97
p286
sg26
g27
sg28
(lp287
VShaquille O'Neal
p288
assbag1
(g2
g3
Ntp289
Rp290
(dp291
g7
(dp292
g9
V1996-97 Flair Showcase Legacy Collection Row 2 #31 Kobe Bryant
p293
sg11
I150
sg12
VFlair Showcase Legacy Collection Row 2
p294
sg14
(lp295
Vhttp://www.beckett.com/basketball/1996-97/flair-showcase-legacy-collection-row-2/31-kobe-bryant-3126156
p296
asg17
g18
sg19
(lp297
Vhttp://img.beckett.com/images/no-image.jpg
p298
asg22
V#31
p299
sg24
V1996-97
p300
sg26
g27
sg28
(lp301
VKobe Bryant
p302
assbag1
(g2
g3
Ntp303
Rp304
(dp305
g7
(dp306
g9
V1996-97 Flair Showcase Legacy Collection Row 2 #59 Eddie Jones
p307
sg11
I150
sg12
VFlair Showcase Legacy Collection Row 2
p308
sg14
(lp309
Vhttp://www.beckett.com/basketball/1996-97/flair-showcase-legacy-collection-row-2/59-eddie-jones-3126184
p310
asg17
g18
sg19
(lp311
Vhttp://img.beckett.com/images/items_stock/185226/3126116/3126184/front.jpg
p312
asg22
V#59
p313
sg24
V1996-97
p314
sg26
g27
sg28
(lp315
VEddie Jones
p316
assbag1
(g2
g3
Ntp317
Rp318
(dp319
g7
(dp320
g9
V1996-97 Flair Showcase Legacy Collection Row 1 #10 Shaquille O'Neal
p321
sg11
I150
sg12
VFlair Showcase Legacy Collection Row 1
p322
sg14
(lp323
Vhttp://www.beckett.com/basketball/1996-97/flair-showcase-legacy-collection-row-1/10-shaquille-oneal-3126035
p324
asg17
g18
sg19
(lp325
Vhttp://img.beckett.com/images/no-image.jpg
p326
asg22
V#10
p327
sg24
V1996-97
p328
sg26
g27
sg28
(lp329
VShaquille O'Neal
p330
assbag1
(g2
g3
Ntp331
Rp332
(dp333
g7
(dp334
g9
V1996-97 Flair Showcase Legacy Collection Row 1 #31 Kobe Bryant
p335
sg11
I150
sg12
VFlair Showcase Legacy Collection Row 1
p336
sg14
(lp337
Vhttp://www.beckett.com/basketball/1996-97/flair-showcase-legacy-collection-row-1/31-kobe-bryant-3126056
p338
asg17
g18
sg19
(lp339
Vhttp://img.beckett.com/images/no-image.jpg
p340
asg22
V#31
p341
sg24
V1996-97
p342
sg26
g27
sg28
(lp343
VKobe Bryant
p344
assbag1
(g2
g3
Ntp345
Rp346
(dp347
g7
(dp348
g9
V1996-97 Flair Showcase Legacy Collection Row 1 #59 Eddie Jones
p349
sg11
I150
sg12
VFlair Showcase Legacy Collection Row 1
p350
sg14
(lp351
Vhttp://www.beckett.com/basketball/1996-97/flair-showcase-legacy-collection-row-1/59-eddie-jones-3126084
p352
asg17
g18
sg19
(lp353
Vhttp://img.beckett.com/images/no-image.jpg
p354
asg22
V#59
p355
sg24
V1996-97
p356
sg26
g27
sg28
(lp357
VEddie Jones
p358
assbag1
(g2
g3
Ntp359
Rp360
(dp361
g7
(dp362
g9
V1996-97 Flair Showcase Legacy Collection Row 0 #10 Shaquille O'Neal
p363
sg11
I150
sg12
VFlair Showcase Legacy Collection Row 0
p364
sg14
(lp365
Vhttp://www.beckett.com/basketball/1996-97/flair-showcase-legacy-collection-row-0/10-shaquille-oneal-3126746
p366
asg17
g18
sg19
(lp367
Vhttp://img.beckett.com/images/no-image.jpg
p368
asg22
V#10
p369
sg24
V1996-97
p370
sg26
g27
sg28
(lp371
VShaquille O'Neal
p372
assbag1
(g2
g3
Ntp373
Rp374
(dp375
g7
(dp376
g9
V1996-97 Flair Showcase Legacy Collection Row 0 #31 Kobe Bryant
p377
sg11
I150
sg12
VFlair Showcase Legacy Collection Row 0
p378
sg14
(lp379
Vhttp://www.beckett.com/basketball/1996-97/flair-showcase-legacy-collection-row-0/31-kobe-bryant-3126767
p380
asg17
g18
sg19
(lp381
Vhttp://img.beckett.com/images/no-image.jpg
p382
asg22
V#31
p383
sg24
V1996-97
p384
sg26
g27
sg28
(lp385
VKobe Bryant
p386
assbag1
(g2
g3
Ntp387
Rp388
(dp389
g7
(dp390
g9
V1996-97 Flair Showcase Legacy Collection Row 0 #59 Eddie Jones
p391
sg11
I150
sg12
VFlair Showcase Legacy Collection Row 0
p392
sg14
(lp393
Vhttp://www.beckett.com/basketball/1996-97/flair-showcase-legacy-collection-row-0/59-eddie-jones-3126795
p394
asg17
g18
sg19
(lp395
Vhttp://img.beckett.com/images/no-image.jpg
p396
asg22
V#59
p397
sg24
V1996-97
p398
sg26
g27
sg28
(lp399
VEddie Jones
p400
assbag1
(g2
g3
Ntp401
Rp402
(dp403
g7
(dp404
g9
V1996-97 Score Board Autographed Collection Autographs Gold #6 Kobe Bryant/300
p405
sg11
I300
sg12
VScore Board Autographed Collection Autographs Gold
p406
sg14
(lp407
Vhttp://www.beckett.com/multisport/1996-97/score-board-autographed-collection-autographs-gold/6-kobe-bryant300-3500108
p408
asg17
g18
sg19
(lp409
Vhttp://img.beckett.com/images/no-image.jpg
p410
asg22
V#6
p411
sg85
I1
sg24
V1996-97
p412
sg26
g27
sg28
(lp413
VKobe Bryant
p414
assba.