(lp0
Naccopy_reg
_reconstructor
p1
(ctutorial.items
BeckettItem
p2
c__builtin__
object
p3
Ntp4
Rp5
(dp6
S'_values'
p7
(dp8
S'originalItemDescription'
p9
V1996-97 E-X2000 Credentials #43 Kendall Gill
p10
sS'serialNumber'
p11
I499
sS'setName'
p12
VE-X2000 Credentials
p13
sS'beckettLink'
p14
(lp15
Vhttp://www.beckett.com/basketball/1996-97/e-x2000-credentials/43-kendall-gill-3121501
p16
asS'team'
p17
S'New Jersey Nets'
p18
sS'imageLink'
p19
(lp20
Vhttp://img.beckett.com/images/no-image.jpg
p21
asS'cardNumber'
p22
V#43
p23
sS'year'
p24
V1996-97
p25
sS'sport'
p26
S'Basketball'
p27
sS'playerNames'
p28
(lp29
VKendall Gill
p30
assbag1
(g2
g3
Ntp31
Rp32
(dp33
g7
(dp34
g9
V1996-97 E-X2000 Credentials #45 Kerry Kittles
p35
sg11
I499
sg12
VE-X2000 Credentials
p36
sg14
(lp37
Vhttp://www.beckett.com/basketball/1996-97/e-x2000-credentials/45-kerry-kittles-3121503
p38
asg17
g18
sg19
(lp39
Vhttp://img.beckett.com/images/no-image.jpg
p40
asg22
V#45
p41
sg24
V1996-97
p42
sg26
g27
sg28
(lp43
VKerry Kittles
p44
assbag1
(g2
g3
Ntp45
Rp46
(dp47
g7
(dp48
g9
V1996-97 Flair Showcase Legacy Collection Row 2 #8 Kerry Kittles
p49
sg11
I150
sg12
VFlair Showcase Legacy Collection Row 2
p50
sg14
(lp51
Vhttp://www.beckett.com/basketball/1996-97/flair-showcase-legacy-collection-row-2/8-kerry-kittles-3126133
p52
asg17
g18
sg19
(lp53
Vhttp://img.beckett.com/images/items_stock/185226/3126116/3126133/front.jpg
p54
asg22
V#8
p55
sg24
V1996-97
p56
sg26
g27
sg28
(lp57
VKerry Kittles
p58
assbag1
(g2
g3
Ntp59
Rp60
(dp61
g7
(dp62
g9
V1996-97 Flair Showcase Legacy Collection Row 2 #74 Kendall Gill
p63
sg11
I150
sg12
VFlair Showcase Legacy Collection Row 2
p64
sg14
(lp65
Vhttp://www.beckett.com/basketball/1996-97/flair-showcase-legacy-collection-row-2/74-kendall-gill-3126199
p66
asg17
g18
sg19
(lp67
Vhttp://img.beckett.com/images/items_stock/185226/3126116/3126199/front.jpg
p68
asg22
V#74
p69
sg24
V1996-97
p70
sg26
g27
sg28
(lp71
VKendall Gill
p72
assbag1
(g2
g3
Ntp73
Rp74
(dp75
g7
(dp76
g9
V1996-97 Flair Showcase Legacy Collection Row 2 #87 Shawn Bradley
p77
sg11
I150
sg12
VFlair Showcase Legacy Collection Row 2
p78
sg14
(lp79
Vhttp://www.beckett.com/basketball/1996-97/flair-showcase-legacy-collection-row-2/87-shawn-bradley-3126212
p80
asg17
g18
sg19
(lp81
Vhttp://img.beckett.com/images/items_stock/185226/3126116/3126212/front.jpg
p82
asg22
V#87
p83
sg24
V1996-97
p84
sg26
g27
sg28
(lp85
VShawn Bradley
p86
assbag1
(g2
g3
Ntp87
Rp88
(dp89
g7
(dp90
g9
V1996-97 Flair Showcase Legacy Collection Row 1 #8 Kerry Kittles
p91
sg11
I150
sg12
VFlair Showcase Legacy Collection Row 1
p92
sg14
(lp93
Vhttp://www.beckett.com/basketball/1996-97/flair-showcase-legacy-collection-row-1/8-kerry-kittles-3126033
p94
asg17
g18
sg19
(lp95
Vhttp://img.beckett.com/images/items_stock/185226/3126021/3126033/front.jpg
p96
asg22
V#8
p97
sg24
V1996-97
p98
sg26
g27
sg28
(lp99
VKerry Kittles
p100
assbag1
(g2
g3
Ntp101
Rp102
(dp103
g7
(dp104
g9
V1996-97 Flair Showcase Legacy Collection Row 1 #74 Kendall Gill
p105
sg11
I150
sg12
VFlair Showcase Legacy Collection Row 1
p106
sg14
(lp107
Vhttp://www.beckett.com/basketball/1996-97/flair-showcase-legacy-collection-row-1/74-kendall-gill-3126099
p108
asg17
g18
sg19
(lp109
Vhttp://img.beckett.com/images/no-image.jpg
p110
asg22
V#74
p111
sg24
V1996-97
p112
sg26
g27
sg28
(lp113
VKendall Gill
p114
assbag1
(g2
g3
Ntp115
Rp116
(dp117
g7
(dp118
g9
V1996-97 Flair Showcase Legacy Collection Row 1 #87 Shawn Bradley
p119
sg11
I150
sg12
VFlair Showcase Legacy Collection Row 1
p120
sg14
(lp121
Vhttp://www.beckett.com/basketball/1996-97/flair-showcase-legacy-collection-row-1/87-shawn-bradley-3126112
p122
asg17
g18
sg19
(lp123
Vhttp://img.beckett.com/images/items_stock/185226/3126021/3126112/front.jpg
p124
asg22
V#87
p125
sg24
V1996-97
p126
sg26
g27
sg28
(lp127
VShawn Bradley
p128
assbag1
(g2
g3
Ntp129
Rp130
(dp131
g7
(dp132
g9
V1996-97 Flair Showcase Legacy Collection Row 0 #8 Kerry Kittles
p133
sg11
I150
sg12
VFlair Showcase Legacy Collection Row 0
p134
sg14
(lp135
Vhttp://www.beckett.com/basketball/1996-97/flair-showcase-legacy-collection-row-0/8-kerry-kittles-3126744
p136
asg17
g18
sg19
(lp137
Vhttp://img.beckett.com/images/no-image.jpg
p138
asg22
V#8
p139
sg24
V1996-97
p140
sg26
g27
sg28
(lp141
VKerry Kittles
p142
assbag1
(g2
g3
Ntp143
Rp144
(dp145
g7
(dp146
g9
V1996-97 Flair Showcase Legacy Collection Row 0 #74 Kendall Gill
p147
sg11
I150
sg12
VFlair Showcase Legacy Collection Row 0
p148
sg14
(lp149
Vhttp://www.beckett.com/basketball/1996-97/flair-showcase-legacy-collection-row-0/74-kendall-gill-3126810
p150
asg17
g18
sg19
(lp151
Vhttp://img.beckett.com/images/no-image.jpg
p152
asg22
V#74
p153
sg24
V1996-97
p154
sg26
g27
sg28
(lp155
VKendall Gill
p156
assbag1
(g2
g3
Ntp157
Rp158
(dp159
g7
(dp160
g9
V1996-97 Flair Showcase Legacy Collection Row 0 #87 Shawn Bradley
p161
sg11
I150
sg12
VFlair Showcase Legacy Collection Row 0
p162
sg14
(lp163
Vhttp://www.beckett.com/basketball/1996-97/flair-showcase-legacy-collection-row-0/87-shawn-bradley-3126823
p164
asg17
g18
sg19
(lp165
Vhttp://img.beckett.com/images/no-image.jpg
p166
asg22
V#87
p167
sg24
V1996-97
p168
sg26
g27
sg28
(lp169
VShawn Bradley
p170
assba.