(lp0
Naccopy_reg
_reconstructor
p1
(ctutorial.items
BeckettItem
p2
c__builtin__
object
p3
Ntp4
Rp5
(dp6
S'_values'
p7
(dp8
S'originalItemDescription'
p9
V1996-97 E-X2000 Credentials #46 Patrick Ewing
p10
sS'serialNumber'
p11
I499
sS'setName'
p12
VE-X2000 Credentials
p13
sS'beckettLink'
p14
(lp15
Vhttp://www.beckett.com/basketball/1996-97/e-x2000-credentials/46-patrick-ewing-3121504
p16
asS'team'
p17
S'New York Knicks'
p18
sS'imageLink'
p19
(lp20
Vhttp://img.beckett.com/images/no-image.jpg
p21
asS'cardNumber'
p22
V#46
p23
sS'year'
p24
V1996-97
p25
sS'sport'
p26
S'Basketball'
p27
sS'playerNames'
p28
(lp29
VPatrick Ewing
p30
assbag1
(g2
g3
Ntp31
Rp32
(dp33
g7
(dp34
g9
V1996-97 E-X2000 Credentials #47 Larry Johnson
p35
sg11
I499
sg12
VE-X2000 Credentials
p36
sg14
(lp37
Vhttp://www.beckett.com/basketball/1996-97/e-x2000-credentials/47-larry-johnson-3121505
p38
asg17
g18
sg19
(lp39
Vhttp://img.beckett.com/images/no-image.jpg
p40
asg22
V#47
p41
sg24
V1996-97
p42
sg26
g27
sg28
(lp43
VLarry Johnson
p44
assbag1
(g2
g3
Ntp45
Rp46
(dp47
g7
(dp48
g9
V1996-97 E-X2000 Credentials #48 John Wallace
p49
sg11
I499
sg12
VE-X2000 Credentials
p50
sg14
(lp51
Vhttp://www.beckett.com/basketball/1996-97/e-x2000-credentials/48-john-wallace-3121506
p52
asg17
g18
sg19
(lp53
Vhttp://img.beckett.com/images/no-image.jpg
p54
asg22
V#48
p55
sg24
V1996-97
p56
sg26
g27
sg28
(lp57
VJohn Wallace
p58
assbag1
(g2
g3
Ntp59
Rp60
(dp61
g7
(dp62
g9
V1996-97 Flair Showcase Legacy Collection Row 2 #45 Patrick Ewing
p63
sg11
I150
sg12
VFlair Showcase Legacy Collection Row 2
p64
sg14
(lp65
Vhttp://www.beckett.com/basketball/1996-97/flair-showcase-legacy-collection-row-2/45-patrick-ewing-3126170
p66
asg17
g18
sg19
(lp67
Vhttp://img.beckett.com/images/items_stock/185226/3126116/3126170/front.jpg
p68
asg22
V#45
p69
sg24
V1996-97
p70
sg26
g27
sg28
(lp71
VPatrick Ewing
p72
assbag1
(g2
g3
Ntp73
Rp74
(dp75
g7
(dp76
g9
V1996-97 Flair Showcase Legacy Collection Row 2 #61 Chris Childs
p77
sg11
I150
sg12
VFlair Showcase Legacy Collection Row 2
p78
sg14
(lp79
Vhttp://www.beckett.com/basketball/1996-97/flair-showcase-legacy-collection-row-2/61-chris-childs-3126186
p80
asg17
g18
sg19
(lp81
Vhttp://img.beckett.com/images/items_stock/185226/3126116/3126186/front.jpg
p82
asg22
V#61
p83
sg24
V1996-97
p84
sg26
g27
sg28
(lp85
VChris Childs
p86
assbag1
(g2
g3
Ntp87
Rp88
(dp89
g7
(dp90
g9
V1996-97 Flair Showcase Legacy Collection Row 2 #71 Allan Houston
p91
sg11
I150
sg12
VFlair Showcase Legacy Collection Row 2
p92
sg14
(lp93
Vhttp://www.beckett.com/basketball/1996-97/flair-showcase-legacy-collection-row-2/71-allan-houston-3126196
p94
asg17
g18
sg19
(lp95
Vhttp://img.beckett.com/images/items_stock/185226/3126116/3126196/front.jpg
p96
asg22
V#71
p97
sg24
V1996-97
p98
sg26
g27
sg28
(lp99
VAllan Houston
p100
assbag1
(g2
g3
Ntp101
Rp102
(dp103
g7
(dp104
g9
V1996-97 Flair Showcase Legacy Collection Row 1 #45 Patrick Ewing
p105
sg11
I150
sg12
VFlair Showcase Legacy Collection Row 1
p106
sg14
(lp107
Vhttp://www.beckett.com/basketball/1996-97/flair-showcase-legacy-collection-row-1/45-patrick-ewing-3126070
p108
asg17
g18
sg19
(lp109
Vhttp://img.beckett.com/images/no-image.jpg
p110
asg22
V#45
p111
sg24
V1996-97
p112
sg26
g27
sg28
(lp113
VPatrick Ewing
p114
assbag1
(g2
g3
Ntp115
Rp116
(dp117
g7
(dp118
g9
V1996-97 Flair Showcase Legacy Collection Row 1 #61 Chris Childs
p119
sg11
I150
sg12
VFlair Showcase Legacy Collection Row 1
p120
sg14
(lp121
Vhttp://www.beckett.com/basketball/1996-97/flair-showcase-legacy-collection-row-1/61-chris-childs-3126086
p122
asg17
g18
sg19
(lp123
Vhttp://img.beckett.com/images/items_stock/185226/3126021/3126086/front.jpg
p124
asg22
V#61
p125
sg24
V1996-97
p126
sg26
g27
sg28
(lp127
VChris Childs
p128
assbag1
(g2
g3
Ntp129
Rp130
(dp131
g7
(dp132
g9
V1996-97 Flair Showcase Legacy Collection Row 1 #71 Allan Houston
p133
sg11
I150
sg12
VFlair Showcase Legacy Collection Row 1
p134
sg14
(lp135
Vhttp://www.beckett.com/basketball/1996-97/flair-showcase-legacy-collection-row-1/71-allan-houston-3126096
p136
asg17
g18
sg19
(lp137
Vhttp://img.beckett.com/images/items_stock/185226/3126021/3126096/front.jpg
p138
asg22
V#71
p139
sg24
V1996-97
p140
sg26
g27
sg28
(lp141
VAllan Houston
p142
assbag1
(g2
g3
Ntp143
Rp144
(dp145
g7
(dp146
g9
V1996-97 Flair Showcase Legacy Collection Row 0 #45 Patrick Ewing
p147
sg11
I150
sg12
VFlair Showcase Legacy Collection Row 0
p148
sg14
(lp149
Vhttp://www.beckett.com/basketball/1996-97/flair-showcase-legacy-collection-row-0/45-patrick-ewing-3126781
p150
asg17
g18
sg19
(lp151
Vhttp://img.beckett.com/images/no-image.jpg
p152
asg22
V#45
p153
sg24
V1996-97
p154
sg26
g27
sg28
(lp155
VPatrick Ewing
p156
assbag1
(g2
g3
Ntp157
Rp158
(dp159
g7
(dp160
g9
V1996-97 Flair Showcase Legacy Collection Row 0 #61 Chris Childs
p161
sg11
I150
sg12
VFlair Showcase Legacy Collection Row 0
p162
sg14
(lp163
Vhttp://www.beckett.com/basketball/1996-97/flair-showcase-legacy-collection-row-0/61-chris-childs-3126797
p164
asg17
g18
sg19
(lp165
Vhttp://img.beckett.com/images/no-image.jpg
p166
asg22
V#61
p167
sg24
V1996-97
p168
sg26
g27
sg28
(lp169
VChris Childs
p170
assbag1
(g2
g3
Ntp171
Rp172
(dp173
g7
(dp174
g9
V1996-97 Flair Showcase Legacy Collection Row 0 #71 Allan Houston
p175
sg11
I150
sg12
VFlair Showcase Legacy Collection Row 0
p176
sg14
(lp177
Vhttp://www.beckett.com/basketball/1996-97/flair-showcase-legacy-collection-row-0/71-allan-houston-3126807
p178
asg17
g18
sg19
(lp179
Vhttp://img.beckett.com/images/no-image.jpg
p180
asg22
V#71
p181
sg24
V1996-97
p182
sg26
g27
sg28
(lp183
VAllan Houston
p184
assba.