(lp0
Naccopy_reg
_reconstructor
p1
(ctutorial.items
BeckettItem
p2
c__builtin__
object
p3
Ntp4
Rp5
(dp6
S'_values'
p7
(dp8
S'originalItemDescription'
p9
V1996-97 E-X2000 Credentials #52 Derrick Coleman
p10
sS'serialNumber'
p11
I499
sS'setName'
p12
VE-X2000 Credentials
p13
sS'beckettLink'
p14
(lp15
Vhttp://www.beckett.com/basketball/1996-97/e-x2000-credentials/52-derrick-coleman-3121510
p16
asS'team'
p17
S'Philadelphia 76ers'
p18
sS'imageLink'
p19
(lp20
Vhttp://img.beckett.com/images/no-image.jpg
p21
asS'cardNumber'
p22
V#52
p23
sS'year'
p24
V1996-97
p25
sS'sport'
p26
S'Basketball'
p27
sS'playerNames'
p28
(lp29
VDerrick Coleman
p30
assbag1
(g2
g3
Ntp31
Rp32
(dp33
g7
(dp34
g9
V1996-97 E-X2000 Credentials #53 Allen Iverson
p35
sg11
I499
sg12
VE-X2000 Credentials
p36
sg14
(lp37
Vhttp://www.beckett.com/basketball/1996-97/e-x2000-credentials/53-allen-iverson-3121511
p38
asg17
g18
sg19
(lp39
Vhttp://img.beckett.com/images/no-image.jpg
p40
asg22
V#53
p41
sg24
V1996-97
p42
sg26
g27
sg28
(lp43
VAllen Iverson
p44
assbag1
(g2
g3
Ntp45
Rp46
(dp47
g7
(dp48
g9
V1996-97 E-X2000 Credentials #54 Jerry Stackhouse
p49
sg11
I499
sg12
VE-X2000 Credentials
p50
sg14
(lp51
Vhttp://www.beckett.com/basketball/1996-97/e-x2000-credentials/54-jerry-stackhouse-3121512
p52
asg17
g18
sg19
(lp53
Vhttp://img.beckett.com/images/no-image.jpg
p54
asg22
V#54
p55
sg24
V1996-97
p56
sg26
g27
sg28
(lp57
VJerry Stackhouse
p58
assbag1
(g2
g3
Ntp59
Rp60
(dp61
g7
(dp62
g9
V1996-97 Flair Showcase Legacy Collection Row 2 #3 Allen Iverson
p63
sg11
I150
sg12
VFlair Showcase Legacy Collection Row 2
p64
sg14
(lp65
Vhttp://www.beckett.com/basketball/1996-97/flair-showcase-legacy-collection-row-2/3-allen-iverson-3126128
p66
asg17
g18
sg19
(lp67
Vhttp://img.beckett.com/images/items_stock/185226/3126116/3126128/front.jpg
p68
asg22
V#3
p69
sg24
V1996-97
p70
sg26
g27
sg28
(lp71
VAllen Iverson
p72
assbag1
(g2
g3
Ntp73
Rp74
(dp75
g7
(dp76
g9
V1996-97 Flair Showcase Legacy Collection Row 2 #16 Jerry Stackhouse
p77
sg11
I150
sg12
VFlair Showcase Legacy Collection Row 2
p78
sg14
(lp79
Vhttp://www.beckett.com/basketball/1996-97/flair-showcase-legacy-collection-row-2/16-jerry-stackhouse-3126141
p80
asg17
g18
sg19
(lp81
Vhttp://img.beckett.com/images/items_stock/185226/3126116/3126141/front.jpg
p82
asg22
V#16
p83
sg24
V1996-97
p84
sg26
g27
sg28
(lp85
VJerry Stackhouse
p86
assbag1
(g2
g3
Ntp87
Rp88
(dp89
g7
(dp90
g9
V1996-97 Flair Showcase Legacy Collection Row 2 #32 Derrick Coleman
p91
sg11
I150
sg12
VFlair Showcase Legacy Collection Row 2
p92
sg14
(lp93
Vhttp://www.beckett.com/basketball/1996-97/flair-showcase-legacy-collection-row-2/32-derrick-coleman-3126157
p94
asg17
g18
sg19
(lp95
Vhttp://img.beckett.com/images/items_stock/185226/3126116/3126157/front.jpg
p96
asg22
V#32
p97
sg24
V1996-97
p98
sg26
g27
sg28
(lp99
VDerrick Coleman
p100
assbag1
(g2
g3
Ntp101
Rp102
(dp103
g7
(dp104
g9
V1996-97 Flair Showcase Legacy Collection Row 1 #3 Allen Iverson
p105
sg11
I150
sg12
VFlair Showcase Legacy Collection Row 1
p106
sg14
(lp107
Vhttp://www.beckett.com/basketball/1996-97/flair-showcase-legacy-collection-row-1/3-allen-iverson-3126028
p108
asg17
g18
sg19
(lp109
Vhttp://img.beckett.com/images/no-image.jpg
p110
asg22
V#3
p111
sg24
V1996-97
p112
sg26
g27
sg28
(lp113
VAllen Iverson
p114
assbag1
(g2
g3
Ntp115
Rp116
(dp117
g7
(dp118
g9
V1996-97 Flair Showcase Legacy Collection Row 1 #16 Jerry Stackhouse
p119
sg11
I150
sg12
VFlair Showcase Legacy Collection Row 1
p120
sg14
(lp121
Vhttp://www.beckett.com/basketball/1996-97/flair-showcase-legacy-collection-row-1/16-jerry-stackhouse-3126041
p122
asg17
g18
sg19
(lp123
Vhttp://img.beckett.com/images/no-image.jpg
p124
asg22
V#16
p125
sg24
V1996-97
p126
sg26
g27
sg28
(lp127
VJerry Stackhouse
p128
assbag1
(g2
g3
Ntp129
Rp130
(dp131
g7
(dp132
g9
V1996-97 Flair Showcase Legacy Collection Row 1 #32 Derrick Coleman
p133
sg11
I150
sg12
VFlair Showcase Legacy Collection Row 1
p134
sg14
(lp135
Vhttp://www.beckett.com/basketball/1996-97/flair-showcase-legacy-collection-row-1/32-derrick-coleman-3126057
p136
asg17
g18
sg19
(lp137
Vhttp://img.beckett.com/images/items_stock/185226/3126021/3126057/front.jpg
p138
asg22
V#32
p139
sg24
V1996-97
p140
sg26
g27
sg28
(lp141
VDerrick Coleman
p142
assbag1
(g2
g3
Ntp143
Rp144
(dp145
g7
(dp146
g9
V1996-97 Flair Showcase Legacy Collection Row 0 #3 Allen Iverson
p147
sg11
I150
sg12
VFlair Showcase Legacy Collection Row 0
p148
sg14
(lp149
Vhttp://www.beckett.com/basketball/1996-97/flair-showcase-legacy-collection-row-0/3-allen-iverson-3126739
p150
asg17
g18
sg19
(lp151
Vhttp://img.beckett.com/images/no-image.jpg
p152
asg22
V#3
p153
sg24
V1996-97
p154
sg26
g27
sg28
(lp155
VAllen Iverson
p156
assbag1
(g2
g3
Ntp157
Rp158
(dp159
g7
(dp160
g9
V1996-97 Flair Showcase Legacy Collection Row 0 #16 Jerry Stackhouse
p161
sg11
I150
sg12
VFlair Showcase Legacy Collection Row 0
p162
sg14
(lp163
Vhttp://www.beckett.com/basketball/1996-97/flair-showcase-legacy-collection-row-0/16-jerry-stackhouse-3126752
p164
asg17
g18
sg19
(lp165
Vhttp://img.beckett.com/images/no-image.jpg
p166
asg22
V#16
p167
sg24
V1996-97
p168
sg26
g27
sg28
(lp169
VJerry Stackhouse
p170
assbag1
(g2
g3
Ntp171
Rp172
(dp173
g7
(dp174
g9
V1996-97 Flair Showcase Legacy Collection Row 0 #32 Derrick Coleman
p175
sg11
I150
sg12
VFlair Showcase Legacy Collection Row 0
p176
sg14
(lp177
Vhttp://www.beckett.com/basketball/1996-97/flair-showcase-legacy-collection-row-0/32-derrick-coleman-3126768
p178
asg17
g18
sg19
(lp179
Vhttp://img.beckett.com/images/no-image.jpg
p180
asg22
V#32
p181
sg24
V1996-97
p182
sg26
g27
sg28
(lp183
VDerrick Coleman
p184
assba.