(lp0
Naccopy_reg
_reconstructor
p1
(ctutorial.items
BeckettItem
p2
c__builtin__
object
p3
Ntp4
Rp5
(dp6
S'_values'
p7
(dp8
S'originalItemDescription'
p9
V1996-97 E-X2000 Credentials #70 Marcus Camby
p10
sS'serialNumber'
p11
I499
sS'setName'
p12
VE-X2000 Credentials
p13
sS'beckettLink'
p14
(lp15
Vhttp://www.beckett.com/basketball/1996-97/e-x2000-credentials/70-marcus-camby-3121528
p16
asS'team'
p17
S'Toronto Raptors'
p18
sS'imageLink'
p19
(lp20
Vhttp://img.beckett.com/images/no-image.jpg
p21
asS'cardNumber'
p22
V#70
p23
sS'year'
p24
V1996-97
p25
sS'sport'
p26
S'Basketball'
p27
sS'playerNames'
p28
(lp29
VMarcus Camby
p30
assbag1
(g2
g3
Ntp31
Rp32
(dp33
g7
(dp34
g9
V1996-97 E-X2000 Credentials #71 Damon Stoudamire
p35
sg11
I499
sg12
VE-X2000 Credentials
p36
sg14
(lp37
Vhttp://www.beckett.com/basketball/1996-97/e-x2000-credentials/71-damon-stoudamire-3121529
p38
asg17
g18
sg19
(lp39
Vhttp://img.beckett.com/images/items_stock/185226/3121449/3121529/front.jpg
p40
asg22
V#71
p41
sg24
V1996-97
p42
sg26
g27
sg28
(lp43
VDamon Stoudamire
p44
assbag1
(g2
g3
Ntp45
Rp46
(dp47
g7
(dp48
g9
V1996-97 E-X2000 Credentials #72 Walt Williams
p49
sg11
I499
sg12
VE-X2000 Credentials
p50
sg14
(lp51
Vhttp://www.beckett.com/basketball/1996-97/e-x2000-credentials/72-walt-williams-3121530
p52
asg17
g18
sg19
(lp53
Vhttp://img.beckett.com/images/no-image.jpg
p54
asg22
V#72
p55
sg24
V1996-97
p56
sg26
g27
sg28
(lp57
VWalt Williams
p58
assbag1
(g2
g3
Ntp59
Rp60
(dp61
g7
(dp62
g9
V1996-97 Flair Showcase Legacy Collection Row 2 #20 Damon Stoudamire
p63
sg11
I150
sg12
VFlair Showcase Legacy Collection Row 2
p64
sg14
(lp65
Vhttp://www.beckett.com/basketball/1996-97/flair-showcase-legacy-collection-row-2/20-damon-stoudamire-3126145
p66
asg17
g18
sg19
(lp67
Vhttp://img.beckett.com/images/items_stock/185226/3126116/3126145/front.jpg
p68
asg22
V#20
p69
sg24
V1996-97
p70
sg26
g27
sg28
(lp71
VDamon Stoudamire
p72
assbag1
(g2
g3
Ntp73
Rp74
(dp75
g7
(dp76
g9
V1996-97 Flair Showcase Legacy Collection Row 2 #49 Marcus Camby
p77
sg11
I150
sg12
VFlair Showcase Legacy Collection Row 2
p78
sg14
(lp79
Vhttp://www.beckett.com/basketball/1996-97/flair-showcase-legacy-collection-row-2/49-marcus-camby-3126174
p80
asg17
g18
sg19
(lp81
Vhttp://img.beckett.com/images/items_stock/185226/3126116/3126174/front.jpg
p82
asg22
V#49
p83
sg24
V1996-97
p84
sg26
g27
sg28
(lp85
VMarcus Camby
p86
assbag1
(g2
g3
Ntp87
Rp88
(dp89
g7
(dp90
g9
V1996-97 Flair Showcase Legacy Collection Row 2 #72 Doug Christie
p91
sg11
I150
sg12
VFlair Showcase Legacy Collection Row 2
p92
sg14
(lp93
Vhttp://www.beckett.com/basketball/1996-97/flair-showcase-legacy-collection-row-2/72-doug-christie-3126197
p94
asg17
g18
sg19
(lp95
Vhttp://img.beckett.com/images/items_stock/185226/3126116/3126197/front.jpg
p96
asg22
V#72
p97
sg24
V1996-97
p98
sg26
g27
sg28
(lp99
VDoug Christie
p100
assbag1
(g2
g3
Ntp101
Rp102
(dp103
g7
(dp104
g9
V1996-97 Flair Showcase Legacy Collection Row 1 #20 Damon Stoudamire
p105
sg11
I150
sg12
VFlair Showcase Legacy Collection Row 1
p106
sg14
(lp107
Vhttp://www.beckett.com/basketball/1996-97/flair-showcase-legacy-collection-row-1/20-damon-stoudamire-3126045
p108
asg17
g18
sg19
(lp109
Vhttp://img.beckett.com/images/no-image.jpg
p110
asg22
V#20
p111
sg24
V1996-97
p112
sg26
g27
sg28
(lp113
VDamon Stoudamire
p114
assbag1
(g2
g3
Ntp115
Rp116
(dp117
g7
(dp118
g9
V1996-97 Flair Showcase Legacy Collection Row 1 #49 Marcus Camby
p119
sg11
I150
sg12
VFlair Showcase Legacy Collection Row 1
p120
sg14
(lp121
Vhttp://www.beckett.com/basketball/1996-97/flair-showcase-legacy-collection-row-1/49-marcus-camby-3126074
p122
asg17
g18
sg19
(lp123
Vhttp://img.beckett.com/images/no-image.jpg
p124
asg22
V#49
p125
sg24
V1996-97
p126
sg26
g27
sg28
(lp127
VMarcus Camby
p128
assbag1
(g2
g3
Ntp129
Rp130
(dp131
g7
(dp132
g9
V1996-97 Flair Showcase Legacy Collection Row 1 #72 Doug Christie
p133
sg11
I150
sg12
VFlair Showcase Legacy Collection Row 1
p134
sg14
(lp135
Vhttp://www.beckett.com/basketball/1996-97/flair-showcase-legacy-collection-row-1/72-doug-christie-3126097
p136
asg17
g18
sg19
(lp137
Vhttp://img.beckett.com/images/items_stock/185226/3126021/3126097/front.jpg
p138
asg22
V#72
p139
sg24
V1996-97
p140
sg26
g27
sg28
(lp141
VDoug Christie
p142
assbag1
(g2
g3
Ntp143
Rp144
(dp145
g7
(dp146
g9
V1996-97 Flair Showcase Legacy Collection Row 0 #20 Damon Stoudamire
p147
sg11
I150
sg12
VFlair Showcase Legacy Collection Row 0
p148
sg14
(lp149
Vhttp://www.beckett.com/basketball/1996-97/flair-showcase-legacy-collection-row-0/20-damon-stoudamire-3126756
p150
asg17
g18
sg19
(lp151
Vhttp://img.beckett.com/images/no-image.jpg
p152
asg22
V#20
p153
sg24
V1996-97
p154
sg26
g27
sg28
(lp155
VDamon Stoudamire
p156
assbag1
(g2
g3
Ntp157
Rp158
(dp159
g7
(dp160
g9
V1996-97 Flair Showcase Legacy Collection Row 0 #49 Marcus Camby
p161
sg11
I150
sg12
VFlair Showcase Legacy Collection Row 0
p162
sg14
(lp163
Vhttp://www.beckett.com/basketball/1996-97/flair-showcase-legacy-collection-row-0/49-marcus-camby-3126785
p164
asg17
g18
sg19
(lp165
Vhttp://img.beckett.com/images/no-image.jpg
p166
asg22
V#49
p167
sg24
V1996-97
p168
sg26
g27
sg28
(lp169
VMarcus Camby
p170
assbag1
(g2
g3
Ntp171
Rp172
(dp173
g7
(dp174
g9
V1996-97 Flair Showcase Legacy Collection Row 0 #72 Doug Christie
p175
sg11
I150
sg12
VFlair Showcase Legacy Collection Row 0
p176
sg14
(lp177
Vhttp://www.beckett.com/basketball/1996-97/flair-showcase-legacy-collection-row-0/72-doug-christie-3126808
p178
asg17
g18
sg19
(lp179
Vhttp://img.beckett.com/images/no-image.jpg
p180
asg22
V#72
p181
sg24
V1996-97
p182
sg26
g27
sg28
(lp183
VDoug Christie
p184
assbag1
(g2
g3
Ntp185
Rp186
(dp187
g7
(dp188
g9
V1996-97 SP SPx Force #F5D Damon Stoudamire AU
p189
sg11
I100
sg12
VSP SPx Force
p190
sg14
(lp191
Vhttp://www.beckett.com/basketball/1996-97/sp-spx-force/f5d-damon-stoudamire-au-3118690
p192
asg17
g18
sg19
(lp193
Vhttp://img.beckett.com/images/no-image.jpg
p194
asg22
V#F5D
p195
sS'autograph'
p196
I1
sg24
V1996-97
p197
sg26
g27
sg28
(lp198
VDamon Stoudamire
p199
assbag1
(g2
g3
Ntp200
Rp201
(dp202
g7
(dp203
g9
V1996-97 Upper Deck Autographs #A4 Damon Stoudamire
p204
sg11
I500
sg12
VUpper Deck Autographs
p205
sg14
(lp206
Vhttp://www.beckett.com/basketball/1996-97/upper-deck-autographs/a4-damon-stoudamire-3114179
p207
asg17
g18
sg19
(lp208
Vhttp://img.beckett.com/images/no-image.jpg
p209
asg22
V#A4
p210
sg196
I1
sg24
V1996-97
p211
sg26
g27
sg28
(lp212
VDamon Stoudamire
p213
assba.