(lp0
Naccopy_reg
_reconstructor
p1
(ctutorial.items
BeckettItem
p2
c__builtin__
object
p3
Ntp4
Rp5
(dp6
S'_values'
p7
(dp8
S'originalItemDescription'
p9
V1999 Upper Deck Century Legends Century Collection #50 Dominique Wilkins
p10
sS'serialNumber'
p11
I100
sS'setName'
p12
VUpper Deck Century Legends Century Collection
p13
sS'beckettLink'
p14
(lp15
Vhttp://www.beckett.com/basketball/1999/upper-deck-century-legends-century-collection/50-dominique-wilkins-3175480
p16
asS'team'
p17
S'Atlanta Hawks'
p18
sS'imageLink'
p19
(lp20
Vhttp://img.beckett.com/images/no-image.jpg
p21
asS'cardNumber'
p22
V#50
p23
sS'year'
p24
V1999
p25
sS'sport'
p26
S'Basketball'
p27
sS'playerNames'
p28
(lp29
VDominique Wilkins
p30
assbag1
(g2
g3
Ntp31
Rp32
(dp33
g7
(dp34
g9
V1999-00 E-X #63 Cal Bowdler RC
p35
sg11
I3499
sg12
VE-X
p36
sg14
(lp37
Vhttp://www.beckett.com/basketball/1999-00/e-x/63-cal-bowdler-rc-3205124
p38
asg17
g18
sS'rookieCard'
p39
I1
sg19
(lp40
Vhttp://img.beckett.com/images/no-image.jpg
p41
asg22
V#63
p42
sg24
V1999-00
p43
sg26
g27
sg28
(lp44
VCal Bowdler
p45
assbag1
(g2
g3
Ntp46
Rp47
(dp48
g7
(dp49
g9
V1999-00 E-X #64 Dion Glover RC
p50
sg11
I3499
sg12
VE-X
p51
sg14
(lp52
Vhttp://www.beckett.com/basketball/1999-00/e-x/64-dion-glover-rc-3205125
p53
asg17
g18
sg39
I1
sg19
(lp54
Vhttp://img.beckett.com/images/no-image.jpg
p55
asg22
V#64
p56
sg24
V1999-00
p57
sg26
g27
sg28
(lp58
VDion Glover
p59
assbag1
(g2
g3
Ntp60
Rp61
(dp62
g7
(dp63
g9
V1999-00 E-X #72 Jason Terry RC
p64
sg11
I3499
sg12
VE-X
p65
sg14
(lp66
Vhttp://www.beckett.com/basketball/1999-00/e-x/72-jason-terry-rc-3205133
p67
asg17
g18
sg39
I1
sg19
(lp68
Vhttp://img.beckett.com/images/no-image.jpg
p69
asg22
V#72
p70
sg24
V1999-00
p71
sg26
g27
sg28
(lp72
VJason Terry
p73
assbag1
(g2
g3
Ntp74
Rp75
(dp76
g7
(dp77
g9
V1999-00 Flair Showcase #101 Cal Bowdler RC
p78
sg11
I2000
sg12
VFlair Showcase
p79
sg14
(lp80
Vhttp://www.beckett.com/basketball/1999-00/flair-showcase/101-cal-bowdler-rc-3202885
p81
asg17
g18
sg39
I1
sg19
(lp82
Vhttp://img.beckett.com/images/no-image.jpg
p83
asg22
V#101
p84
sg24
V1999-00
p85
sg26
g27
sg28
(lp86
VCal Bowdler
p87
assbag1
(g2
g3
Ntp88
Rp89
(dp90
g7
(dp91
g9
V1999-00 Flair Showcase #102 Dion Glover RC
p92
sg11
I2000
sg12
VFlair Showcase
p93
sg14
(lp94
Vhttp://www.beckett.com/basketball/1999-00/flair-showcase/102-dion-glover-rc-3202886
p95
asg17
g18
sg39
I1
sg19
(lp96
Vhttp://img.beckett.com/images/no-image.jpg
p97
asg22
V#102
p98
sg24
V1999-00
p99
sg26
g27
sg28
(lp100
VDion Glover
p101
assbag1
(g2
g3
Ntp102
Rp103
(dp104
g7
(dp105
g9
V1999-00 Flair Showcase #103 Jason Terry RC
p106
sg11
I2000
sg12
VFlair Showcase
p107
sg14
(lp108
Vhttp://www.beckett.com/basketball/1999-00/flair-showcase/103-jason-terry-rc-3202887
p109
asg17
g18
sg39
I1
sg19
(lp110
Vhttp://img.beckett.com/images/no-image.jpg
p111
asg22
V#103
p112
sg24
V1999-00
p113
sg26
g27
sg28
(lp114
VJason Terry
p115
assbag1
(g2
g3
Ntp116
Rp117
(dp118
g7
(dp119
g9
V1999-00 Fleer Focus #104 Cal Bowdler RC
p120
sg11
I3000
sg12
VFleer Focus
p121
sg14
(lp122
Vhttp://www.beckett.com/basketball/1999-00/fleer-focus/104-cal-bowdler-rc-3201961
p123
asg17
g18
sg39
I1
sg19
(lp124
Vhttp://img.beckett.com/images/no-image.jpg
p125
asg22
V#104
p126
sg24
V1999-00
p127
sg26
g27
sg28
(lp128
VCal Bowdler
p129
assbag1
(g2
g3
Ntp130
Rp131
(dp132
g7
(dp133
g9
V1999-00 Fleer Focus #104A Cal Bowdler SP
p134
sg11
I999
sg12
VFleer Focus
p135
sg14
(lp136
Vhttp://www.beckett.com/basketball/1999-00/fleer-focus/104a-cal-bowdler-sp-3201962
p137
asg17
g18
sg19
(lp138
Vhttp://img.beckett.com/images/no-image.jpg
p139
asg22
V#104A
p140
sg24
V1999-00
p141
sS'subsetName'
p142
VSP
p143
sg26
g27
sg28
(lp144
VCal Bowdler
p145
assbag1
(g2
g3
Ntp146
Rp147
(dp148
g7
(dp149
g9
V1999-00 Fleer Focus #111 Dion Glover RC
p150
sg11
I3000
sg12
VFleer Focus
p151
sg14
(lp152
Vhttp://www.beckett.com/basketball/1999-00/fleer-focus/111-dion-glover-rc-3201975
p153
asg17
g18
sg39
I1
sg19
(lp154
Vhttp://img.beckett.com/images/no-image.jpg
p155
asg22
V#111
p156
sg24
V1999-00
p157
sg26
g27
sg28
(lp158
VDion Glover
p159
assbag1
(g2
g3
Ntp160
Rp161
(dp162
g7
(dp163
g9
V1999-00 Fleer Focus #111A Dion Glover SP
p164
sg11
I999
sg12
VFleer Focus
p165
sg14
(lp166
Vhttp://www.beckett.com/basketball/1999-00/fleer-focus/111a-dion-glover-sp-3201976
p167
asg17
g18
sg19
(lp168
Vhttp://img.beckett.com/images/no-image.jpg
p169
asg22
V#111A
p170
sg24
V1999-00
p171
sg142
VSP
p172
sg26
g27
sg28
(lp173
VDion Glover
p174
assbag1
(g2
g3
Ntp175
Rp176
(dp177
g7
(dp178
g9
V1999-00 Fleer Focus #124 Jason Terry RC
p179
sg11
I3000
sg12
VFleer Focus
p180
sg14
(lp181
Vhttp://www.beckett.com/basketball/1999-00/fleer-focus/124-jason-terry-rc-3202001
p182
asg17
g18
sg39
I1
sg19
(lp183
Vhttp://img.beckett.com/images/no-image.jpg
p184
asg22
V#124
p185
sg24
V1999-00
p186
sg26
g27
sg28
(lp187
VJason Terry
p188
assbag1
(g2
g3
Ntp189
Rp190
(dp191
g7
(dp192
g9
V1999-00 Fleer Focus #124A Jason Terry SP
p193
sg11
I999
sg12
VFleer Focus
p194
sg14
(lp195
Vhttp://www.beckett.com/basketball/1999-00/fleer-focus/124a-jason-terry-sp-3202002
p196
asg17
g18
sg19
(lp197
Vhttp://img.beckett.com/images/no-image.jpg
p198
asg22
V#124A
p199
sg24
V1999-00
p200
sg142
VSP
p201
sg26
g27
sg28
(lp202
VJason Terry
p203
assbag1
(g2
g3
Ntp204
Rp205
(dp206
g7
(dp207
g9
V1999-00 Fleer Force #209 Jason Terry RC
p208
sg11
I1600
sg12
VFleer Force
p209
sg14
(lp210
Vhttp://www.beckett.com/basketball/1999-00/fleer-force/209-jason-terry-rc-3200283
p211
asg17
g18
sg39
I1
sg19
(lp212
Vhttp://img.beckett.com/images/items_stock/185226/3200062/3200283/front.jpg
p213
asg22
V#209
p214
sg24
V1999-00
p215
sg26
g27
sg28
(lp216
VJason Terry
p217
assbag1
(g2
g3
Ntp218
Rp219
(dp220
g7
(dp221
g9
V1999-00 Fleer Force #221 Dion Glover RC
p222
sg11
I1600
sg12
VFleer Force
p223
sg14
(lp224
Vhttp://www.beckett.com/basketball/1999-00/fleer-force/221-dion-glover-rc-3200295
p225
asg17
g18
sg39
I1
sg19
(lp226
Vhttp://img.beckett.com/images/items_stock/185226/3200062/3200295/front.jpg
p227
asg22
V#221
p228
sg24
V1999-00
p229
sg26
g27
sg28
(lp230
VDion Glover
p231
assbag1
(g2
g3
Ntp232
Rp233
(dp234
g7
(dp235
g9
V1999-00 Fleer Force #222 Cal Bowdler RC
p236
sg11
I1600
sg12
VFleer Force
p237
sg14
(lp238
Vhttp://www.beckett.com/basketball/1999-00/fleer-force/222-cal-bowdler-rc-3200296
p239
asg17
g18
sg39
I1
sg19
(lp240
Vhttp://img.beckett.com/images/items_stock/185226/3200062/3200296/front.jpg
p241
asg22
V#222
p242
sg24
V1999-00
p243
sg26
g27
sg28
(lp244
VCal Bowdler
p245
assbag1
(g2
g3
Ntp246
Rp247
(dp248
g7
(dp249
g9
V1999-00 Fleer Mystique #104 Jason Terry RC
p250
sg11
I2999
sg12
VFleer Mystique
p251
sg14
(lp252
Vhttp://www.beckett.com/basketball/1999-00/fleer-mystique/104-jason-terry-rc-3198438
p253
asg17
g18
sg39
I1
sg19
(lp254
Vhttp://img.beckett.com/images/items_stock/185226/3198320/3198438/front.jpg
p255
asg22
V#104
p256
sg24
V1999-00
p257
sg26
g27
sg28
(lp258
VJason Terry
p259
assbag1
(g2
g3
Ntp260
Rp261
(dp262
g7
(dp263
g9
V1999-00 Fleer Mystique #127 Cal Bowdler RC
p264
sg11
I2999
sg12
VFleer Mystique
p265
sg14
(lp266
Vhttp://www.beckett.com/basketball/1999-00/fleer-mystique/127-cal-bowdler-rc-3198461
p267
asg17
g18
sg39
I1
sg19
(lp268
Vhttp://img.beckett.com/images/items_stock/185226/3198320/3198461/front.jpg
p269
asg22
V#127
p270
sg24
V1999-00
p271
sg26
g27
sg28
(lp272
VCal Bowdler
p273
assbag1
(g2
g3
Ntp274
Rp275
(dp276
g7
(dp277
g9
V1999-00 Fleer Mystique #128 Dion Glover RC
p278
sg11
I2999
sg12
VFleer Mystique
p279
sg14
(lp280
Vhttp://www.beckett.com/basketball/1999-00/fleer-mystique/128-dion-glover-rc-3198462
p281
asg17
g18
sg39
I1
sg19
(lp282
Vhttp://img.beckett.com/images/items_stock/185226/3198320/3198462/front.jpg
p283
asg22
V#128
p284
sg24
V1999-00
p285
sg26
g27
sg28
(lp286
VDion Glover
p287
assbag1
(g2
g3
Ntp288
Rp289
(dp290
g7
(dp291
g9
V1999-00 SP Authentic #100 Jason Terry RC
p292
sg11
I1500
sg12
VSP Authentic
p293
sg14
(lp294
Vhttp://www.beckett.com/basketball/1999-00/sp-authentic/100-jason-terry-rc-3196245
p295
asg17
g18
sg39
I1
sg19
(lp296
Vhttp://img.beckett.com/images/no-image.jpg
p297
asg22
V#100
p298
sg24
V1999-00
p299
sg26
g27
sg28
(lp300
VJason Terry
p301
assbag1
(g2
g3
Ntp302
Rp303
(dp304
g7
(dp305
g9
V1999-00 SP Authentic #108 Dion Glover RC
p306
sg11
I1500
sg12
VSP Authentic
p307
sg14
(lp308
Vhttp://www.beckett.com/basketball/1999-00/sp-authentic/108-dion-glover-rc-3196253
p309
asg17
g18
sg39
I1
sg19
(lp310
Vhttp://img.beckett.com/images/no-image.jpg
p311
asg22
V#108
p312
sg24
V1999-00
p313
sg26
g27
sg28
(lp314
VDion Glover
p315
assbag1
(g2
g3
Ntp316
Rp317
(dp318
g7
(dp319
g9
V1999-00 SP Authentic #123 Cal Bowdler RC
p320
sg11
I1500
sg12
VSP Authentic
p321
sg14
(lp322
Vhttp://www.beckett.com/basketball/1999-00/sp-authentic/123-cal-bowdler-rc-3196268
p323
asg17
g18
sg39
I1
sg19
(lp324
Vhttp://img.beckett.com/images/no-image.jpg
p325
asg22
V#123
p326
sg24
V1999-00
p327
sg26
g27
sg28
(lp328
VCal Bowdler
p329
assbag1
(g2
g3
Ntp330
Rp331
(dp332
g7
(dp333
g9
V1999-00 SPx #100 Jason Terry AU/2500 RC
p334
sg11
I2500
sg12
VSPx
p335
sg14
(lp336
Vhttp://www.beckett.com/basketball/1999-00/spx/100-jason-terry-au2500-rc-3193180
p337
asg17
g18
sg39
I1
sg19
(lp338
Vhttp://img.beckett.com/images/items_stock/185226/3193067/3193180/front.jpg
p339
asg22
V#100
p340
sS'autograph'
p341
I1
sg24
V1999-00
p342
sg26
g27
sg28
(lp343
VJason Terry
p344
assbag1
(g2
g3
Ntp345
Rp346
(dp347
g7
(dp348
g9
V1999-00 SPx #105 Dion Glover/3500 RC
p349
sg11
I3500
sg12
VSPx
p350
sg14
(lp351
Vhttp://www.beckett.com/basketball/1999-00/spx/105-dion-glover3500-rc-3193185
p352
asg17
g18
sg39
I1
sg19
(lp353
Vhttp://img.beckett.com/images/no-image.jpg
p354
asg22
V#105
p355
sg24
V1999-00
p356
sg26
g27
sg28
(lp357
VDion Glover
p358
assbag1
(g2
g3
Ntp359
Rp360
(dp361
g7
(dp362
g9
V1999-00 SPx #107 Cal Bowdler/3500 RC
p363
sg11
I3500
sg12
VSPx
p364
sg14
(lp365
Vhttp://www.beckett.com/basketball/1999-00/spx/107-cal-bowdler3500-rc-3193187
p366
asg17
g18
sg39
I1
sg19
(lp367
Vhttp://img.beckett.com/images/items_stock/185226/3193067/3193187/front.jpg
p368
asg22
V#107
p369
sg24
V1999-00
p370
sg26
g27
sg28
(lp371
VCal Bowdler
p372
assbag1
(g2
g3
Ntp373
Rp374
(dp375
g7
(dp376
g9
V1999-00 UD Ionix #70 Jason Terry RC
p377
sg11
I3500
sg12
VUD Ionix
p378
sg14
(lp379
Vhttp://www.beckett.com/basketball/1999-00/ud-ionix/70-jason-terry-rc-3188000
p380
asg17
g18
sg39
I1
sg19
(lp381
Vhttp://img.beckett.com/images/items_stock/185226/3187919/3188000/front.jpg
p382
asg22
V#70
p383
sg24
V1999-00
p384
sg26
g27
sg28
(lp385
VJason Terry
p386
assbag1
(g2
g3
Ntp387
Rp388
(dp389
g7
(dp390
g9
V1999-00 UD Ionix #76 Cal Bowdler RC
p391
sg11
I3500
sg12
VUD Ionix
p392
sg14
(lp393
Vhttp://www.beckett.com/basketball/1999-00/ud-ionix/76-cal-bowdler-rc-3188006
p394
asg17
g18
sg39
I1
sg19
(lp395
Vhttp://img.beckett.com/images/items_stock/185226/3187919/3188006/front.jpg
p396
asg22
V#76
p397
sg24
V1999-00
p398
sg26
g27
sg28
(lp399
VCal Bowdler
p400
assbag1
(g2
g3
Ntp401
Rp402
(dp403
g7
(dp404
g9
V1999-00 UD Ionix #79 Dion Glover RC
p405
sg11
I3500
sg12
VUD Ionix
p406
sg14
(lp407
Vhttp://www.beckett.com/basketball/1999-00/ud-ionix/79-dion-glover-rc-3188009
p408
asg17
g18
sg39
I1
sg19
(lp409
Vhttp://img.beckett.com/images/items_stock/185226/3187919/3188009/front.jpg
p410
asg22
V#79
p411
sg24
V1999-00
p412
sg26
g27
sg28
(lp413
VDion Glover
p414
assbag1
(g2
g3
Ntp415
Rp416
(dp417
g7
(dp418
g9
V1999-00 Upper Deck Encore #100 Jason Terry RC
p419
sg11
I1999
sg12
VUpper Deck Encore
p420
sg14
(lp421
Vhttp://www.beckett.com/basketball/1999-00/upper-deck-encore/100-jason-terry-rc-3184709
p422
asg17
g18
sg39
I1
sg19
(lp423
Vhttp://img.beckett.com/images/items_stock/185226/3184598/3184709/front.jpg
p424
asg22
V#100
p425
sg24
V1999-00
p426
sg26
g27
sg28
(lp427
VJason Terry
p428
assbag1
(g2
g3
Ntp429
Rp430
(dp431
g7
(dp432
g9
V1999-00 Upper Deck Encore #111 Dion Glover RC
p433
sg11
I1999
sg12
VUpper Deck Encore
p434
sg14
(lp435
Vhttp://www.beckett.com/basketball/1999-00/upper-deck-encore/111-dion-glover-rc-3184720
p436
asg17
g18
sg39
I1
sg19
(lp437
Vhttp://img.beckett.com/images/items_stock/185226/3184598/3184720/front.jpg
p438
asg22
V#111
p439
sg24
V1999-00
p440
sg26
g27
sg28
(lp441
VDion Glover
p442
assbag1
(g2
g3
Ntp443
Rp444
(dp445
g7
(dp446
g9
V1999-00 Upper Deck Gold Reserve #250 Jason Terry RC
p447
sg11
I3500
sg12
VUpper Deck Gold Reserve
p448
sg14
(lp449
Vhttp://www.beckett.com/basketball/1999-00/upper-deck-gold-reserve/250-jason-terry-rc-3183554
p450
asg17
g18
sg39
I1
sg19
(lp451
Vhttp://img.beckett.com/images/items_stock/185226/3183293/3183554/front.jpg
p452
asg22
V#250
p453
sg24
V1999-00
p454
sg26
g27
sg28
(lp455
VJason Terry
p456
assbag1
(g2
g3
Ntp457
Rp458
(dp459
g7
(dp460
g9
V1999-00 Upper Deck Gold Reserve #256 Cal Bowdler RC
p461
sg11
I3500
sg12
VUpper Deck Gold Reserve
p462
sg14
(lp463
Vhttp://www.beckett.com/basketball/1999-00/upper-deck-gold-reserve/256-cal-bowdler-rc-3183560
p464
asg17
g18
sg39
I1
sg19
(lp465
Vhttp://img.beckett.com/images/items_stock/185226/3183293/3183560/front.jpg
p466
asg22
V#256
p467
sg24
V1999-00
p468
sg26
g27
sg28
(lp469
VCal Bowdler
p470
assbag1
(g2
g3
Ntp471
Rp472
(dp473
g7
(dp474
g9
V1999-00 Upper Deck Gold Reserve #259 Dion Glover RC
p475
sg11
I3500
sg12
VUpper Deck Gold Reserve
p476
sg14
(lp477
Vhttp://www.beckett.com/basketball/1999-00/upper-deck-gold-reserve/259-dion-glover-rc-3183563
p478
asg17
g18
sg39
I1
sg19
(lp479
Vhttp://img.beckett.com/images/items_stock/185226/3183293/3183563/front.jpg
p480
asg22
V#259
p481
sg24
V1999-00
p482
sg26
g27
sg28
(lp483
VDion Glover
p484
assbag1
(g2
g3
Ntp485
Rp486
(dp487
g7
(dp488
g9
V1999-00 Black Diamond Final Cut #1 Dikembe Mutombo
p489
sg11
I100
sg12
VBlack Diamond Final Cut
p490
sg14
(lp491
Vhttp://www.beckett.com/basketball/1999-00/black-diamond-final-cut/1-dikembe-mutombo-3205675
p492
asg17
g18
sg19
(lp493
Vhttp://img.beckett.com/images/no-image.jpg
p494
asg22
V#1
p495
sg24
V1999-00
p496
sg26
g27
sg28
(lp497
VDikembe Mutombo
p498
assbag1
(g2
g3
Ntp499
Rp500
(dp501
g7
(dp502
g9
V1999-00 Black Diamond Final Cut #2 Alan Henderson
p503
sg11
I100
sg12
VBlack Diamond Final Cut
p504
sg14
(lp505
Vhttp://www.beckett.com/basketball/1999-00/black-diamond-final-cut/2-alan-henderson-3205676
p506
asg17
g18
sg19
(lp507
Vhttp://img.beckett.com/images/no-image.jpg
p508
asg22
V#2
p509
sg24
V1999-00
p510
sg26
g27
sg28
(lp511
VAlan Henderson
p512
assbag1
(g2
g3
Ntp513
Rp514
(dp515
g7
(dp516
g9
V1999-00 Black Diamond Final Cut #3 Roshown McLeod
p517
sg11
I100
sg12
VBlack Diamond Final Cut
p518
sg14
(lp519
Vhttp://www.beckett.com/basketball/1999-00/black-diamond-final-cut/3-roshown-mcleod-3205677
p520
asg17
g18
sg19
(lp521
Vhttp://img.beckett.com/images/no-image.jpg
p522
asg22
V#3
p523
sg24
V1999-00
p524
sg26
g27
sg28
(lp525
VRoshown McLeod
p526
assbag1
(g2
g3
Ntp527
Rp528
(dp529
g7
(dp530
g9
V1999-00 Black Diamond Final Cut #100 Jason Terry
p531
sg11
I50
sg12
VBlack Diamond Final Cut
p532
sg14
(lp533
Vhttp://www.beckett.com/basketball/1999-00/black-diamond-final-cut/100-jason-terry-3205774
p534
asg17
g18
sg19
(lp535
Vhttp://img.beckett.com/images/no-image.jpg
p536
asg22
V#100
p537
sg24
V1999-00
p538
sg26
g27
sg28
(lp539
VJason Terry
p540
assbag1
(g2
g3
Ntp541
Rp542
(dp543
g7
(dp544
g9
V1999-00 Black Diamond Final Cut #109 Dion Glover
p545
sg11
I50
sg12
VBlack Diamond Final Cut
p546
sg14
(lp547
Vhttp://www.beckett.com/basketball/1999-00/black-diamond-final-cut/109-dion-glover-3205783
p548
asg17
g18
sg19
(lp549
Vhttp://img.beckett.com/images/no-image.jpg
p550
asg22
V#109
p551
sg24
V1999-00
p552
sg26
g27
sg28
(lp553
VDion Glover
p554
assbag1
(g2
g3
Ntp555
Rp556
(dp557
g7
(dp558
g9
V1999-00 Bowman's Best Atomic Refractors #2 Dikembe Mutombo
p559
sg11
I100
sg12
VBowman's Best Atomic Refractors
p560
sg14
(lp561
Vhttp://www.beckett.com/basketball/1999-00/bowmans-best-atomic-refractors/2-dikembe-mutombo-3204789
p562
asg17
g18
sg19
(lp563
Vhttp://img.beckett.com/images/no-image.jpg
p564
asg22
V#2
p565
sg24
V1999-00
p566
sg26
g27
sg28
(lp567
VDikembe Mutombo
p568
assbag1
(g2
g3
Ntp569
Rp570
(dp571
g7
(dp572
g9
V1999-00 Bowman's Best Atomic Refractors #16 Isaiah Rider
p573
sg11
I100
sg12
VBowman's Best Atomic Refractors
p574
sg14
(lp575
Vhttp://www.beckett.com/basketball/1999-00/bowmans-best-atomic-refractors/16-isaiah-rider-3204803
p576
asg17
g18
sg19
(lp577
Vhttp://img.beckett.com/images/no-image.jpg
p578
asg22
V#16
p579
sg24
V1999-00
p580
sg26
g27
sg28
(lp581
VIsaiah Rider
p582
assbag1
(g2
g3
Ntp583
Rp584
(dp585
g7
(dp586
g9
V1999-00 Bowman's Best Atomic Refractors #72 Alan Henderson
p587
sg11
I100
sg12
VBowman's Best Atomic Refractors
p588
sg14
(lp589
Vhttp://www.beckett.com/basketball/1999-00/bowmans-best-atomic-refractors/72-alan-henderson-3204859
p590
asg17
g18
sg19
(lp591
Vhttp://img.beckett.com/images/no-image.jpg
p592
asg22
V#72
p593
sg24
V1999-00
p594
sg26
g27
sg28
(lp595
VAlan Henderson
p596
assbag1
(g2
g3
Ntp597
Rp598
(dp599
g7
(dp600
g9
V1999-00 Bowman's Best Atomic Refractors #100 Jason Terry BP
p601
sg11
I100
sg12
VBowman's Best Atomic Refractors
p602
sg14
(lp603
Vhttp://www.beckett.com/basketball/1999-00/bowmans-best-atomic-refractors/100-jason-terry-bp-3204887
p604
asg17
g18
sg19
(lp605
Vhttp://img.beckett.com/images/items_stock/185226/3204779/3204887/front.jpg
p606
asg22
V#100
p607
sg24
V1999-00
p608
sg142
VBP
p609
sg26
g27
sg28
(lp610
VJason Terry
p611
assbag1
(g2
g3
Ntp612
Rp613
(dp614
g7
(dp615
g9
V1999-00 Bowman's Best Atomic Refractors #110 Jason Terry
p616
sg11
I100
sg12
VBowman's Best Atomic Refractors
p617
sg14
(lp618
Vhttp://www.beckett.com/basketball/1999-00/bowmans-best-atomic-refractors/110-jason-terry-3204897
p619
asg17
g18
sg19
(lp620
Vhttp://img.beckett.com/images/items_stock/185226/3204779/3204897/front.jpg
p621
asg22
V#110
p622
sg24
V1999-00
p623
sg26
g27
sg28
(lp624
VJason Terry
p625
assbag1
(g2
g3
Ntp626
Rp627
(dp628
g7
(dp629
g9
V1999-00 Bowman's Best Atomic Refractors #117 Cal Bowdler
p630
sg11
I100
sg12
VBowman's Best Atomic Refractors
p631
sg14
(lp632
Vhttp://www.beckett.com/basketball/1999-00/bowmans-best-atomic-refractors/117-cal-bowdler-3204904
p633
asg17
g18
sg19
(lp634
Vhttp://img.beckett.com/images/items_stock/185226/3204779/3204904/front.jpg
p635
asg22
V#117
p636
sg24
V1999-00
p637
sg26
g27
sg28
(lp638
VCal Bowdler
p639
assbag1
(g2
g3
Ntp640
Rp641
(dp642
g7
(dp643
g9
V1999-00 Bowman's Best Atomic Refractors #120 Dion Glover
p644
sg11
I100
sg12
VBowman's Best Atomic Refractors
p645
sg14
(lp646
Vhttp://www.beckett.com/basketball/1999-00/bowmans-best-atomic-refractors/120-dion-glover-3204907
p647
asg17
g18
sg19
(lp648
Vhttp://img.beckett.com/images/items_stock/185226/3204779/3204907/front.jpg
p649
asg22
V#120
p650
sg24
V1999-00
p651
sg26
g27
sg28
(lp652
VDion Glover
p653
assbag1
(g2
g3
Ntp654
Rp655
(dp656
g7
(dp657
g9
V1999-00 Bowman's Best Refractors #2 Dikembe Mutombo
p658
sg11
I400
sg12
VBowman's Best Refractors
p659
sg14
(lp660
Vhttp://www.beckett.com/basketball/1999-00/bowmans-best-refractors/2-dikembe-mutombo-3204647
p661
asg17
g18
sg19
(lp662
Vhttp://img.beckett.com/images/items_stock/185226/3204637/3204647/front.jpg
p663
asg22
V#2
p664
sg24
V1999-00
p665
sg26
g27
sg28
(lp666
VDikembe Mutombo
p667
assbag1
(g2
g3
Ntp668
Rp669
(dp670
g7
(dp671
g9
V1999-00 Bowman's Best Refractors #16 Isaiah Rider
p672
sg11
I400
sg12
VBowman's Best Refractors
p673
sg14
(lp674
Vhttp://www.beckett.com/basketball/1999-00/bowmans-best-refractors/16-isaiah-rider-3204661
p675
asg17
g18
sg19
(lp676
Vhttp://img.beckett.com/images/no-image.jpg
p677
asg22
V#16
p678
sg24
V1999-00
p679
sg26
g27
sg28
(lp680
VIsaiah Rider
p681
assbag1
(g2
g3
Ntp682
Rp683
(dp684
g7
(dp685
g9
V1999-00 Bowman's Best Refractors #72 Alan Henderson
p686
sg11
I400
sg12
VBowman's Best Refractors
p687
sg14
(lp688
Vhttp://www.beckett.com/basketball/1999-00/bowmans-best-refractors/72-alan-henderson-3204717
p689
asg17
g18
sg19
(lp690
Vhttp://img.beckett.com/images/items_stock/185226/3204637/3204717/front.jpg
p691
asg22
V#72
p692
sg24
V1999-00
p693
sg26
g27
sg28
(lp694
VAlan Henderson
p695
assbag1
(g2
g3
Ntp696
Rp697
(dp698
g7
(dp699
g9
V1999-00 Bowman's Best Refractors #100 Jason Terry BP
p700
sg11
I400
sg12
VBowman's Best Refractors
p701
sg14
(lp702
Vhttp://www.beckett.com/basketball/1999-00/bowmans-best-refractors/100-jason-terry-bp-3204745
p703
asg17
g18
sg19
(lp704
Vhttp://img.beckett.com/images/items_stock/185226/3204637/3204745/front.jpg
p705
asg22
V#100
p706
sg24
V1999-00
p707
sg142
VBP
p708
sg26
g27
sg28
(lp709
VJason Terry
p710
assbag1
(g2
g3
Ntp711
Rp712
(dp713
g7
(dp714
g9
V1999-00 Bowman's Best Refractors #110 Jason Terry
p715
sg11
I400
sg12
VBowman's Best Refractors
p716
sg14
(lp717
Vhttp://www.beckett.com/basketball/1999-00/bowmans-best-refractors/110-jason-terry-3204755
p718
asg17
g18
sg19
(lp719
Vhttp://img.beckett.com/images/items_stock/185226/3204637/3204755/front.jpg
p720
asg22
V#110
p721
sg24
V1999-00
p722
sg26
g27
sg28
(lp723
VJason Terry
p724
assbag1
(g2
g3
Ntp725
Rp726
(dp727
g7
(dp728
g9
V1999-00 Bowman's Best Refractors #117 Cal Bowdler
p729
sg11
I400
sg12
VBowman's Best Refractors
p730
sg14
(lp731
Vhttp://www.beckett.com/basketball/1999-00/bowmans-best-refractors/117-cal-bowdler-3204762
p732
asg17
g18
sg19
(lp733
Vhttp://img.beckett.com/images/items_stock/185226/3204637/3204762/front.jpg
p734
asg22
V#117
p735
sg24
V1999-00
p736
sg26
g27
sg28
(lp737
VCal Bowdler
p738
assbag1
(g2
g3
Ntp739
Rp740
(dp741
g7
(dp742
g9
V1999-00 Bowman's Best Refractors #120 Dion Glover
p743
sg11
I400
sg12
VBowman's Best Refractors
p744
sg14
(lp745
Vhttp://www.beckett.com/basketball/1999-00/bowmans-best-refractors/120-dion-glover-3204765
p746
asg17
g18
sg19
(lp747
Vhttp://img.beckett.com/images/items_stock/185226/3204637/3204765/front.jpg
p748
asg22
V#120
p749
sg24
V1999-00
p750
sg26
g27
sg28
(lp751
VDion Glover
p752
assbag1
(g2
g3
Ntp753
Rp754
(dp755
g7
(dp756
g9
V1999-00 Finest Refractors Gold #11 Alan Henderson
p757
sg11
I100
sg12
VFinest Refractors Gold
p758
sg14
(lp759
Vhttp://www.beckett.com/basketball/1999-00/finest-refractors-gold/11-alan-henderson-3203923
p760
asg17
g18
sg19
(lp761
Vhttp://img.beckett.com/images/no-image.jpg
p762
asg22
V#11
p763
sg24
V1999-00
p764
sg26
g27
sg28
(lp765
VAlan Henderson
p766
assbag1
(g2
g3
Ntp767
Rp768
(dp769
g7
(dp770
g9
V1999-00 Finest Refractors Gold #28 LaPhonso Ellis
p771
sg11
I100
sg12
VFinest Refractors Gold
p772
sg14
(lp773
Vhttp://www.beckett.com/basketball/1999-00/finest-refractors-gold/28-laphonso-ellis-3203940
p774
asg17
g18
sg19
(lp775
Vhttp://img.beckett.com/images/no-image.jpg
p776
asg22
V#28
p777
sg24
V1999-00
p778
sg26
g27
sg28
(lp779
VLaPhonso Ellis
p780
assbag1
(g2
g3
Ntp781
Rp782
(dp783
g7
(dp784
g9
V1999-00 Finest Refractors Gold #57 Dikembe Mutombo
p785
sg11
I100
sg12
VFinest Refractors Gold
p786
sg14
(lp787
Vhttp://www.beckett.com/basketball/1999-00/finest-refractors-gold/57-dikembe-mutombo-3203969
p788
asg17
g18
sg19
(lp789
Vhttp://img.beckett.com/images/no-image.jpg
p790
asg22
V#57
p791
sg24
V1999-00
p792
sg26
g27
sg28
(lp793
VDikembe Mutombo
p794
assbag1
(g2
g3
Ntp795
Rp796
(dp797
g7
(dp798
g9
V1999-00 Finest Refractors Gold #87 Tyrone Corbin
p799
sg11
I100
sg12
VFinest Refractors Gold
p800
sg14
(lp801
Vhttp://www.beckett.com/basketball/1999-00/finest-refractors-gold/87-tyrone-corbin-3203999
p802
asg17
g18
sg19
(lp803
Vhttp://img.beckett.com/images/items_stock/185226/3203898/3203999/front.jpg
p804
asg22
V#87
p805
sg24
V1999-00
p806
sg26
g27
sg28
(lp807
VTyrone Corbin
p808
assbag1
(g2
g3
Ntp809
Rp810
(dp811
g7
(dp812
g9
V1999-00 Finest Refractors Gold #113 Cal Bowdler
p813
sg11
I100
sg12
VFinest Refractors Gold
p814
sg14
(lp815
Vhttp://www.beckett.com/basketball/1999-00/finest-refractors-gold/113-cal-bowdler-3204025
p816
asg17
g18
sg19
(lp817
Vhttp://img.beckett.com/images/items_stock/185226/3203898/3204025/front.jpg
p818
asg22
V#113
p819
sg24
V1999-00
p820
sg26
g27
sg28
(lp821
VCal Bowdler
p822
assbag1
(g2
g3
Ntp823
Rp824
(dp825
g7
(dp826
g9
V1999-00 Finest Refractors Gold #115 Jason Terry
p827
sg11
I100
sg12
VFinest Refractors Gold
p828
sg14
(lp829
Vhttp://www.beckett.com/basketball/1999-00/finest-refractors-gold/115-jason-terry-3204027
p830
asg17
g18
sg19
(lp831
Vhttp://img.beckett.com/images/no-image.jpg
p832
asg22
V#115
p833
sg24
V1999-00
p834
sg26
g27
sg28
(lp835
VJason Terry
p836
assbag1
(g2
g3
Ntp837
Rp838
(dp839
g7
(dp840
g9
V1999-00 Finest Refractors Gold #117 Dion Glover
p841
sg11
I100
sg12
VFinest Refractors Gold
p842
sg14
(lp843
Vhttp://www.beckett.com/basketball/1999-00/finest-refractors-gold/117-dion-glover-3204029
p844
asg17
g18
sg19
(lp845
Vhttp://img.beckett.com/images/no-image.jpg
p846
asg22
V#117
p847
sg24
V1999-00
p848
sg26
g27
sg28
(lp849
VDion Glover
p850
assbag1
(g2
g3
Ntp851
Rp852
(dp853
g7
(dp854
g9
V1999-00 Finest Refractors Gold #143 Jim Jackson
p855
sg11
I100
sg12
VFinest Refractors Gold
p856
sg14
(lp857
Vhttp://www.beckett.com/basketball/1999-00/finest-refractors-gold/143-jim-jackson-3204055
p858
asg17
g18
sg19
(lp859
Vhttp://img.beckett.com/images/no-image.jpg
p860
asg22
V#143
p861
sg24
V1999-00
p862
sg26
g27
sg28
(lp863
VJim Jackson
p864
assbag1
(g2
g3
Ntp865
Rp866
(dp867
g7
(dp868
g9
V1999-00 Finest Refractors Gold #153 Isaiah Rider
p869
sg11
I100
sg12
VFinest Refractors Gold
p870
sg14
(lp871
Vhttp://www.beckett.com/basketball/1999-00/finest-refractors-gold/153-isaiah-rider-3204065
p872
asg17
g18
sg19
(lp873
Vhttp://img.beckett.com/images/items_stock/185226/3203898/3204065/front.jpg
p874
asg22
V#153
p875
sg24
V1999-00
p876
sg26
g27
sg28
(lp877
VIsaiah Rider
p878
assbag1
(g2
g3
Ntp879
Rp880
(dp881
g7
(dp882
g9
V1999-00 Flair Showcase Legacy Collection #56 Isaiah Rider
p883
sg11
I20
sg12
VFlair Showcase Legacy Collection
p884
sg14
(lp885
Vhttp://www.beckett.com/basketball/1999-00/flair-showcase-legacy-collection/56-isaiah-rider-3202980
p886
asg17
g18
sg19
(lp887
Vhttp://img.beckett.com/images/no-image.jpg
p888
asg22
V#56
p889
sg24
V1999-00
p890
sg26
g27
sg28
(lp891
VIsaiah Rider
p892
assbag1
(g2
g3
Ntp893
Rp894
(dp895
g7
(dp896
g9
V1999-00 Flair Showcase Legacy Collection #93 Dikembe Mutombo
p897
sg11
I20
sg12
VFlair Showcase Legacy Collection
p898
sg14
(lp899
Vhttp://www.beckett.com/basketball/1999-00/flair-showcase-legacy-collection/93-dikembe-mutombo-3203017
p900
asg17
g18
sg19
(lp901
Vhttp://img.beckett.com/images/no-image.jpg
p902
asg22
V#93
p903
sg24
V1999-00
p904
sg26
g27
sg28
(lp905
VDikembe Mutombo
p906
assbag1
(g2
g3
Ntp907
Rp908
(dp909
g7
(dp910
g9
V1999-00 Flair Showcase Legacy Collection #101 Cal Bowdler
p911
sg11
I20
sg12
VFlair Showcase Legacy Collection
p912
sg14
(lp913
Vhttp://www.beckett.com/basketball/1999-00/flair-showcase-legacy-collection/101-cal-bowdler-3203025
p914
asg17
g18
sg19
(lp915
Vhttp://img.beckett.com/images/no-image.jpg
p916
asg22
V#101
p917
sg24
V1999-00
p918
sg26
g27
sg28
(lp919
VCal Bowdler
p920
assbag1
(g2
g3
Ntp921
Rp922
(dp923
g7
(dp924
g9
V1999-00 Flair Showcase Legacy Collection #102 Dion Glover
p925
sg11
I20
sg12
VFlair Showcase Legacy Collection
p926
sg14
(lp927
Vhttp://www.beckett.com/basketball/1999-00/flair-showcase-legacy-collection/102-dion-glover-3203026
p928
asg17
g18
sg19
(lp929
Vhttp://img.beckett.com/images/no-image.jpg
p930
asg22
V#102
p931
sg24
V1999-00
p932
sg26
g27
sg28
(lp933
VDion Glover
p934
assbag1
(g2
g3
Ntp935
Rp936
(dp937
g7
(dp938
g9
V1999-00 Flair Showcase Legacy Collection #103 Jason Terry
p939
sg11
I20
sg12
VFlair Showcase Legacy Collection
p940
sg14
(lp941
Vhttp://www.beckett.com/basketball/1999-00/flair-showcase-legacy-collection/103-jason-terry-3203027
p942
asg17
g18
sg19
(lp943
Vhttp://img.beckett.com/images/no-image.jpg
p944
asg22
V#103
p945
sg24
V1999-00
p946
sg26
g27
sg28
(lp947
VJason Terry
p948
assbag1
(g2
g3
Ntp949
Rp950
(dp951
g7
(dp952
g9
V1999-00 Flair Showcase Masterpiece #56 Isaiah Rider
p953
sg11
I1
sg12
VFlair Showcase Masterpiece
p954
sg14
(lp955
Vhttp://www.beckett.com/basketball/1999-00/flair-showcase-masterpiece/56-isaiah-rider-3203115
p956
asg17
g18
sg19
(lp957
Vhttp://img.beckett.com/images/no-image.jpg
p958
asg22
V#56
p959
sg24
V1999-00
p960
sg26
g27
sg28
(lp961
VIsaiah Rider
p962
assbag1
(g2
g3
Ntp963
Rp964
(dp965
g7
(dp966
g9
V1999-00 Flair Showcase Masterpiece #93 Dikembe Mutombo
p967
sg11
I1
sg12
VFlair Showcase Masterpiece
p968
sg14
(lp969
Vhttp://www.beckett.com/basketball/1999-00/flair-showcase-masterpiece/93-dikembe-mutombo-3203152
p970
asg17
g18
sg19
(lp971
Vhttp://img.beckett.com/images/no-image.jpg
p972
asg22
V#93
p973
sg24
V1999-00
p974
sg26
g27
sg28
(lp975
VDikembe Mutombo
p976
assbag1
(g2
g3
Ntp977
Rp978
(dp979
g7
(dp980
g9
V1999-00 Flair Showcase Masterpiece #101 Cal Bowdler
p981
sg11
I1
sg12
VFlair Showcase Masterpiece
p982
sg14
(lp983
Vhttp://www.beckett.com/basketball/1999-00/flair-showcase-masterpiece/101-cal-bowdler-3203160
p984
asg17
g18
sg19
(lp985
Vhttp://img.beckett.com/images/no-image.jpg
p986
asg22
V#101
p987
sg24
V1999-00
p988
sg26
g27
sg28
(lp989
VCal Bowdler
p990
assbag1
(g2
g3
Ntp991
Rp992
(dp993
g7
(dp994
g9
V1999-00 Flair Showcase Masterpiece #102 Dion Glover
p995
sg11
I1
sg12
VFlair Showcase Masterpiece
p996
sg14
(lp997
Vhttp://www.beckett.com/basketball/1999-00/flair-showcase-masterpiece/102-dion-glover-3203161
p998
asg17
g18
sg19
(lp999
Vhttp://img.beckett.com/images/no-image.jpg
p1000
asg22
V#102
p1001
sg24
V1999-00
p1002
sg26
g27
sg28
(lp1003
VDion Glover
p1004
assbag1
(g2
g3
Ntp1005
Rp1006
(dp1007
g7
(dp1008
g9
V1999-00 Flair Showcase Masterpiece #103 Jason Terry
p1009
sg11
I1
sg12
VFlair Showcase Masterpiece
p1010
sg14
(lp1011
Vhttp://www.beckett.com/basketball/1999-00/flair-showcase-masterpiece/103-jason-terry-3203162
p1012
asg17
g18
sg19
(lp1013
Vhttp://img.beckett.com/images/no-image.jpg
p1014
asg22
V#103
p1015
sg24
V1999-00
p1016
sg26
g27
sg28
(lp1017
VJason Terry
p1018
assbag1
(g2
g3
Ntp1019
Rp1020
(dp1021
g7
(dp1022
g9
V1999-00 Fleer Supreme Court Collection #40 LaPhonso Ellis
p1023
sg11
I20
sg12
VFleer Supreme Court Collection
p1024
sg14
(lp1025
Vhttp://www.beckett.com/basketball/1999-00/fleer-supreme-court-collection/40-laphonso-ellis-3201546
p1026
asg17
g18
sg19
(lp1027
Vhttp://img.beckett.com/images/no-image.jpg
p1028
asg22
V#40
p1029
sg24
V1999-00
p1030
sg26
g27
sg28
(lp1031
VLaPhonso Ellis
p1032
assbag1
(g2
g3
Ntp1033
Rp1034
(dp1035
g7
(dp1036
g9
V1999-00 Fleer Supreme Court Collection #57 Jim Jackson
p1037
sg11
I20
sg12
VFleer Supreme Court Collection
p1038
sg14
(lp1039
Vhttp://www.beckett.com/basketball/1999-00/fleer-supreme-court-collection/57-jim-jackson-3201563
p1040
asg17
g18
sg19
(lp1041
Vhttp://img.beckett.com/images/no-image.jpg
p1042
asg22
V#57
p1043
sg24
V1999-00
p1044
sg26
g27
sg28
(lp1045
VJim Jackson
p1046
assbag1
(g2
g3
Ntp1047
Rp1048
(dp1049
g7
(dp1050
g9
V1999-00 Fleer Supreme Court Collection #70 Alan Henderson
p1051
sg11
I20
sg12
VFleer Supreme Court Collection
p1052
sg14
(lp1053
Vhttp://www.beckett.com/basketball/1999-00/fleer-supreme-court-collection/70-alan-henderson-3201576
p1054
asg17
g18
sg19
(lp1055
Vhttp://img.beckett.com/images/no-image.jpg
p1056
asg22
V#70
p1057
sg24
V1999-00
p1058
sg26
g27
sg28
(lp1059
VAlan Henderson
p1060
assbag1
(g2
g3
Ntp1061
Rp1062
(dp1063
g7
(dp1064
g9
V1999-00 Fleer Supreme Court Collection #89 Isaiah Rider
p1065
sg11
I20
sg12
VFleer Supreme Court Collection
p1066
sg14
(lp1067
Vhttp://www.beckett.com/basketball/1999-00/fleer-supreme-court-collection/89-isaiah-rider-3201595
p1068
asg17
g18
sg19
(lp1069
Vhttp://img.beckett.com/images/no-image.jpg
p1070
asg22
V#89
p1071
sg24
V1999-00
p1072
sg26
g27
sg28
(lp1073
VIsaiah Rider
p1074
assbag1
(g2
g3
Ntp1075
Rp1076
(dp1077
g7
(dp1078
g9
V1999-00 Fleer Supreme Court Collection #100 Roshown McLeod
p1079
sg11
I20
sg12
VFleer Supreme Court Collection
p1080
sg14
(lp1081
Vhttp://www.beckett.com/basketball/1999-00/fleer-supreme-court-collection/100-roshown-mcleod-3201606
p1082
asg17
g18
sg19
(lp1083
Vhttp://img.beckett.com/images/no-image.jpg
p1084
asg22
V#100
p1085
sg24
V1999-00
p1086
sg26
g27
sg28
(lp1087
VRoshown McLeod
p1088
assbag1
(g2
g3
Ntp1089
Rp1090
(dp1091
g7
(dp1092
g9
V1999-00 Fleer Supreme Court Collection #129 Dikembe Mutombo
p1093
sg11
I20
sg12
VFleer Supreme Court Collection
p1094
sg14
(lp1095
Vhttp://www.beckett.com/basketball/1999-00/fleer-supreme-court-collection/129-dikembe-mutombo-3201635
p1096
asg17
g18
sg19
(lp1097
Vhttp://img.beckett.com/images/no-image.jpg
p1098
asg22
V#129
p1099
sg24
V1999-00
p1100
sg26
g27
sg28
(lp1101
VDikembe Mutombo
p1102
assbag1
(g2
g3
Ntp1103
Rp1104
(dp1105
g7
(dp1106
g9
V1999-00 Fleer Supreme Court Collection #209 Jason Terry
p1107
sg11
I20
sg12
VFleer Supreme Court Collection
p1108
sg14
(lp1109
Vhttp://www.beckett.com/basketball/1999-00/fleer-supreme-court-collection/209-jason-terry-3201715
p1110
asg17
g18
sg19
(lp1111
Vhttp://img.beckett.com/images/no-image.jpg
p1112
asg22
V#209
p1113
sg24
V1999-00
p1114
sg26
g27
sg28
(lp1115
VJason Terry
p1116
assbag1
(g2
g3
Ntp1117
Rp1118
(dp1119
g7
(dp1120
g9
V1999-00 Fleer Focus Masterpiece Mania #66 Isaiah Rider
p1121
sg11
I300
sg12
VFleer Focus Masterpiece Mania
p1122
sg14
(lp1123
Vhttp://www.beckett.com/basketball/1999-00/fleer-focus-masterpiece-mania/66-isaiah-rider-3202285
p1124
asg17
g18
sg19
(lp1125
Vhttp://img.beckett.com/images/no-image.jpg
p1126
asg22
V#66
p1127
sg24
V1999-00
p1128
sg26
g27
sg28
(lp1129
VIsaiah Rider
p1130
assbag1
(g2
g3
Ntp1131
Rp1132
(dp1133
g7
(dp1134
g9
V1999-00 Fleer Focus Masterpiece Mania #93 Dikembe Mutombo
p1135
sg11
I300
sg12
VFleer Focus Masterpiece Mania
p1136
sg14
(lp1137
Vhttp://www.beckett.com/basketball/1999-00/fleer-focus-masterpiece-mania/93-dikembe-mutombo-3202312
p1138
asg17
g18
sg19
(lp1139
Vhttp://img.beckett.com/images/items_stock/185226/3202210/3202312/front.jpg
p1140
asg22
V#93
p1141
sg24
V1999-00
p1142
sg26
g27
sg28
(lp1143
VDikembe Mutombo
p1144
assbag1
(g2
g3
Ntp1145
Rp1146
(dp1147
g7
(dp1148
g9
V1999-00 Fleer Focus Masterpiece Mania #104 Cal Bowdler
p1149
sg11
I300
sg12
VFleer Focus Masterpiece Mania
p1150
sg14
(lp1151
Vhttp://www.beckett.com/basketball/1999-00/fleer-focus-masterpiece-mania/104-cal-bowdler-3202323
p1152
asg17
g18
sg19
(lp1153
Vhttp://img.beckett.com/images/items_stock/185226/3202210/3202323/front.jpg
p1154
asg22
V#104
p1155
sg24
V1999-00
p1156
sg26
g27
sg28
(lp1157
VCal Bowdler
p1158
assbag1
(g2
g3
Ntp1159
Rp1160
(dp1161
g7
(dp1162
g9
V1999-00 Fleer Focus Masterpiece Mania #111 Dion Glover
p1163
sg11
I300
sg12
VFleer Focus Masterpiece Mania
p1164
sg14
(lp1165
Vhttp://www.beckett.com/basketball/1999-00/fleer-focus-masterpiece-mania/111-dion-glover-3202330
p1166
asg17
g18
sg19
(lp1167
Vhttp://img.beckett.com/images/items_stock/185226/3202210/3202330/front.jpg
p1168
asg22
V#111
p1169
sg24
V1999-00
p1170
sg26
g27
sg28
(lp1171
VDion Glover
p1172
assbag1
(g2
g3
Ntp1173
Rp1174
(dp1175
g7
(dp1176
g9
V1999-00 Fleer Focus Masterpiece Mania #124 Jason Terry
p1177
sg11
I300
sg12
VFleer Focus Masterpiece Mania
p1178
sg14
(lp1179
Vhttp://www.beckett.com/basketball/1999-00/fleer-focus-masterpiece-mania/124-jason-terry-3202343
p1180
asg17
g18
sg19
(lp1181
Vhttp://img.beckett.com/images/no-image.jpg
p1182
asg22
V#124
p1183
sg24
V1999-00
p1184
sg26
g27
sg28
(lp1185
VJason Terry
p1186
assbag1
(g2
g3
Ntp1187
Rp1188
(dp1189
g7
(dp1190
g9
V1999-00 Fleer Focus Masterpieces #66 Isaiah Rider
p1191
sg11
I1
sg12
VFleer Focus Masterpieces
p1192
sg14
(lp1193
Vhttp://www.beckett.com/basketball/1999-00/fleer-focus-masterpieces/66-isaiah-rider-3202125
p1194
asg17
g18
sg19
(lp1195
Vhttp://img.beckett.com/images/no-image.jpg
p1196
asg22
V#66
p1197
sg24
V1999-00
p1198
sg26
g27
sg28
(lp1199
VIsaiah Rider
p1200
assbag1
(g2
g3
Ntp1201
Rp1202
(dp1203
g7
(dp1204
g9
V1999-00 Fleer Focus Masterpieces #93 Dikembe Mutombo
p1205
sg11
I1
sg12
VFleer Focus Masterpieces
p1206
sg14
(lp1207
Vhttp://www.beckett.com/basketball/1999-00/fleer-focus-masterpieces/93-dikembe-mutombo-3202152
p1208
asg17
g18
sg19
(lp1209
Vhttp://img.beckett.com/images/no-image.jpg
p1210
asg22
V#93
p1211
sg24
V1999-00
p1212
sg26
g27
sg28
(lp1213
VDikembe Mutombo
p1214
assbag1
(g2
g3
Ntp1215
Rp1216
(dp1217
g7
(dp1218
g9
V1999-00 Fleer Focus Masterpieces #104 Cal Bowdler
p1219
sg11
I1
sg12
VFleer Focus Masterpieces
p1220
sg14
(lp1221
Vhttp://www.beckett.com/basketball/1999-00/fleer-focus-masterpieces/104-cal-bowdler-3202163
p1222
asg17
g18
sg19
(lp1223
Vhttp://img.beckett.com/images/no-image.jpg
p1224
asg22
V#104
p1225
sg24
V1999-00
p1226
sg26
g27
sg28
(lp1227
VCal Bowdler
p1228
assbag1
(g2
g3
Ntp1229
Rp1230
(dp1231
g7
(dp1232
g9
V1999-00 Fleer Focus Masterpieces #111 Dion Glover
p1233
sg11
I1
sg12
VFleer Focus Masterpieces
p1234
sg14
(lp1235
Vhttp://www.beckett.com/basketball/1999-00/fleer-focus-masterpieces/111-dion-glover-3202170
p1236
asg17
g18
sg19
(lp1237
Vhttp://img.beckett.com/images/no-image.jpg
p1238
asg22
V#111
p1239
sg24
V1999-00
p1240
sg26
g27
sg28
(lp1241
VDion Glover
p1242
assbag1
(g2
g3
Ntp1243
Rp1244
(dp1245
g7
(dp1246
g9
V1999-00 Fleer Focus Masterpieces #124 Jason Terry
p1247
sg11
I1
sg12
VFleer Focus Masterpieces
p1248
sg14
(lp1249
Vhttp://www.beckett.com/basketball/1999-00/fleer-focus-masterpieces/124-jason-terry-3202183
p1250
asg17
g18
sg19
(lp1251
Vhttp://img.beckett.com/images/no-image.jpg
p1252
asg22
V#124
p1253
sg24
V1999-00
p1254
sg26
g27
sg28
(lp1255
VJason Terry
p1256
assbag1
(g2
g3
Ntp1257
Rp1258
(dp1259
g7
(dp1260
g9
V1999-00 Fleer Force Forcefield #209 Jason Terry
p1261
sg11
I100
sg12
VFleer Force Forcefield
p1262
sg14
(lp1263
Vhttp://www.beckett.com/basketball/1999-00/fleer-force-forcefield/209-jason-terry-3200531
p1264
asg17
g18
sg19
(lp1265
Vhttp://img.beckett.com/images/no-image.jpg
p1266
asg22
V#209
p1267
sg24
V1999-00
p1268
sg26
g27
sg28
(lp1269
VJason Terry
p1270
assbag1
(g2
g3
Ntp1271
Rp1272
(dp1273
g7
(dp1274
g9
V1999-00 Fleer Force Forcefield #221 Dion Glover
p1275
sg11
I100
sg12
VFleer Force Forcefield
p1276
sg14
(lp1277
Vhttp://www.beckett.com/basketball/1999-00/fleer-force-forcefield/221-dion-glover-3200543
p1278
asg17
g18
sg19
(lp1279
Vhttp://img.beckett.com/images/no-image.jpg
p1280
asg22
V#221
p1281
sg24
V1999-00
p1282
sg26
g27
sg28
(lp1283
VDion Glover
p1284
assbag1
(g2
g3
Ntp1285
Rp1286
(dp1287
g7
(dp1288
g9
V1999-00 Fleer Force Forcefield #222 Cal Bowdler
p1289
sg11
I100
sg12
VFleer Force Forcefield
p1290
sg14
(lp1291
Vhttp://www.beckett.com/basketball/1999-00/fleer-force-forcefield/222-cal-bowdler-3200544
p1292
asg17
g18
sg19
(lp1293
Vhttp://img.beckett.com/images/items_stock/185226/3200312/3200544/front.jpg
p1294
asg22
V#222
p1295
sg24
V1999-00
p1296
sg26
g27
sg28
(lp1297
VCal Bowdler
p1298
assbag1
(g2
g3
Ntp1299
Rp1300
(dp1301
g7
(dp1302
g9
V1999-00 Fleer Mystique Masterpiece #6 Dikembe Mutombo
p1303
sg11
I1
sg12
VFleer Mystique Masterpiece
p1304
sg14
(lp1305
Vhttp://www.beckett.com/basketball/1999-00/fleer-mystique-masterpiece/6-dikembe-mutombo-3198602
p1306
asg17
g18
sg19
(lp1307
Vhttp://img.beckett.com/images/no-image.jpg
p1308
asg22
V#6
p1309
sg24
V1999-00
p1310
sg26
g27
sg28
(lp1311
VDikembe Mutombo
p1312
assbag1
(g2
g3
Ntp1313
Rp1314
(dp1315
g7
(dp1316
g9
V1999-00 Fleer Mystique Masterpiece #64 Isaiah Rider
p1317
sg11
I1
sg12
VFleer Mystique Masterpiece
p1318
sg14
(lp1319
Vhttp://www.beckett.com/basketball/1999-00/fleer-mystique-masterpiece/64-isaiah-rider-3198660
p1320
asg17
g18
sg19
(lp1321
Vhttp://img.beckett.com/images/no-image.jpg
p1322
asg22
V#64
p1323
sg24
V1999-00
p1324
sg26
g27
sg28
(lp1325
VIsaiah Rider
p1326
assbag1
(g2
g3
Ntp1327
Rp1328
(dp1329
g7
(dp1330
g9
V1999-00 Fleer Mystique Masterpiece #104 Jason Terry
p1331
sg11
I1
sg12
VFleer Mystique Masterpiece
p1332
sg14
(lp1333
Vhttp://www.beckett.com/basketball/1999-00/fleer-mystique-masterpiece/104-jason-terry-3198700
p1334
asg17
g18
sg19
(lp1335
Vhttp://img.beckett.com/images/no-image.jpg
p1336
asg22
V#104
p1337
sg24
V1999-00
p1338
sg26
g27
sg28
(lp1339
VJason Terry
p1340
assbag1
(g2
g3
Ntp1341
Rp1342
(dp1343
g7
(dp1344
g9
V1999-00 Fleer Mystique Masterpiece #127 Cal Bowdler
p1345
sg11
I1
sg12
VFleer Mystique Masterpiece
p1346
sg14
(lp1347
Vhttp://www.beckett.com/basketball/1999-00/fleer-mystique-masterpiece/127-cal-bowdler-3198723
p1348
asg17
g18
sg19
(lp1349
Vhttp://img.beckett.com/images/no-image.jpg
p1350
asg22
V#127
p1351
sg24
V1999-00
p1352
sg26
g27
sg28
(lp1353
VCal Bowdler
p1354
assbag1
(g2
g3
Ntp1355
Rp1356
(dp1357
g7
(dp1358
g9
V1999-00 Fleer Mystique Masterpiece #128 Dion Glover
p1359
sg11
I1
sg12
VFleer Mystique Masterpiece
p1360
sg14
(lp1361
Vhttp://www.beckett.com/basketball/1999-00/fleer-mystique-masterpiece/128-dion-glover-3198724
p1362
asg17
g18
sg19
(lp1363
Vhttp://img.beckett.com/images/no-image.jpg
p1364
asg22
V#128
p1365
sg24
V1999-00
p1366
sg26
g27
sg28
(lp1367
VDion Glover
p1368
assbag1
(g2
g3
Ntp1369
Rp1370
(dp1371
g7
(dp1372
g9
V1999-00 Hoops Starting Five #10 LaPhonso Ellis
p1373
sg11
I5
sg12
VHoops Starting Five
p1374
sg14
(lp1375
Vhttp://www.beckett.com/basketball/1999-00/hoops-starting-five/10-laphonso-ellis-3199072
p1376
asg17
g18
sg19
(lp1377
Vhttp://img.beckett.com/images/no-image.jpg
p1378
asg22
V#10
p1379
sg24
V1999-00
p1380
sg26
g27
sg28
(lp1381
VLaPhonso Ellis
p1382
assbag1
(g2
g3
Ntp1383
Rp1384
(dp1385
g7
(dp1386
g9
V1999-00 Hoops Starting Five #19 Roshown McLeod
p1387
sg11
I5
sg12
VHoops Starting Five
p1388
sg14
(lp1389
Vhttp://www.beckett.com/basketball/1999-00/hoops-starting-five/19-roshown-mcleod-3199081
p1390
asg17
g18
sg19
(lp1391
Vhttp://img.beckett.com/images/no-image.jpg
p1392
asg22
V#19
p1393
sg24
V1999-00
p1394
sg26
g27
sg28
(lp1395
VRoshown McLeod
p1396
assbag1
(g2
g3
Ntp1397
Rp1398
(dp1399
g7
(dp1400
g9
V1999-00 Hoops Starting Five #113 Dikembe Mutombo
p1401
sg11
I5
sg12
VHoops Starting Five
p1402
sg14
(lp1403
Vhttp://www.beckett.com/basketball/1999-00/hoops-starting-five/113-dikembe-mutombo-3199175
p1404
asg17
g18
sg19
(lp1405
Vhttp://img.beckett.com/images/no-image.jpg
p1406
asg22
V#113
p1407
sg24
V1999-00
p1408
sg26
g27
sg28
(lp1409
VDikembe Mutombo
p1410
assbag1
(g2
g3
Ntp1411
Rp1412
(dp1413
g7
(dp1414
g9
V1999-00 Hoops Starting Five #130 Isaiah Rider
p1415
sg11
I5
sg12
VHoops Starting Five
p1416
sg14
(lp1417
Vhttp://www.beckett.com/basketball/1999-00/hoops-starting-five/130-isaiah-rider-3199192
p1418
asg17
g18
sg19
(lp1419
Vhttp://img.beckett.com/images/no-image.jpg
p1420
asg22
V#130
p1421
sg24
V1999-00
p1422
sg26
g27
sg28
(lp1423
VIsaiah Rider
p1424
assbag1
(g2
g3
Ntp1425
Rp1426
(dp1427
g7
(dp1428
g9
V1999-00 Hoops Starting Five #146 Alan Henderson
p1429
sg11
I5
sg12
VHoops Starting Five
p1430
sg14
(lp1431
Vhttp://www.beckett.com/basketball/1999-00/hoops-starting-five/146-alan-henderson-3199208
p1432
asg17
g18
sg19
(lp1433
Vhttp://img.beckett.com/images/no-image.jpg
p1434
asg22
V#146
p1435
sg24
V1999-00
p1436
sg26
g27
sg28
(lp1437
VAlan Henderson
p1438
assbag1
(g2
g3
Ntp1439
Rp1440
(dp1441
g7
(dp1442
g9
V1999-00 Hoops Starting Five #175 Jason Terry
p1443
sg11
I5
sg12
VHoops Starting Five
p1444
sg14
(lp1445
Vhttp://www.beckett.com/basketball/1999-00/hoops-starting-five/175-jason-terry-3199237
p1446
asg17
g18
sg19
(lp1447
Vhttp://img.beckett.com/images/no-image.jpg
p1448
asg22
V#175
p1449
sg24
V1999-00
p1450
sg26
g27
sg28
(lp1451
VJason Terry
p1452
assbag1
(g2
g3
Ntp1453
Rp1454
(dp1455
g7
(dp1456
g9
V1999-00 SkyBox APEX Xtra #55 Alan Henderson
p1457
sg11
I50
sg12
VSkyBox APEX Xtra
p1458
sg14
(lp1459
Vhttp://www.beckett.com/basketball/1999-00/skybox-apex-xtra/55-alan-henderson-3198189
p1460
asg17
g18
sg19
(lp1461
Vhttp://img.beckett.com/images/no-image.jpg
p1462
asg22
V#55
p1463
sg24
V1999-00
p1464
sg26
g27
sg28
(lp1465
VAlan Henderson
p1466
assbag1
(g2
g3
Ntp1467
Rp1468
(dp1469
g7
(dp1470
g9
V1999-00 SkyBox APEX Xtra #64 LaPhonso Ellis
p1471
sg11
I50
sg12
VSkyBox APEX Xtra
p1472
sg14
(lp1473
Vhttp://www.beckett.com/basketball/1999-00/skybox-apex-xtra/64-laphonso-ellis-3198198
p1474
asg17
g18
sg19
(lp1475
Vhttp://img.beckett.com/images/no-image.jpg
p1476
asg22
V#64
p1477
sg24
V1999-00
p1478
sg26
g27
sg28
(lp1479
VLaPhonso Ellis
p1480
assbag1
(g2
g3
Ntp1481
Rp1482
(dp1483
g7
(dp1484
g9
V1999-00 SkyBox APEX Xtra #80 Chris Crawford
p1485
sg11
I50
sg12
VSkyBox APEX Xtra
p1486
sg14
(lp1487
Vhttp://www.beckett.com/basketball/1999-00/skybox-apex-xtra/80-chris-crawford-3198214
p1488
asg17
g18
sg19
(lp1489
Vhttp://img.beckett.com/images/no-image.jpg
p1490
asg22
V#80
p1491
sg24
V1999-00
p1492
sg26
g27
sg28
(lp1493
VChris Crawford
p1494
assbag1
(g2
g3
Ntp1495
Rp1496
(dp1497
g7
(dp1498
g9
V1999-00 SkyBox APEX Xtra #92 Isaiah Rider
p1499
sg11
I50
sg12
VSkyBox APEX Xtra
p1500
sg14
(lp1501
Vhttp://www.beckett.com/basketball/1999-00/skybox-apex-xtra/92-isaiah-rider-3198226
p1502
asg17
g18
sg19
(lp1503
Vhttp://img.beckett.com/images/no-image.jpg
p1504
asg22
V#92
p1505
sg24
V1999-00
p1506
sg26
g27
sg28
(lp1507
VIsaiah Rider
p1508
assbag1
(g2
g3
Ntp1509
Rp1510
(dp1511
g7
(dp1512
g9
V1999-00 SkyBox APEX Xtra #110 Dikembe Mutombo
p1513
sg11
I50
sg12
VSkyBox APEX Xtra
p1514
sg14
(lp1515
Vhttp://www.beckett.com/basketball/1999-00/skybox-apex-xtra/110-dikembe-mutombo-3198244
p1516
asg17
g18
sg19
(lp1517
Vhttp://img.beckett.com/images/no-image.jpg
p1518
asg22
V#110
p1519
sg24
V1999-00
p1520
sg26
g27
sg28
(lp1521
VDikembe Mutombo
p1522
assbag1
(g2
g3
Ntp1523
Rp1524
(dp1525
g7
(dp1526
g9
V1999-00 SkyBox APEX Xtra #160 Jason Terry
p1527
sg11
I50
sg12
VSkyBox APEX Xtra
p1528
sg14
(lp1529
Vhttp://www.beckett.com/basketball/1999-00/skybox-apex-xtra/160-jason-terry-3198294
p1530
asg17
g18
sg19
(lp1531
Vhttp://img.beckett.com/images/no-image.jpg
p1532
asg22
V#160
p1533
sg24
V1999-00
p1534
sg26
g27
sg28
(lp1535
VJason Terry
p1536
assbag1
(g2
g3
Ntp1537
Rp1538
(dp1539
g7
(dp1540
g9
V1999-00 SkyBox APEX Xtreme #55 Alan Henderson
p1541
sg11
I1
sg12
VSkyBox APEX Xtreme
p1542
sg14
(lp1543
Vhttp://www.beckett.com/basketball/1999-00/skybox-apex-xtreme/55-alan-henderson-3196531
p1544
asg17
g18
sg19
(lp1545
Vhttp://img.beckett.com/images/no-image.jpg
p1546
asg22
V#55
p1547
sg24
V1999-00
p1548
sg26
g27
sg28
(lp1549
VAlan Henderson
p1550
assbag1
(g2
g3
Ntp1551
Rp1552
(dp1553
g7
(dp1554
g9
V1999-00 SkyBox APEX Xtreme #64 LaPhonso Ellis
p1555
sg11
I1
sg12
VSkyBox APEX Xtreme
p1556
sg14
(lp1557
Vhttp://www.beckett.com/basketball/1999-00/skybox-apex-xtreme/64-laphonso-ellis-3196540
p1558
asg17
g18
sg19
(lp1559
Vhttp://img.beckett.com/images/no-image.jpg
p1560
asg22
V#64
p1561
sg24
V1999-00
p1562
sg26
g27
sg28
(lp1563
VLaPhonso Ellis
p1564
assbag1
(g2
g3
Ntp1565
Rp1566
(dp1567
g7
(dp1568
g9
V1999-00 SkyBox APEX Xtreme #80 Chris Crawford
p1569
sg11
I1
sg12
VSkyBox APEX Xtreme
p1570
sg14
(lp1571
Vhttp://www.beckett.com/basketball/1999-00/skybox-apex-xtreme/80-chris-crawford-3196556
p1572
asg17
g18
sg19
(lp1573
Vhttp://img.beckett.com/images/no-image.jpg
p1574
asg22
V#80
p1575
sg24
V1999-00
p1576
sg26
g27
sg28
(lp1577
VChris Crawford
p1578
assbag1
(g2
g3
Ntp1579
Rp1580
(dp1581
g7
(dp1582
g9
V1999-00 SkyBox APEX Xtreme #92 Isaiah Rider
p1583
sg11
I1
sg12
VSkyBox APEX Xtreme
p1584
sg14
(lp1585
Vhttp://www.beckett.com/basketball/1999-00/skybox-apex-xtreme/92-isaiah-rider-3196568
p1586
asg17
g18
sg19
(lp1587
Vhttp://img.beckett.com/images/no-image.jpg
p1588
asg22
V#92
p1589
sg24
V1999-00
p1590
sg26
g27
sg28
(lp1591
VIsaiah Rider
p1592
assbag1
(g2
g3
Ntp1593
Rp1594
(dp1595
g7
(dp1596
g9
V1999-00 SkyBox APEX Xtreme #110 Dikembe Mutombo
p1597
sg11
I1
sg12
VSkyBox APEX Xtreme
p1598
sg14
(lp1599
Vhttp://www.beckett.com/basketball/1999-00/skybox-apex-xtreme/110-dikembe-mutombo-3196586
p1600
asg17
g18
sg19
(lp1601
Vhttp://img.beckett.com/images/no-image.jpg
p1602
asg22
V#110
p1603
sg24
V1999-00
p1604
sg26
g27
sg28
(lp1605
VDikembe Mutombo
p1606
assbag1
(g2
g3
Ntp1607
Rp1608
(dp1609
g7
(dp1610
g9
V1999-00 SkyBox APEX Xtreme #160 Jason Terry
p1611
sg11
I1
sg12
VSkyBox APEX Xtreme
p1612
sg14
(lp1613
Vhttp://www.beckett.com/basketball/1999-00/skybox-apex-xtreme/160-jason-terry-3196636
p1614
asg17
g18
sg19
(lp1615
Vhttp://img.beckett.com/images/no-image.jpg
p1616
asg22
V#160
p1617
sg24
V1999-00
p1618
sg26
g27
sg28
(lp1619
VJason Terry
p1620
assbag1
(g2
g3
Ntp1621
Rp1622
(dp1623
g7
(dp1624
g9
V1999-00 SkyBox Premium Star Rubies #3 Isaiah Rider
p1625
sg11
I45
sg12
VSkyBox Premium Star Rubies
p1626
sg14
(lp1627
Vhttp://www.beckett.com/basketball/1999-00/skybox-premium-star-rubies/3-isaiah-rider-3195581
p1628
asg17
g18
sg19
(lp1629
Vhttp://img.beckett.com/images/no-image.jpg
p1630
asg22
V#3
p1631
sg24
V1999-00
p1632
sg26
g27
sg28
(lp1633
VIsaiah Rider
p1634
assbag1
(g2
g3
Ntp1635
Rp1636
(dp1637
g7
(dp1638
g9
V1999-00 SkyBox Premium Star Rubies #88 Dikembe Mutombo
p1639
sg11
I45
sg12
VSkyBox Premium Star Rubies
p1640
sg14
(lp1641
Vhttp://www.beckett.com/basketball/1999-00/skybox-premium-star-rubies/88-dikembe-mutombo-3195666
p1642
asg17
g18
sg19
(lp1643
Vhttp://img.beckett.com/images/no-image.jpg
p1644
asg22
V#88
p1645
sg24
V1999-00
p1646
sg26
g27
sg28
(lp1647
VDikembe Mutombo
p1648
assbag1
(g2
g3
Ntp1649
Rp1650
(dp1651
g7
(dp1652
g9
V1999-00 SkyBox Premium Star Rubies #110 Jason Terry
p1653
sg11
I45
sg12
VSkyBox Premium Star Rubies
p1654
sg14
(lp1655
Vhttp://www.beckett.com/basketball/1999-00/skybox-premium-star-rubies/110-jason-terry-3195697
p1656
asg17
g18
sg19
(lp1657
Vhttp://img.beckett.com/images/no-image.jpg
p1658
asg22
V#110
p1659
sg24
V1999-00
p1660
sg26
g27
sg28
(lp1661
VJason Terry
p1662
assbag1
(g2
g3
Ntp1663
Rp1664
(dp1665
g7
(dp1666
g9
V1999-00 SkyBox Premium Star Rubies #110A Jason Terry SP
p1667
sg11
I25
sg12
VSkyBox Premium Star Rubies
p1668
sg14
(lp1669
Vhttp://www.beckett.com/basketball/1999-00/skybox-premium-star-rubies/110a-jason-terry-sp-3195698
p1670
asg17
g18
sg19
(lp1671
Vhttp://img.beckett.com/images/no-image.jpg
p1672
asg22
V#110A
p1673
sg24
V1999-00
p1674
sg142
VSP
p1675
sg26
g27
sg28
(lp1676
VJason Terry
p1677
assbag1
(g2
g3
Ntp1678
Rp1679
(dp1680
g7
(dp1681
g9
V1999-00 SkyBox Premium Star Rubies #117 Cal Bowdler
p1682
sg11
I45
sg12
VSkyBox Premium Star Rubies
p1683
sg14
(lp1684
Vhttp://www.beckett.com/basketball/1999-00/skybox-premium-star-rubies/117-cal-bowdler-3195711
p1685
asg17
g18
sg19
(lp1686
Vhttp://img.beckett.com/images/no-image.jpg
p1687
asg22
V#117
p1688
sg24
V1999-00
p1689
sg26
g27
sg28
(lp1690
VCal Bowdler
p1691
assbag1
(g2
g3
Ntp1692
Rp1693
(dp1694
g7
(dp1695
g9
V1999-00 SkyBox Premium Star Rubies #117A Cal Bowdler SP
p1696
sg11
I25
sg12
VSkyBox Premium Star Rubies
p1697
sg14
(lp1698
Vhttp://www.beckett.com/basketball/1999-00/skybox-premium-star-rubies/117a-cal-bowdler-sp-3195712
p1699
asg17
g18
sg19
(lp1700
Vhttp://img.beckett.com/images/no-image.jpg
p1701
asg22
V#117A
p1702
sg24
V1999-00
p1703
sg142
VSP
p1704
sg26
g27
sg28
(lp1705
VCal Bowdler
p1706
assbag1
(g2
g3
Ntp1707
Rp1708
(dp1709
g7
(dp1710
g9
V1999-00 SkyBox Premium Star Rubies #120 Dion Glover
p1711
sg11
I45
sg12
VSkyBox Premium Star Rubies
p1712
sg14
(lp1713
Vhttp://www.beckett.com/basketball/1999-00/skybox-premium-star-rubies/120-dion-glover-3195717
p1714
asg17
g18
sg19
(lp1715
Vhttp://img.beckett.com/images/items_stock/185226/3195565/3195717/front.jpg
p1716
asg22
V#120
p1717
sg24
V1999-00
p1718
sg26
g27
sg28
(lp1719
VDion Glover
p1720
assbag1
(g2
g3
Ntp1721
Rp1722
(dp1723
g7
(dp1724
g9
V1999-00 SkyBox Premium Star Rubies #120A Dion Glover SP
p1725
sg11
I25
sg12
VSkyBox Premium Star Rubies
p1726
sg14
(lp1727
Vhttp://www.beckett.com/basketball/1999-00/skybox-premium-star-rubies/120a-dion-glover-sp-3195718
p1728
asg17
g18
sg19
(lp1729
Vhttp://img.beckett.com/images/no-image.jpg
p1730
asg22
V#120A
p1731
sg24
V1999-00
p1732
sg142
VSP
p1733
sg26
g27
sg28
(lp1734
VDion Glover
p1735
assbag1
(g2
g3
Ntp1736
Rp1737
(dp1738
g7
(dp1739
g9
V1999-00 SPx Radiance #1 Dikembe Mutombo
p1740
sg11
I100
sg12
VSPx Radiance
p1741
sg14
(lp1742
Vhttp://www.beckett.com/basketball/1999-00/spx-radiance/1-dikembe-mutombo-3193214
p1743
asg17
g18
sg19
(lp1744
Vhttp://img.beckett.com/images/items_stock/185226/3193202/3193214/front.jpg
p1745
asg22
V#1
p1746
sg24
V1999-00
p1747
sg26
g27
sg28
(lp1748
VDikembe Mutombo
p1749
assbag1
(g2
g3
Ntp1750
Rp1751
(dp1752
g7
(dp1753
g9
V1999-00 SPx Radiance #2 Alan Henderson
p1754
sg11
I100
sg12
VSPx Radiance
p1755
sg14
(lp1756
Vhttp://www.beckett.com/basketball/1999-00/spx-radiance/2-alan-henderson-3193215
p1757
asg17
g18
sg19
(lp1758
Vhttp://img.beckett.com/images/items_stock/185226/3193202/3193215/front.jpg
p1759
asg22
V#2
p1760
sg24
V1999-00
p1761
sg26
g27
sg28
(lp1762
VAlan Henderson
p1763
assbag1
(g2
g3
Ntp1764
Rp1765
(dp1766
g7
(dp1767
g9
V1999-00 SPx Radiance #100 Jason Terry
p1768
sg11
I100
sg12
VSPx Radiance
p1769
sg14
(lp1770
Vhttp://www.beckett.com/basketball/1999-00/spx-radiance/100-jason-terry-3193313
p1771
asg17
g18
sg19
(lp1772
Vhttp://img.beckett.com/images/no-image.jpg
p1773
asg22
V#100
p1774
sg24
V1999-00
p1775
sg26
g27
sg28
(lp1776
VJason Terry
p1777
assbag1
(g2
g3
Ntp1778
Rp1779
(dp1780
g7
(dp1781
g9
V1999-00 SPx Radiance #105 Dion Glover
p1782
sg11
I100
sg12
VSPx Radiance
p1783
sg14
(lp1784
Vhttp://www.beckett.com/basketball/1999-00/spx-radiance/105-dion-glover-3193318
p1785
asg17
g18
sg19
(lp1786
Vhttp://img.beckett.com/images/items_stock/185226/3193202/3193318/front.jpg
p1787
asg22
V#105
p1788
sg24
V1999-00
p1789
sg26
g27
sg28
(lp1790
VDion Glover
p1791
assbag1
(g2
g3
Ntp1792
Rp1793
(dp1794
g7
(dp1795
g9
V1999-00 SPx Radiance #107 Cal Bowdler
p1796
sg11
I100
sg12
VSPx Radiance
p1797
sg14
(lp1798
Vhttp://www.beckett.com/basketball/1999-00/spx-radiance/107-cal-bowdler-3193320
p1799
asg17
g18
sg19
(lp1800
Vhttp://img.beckett.com/images/items_stock/185226/3193202/3193320/front.jpg
p1801
asg22
V#107
p1802
sg24
V1999-00
p1803
sg26
g27
sg28
(lp1804
VCal Bowdler
p1805
assbag1
(g2
g3
Ntp1806
Rp1807
(dp1808
g7
(dp1809
g9
V1999-00 SPx Spectrum #1 Dikembe Mutombo
p1810
sg11
I1
sg12
VSPx Spectrum
p1811
sg14
(lp1812
Vhttp://www.beckett.com/basketball/1999-00/spx-spectrum/1-dikembe-mutombo-3193339
p1813
asg17
g18
sg19
(lp1814
Vhttp://img.beckett.com/images/no-image.jpg
p1815
asg22
V#1
p1816
sg24
V1999-00
p1817
sg26
g27
sg28
(lp1818
VDikembe Mutombo
p1819
assbag1
(g2
g3
Ntp1820
Rp1821
(dp1822
g7
(dp1823
g9
V1999-00 SPx Spectrum #2 Alan Henderson
p1824
sg11
I1
sg12
VSPx Spectrum
p1825
sg14
(lp1826
Vhttp://www.beckett.com/basketball/1999-00/spx-spectrum/2-alan-henderson-3193340
p1827
asg17
g18
sg19
(lp1828
Vhttp://img.beckett.com/images/no-image.jpg
p1829
asg22
V#2
p1830
sg24
V1999-00
p1831
sg26
g27
sg28
(lp1832
VAlan Henderson
p1833
assbag1
(g2
g3
Ntp1834
Rp1835
(dp1836
g7
(dp1837
g9
V1999-00 SPx Spectrum #100 Jason Terry
p1838
sg11
I1
sg12
VSPx Spectrum
p1839
sg14
(lp1840
Vhttp://www.beckett.com/basketball/1999-00/spx-spectrum/100-jason-terry-3193438
p1841
asg17
g18
sg19
(lp1842
Vhttp://img.beckett.com/images/no-image.jpg
p1843
asg22
V#100
p1844
sg24
V1999-00
p1845
sg26
g27
sg28
(lp1846
VJason Terry
p1847
assbag1
(g2
g3
Ntp1848
Rp1849
(dp1850
g7
(dp1851
g9
V1999-00 SPx Spectrum #105 Dion Glover
p1852
sg11
I1
sg12
VSPx Spectrum
p1853
sg14
(lp1854
Vhttp://www.beckett.com/basketball/1999-00/spx-spectrum/105-dion-glover-3193443
p1855
asg17
g18
sg19
(lp1856
Vhttp://img.beckett.com/images/no-image.jpg
p1857
asg22
V#105
p1858
sg24
V1999-00
p1859
sg26
g27
sg28
(lp1860
VDion Glover
p1861
assbag1
(g2
g3
Ntp1862
Rp1863
(dp1864
g7
(dp1865
g9
V1999-00 SPx Spectrum #107 Cal Bowdler
p1866
sg11
I1
sg12
VSPx Spectrum
p1867
sg14
(lp1868
Vhttp://www.beckett.com/basketball/1999-00/spx-spectrum/107-cal-bowdler-3193445
p1869
asg17
g18
sg19
(lp1870
Vhttp://img.beckett.com/images/no-image.jpg
p1871
asg22
V#107
p1872
sg24
V1999-00
p1873
sg26
g27
sg28
(lp1874
VCal Bowdler
p1875
assbag1
(g2
g3
Ntp1876
Rp1877
(dp1878
g7
(dp1879
g9
V1999-00 Stadium Club First Day Issue #2 Chris Crawford
p1880
sg11
I150
sg12
VStadium Club First Day Issue
p1881
sg14
(lp1882
Vhttp://www.beckett.com/basketball/1999-00/stadium-club-first-day-issue/2-chris-crawford-3193836
p1883
asg17
g18
sg19
(lp1884
Vhttp://img.beckett.com/images/no-image.jpg
p1885
asg22
V#2
p1886
sg24
V1999-00
p1887
sg26
g27
sg28
(lp1888
VChris Crawford
p1889
assbag1
(g2
g3
Ntp1890
Rp1891
(dp1892
g7
(dp1893
g9
V1999-00 Stadium Club First Day Issue #11 Alan Henderson
p1894
sg11
I150
sg12
VStadium Club First Day Issue
p1895
sg14
(lp1896
Vhttp://www.beckett.com/basketball/1999-00/stadium-club-first-day-issue/11-alan-henderson-3193845
p1897
asg17
g18
sg19
(lp1898
Vhttp://img.beckett.com/images/no-image.jpg
p1899
asg22
V#11
p1900
sg24
V1999-00
p1901
sg26
g27
sg28
(lp1902
VAlan Henderson
p1903
assbag1
(g2
g3
Ntp1904
Rp1905
(dp1906
g7
(dp1907
g9
V1999-00 Stadium Club First Day Issue #44 Dikembe Mutombo
p1908
sg11
I150
sg12
VStadium Club First Day Issue
p1909
sg14
(lp1910
Vhttp://www.beckett.com/basketball/1999-00/stadium-club-first-day-issue/44-dikembe-mutombo-3193878
p1911
asg17
g18
sg19
(lp1912
Vhttp://img.beckett.com/images/no-image.jpg
p1913
asg22
V#44
p1914
sg24
V1999-00
p1915
sg26
g27
sg28
(lp1916
VDikembe Mutombo
p1917
assbag1
(g2
g3
Ntp1918
Rp1919
(dp1920
g7
(dp1921
g9
V1999-00 Stadium Club First Day Issue #156 Isaiah Rider TRAN
p1922
sg11
I150
sg12
VStadium Club First Day Issue
p1923
sg14
(lp1924
Vhttp://www.beckett.com/basketball/1999-00/stadium-club-first-day-issue/156-isaiah-rider-tran-3193990
p1925
asg17
g18
sg19
(lp1926
Vhttp://img.beckett.com/images/no-image.jpg
p1927
asg22
V#156
p1928
sg24
V1999-00
p1929
sg142
VTRAN
p1930
sg26
g27
sg28
(lp1931
VIsaiah Rider
p1932
assbag1
(g2
g3
Ntp1933
Rp1934
(dp1935
g7
(dp1936
g9
V1999-00 Stadium Club First Day Issue #160 Jim Jackson TRAN
p1937
sg11
I150
sg12
VStadium Club First Day Issue
p1938
sg14
(lp1939
Vhttp://www.beckett.com/basketball/1999-00/stadium-club-first-day-issue/160-jim-jackson-tran-3193994
p1940
asg17
g18
sg19
(lp1941
Vhttp://img.beckett.com/images/no-image.jpg
p1942
asg22
V#160
p1943
sg24
V1999-00
p1944
sg142
VTRAN
p1945
sg26
g27
sg28
(lp1946
VJim Jackson
p1947
assbag1
(g2
g3
Ntp1948
Rp1949
(dp1950
g7
(dp1951
g9
V1999-00 Stadium Club First Day Issue #185 Jason Terry
p1952
sg11
I150
sg12
VStadium Club First Day Issue
p1953
sg14
(lp1954
Vhttp://www.beckett.com/basketball/1999-00/stadium-club-first-day-issue/185-jason-terry-3194019
p1955
asg17
g18
sg19
(lp1956
Vhttp://img.beckett.com/images/no-image.jpg
p1957
asg22
V#185
p1958
sg24
V1999-00
p1959
sg26
g27
sg28
(lp1960
VJason Terry
p1961
assbag1
(g2
g3
Ntp1962
Rp1963
(dp1964
g7
(dp1965
g9
V1999-00 Stadium Club First Day Issue #192 Cal Bowdler
p1966
sg11
I150
sg12
VStadium Club First Day Issue
p1967
sg14
(lp1968
Vhttp://www.beckett.com/basketball/1999-00/stadium-club-first-day-issue/192-cal-bowdler-3194026
p1969
asg17
g18
sg19
(lp1970
Vhttp://img.beckett.com/images/no-image.jpg
p1971
asg22
V#192
p1972
sg24
V1999-00
p1973
sg26
g27
sg28
(lp1974
VCal Bowdler
p1975
assbag1
(g2
g3
Ntp1976
Rp1977
(dp1978
g7
(dp1979
g9
V1999-00 Stadium Club One of a Kind #2 Chris Crawford
p1980
sg11
I150
sg12
VStadium Club One of a Kind
p1981
sg14
(lp1982
Vhttp://www.beckett.com/basketball/1999-00/stadium-club-one-of-a-kind/2-chris-crawford-3194048
p1983
asg17
g18
sg19
(lp1984
Vhttp://img.beckett.com/images/no-image.jpg
p1985
asg22
V#2
p1986
sg24
V1999-00
p1987
sg26
g27
sg28
(lp1988
VChris Crawford
p1989
assbag1
(g2
g3
Ntp1990
Rp1991
(dp1992
g7
(dp1993
g9
V1999-00 Stadium Club One of a Kind #11 Alan Henderson
p1994
sg11
I150
sg12
VStadium Club One of a Kind
p1995
sg14
(lp1996
Vhttp://www.beckett.com/basketball/1999-00/stadium-club-one-of-a-kind/11-alan-henderson-3194057
p1997
asg17
g18
sg19
(lp1998
Vhttp://img.beckett.com/images/items_stock/185226/3194036/3194057/front.jpg
p1999
asg22
V#11
p2000
sg24
V1999-00
p2001
sg26
g27
sg28
(lp2002
VAlan Henderson
p2003
assbag1
(g2
g3
Ntp2004
Rp2005
(dp2006
g7
(dp2007
g9
V1999-00 Stadium Club One of a Kind #44 Dikembe Mutombo
p2008
sg11
I150
sg12
VStadium Club One of a Kind
p2009
sg14
(lp2010
Vhttp://www.beckett.com/basketball/1999-00/stadium-club-one-of-a-kind/44-dikembe-mutombo-3194090
p2011
asg17
g18
sg19
(lp2012
Vhttp://img.beckett.com/images/no-image.jpg
p2013
asg22
V#44
p2014
sg24
V1999-00
p2015
sg26
g27
sg28
(lp2016
VDikembe Mutombo
p2017
assbag1
(g2
g3
Ntp2018
Rp2019
(dp2020
g7
(dp2021
g9
V1999-00 Stadium Club One of a Kind #156 Isaiah Rider TRAN
p2022
sg11
I150
sg12
VStadium Club One of a Kind
p2023
sg14
(lp2024
Vhttp://www.beckett.com/basketball/1999-00/stadium-club-one-of-a-kind/156-isaiah-rider-tran-3194202
p2025
asg17
g18
sg19
(lp2026
Vhttp://img.beckett.com/images/no-image.jpg
p2027
asg22
V#156
p2028
sg24
V1999-00
p2029
sg142
VTRAN
p2030
sg26
g27
sg28
(lp2031
VIsaiah Rider
p2032
assbag1
(g2
g3
Ntp2033
Rp2034
(dp2035
g7
(dp2036
g9
V1999-00 Stadium Club One of a Kind #160 Jim Jackson TRAN
p2037
sg11
I150
sg12
VStadium Club One of a Kind
p2038
sg14
(lp2039
Vhttp://www.beckett.com/basketball/1999-00/stadium-club-one-of-a-kind/160-jim-jackson-tran-3194206
p2040
asg17
g18
sg19
(lp2041
Vhttp://img.beckett.com/images/no-image.jpg
p2042
asg22
V#160
p2043
sg24
V1999-00
p2044
sg142
VTRAN
p2045
sg26
g27
sg28
(lp2046
VJim Jackson
p2047
assbag1
(g2
g3
Ntp2048
Rp2049
(dp2050
g7
(dp2051
g9
V1999-00 Stadium Club One of a Kind #185 Jason Terry
p2052
sg11
I150
sg12
VStadium Club One of a Kind
p2053
sg14
(lp2054
Vhttp://www.beckett.com/basketball/1999-00/stadium-club-one-of-a-kind/185-jason-terry-3194231
p2055
asg17
g18
sg19
(lp2056
Vhttp://img.beckett.com/images/no-image.jpg
p2057
asg22
V#185
p2058
sg24
V1999-00
p2059
sg26
g27
sg28
(lp2060
VJason Terry
p2061
assbag1
(g2
g3
Ntp2062
Rp2063
(dp2064
g7
(dp2065
g9
V1999-00 Stadium Club One of a Kind #192 Cal Bowdler
p2066
sg11
I150
sg12
VStadium Club One of a Kind
p2067
sg14
(lp2068
Vhttp://www.beckett.com/basketball/1999-00/stadium-club-one-of-a-kind/192-cal-bowdler-3194238
p2069
asg17
g18
sg19
(lp2070
Vhttp://img.beckett.com/images/no-image.jpg
p2071
asg22
V#192
p2072
sg24
V1999-00
p2073
sg26
g27
sg28
(lp2074
VCal Bowdler
p2075
assbag1
(g2
g3
Ntp2076
Rp2077
(dp2078
g7
(dp2079
g9
V1999-00 Stadium Club Printing Plates #2A Chris Crawford Black
p2080
sg11
I1
sg12
VStadium Club Printing Plates
p2081
sg14
(lp2082
Vhttp://www.beckett.com/basketball/1999-00/stadium-club-printing-plates/2a-chris-crawford-black-3194258
p2083
asg17
g18
sg19
(lp2084
Vhttp://img.beckett.com/images/no-image.jpg
p2085
asg22
V#2A
p2086
sg24
V1999-00
p2087
sg26
g27
sg28
(lp2088
VChris Crawford
p2089
assbag1
(g2
g3
Ntp2090
Rp2091
(dp2092
g7
(dp2093
g9
V1999-00 Stadium Club Printing Plates #2B Chris Crawford Cyan
p2094
sg11
I1
sg12
VStadium Club Printing Plates
p2095
sg14
(lp2096
Vhttp://www.beckett.com/basketball/1999-00/stadium-club-printing-plates/2b-chris-crawford-cyan-3194259
p2097
asg17
g18
sg19
(lp2098
Vhttp://img.beckett.com/images/no-image.jpg
p2099
asg22
V#2B
p2100
sg24
V1999-00
p2101
sg26
g27
sg28
(lp2102
g2089
assbag1
(g2
g3
Ntp2103
Rp2104
(dp2105
g7
(dp2106
g9
V1999-00 Stadium Club Printing Plates #2C Chris Crawford Magenta
p2107
sg11
I1
sg12
VStadium Club Printing Plates
p2108
sg14
(lp2109
Vhttp://www.beckett.com/basketball/1999-00/stadium-club-printing-plates/2c-chris-crawford-magenta-3194260
p2110
asg17
g18
sg19
(lp2111
Vhttp://img.beckett.com/images/no-image.jpg
p2112
asg22
V#2C
p2113
sg24
V1999-00
p2114
sg26
g27
sg28
(lp2115
g2089
assbag1
(g2
g3
Ntp2116
Rp2117
(dp2118
g7
(dp2119
g9
V1999-00 Stadium Club Printing Plates #2D Chris Crawford Yellow
p2120
sg11
I1
sg12
VStadium Club Printing Plates
p2121
sg14
(lp2122
Vhttp://www.beckett.com/basketball/1999-00/stadium-club-printing-plates/2d-chris-crawford-yellow-3194261
p2123
asg17
g18
sg19
(lp2124
Vhttp://img.beckett.com/images/no-image.jpg
p2125
asg22
V#2D
p2126
sg24
V1999-00
p2127
sg26
g27
sg28
(lp2128
g2089
assbag1
(g2
g3
Ntp2129
Rp2130
(dp2131
g7
(dp2132
g9
V1999-00 Stadium Club Printing Plates #11A Alan Henderson Black
p2133
sg11
I1
sg12
VStadium Club Printing Plates
p2134
sg14
(lp2135
Vhttp://www.beckett.com/basketball/1999-00/stadium-club-printing-plates/11a-alan-henderson-black-3194294
p2136
asg17
g18
sg19
(lp2137
Vhttp://img.beckett.com/images/no-image.jpg
p2138
asg22
V#11A
p2139
sg24
V1999-00
p2140
sg26
g27
sg28
(lp2141
VAlan Henderson
p2142
assbag1
(g2
g3
Ntp2143
Rp2144
(dp2145
g7
(dp2146
g9
V1999-00 Stadium Club Printing Plates #11B Alan Henderson Cyan
p2147
sg11
I1
sg12
VStadium Club Printing Plates
p2148
sg14
(lp2149
Vhttp://www.beckett.com/basketball/1999-00/stadium-club-printing-plates/11b-alan-henderson-cyan-3194295
p2150
asg17
g18
sg19
(lp2151
Vhttp://img.beckett.com/images/no-image.jpg
p2152
asg22
V#11B
p2153
sg24
V1999-00
p2154
sg26
g27
sg28
(lp2155
g2142
assbag1
(g2
g3
Ntp2156
Rp2157
(dp2158
g7
(dp2159
g9
V1999-00 Stadium Club Printing Plates #11C Alan Henderson Magenta
p2160
sg11
I1
sg12
VStadium Club Printing Plates
p2161
sg14
(lp2162
Vhttp://www.beckett.com/basketball/1999-00/stadium-club-printing-plates/11c-alan-henderson-magenta-3194296
p2163
asg17
g18
sg19
(lp2164
Vhttp://img.beckett.com/images/no-image.jpg
p2165
asg22
V#11C
p2166
sg24
V1999-00
p2167
sg26
g27
sg28
(lp2168
g2142
assbag1
(g2
g3
Ntp2169
Rp2170
(dp2171
g7
(dp2172
g9
V1999-00 Stadium Club Printing Plates #11D Alan Henderson Yellow
p2173
sg11
I1
sg12
VStadium Club Printing Plates
p2174
sg14
(lp2175
Vhttp://www.beckett.com/basketball/1999-00/stadium-club-printing-plates/11d-alan-henderson-yellow-3194297
p2176
asg17
g18
sg19
(lp2177
Vhttp://img.beckett.com/images/no-image.jpg
p2178
asg22
V#11D
p2179
sg24
V1999-00
p2180
sg26
g27
sg28
(lp2181
g2142
assbag1
(g2
g3
Ntp2182
Rp2183
(dp2184
g7
(dp2185
g9
V1999-00 Stadium Club Printing Plates #44A Dikembe Mutombo Black
p2186
sg11
I1
sg12
VStadium Club Printing Plates
p2187
sg14
(lp2188
Vhttp://www.beckett.com/basketball/1999-00/stadium-club-printing-plates/44a-dikembe-mutombo-black-3194426
p2189
asg17
g18
sg19
(lp2190
Vhttp://img.beckett.com/images/no-image.jpg
p2191
asg22
V#44A
p2192
sg24
V1999-00
p2193
sg26
g27
sg28
(lp2194
VDikembe Mutombo
p2195
assbag1
(g2
g3
Ntp2196
Rp2197
(dp2198
g7
(dp2199
g9
V1999-00 Stadium Club Printing Plates #44B Dikembe Mutombo Cyan
p2200
sg11
I1
sg12
VStadium Club Printing Plates
p2201
sg14
(lp2202
Vhttp://www.beckett.com/basketball/1999-00/stadium-club-printing-plates/44b-dikembe-mutombo-cyan-3194427
p2203
asg17
g18
sg19
(lp2204
Vhttp://img.beckett.com/images/no-image.jpg
p2205
asg22
V#44B
p2206
sg24
V1999-00
p2207
sg26
g27
sg28
(lp2208
g2195
assbag1
(g2
g3
Ntp2209
Rp2210
(dp2211
g7
(dp2212
g9
V1999-00 Stadium Club Printing Plates #44C Dikembe Mutombo Magenta
p2213
sg11
I1
sg12
VStadium Club Printing Plates
p2214
sg14
(lp2215
Vhttp://www.beckett.com/basketball/1999-00/stadium-club-printing-plates/44c-dikembe-mutombo-magenta-3194428
p2216
asg17
g18
sg19
(lp2217
Vhttp://img.beckett.com/images/no-image.jpg
p2218
asg22
V#44C
p2219
sg24
V1999-00
p2220
sg26
g27
sg28
(lp2221
g2195
assbag1
(g2
g3
Ntp2222
Rp2223
(dp2224
g7
(dp2225
g9
V1999-00 Stadium Club Printing Plates #44D Dikembe Mutombo Yellow
p2226
sg11
I1
sg12
VStadium Club Printing Plates
p2227
sg14
(lp2228
Vhttp://www.beckett.com/basketball/1999-00/stadium-club-printing-plates/44d-dikembe-mutombo-yellow-3194429
p2229
asg17
g18
sg19
(lp2230
Vhttp://img.beckett.com/images/no-image.jpg
p2231
asg22
V#44D
p2232
sg24
V1999-00
p2233
sg26
g27
sg28
(lp2234
g2195
assbag1
(g2
g3
Ntp2235
Rp2236
(dp2237
g7
(dp2238
g9
V1999-00 Stadium Club Printing Plates #156A Isaiah Rider Black
p2239
sg11
I1
sg12
VStadium Club Printing Plates
p2240
sg14
(lp2241
Vhttp://www.beckett.com/basketball/1999-00/stadium-club-printing-plates/156a-isaiah-rider-black-3194874
p2242
asg17
g18
sg19
(lp2243
Vhttp://img.beckett.com/images/no-image.jpg
p2244
asg22
V#156A
p2245
sg24
V1999-00
p2246
sg26
g27
sg28
(lp2247
VIsaiah Rider
p2248
assbag1
(g2
g3
Ntp2249
Rp2250
(dp2251
g7
(dp2252
g9
V1999-00 Stadium Club Printing Plates #156B Isaiah Rider Cyan
p2253
sg11
I1
sg12
VStadium Club Printing Plates
p2254
sg14
(lp2255
Vhttp://www.beckett.com/basketball/1999-00/stadium-club-printing-plates/156b-isaiah-rider-cyan-3194875
p2256
asg17
g18
sg19
(lp2257
Vhttp://img.beckett.com/images/no-image.jpg
p2258
asg22
V#156B
p2259
sg24
V1999-00
p2260
sg26
g27
sg28
(lp2261
g2248
assbag1
(g2
g3
Ntp2262
Rp2263
(dp2264
g7
(dp2265
g9
V1999-00 Stadium Club Printing Plates #156C Isaiah Rider Magenta
p2266
sg11
I1
sg12
VStadium Club Printing Plates
p2267
sg14
(lp2268
Vhttp://www.beckett.com/basketball/1999-00/stadium-club-printing-plates/156c-isaiah-rider-magenta-3194876
p2269
asg17
g18
sg19
(lp2270
Vhttp://img.beckett.com/images/no-image.jpg
p2271
asg22
V#156C
p2272
sg24
V1999-00
p2273
sg26
g27
sg28
(lp2274
g2248
assbag1
(g2
g3
Ntp2275
Rp2276
(dp2277
g7
(dp2278
g9
V1999-00 Stadium Club Printing Plates #156D Isaiah Rider Yellow
p2279
sg11
I1
sg12
VStadium Club Printing Plates
p2280
sg14
(lp2281
Vhttp://www.beckett.com/basketball/1999-00/stadium-club-printing-plates/156d-isaiah-rider-yellow-3194877
p2282
asg17
g18
sg19
(lp2283
Vhttp://img.beckett.com/images/no-image.jpg
p2284
asg22
V#156D
p2285
sg24
V1999-00
p2286
sg26
g27
sg28
(lp2287
g2248
assbag1
(g2
g3
Ntp2288
Rp2289
(dp2290
g7
(dp2291
g9
V1999-00 Stadium Club Printing Plates #160A Jim Jackson Black
p2292
sg11
I1
sg12
VStadium Club Printing Plates
p2293
sg14
(lp2294
Vhttp://www.beckett.com/basketball/1999-00/stadium-club-printing-plates/160a-jim-jackson-black-3194890
p2295
asg17
g18
sg19
(lp2296
Vhttp://img.beckett.com/images/no-image.jpg
p2297
asg22
V#160A
p2298
sg24
V1999-00
p2299
sg26
g27
sg28
(lp2300
VJim Jackson
p2301
assbag1
(g2
g3
Ntp2302
Rp2303
(dp2304
g7
(dp2305
g9
V1999-00 Stadium Club Printing Plates #160B Jim Jackson Cyan
p2306
sg11
I1
sg12
VStadium Club Printing Plates
p2307
sg14
(lp2308
Vhttp://www.beckett.com/basketball/1999-00/stadium-club-printing-plates/160b-jim-jackson-cyan-3194891
p2309
asg17
g18
sg19
(lp2310
Vhttp://img.beckett.com/images/no-image.jpg
p2311
asg22
V#160B
p2312
sg24
V1999-00
p2313
sg26
g27
sg28
(lp2314
g2301
assbag1
(g2
g3
Ntp2315
Rp2316
(dp2317
g7
(dp2318
g9
V1999-00 Stadium Club Printing Plates #160C Jim Jackson Magenta
p2319
sg11
I1
sg12
VStadium Club Printing Plates
p2320
sg14
(lp2321
Vhttp://www.beckett.com/basketball/1999-00/stadium-club-printing-plates/160c-jim-jackson-magenta-3194892
p2322
asg17
g18
sg19
(lp2323
Vhttp://img.beckett.com/images/no-image.jpg
p2324
asg22
V#160C
p2325
sg24
V1999-00
p2326
sg26
g27
sg28
(lp2327
g2301
assbag1
(g2
g3
Ntp2328
Rp2329
(dp2330
g7
(dp2331
g9
V1999-00 Stadium Club Printing Plates #160D Jim Jackson Yellow
p2332
sg11
I1
sg12
VStadium Club Printing Plates
p2333
sg14
(lp2334
Vhttp://www.beckett.com/basketball/1999-00/stadium-club-printing-plates/160d-jim-jackson-yellow-3194893
p2335
asg17
g18
sg19
(lp2336
Vhttp://img.beckett.com/images/no-image.jpg
p2337
asg22
V#160D
p2338
sg24
V1999-00
p2339
sg26
g27
sg28
(lp2340
g2301
assbag1
(g2
g3
Ntp2341
Rp2342
(dp2343
g7
(dp2344
g9
V1999-00 Stadium Club Printing Plates #185A Jason Terry Black
p2345
sg11
I1
sg12
VStadium Club Printing Plates
p2346
sg14
(lp2347
Vhttp://www.beckett.com/basketball/1999-00/stadium-club-printing-plates/185a-jason-terry-black-3194990
p2348
asg17
g18
sg19
(lp2349
Vhttp://img.beckett.com/images/no-image.jpg
p2350
asg22
V#185A
p2351
sg24
V1999-00
p2352
sg26
g27
sg28
(lp2353
VJason Terry
p2354
assbag1
(g2
g3
Ntp2355
Rp2356
(dp2357
g7
(dp2358
g9
V1999-00 Stadium Club Printing Plates #185B Jason Terry Cyan
p2359
sg11
I1
sg12
VStadium Club Printing Plates
p2360
sg14
(lp2361
Vhttp://www.beckett.com/basketball/1999-00/stadium-club-printing-plates/185b-jason-terry-cyan-3194991
p2362
asg17
g18
sg19
(lp2363
Vhttp://img.beckett.com/images/no-image.jpg
p2364
asg22
V#185B
p2365
sg24
V1999-00
p2366
sg26
g27
sg28
(lp2367
g2354
assbag1
(g2
g3
Ntp2368
Rp2369
(dp2370
g7
(dp2371
g9
V1999-00 Stadium Club Printing Plates #185C Jason Terry Magenta
p2372
sg11
I1
sg12
VStadium Club Printing Plates
p2373
sg14
(lp2374
Vhttp://www.beckett.com/basketball/1999-00/stadium-club-printing-plates/185c-jason-terry-magenta-3194992
p2375
asg17
g18
sg19
(lp2376
Vhttp://img.beckett.com/images/no-image.jpg
p2377
asg22
V#185C
p2378
sg24
V1999-00
p2379
sg26
g27
sg28
(lp2380
g2354
assbag1
(g2
g3
Ntp2381
Rp2382
(dp2383
g7
(dp2384
g9
V1999-00 Stadium Club Printing Plates #185D Jason Terry Yellow
p2385
sg11
I1
sg12
VStadium Club Printing Plates
p2386
sg14
(lp2387
Vhttp://www.beckett.com/basketball/1999-00/stadium-club-printing-plates/185d-jason-terry-yellow-3194993
p2388
asg17
g18
sg19
(lp2389
Vhttp://img.beckett.com/images/no-image.jpg
p2390
asg22
V#185D
p2391
sg24
V1999-00
p2392
sg26
g27
sg28
(lp2393
g2354
assbag1
(g2
g3
Ntp2394
Rp2395
(dp2396
g7
(dp2397
g9
V1999-00 Stadium Club Printing Plates #192A Cal Bowdler Black
p2398
sg11
I1
sg12
VStadium Club Printing Plates
p2399
sg14
(lp2400
Vhttp://www.beckett.com/basketball/1999-00/stadium-club-printing-plates/192a-cal-bowdler-black-3195018
p2401
asg17
g18
sg19
(lp2402
Vhttp://img.beckett.com/images/no-image.jpg
p2403
asg22
V#192A
p2404
sg24
V1999-00
p2405
sg26
g27
sg28
(lp2406
VCal Bowdler
p2407
assbag1
(g2
g3
Ntp2408
Rp2409
(dp2410
g7
(dp2411
g9
V1999-00 Stadium Club Printing Plates #192B Cal Bowdler Cyan
p2412
sg11
I1
sg12
VStadium Club Printing Plates
p2413
sg14
(lp2414
Vhttp://www.beckett.com/basketball/1999-00/stadium-club-printing-plates/192b-cal-bowdler-cyan-3195019
p2415
asg17
g18
sg19
(lp2416
Vhttp://img.beckett.com/images/no-image.jpg
p2417
asg22
V#192B
p2418
sg24
V1999-00
p2419
sg26
g27
sg28
(lp2420
g2407
assbag1
(g2
g3
Ntp2421
Rp2422
(dp2423
g7
(dp2424
g9
V1999-00 Stadium Club Printing Plates #192C Cal Bowdler Magenta
p2425
sg11
I1
sg12
VStadium Club Printing Plates
p2426
sg14
(lp2427
Vhttp://www.beckett.com/basketball/1999-00/stadium-club-printing-plates/192c-cal-bowdler-magenta-3195020
p2428
asg17
g18
sg19
(lp2429
Vhttp://img.beckett.com/images/no-image.jpg
p2430
asg22
V#192C
p2431
sg24
V1999-00
p2432
sg26
g27
sg28
(lp2433
g2407
assbag1
(g2
g3
Ntp2434
Rp2435
(dp2436
g7
(dp2437
g9
V1999-00 Stadium Club Printing Plates #192D Cal Bowdler Yellow
p2438
sg11
I1
sg12
VStadium Club Printing Plates
p2439
sg14
(lp2440
Vhttp://www.beckett.com/basketball/1999-00/stadium-club-printing-plates/192d-cal-bowdler-yellow-3195021
p2441
asg17
g18
sg19
(lp2442
Vhttp://img.beckett.com/images/no-image.jpg
p2443
asg22
V#192D
p2444
sg24
V1999-00
p2445
sg26
g27
sg28
(lp2446
g2407
assbag1
(g2
g3
Ntp2447
Rp2448
(dp2449
g7
(dp2450
g9
V1999-00 Stadium Club Chrome First Day Issue #31 Dikembe Mutombo
p2451
sg11
I100
sg12
VStadium Club Chrome First Day Issue
p2452
sg14
(lp2453
Vhttp://www.beckett.com/basketball/1999-00/stadium-club-chrome-first-day-issue/31-dikembe-mutombo-3192431
p2454
asg17
g18
sg19
(lp2455
Vhttp://img.beckett.com/images/no-image.jpg
p2456
asg22
V#31
p2457
sg24
V1999-00
p2458
sg26
g27
sg28
(lp2459
VDikembe Mutombo
p2460
assbag1
(g2
g3
Ntp2461
Rp2462
(dp2463
g7
(dp2464
g9
V1999-00 Stadium Club Chrome First Day Issue #121 Isaiah Rider TRAN
p2465
sg11
I100
sg12
VStadium Club Chrome First Day Issue
p2466
sg14
(lp2467
Vhttp://www.beckett.com/basketball/1999-00/stadium-club-chrome-first-day-issue/121-isaiah-rider-tran-3192521
p2468
asg17
g18
sg19
(lp2469
Vhttp://img.beckett.com/images/no-image.jpg
p2470
asg22
V#121
p2471
sg24
V1999-00
p2472
sg142
VTRAN
p2473
sg26
g27
sg28
(lp2474
VIsaiah Rider
p2475
assbag1
(g2
g3
Ntp2476
Rp2477
(dp2478
g7
(dp2479
g9
V1999-00 Stadium Club Chrome First Day Issue #125 Jim Jackson TRAN
p2480
sg11
I100
sg12
VStadium Club Chrome First Day Issue
p2481
sg14
(lp2482
Vhttp://www.beckett.com/basketball/1999-00/stadium-club-chrome-first-day-issue/125-jim-jackson-tran-3192525
p2483
asg17
g18
sg19
(lp2484
Vhttp://img.beckett.com/images/no-image.jpg
p2485
asg22
V#125
p2486
sg24
V1999-00
p2487
sg142
VTRAN
p2488
sg26
g27
sg28
(lp2489
VJim Jackson
p2490
assbag1
(g2
g3
Ntp2491
Rp2492
(dp2493
g7
(dp2494
g9
V1999-00 Stadium Club Chrome First Day Issue #141 Jason Terry
p2495
sg11
I100
sg12
VStadium Club Chrome First Day Issue
p2496
sg14
(lp2497
Vhttp://www.beckett.com/basketball/1999-00/stadium-club-chrome-first-day-issue/141-jason-terry-3192541
p2498
asg17
g18
sg19
(lp2499
Vhttp://img.beckett.com/images/no-image.jpg
p2500
asg22
V#141
p2501
sg24
V1999-00
p2502
sg26
g27
sg28
(lp2503
VJason Terry
p2504
assbag1
(g2
g3
Ntp2505
Rp2506
(dp2507
g7
(dp2508
g9
V1999-00 Stadium Club Chrome First Day Issue #147 Cal Bowdler
p2509
sg11
I100
sg12
VStadium Club Chrome First Day Issue
p2510
sg14
(lp2511
Vhttp://www.beckett.com/basketball/1999-00/stadium-club-chrome-first-day-issue/147-cal-bowdler-3192547
p2512
asg17
g18
sg19
(lp2513
Vhttp://img.beckett.com/images/items_stock/185226/3192391/3192547/front.jpg
p2514
asg22
V#147
p2515
sg24
V1999-00
p2516
sg26
g27
sg28
(lp2517
VCal Bowdler
p2518
assbag1
(g2
g3
Ntp2519
Rp2520
(dp2521
g7
(dp2522
g9
V1999-00 Stadium Club Chrome First Day Issue Refractors #31 Dikembe Mutombo
p2523
sg11
I25
sg12
VStadium Club Chrome First Day Issue Refractors
p2524
sg14
(lp2525
Vhttp://www.beckett.com/basketball/1999-00/stadium-club-chrome-first-day-issue-refractors/31-dikembe-mutombo-3192591
p2526
asg17
g18
sg19
(lp2527
Vhttp://img.beckett.com/images/no-image.jpg
p2528
asg22
V#31
p2529
sg24
V1999-00
p2530
sg26
g27
sg28
(lp2531
VDikembe Mutombo
p2532
assbag1
(g2
g3
Ntp2533
Rp2534
(dp2535
g7
(dp2536
g9
V1999-00 Stadium Club Chrome First Day Issue Refractors #121 Isaiah Rider TRAN
p2537
sg11
I25
sg12
VStadium Club Chrome First Day Issue Refractors
p2538
sg14
(lp2539
Vhttp://www.beckett.com/basketball/1999-00/stadium-club-chrome-first-day-issue-refractors/121-isaiah-rider-tran-3192681
p2540
asg17
g18
sg19
(lp2541
Vhttp://img.beckett.com/images/no-image.jpg
p2542
asg22
V#121
p2543
sg24
V1999-00
p2544
sg142
VTRAN
p2545
sg26
g27
sg28
(lp2546
VIsaiah Rider
p2547
assbag1
(g2
g3
Ntp2548
Rp2549
(dp2550
g7
(dp2551
g9
V1999-00 Stadium Club Chrome First Day Issue Refractors #125 Jim Jackson TRAN
p2552
sg11
I25
sg12
VStadium Club Chrome First Day Issue Refractors
p2553
sg14
(lp2554
Vhttp://www.beckett.com/basketball/1999-00/stadium-club-chrome-first-day-issue-refractors/125-jim-jackson-tran-3192685
p2555
asg17
g18
sg19
(lp2556
Vhttp://img.beckett.com/images/no-image.jpg
p2557
asg22
V#125
p2558
sg24
V1999-00
p2559
sg142
VTRAN
p2560
sg26
g27
sg28
(lp2561
VJim Jackson
p2562
assbag1
(g2
g3
Ntp2563
Rp2564
(dp2565
g7
(dp2566
g9
V1999-00 Stadium Club Chrome First Day Issue Refractors #141 Jason Terry
p2567
sg11
I25
sg12
VStadium Club Chrome First Day Issue Refractors
p2568
sg14
(lp2569
Vhttp://www.beckett.com/basketball/1999-00/stadium-club-chrome-first-day-issue-refractors/141-jason-terry-3192701
p2570
asg17
g18
sg19
(lp2571
Vhttp://img.beckett.com/images/no-image.jpg
p2572
asg22
V#141
p2573
sg24
V1999-00
p2574
sg26
g27
sg28
(lp2575
VJason Terry
p2576
assbag1
(g2
g3
Ntp2577
Rp2578
(dp2579
g7
(dp2580
g9
V1999-00 Stadium Club Chrome First Day Issue Refractors #147 Cal Bowdler
p2581
sg11
I25
sg12
VStadium Club Chrome First Day Issue Refractors
p2582
sg14
(lp2583
Vhttp://www.beckett.com/basketball/1999-00/stadium-club-chrome-first-day-issue-refractors/147-cal-bowdler-3192707
p2584
asg17
g18
sg19
(lp2585
Vhttp://img.beckett.com/images/no-image.jpg
p2586
asg22
V#147
p2587
sg24
V1999-00
p2588
sg26
g27
sg28
(lp2589
VCal Bowdler
p2590
assbag1
(g2
g3
Ntp2591
Rp2592
(dp2593
g7
(dp2594
g9
V1999-00 Topps Gallery Player's Private Issue #39 Jim Jackson
p2595
sg11
I250
sg12
VTopps Gallery Player's Private Issue
p2596
sg14
(lp2597
Vhttp://www.beckett.com/basketball/1999-00/topps-gallery-players-private-issue/39-jim-jackson-3190833
p2598
asg17
g18
sg19
(lp2599
Vhttp://img.beckett.com/images/no-image.jpg
p2600
asg22
V#39
p2601
sg24
V1999-00
p2602
sg26
g27
sg28
(lp2603
VJim Jackson
p2604
assbag1
(g2
g3
Ntp2605
Rp2606
(dp2607
g7
(dp2608
g9
V1999-00 Topps Gallery Player's Private Issue #65 Isaiah Rider
p2609
sg11
I250
sg12
VTopps Gallery Player's Private Issue
p2610
sg14
(lp2611
Vhttp://www.beckett.com/basketball/1999-00/topps-gallery-players-private-issue/65-isaiah-rider-3190859
p2612
asg17
g18
sg19
(lp2613
Vhttp://img.beckett.com/images/no-image.jpg
p2614
asg22
V#65
p2615
sg24
V1999-00
p2616
sg26
g27
sg28
(lp2617
VIsaiah Rider
p2618
assbag1
(g2
g3
Ntp2619
Rp2620
(dp2621
g7
(dp2622
g9
V1999-00 Topps Gallery Player's Private Issue #82 Dikembe Mutombo
p2623
sg11
I250
sg12
VTopps Gallery Player's Private Issue
p2624
sg14
(lp2625
Vhttp://www.beckett.com/basketball/1999-00/topps-gallery-players-private-issue/82-dikembe-mutombo-3190876
p2626
asg17
g18
sg19
(lp2627
Vhttp://img.beckett.com/images/no-image.jpg
p2628
asg22
V#82
p2629
sg24
V1999-00
p2630
sg26
g27
sg28
(lp2631
VDikembe Mutombo
p2632
assbag1
(g2
g3
Ntp2633
Rp2634
(dp2635
g7
(dp2636
g9
V1999-00 Topps Gallery Player's Private Issue #135 Jason Terry
p2637
sg11
I250
sg12
VTopps Gallery Player's Private Issue
p2638
sg14
(lp2639
Vhttp://www.beckett.com/basketball/1999-00/topps-gallery-players-private-issue/135-jason-terry-3190929
p2640
asg17
g18
sg19
(lp2641
Vhttp://img.beckett.com/images/items_stock/185226/3190784/3190929/front.jpg
p2642
asg22
V#135
p2643
sg24
V1999-00
p2644
sg26
g27
sg28
(lp2645
VJason Terry
p2646
assbag1
(g2
g3
Ntp2647
Rp2648
(dp2649
g7
(dp2650
g9
V1999-00 Topps Gallery Player's Private Issue #140 Cal Bowdler
p2651
sg11
I250
sg12
VTopps Gallery Player's Private Issue
p2652
sg14
(lp2653
Vhttp://www.beckett.com/basketball/1999-00/topps-gallery-players-private-issue/140-cal-bowdler-3190934
p2654
asg17
g18
sg19
(lp2655
Vhttp://img.beckett.com/images/items_stock/185226/3190784/3190934/front.jpg
p2656
asg22
V#140
p2657
sg24
V1999-00
p2658
sg26
g27
sg28
(lp2659
VCal Bowdler
p2660
assbag1
(g2
g3
Ntp2661
Rp2662
(dp2663
g7
(dp2664
g9
V1999-00 Topps Gallery Printing Plates Black #39 Jim Jackson
p2665
sg11
I1
sg12
VTopps Gallery Printing Plates Black
p2666
sg14
(lp2667
Vhttp://www.beckett.com/basketball/1999-00/topps-gallery-printing-plates-black/39-jim-jackson-3188232
p2668
asg17
g18
sg19
(lp2669
Vhttp://img.beckett.com/images/no-image.jpg
p2670
asg22
V#39
p2671
sg24
V1999-00
p2672
sg26
g27
sg28
(lp2673
VJim Jackson
p2674
assbag1
(g2
g3
Ntp2675
Rp2676
(dp2677
g7
(dp2678
g9
V1999-00 Topps Gallery Printing Plates Black #65 Isaiah Rider
p2679
sg11
I1
sg12
VTopps Gallery Printing Plates Black
p2680
sg14
(lp2681
Vhttp://www.beckett.com/basketball/1999-00/topps-gallery-printing-plates-black/65-isaiah-rider-3188258
p2682
asg17
g18
sg19
(lp2683
Vhttp://img.beckett.com/images/no-image.jpg
p2684
asg22
V#65
p2685
sg24
V1999-00
p2686
sg26
g27
sg28
(lp2687
VIsaiah Rider
p2688
assbag1
(g2
g3
Ntp2689
Rp2690
(dp2691
g7
(dp2692
g9
V1999-00 Topps Gold Label Class 1 One to One #37 Dikembe Mutombo
p2693
sg11
I1
sg12
VTopps Gold Label Class 1 One to One
p2694
sg14
(lp2695
Vhttp://www.beckett.com/basketball/1999-00/topps-gold-label-class-1-one-to-one/37-dikembe-mutombo-3188755
p2696
asg17
g18
sg19
(lp2697
Vhttp://img.beckett.com/images/no-image.jpg
p2698
asg22
V#37
p2699
sg24
V1999-00
p2700
sg26
g27
sg28
(lp2701
VDikembe Mutombo
p2702
assbag1
(g2
g3
Ntp2703
Rp2704
(dp2705
g7
(dp2706
g9
V1999-00 Topps Gold Label Class 1 One to One #48 Alan Henderson
p2707
sg11
I1
sg12
VTopps Gold Label Class 1 One to One
p2708
sg14
(lp2709
Vhttp://www.beckett.com/basketball/1999-00/topps-gold-label-class-1-one-to-one/48-alan-henderson-3188766
p2710
asg17
g18
sg19
(lp2711
Vhttp://img.beckett.com/images/no-image.jpg
p2712
asg22
V#48
p2713
sg24
V1999-00
p2714
sg26
g27
sg28
(lp2715
VAlan Henderson
p2716
assbag1
(g2
g3
Ntp2717
Rp2718
(dp2719
g7
(dp2720
g9
V1999-00 Topps Gold Label Class 1 One to One #95 Jason Terry
p2721
sg11
I1
sg12
VTopps Gold Label Class 1 One to One
p2722
sg14
(lp2723
Vhttp://www.beckett.com/basketball/1999-00/topps-gold-label-class-1-one-to-one/95-jason-terry-3188813
p2724
asg17
g18
sg19
(lp2725
Vhttp://img.beckett.com/images/no-image.jpg
p2726
asg22
V#95
p2727
sg24
V1999-00
p2728
sg26
g27
sg28
(lp2729
VJason Terry
p2730
assbag1
(g2
g3
Ntp2731
Rp2732
(dp2733
g7
(dp2734
g9
V1999-00 Topps Gold Label Class 1 One to One #100 Cal Bowdler
p2735
sg11
I1
sg12
VTopps Gold Label Class 1 One to One
p2736
sg14
(lp2737
Vhttp://www.beckett.com/basketball/1999-00/topps-gold-label-class-1-one-to-one/100-cal-bowdler-3188818
p2738
asg17
g18
sg19
(lp2739
Vhttp://img.beckett.com/images/no-image.jpg
p2740
asg22
V#100
p2741
sg24
V1999-00
p2742
sg26
g27
sg28
(lp2743
VCal Bowdler
p2744
assbag1
(g2
g3
Ntp2745
Rp2746
(dp2747
g7
(dp2748
g9
V1999-00 Topps Gold Label Class 1 Red Label #37 Dikembe Mutombo
p2749
sg11
I100
sg12
VTopps Gold Label Class 1 Red Label
p2750
sg14
(lp2751
Vhttp://www.beckett.com/basketball/1999-00/topps-gold-label-class-1-red-label/37-dikembe-mutombo-3188865
p2752
asg17
g18
sg19
(lp2753
Vhttp://img.beckett.com/images/no-image.jpg
p2754
asg22
V#37
p2755
sg24
V1999-00
p2756
sg26
g27
sg28
(lp2757
VDikembe Mutombo
p2758
assbag1
(g2
g3
Ntp2759
Rp2760
(dp2761
g7
(dp2762
g9
V1999-00 Topps Gold Label Class 1 Red Label #48 Alan Henderson
p2763
sg11
I100
sg12
VTopps Gold Label Class 1 Red Label
p2764
sg14
(lp2765
Vhttp://www.beckett.com/basketball/1999-00/topps-gold-label-class-1-red-label/48-alan-henderson-3188876
p2766
asg17
g18
sg19
(lp2767
Vhttp://img.beckett.com/images/no-image.jpg
p2768
asg22
V#48
p2769
sg24
V1999-00
p2770
sg26
g27
sg28
(lp2771
VAlan Henderson
p2772
assbag1
(g2
g3
Ntp2773
Rp2774
(dp2775
g7
(dp2776
g9
V1999-00 Topps Gold Label Class 1 Red Label #95 Jason Terry
p2777
sg11
I100
sg12
VTopps Gold Label Class 1 Red Label
p2778
sg14
(lp2779
Vhttp://www.beckett.com/basketball/1999-00/topps-gold-label-class-1-red-label/95-jason-terry-3188923
p2780
asg17
g18
sg19
(lp2781
Vhttp://img.beckett.com/images/no-image.jpg
p2782
asg22
V#95
p2783
sg24
V1999-00
p2784
sg26
g27
sg28
(lp2785
VJason Terry
p2786
assbag1
(g2
g3
Ntp2787
Rp2788
(dp2789
g7
(dp2790
g9
V1999-00 Topps Gold Label Class 1 Red Label #100 Cal Bowdler
p2791
sg11
I100
sg12
VTopps Gold Label Class 1 Red Label
p2792
sg14
(lp2793
Vhttp://www.beckett.com/basketball/1999-00/topps-gold-label-class-1-red-label/100-cal-bowdler-3188928
p2794
asg17
g18
sg19
(lp2795
Vhttp://img.beckett.com/images/no-image.jpg
p2796
asg22
V#100
p2797
sg24
V1999-00
p2798
sg26
g27
sg28
(lp2799
VCal Bowdler
p2800
assbag1
(g2
g3
Ntp2801
Rp2802
(dp2803
g7
(dp2804
g9
V1999-00 Topps Gold Label Class 2 One to One #37 Dikembe Mutombo
p2805
sg11
I1
sg12
VTopps Gold Label Class 2 One to One
p2806
sg14
(lp2807
Vhttp://www.beckett.com/basketball/1999-00/topps-gold-label-class-2-one-to-one/37-dikembe-mutombo-3189201
p2808
asg17
g18
sg19
(lp2809
Vhttp://img.beckett.com/images/no-image.jpg
p2810
asg22
V#37
p2811
sg24
V1999-00
p2812
sg26
g27
sg28
(lp2813
VDikembe Mutombo
p2814
assbag1
(g2
g3
Ntp2815
Rp2816
(dp2817
g7
(dp2818
g9
V1999-00 Topps Gold Label Class 2 One to One #48 Alan Henderson
p2819
sg11
I1
sg12
VTopps Gold Label Class 2 One to One
p2820
sg14
(lp2821
Vhttp://www.beckett.com/basketball/1999-00/topps-gold-label-class-2-one-to-one/48-alan-henderson-3189212
p2822
asg17
g18
sg19
(lp2823
Vhttp://img.beckett.com/images/no-image.jpg
p2824
asg22
V#48
p2825
sg24
V1999-00
p2826
sg26
g27
sg28
(lp2827
VAlan Henderson
p2828
assbag1
(g2
g3
Ntp2829
Rp2830
(dp2831
g7
(dp2832
g9
V1999-00 Topps Gold Label Class 2 One to One #95 Jason Terry
p2833
sg11
I1
sg12
VTopps Gold Label Class 2 One to One
p2834
sg14
(lp2835
Vhttp://www.beckett.com/basketball/1999-00/topps-gold-label-class-2-one-to-one/95-jason-terry-3189259
p2836
asg17
g18
sg19
(lp2837
Vhttp://img.beckett.com/images/no-image.jpg
p2838
asg22
V#95
p2839
sg24
V1999-00
p2840
sg26
g27
sg28
(lp2841
VJason Terry
p2842
assbag1
(g2
g3
Ntp2843
Rp2844
(dp2845
g7
(dp2846
g9
V1999-00 Topps Gold Label Class 2 One to One #100 Cal Bowdler
p2847
sg11
I1
sg12
VTopps Gold Label Class 2 One to One
p2848
sg14
(lp2849
Vhttp://www.beckett.com/basketball/1999-00/topps-gold-label-class-2-one-to-one/100-cal-bowdler-3189264
p2850
asg17
g18
sg19
(lp2851
Vhttp://img.beckett.com/images/no-image.jpg
p2852
asg22
V#100
p2853
sg24
V1999-00
p2854
sg26
g27
sg28
(lp2855
VCal Bowdler
p2856
assbag1
(g2
g3
Ntp2857
Rp2858
(dp2859
g7
(dp2860
g9
V1999-00 Topps Gold Label Class 2 Red Label #37 Dikembe Mutombo
p2861
sg11
I50
sg12
VTopps Gold Label Class 2 Red Label
p2862
sg14
(lp2863
Vhttp://www.beckett.com/basketball/1999-00/topps-gold-label-class-2-red-label/37-dikembe-mutombo-3189311
p2864
asg17
g18
sg19
(lp2865
Vhttp://img.beckett.com/images/no-image.jpg
p2866
asg22
V#37
p2867
sg24
V1999-00
p2868
sg26
g27
sg28
(lp2869
VDikembe Mutombo
p2870
assbag1
(g2
g3
Ntp2871
Rp2872
(dp2873
g7
(dp2874
g9
V1999-00 Topps Gold Label Class 2 Red Label #48 Alan Henderson
p2875
sg11
I50
sg12
VTopps Gold Label Class 2 Red Label
p2876
sg14
(lp2877
Vhttp://www.beckett.com/basketball/1999-00/topps-gold-label-class-2-red-label/48-alan-henderson-3189322
p2878
asg17
g18
sg19
(lp2879
Vhttp://img.beckett.com/images/no-image.jpg
p2880
asg22
V#48
p2881
sg24
V1999-00
p2882
sg26
g27
sg28
(lp2883
VAlan Henderson
p2884
assbag1
(g2
g3
Ntp2885
Rp2886
(dp2887
g7
(dp2888
g9
V1999-00 Topps Gold Label Class 2 Red Label #95 Jason Terry
p2889
sg11
I50
sg12
VTopps Gold Label Class 2 Red Label
p2890
sg14
(lp2891
Vhttp://www.beckett.com/basketball/1999-00/topps-gold-label-class-2-red-label/95-jason-terry-3189369
p2892
asg17
g18
sg19
(lp2893
Vhttp://img.beckett.com/images/no-image.jpg
p2894
asg22
V#95
p2895
sg24
V1999-00
p2896
sg26
g27
sg28
(lp2897
VJason Terry
p2898
assbag1
(g2
g3
Ntp2899
Rp2900
(dp2901
g7
(dp2902
g9
V1999-00 Topps Gold Label Class 2 Red Label #100 Cal Bowdler
p2903
sg11
I50
sg12
VTopps Gold Label Class 2 Red Label
p2904
sg14
(lp2905
Vhttp://www.beckett.com/basketball/1999-00/topps-gold-label-class-2-red-label/100-cal-bowdler-3189374
p2906
asg17
g18
sg19
(lp2907
Vhttp://img.beckett.com/images/no-image.jpg
p2908
asg22
V#100
p2909
sg24
V1999-00
p2910
sg26
g27
sg28
(lp2911
VCal Bowdler
p2912
assbag1
(g2
g3
Ntp2913
Rp2914
(dp2915
g7
(dp2916
g9
V1999-00 Topps Gold Label Class 3 One to One #37 Dikembe Mutombo
p2917
sg11
I1
sg12
VTopps Gold Label Class 3 One to One
p2918
sg14
(lp2919
Vhttp://www.beckett.com/basketball/1999-00/topps-gold-label-class-3-one-to-one/37-dikembe-mutombo-3189647
p2920
asg17
g18
sg19
(lp2921
Vhttp://img.beckett.com/images/no-image.jpg
p2922
asg22
V#37
p2923
sg24
V1999-00
p2924
sg26
g27
sg28
(lp2925
VDikembe Mutombo
p2926
assbag1
(g2
g3
Ntp2927
Rp2928
(dp2929
g7
(dp2930
g9
V1999-00 Topps Gold Label Class 3 One to One #48 Alan Henderson
p2931
sg11
I1
sg12
VTopps Gold Label Class 3 One to One
p2932
sg14
(lp2933
Vhttp://www.beckett.com/basketball/1999-00/topps-gold-label-class-3-one-to-one/48-alan-henderson-3189658
p2934
asg17
g18
sg19
(lp2935
Vhttp://img.beckett.com/images/no-image.jpg
p2936
asg22
V#48
p2937
sg24
V1999-00
p2938
sg26
g27
sg28
(lp2939
VAlan Henderson
p2940
assbag1
(g2
g3
Ntp2941
Rp2942
(dp2943
g7
(dp2944
g9
V1999-00 Topps Gold Label Class 3 One to One #95 Jason Terry
p2945
sg11
I1
sg12
VTopps Gold Label Class 3 One to One
p2946
sg14
(lp2947
Vhttp://www.beckett.com/basketball/1999-00/topps-gold-label-class-3-one-to-one/95-jason-terry-3189705
p2948
asg17
g18
sg19
(lp2949
Vhttp://img.beckett.com/images/no-image.jpg
p2950
asg22
V#95
p2951
sg24
V1999-00
p2952
sg26
g27
sg28
(lp2953
VJason Terry
p2954
assbag1
(g2
g3
Ntp2955
Rp2956
(dp2957
g7
(dp2958
g9
V1999-00 Topps Gold Label Class 3 One to One #100 Cal Bowdler
p2959
sg11
I1
sg12
VTopps Gold Label Class 3 One to One
p2960
sg14
(lp2961
Vhttp://www.beckett.com/basketball/1999-00/topps-gold-label-class-3-one-to-one/100-cal-bowdler-3189710
p2962
asg17
g18
sg19
(lp2963
Vhttp://img.beckett.com/images/no-image.jpg
p2964
asg22
V#100
p2965
sg24
V1999-00
p2966
sg26
g27
sg28
(lp2967
VCal Bowdler
p2968
assbag1
(g2
g3
Ntp2969
Rp2970
(dp2971
g7
(dp2972
g9
V1999-00 Topps Gold Label Class 3 Red Label #37 Dikembe Mutombo
p2973
sg11
I25
sg12
VTopps Gold Label Class 3 Red Label
p2974
sg14
(lp2975
Vhttp://www.beckett.com/basketball/1999-00/topps-gold-label-class-3-red-label/37-dikembe-mutombo-3187458
p2976
asg17
g18
sg19
(lp2977
Vhttp://img.beckett.com/images/no-image.jpg
p2978
asg22
V#37
p2979
sg24
V1999-00
p2980
sg26
g27
sg28
(lp2981
VDikembe Mutombo
p2982
assbag1
(g2
g3
Ntp2983
Rp2984
(dp2985
g7
(dp2986
g9
V1999-00 Topps Gold Label Class 3 Red Label #48 Alan Henderson
p2987
sg11
I25
sg12
VTopps Gold Label Class 3 Red Label
p2988
sg14
(lp2989
Vhttp://www.beckett.com/basketball/1999-00/topps-gold-label-class-3-red-label/48-alan-henderson-3187469
p2990
asg17
g18
sg19
(lp2991
Vhttp://img.beckett.com/images/no-image.jpg
p2992
asg22
V#48
p2993
sg24
V1999-00
p2994
sg26
g27
sg28
(lp2995
VAlan Henderson
p2996
assbag1
(g2
g3
Ntp2997
Rp2998
(dp2999
g7
(dp3000
g9
V1999-00 Topps Gold Label Class 3 Red Label #95 Jason Terry
p3001
sg11
I25
sg12
VTopps Gold Label Class 3 Red Label
p3002
sg14
(lp3003
Vhttp://www.beckett.com/basketball/1999-00/topps-gold-label-class-3-red-label/95-jason-terry-3187516
p3004
asg17
g18
sg19
(lp3005
Vhttp://img.beckett.com/images/no-image.jpg
p3006
asg22
V#95
p3007
sg24
V1999-00
p3008
sg26
g27
sg28
(lp3009
VJason Terry
p3010
assbag1
(g2
g3
Ntp3011
Rp3012
(dp3013
g7
(dp3014
g9
V1999-00 Topps Gold Label Class 3 Red Label #100 Cal Bowdler
p3015
sg11
I25
sg12
VTopps Gold Label Class 3 Red Label
p3016
sg14
(lp3017
Vhttp://www.beckett.com/basketball/1999-00/topps-gold-label-class-3-red-label/100-cal-bowdler-3187521
p3018
asg17
g18
sg19
(lp3019
Vhttp://img.beckett.com/images/no-image.jpg
p3020
asg22
V#100
p3021
sg24
V1999-00
p3022
sg26
g27
sg28
(lp3023
VCal Bowdler
p3024
assbag1
(g2
g3
Ntp3025
Rp3026
(dp3027
g7
(dp3028
g9
V1999-00 UD Ionix Reciprocal #70 Jason Terry
p3029
sg11
I100
sg12
VUD Ionix Reciprocal
p3030
sg14
(lp3031
Vhttp://www.beckett.com/basketball/1999-00/ud-ionix-reciprocal/70-jason-terry-3188101
p3032
asg17
g18
sg19
(lp3033
Vhttp://img.beckett.com/images/no-image.jpg
p3034
asg22
V#70
p3035
sg24
V1999-00
p3036
sg26
g27
sg28
(lp3037
VJason Terry
p3038
assbag1
(g2
g3
Ntp3039
Rp3040
(dp3041
g7
(dp3042
g9
V1999-00 UD Ionix Reciprocal #76 Cal Bowdler
p3043
sg11
I100
sg12
VUD Ionix Reciprocal
p3044
sg14
(lp3045
Vhttp://www.beckett.com/basketball/1999-00/ud-ionix-reciprocal/76-cal-bowdler-3188107
p3046
asg17
g18
sg19
(lp3047
Vhttp://img.beckett.com/images/no-image.jpg
p3048
asg22
V#76
p3049
sg24
V1999-00
p3050
sg26
g27
sg28
(lp3051
VCal Bowdler
p3052
assbag1
(g2
g3
Ntp3053
Rp3054
(dp3055
g7
(dp3056
g9
V1999-00 UD Ionix Reciprocal #79 Dion Glover
p3057
sg11
I100
sg12
VUD Ionix Reciprocal
p3058
sg14
(lp3059
Vhttp://www.beckett.com/basketball/1999-00/ud-ionix-reciprocal/79-dion-glover-3188110
p3060
asg17
g18
sg19
(lp3061
Vhttp://img.beckett.com/images/no-image.jpg
p3062
asg22
V#79
p3063
sg24
V1999-00
p3064
sg26
g27
sg28
(lp3065
VDion Glover
p3066
assbag1
(g2
g3
Ntp3067
Rp3068
(dp3069
g7
(dp3070
g9
V1999-00 Ultimate Victory 1 of 1 #1 Dikembe Mutombo
p3071
sg11
I1
sg12
VUltimate Victory 1 of 1
p3072
sg14
(lp3073
Vhttp://www.beckett.com/basketball/1999-00/ultimate-victory-1-of-1/1-dikembe-mutombo-3180365
p3074
asg17
g18
sg19
(lp3075
Vhttp://img.beckett.com/images/no-image.jpg
p3076
asg22
V#1
p3077
sg24
V1999-00
p3078
sg26
g27
sg28
(lp3079
VDikembe Mutombo
p3080
assbag1
(g2
g3
Ntp3081
Rp3082
(dp3083
g7
(dp3084
g9
V1999-00 Ultimate Victory 1 of 1 #2 Alan Henderson
p3085
sg11
I1
sg12
VUltimate Victory 1 of 1
p3086
sg14
(lp3087
Vhttp://www.beckett.com/basketball/1999-00/ultimate-victory-1-of-1/2-alan-henderson-3180366
p3088
asg17
g18
sg19
(lp3089
Vhttp://img.beckett.com/images/no-image.jpg
p3090
asg22
V#2
p3091
sg24
V1999-00
p3092
sg26
g27
sg28
(lp3093
VAlan Henderson
p3094
assbag1
(g2
g3
Ntp3095
Rp3096
(dp3097
g7
(dp3098
g9
V1999-00 Ultimate Victory 1 of 1 #3 LaPhonso Ellis
p3099
sg11
I1
sg12
VUltimate Victory 1 of 1
p3100
sg14
(lp3101
Vhttp://www.beckett.com/basketball/1999-00/ultimate-victory-1-of-1/3-laphonso-ellis-3180367
p3102
asg17
g18
sg19
(lp3103
Vhttp://img.beckett.com/images/no-image.jpg
p3104
asg22
V#3
p3105
sg24
V1999-00
p3106
sg26
g27
sg28
(lp3107
VLaPhonso Ellis
p3108
assbag1
(g2
g3
Ntp3109
Rp3110
(dp3111
g7
(dp3112
g9
V1999-00 Ultimate Victory 1 of 1 #130 Jason Terry
p3113
sg11
I1
sg12
VUltimate Victory 1 of 1
p3114
sg14
(lp3115
Vhttp://www.beckett.com/basketball/1999-00/ultimate-victory-1-of-1/130-jason-terry-3180494
p3116
asg17
g18
sg19
(lp3117
Vhttp://img.beckett.com/images/no-image.jpg
p3118
asg22
V#130
p3119
sg24
V1999-00
p3120
sg26
g27
sg28
(lp3121
VJason Terry
p3122
assbag1
(g2
g3
Ntp3123
Rp3124
(dp3125
g7
(dp3126
g9
V1999-00 Ultimate Victory 1 of 1 #136 Cal Bowdler
p3127
sg11
I1
sg12
VUltimate Victory 1 of 1
p3128
sg14
(lp3129
Vhttp://www.beckett.com/basketball/1999-00/ultimate-victory-1-of-1/136-cal-bowdler-3180500
p3130
asg17
g18
sg19
(lp3131
Vhttp://img.beckett.com/images/no-image.jpg
p3132
asg22
V#136
p3133
sg24
V1999-00
p3134
sg26
g27
sg28
(lp3135
VCal Bowdler
p3136
assbag1
(g2
g3
Ntp3137
Rp3138
(dp3139
g7
(dp3140
g9
V1999-00 Ultimate Victory 1 of 1 #139 Dion Glover
p3141
sg11
I1
sg12
VUltimate Victory 1 of 1
p3142
sg14
(lp3143
Vhttp://www.beckett.com/basketball/1999-00/ultimate-victory-1-of-1/139-dion-glover-3180503
p3144
asg17
g18
sg19
(lp3145
Vhttp://img.beckett.com/images/no-image.jpg
p3146
asg22
V#139
p3147
sg24
V1999-00
p3148
sg26
g27
sg28
(lp3149
VDion Glover
p3150
assbag1
(g2
g3
Ntp3151
Rp3152
(dp3153
g7
(dp3154
g9
V1999-00 Ultimate Victory Parallel 100 #1 Dikembe Mutombo
p3155
sg11
I100
sg12
VUltimate Victory Parallel 100
p3156
sg14
(lp3157
Vhttp://www.beckett.com/basketball/1999-00/ultimate-victory-parallel-100/1-dikembe-mutombo-3180687
p3158
asg17
g18
sg19
(lp3159
Vhttp://img.beckett.com/images/no-image.jpg
p3160
asg22
V#1
p3161
sg24
V1999-00
p3162
sg26
g27
sg28
(lp3163
VDikembe Mutombo
p3164
assbag1
(g2
g3
Ntp3165
Rp3166
(dp3167
g7
(dp3168
g9
V1999-00 Ultimate Victory Parallel 100 #2 Alan Henderson
p3169
sg11
I100
sg12
VUltimate Victory Parallel 100
p3170
sg14
(lp3171
Vhttp://www.beckett.com/basketball/1999-00/ultimate-victory-parallel-100/2-alan-henderson-3180688
p3172
asg17
g18
sg19
(lp3173
Vhttp://img.beckett.com/images/no-image.jpg
p3174
asg22
V#2
p3175
sg24
V1999-00
p3176
sg26
g27
sg28
(lp3177
VAlan Henderson
p3178
assbag1
(g2
g3
Ntp3179
Rp3180
(dp3181
g7
(dp3182
g9
V1999-00 Ultimate Victory Parallel 100 #3 LaPhonso Ellis
p3183
sg11
I100
sg12
VUltimate Victory Parallel 100
p3184
sg14
(lp3185
Vhttp://www.beckett.com/basketball/1999-00/ultimate-victory-parallel-100/3-laphonso-ellis-3180689
p3186
asg17
g18
sg19
(lp3187
Vhttp://img.beckett.com/images/no-image.jpg
p3188
asg22
V#3
p3189
sg24
V1999-00
p3190
sg26
g27
sg28
(lp3191
VLaPhonso Ellis
p3192
assbag1
(g2
g3
Ntp3193
Rp3194
(dp3195
g7
(dp3196
g9
V1999-00 Ultimate Victory Parallel 100 #130 Jason Terry
p3197
sg11
I100
sg12
VUltimate Victory Parallel 100
p3198
sg14
(lp3199
Vhttp://www.beckett.com/basketball/1999-00/ultimate-victory-parallel-100/130-jason-terry-3180816
p3200
asg17
g18
sg19
(lp3201
Vhttp://img.beckett.com/images/no-image.jpg
p3202
asg22
V#130
p3203
sg24
V1999-00
p3204
sg26
g27
sg28
(lp3205
VJason Terry
p3206
assbag1
(g2
g3
Ntp3207
Rp3208
(dp3209
g7
(dp3210
g9
V1999-00 Ultimate Victory Parallel 100 #136 Cal Bowdler
p3211
sg11
I100
sg12
VUltimate Victory Parallel 100
p3212
sg14
(lp3213
Vhttp://www.beckett.com/basketball/1999-00/ultimate-victory-parallel-100/136-cal-bowdler-3180822
p3214
asg17
g18
sg19
(lp3215
Vhttp://img.beckett.com/images/no-image.jpg
p3216
asg22
V#136
p3217
sg24
V1999-00
p3218
sg26
g27
sg28
(lp3219
VCal Bowdler
p3220
assbag1
(g2
g3
Ntp3221
Rp3222
(dp3223
g7
(dp3224
g9
V1999-00 Ultimate Victory Parallel 100 #139 Dion Glover
p3225
sg11
I100
sg12
VUltimate Victory Parallel 100
p3226
sg14
(lp3227
Vhttp://www.beckett.com/basketball/1999-00/ultimate-victory-parallel-100/139-dion-glover-3180825
p3228
asg17
g18
sg19
(lp3229
Vhttp://img.beckett.com/images/no-image.jpg
p3230
asg22
V#139
p3231
sg24
V1999-00
p3232
sg26
g27
sg28
(lp3233
VDion Glover
p3234
assbag1
(g2
g3
Ntp3235
Rp3236
(dp3237
g7
(dp3238
g9
V1999-00 Ultra Masterpieces #23 Isaiah Rider
p3239
sg11
I1
sg12
VUltra Masterpieces
p3240
sg14
(lp3241
Vhttp://www.beckett.com/basketball/1999-00/ultra-masterpieces/23-isaiah-rider-3206014
p3242
asg17
g18
sg19
(lp3243
Vhttp://img.beckett.com/images/no-image.jpg
p3244
asg22
V#23
p3245
sg24
V1999-00
p3246
sg26
g27
sg28
(lp3247
VIsaiah Rider
p3248
assbag1
(g2
g3
Ntp3249
Rp3250
(dp3251
g7
(dp3252
g9
V1999-00 Ultra Masterpieces #84 Dikembe Mutombo
p3253
sg11
I1
sg12
VUltra Masterpieces
p3254
sg14
(lp3255
Vhttp://www.beckett.com/basketball/1999-00/ultra-masterpieces/84-dikembe-mutombo-3206075
p3256
asg17
g18
sg19
(lp3257
Vhttp://img.beckett.com/images/no-image.jpg
p3258
asg22
V#84
p3259
sg24
V1999-00
p3260
sg26
g27
sg28
(lp3261
VDikembe Mutombo
p3262
assbag1
(g2
g3
Ntp3263
Rp3264
(dp3265
g7
(dp3266
g9
V1999-00 Ultra Masterpieces #133 Dion Glover
p3267
sg11
I1
sg12
VUltra Masterpieces
p3268
sg14
(lp3269
Vhttp://www.beckett.com/basketball/1999-00/ultra-masterpieces/133-dion-glover-3206124
p3270
asg17
g18
sg19
(lp3271
Vhttp://img.beckett.com/images/no-image.jpg
p3272
asg22
V#133
p3273
sg24
V1999-00
p3274
sg26
g27
sg28
(lp3275
VDion Glover
p3276
assbag1
(g2
g3
Ntp3277
Rp3278
(dp3279
g7
(dp3280
g9
V1999-00 Ultra Masterpieces #137 Cal Bowdler
p3281
sg11
I1
sg12
VUltra Masterpieces
p3282
sg14
(lp3283
Vhttp://www.beckett.com/basketball/1999-00/ultra-masterpieces/137-cal-bowdler-3206128
p3284
asg17
g18
sg19
(lp3285
Vhttp://img.beckett.com/images/no-image.jpg
p3286
asg22
V#137
p3287
sg24
V1999-00
p3288
sg26
g27
sg28
(lp3289
VCal Bowdler
p3290
assbag1
(g2
g3
Ntp3291
Rp3292
(dp3293
g7
(dp3294
g9
V1999-00 Ultra Masterpieces #142 Jason Terry
p3295
sg11
I1
sg12
VUltra Masterpieces
p3296
sg14
(lp3297
Vhttp://www.beckett.com/basketball/1999-00/ultra-masterpieces/142-jason-terry-3206133
p3298
asg17
g18
sg19
(lp3299
Vhttp://img.beckett.com/images/no-image.jpg
p3300
asg22
V#142
p3301
sg24
V1999-00
p3302
sg26
g27
sg28
(lp3303
VJason Terry
p3304
assbag1
(g2
g3
Ntp3305
Rp3306
(dp3307
g7
(dp3308
g9
V1999-00 Ultra Platinum Medallion #23 Isaiah Rider
p3309
sg11
I50
sg12
VUltra Platinum Medallion
p3310
sg14
(lp3311
Vhttp://www.beckett.com/basketball/1999-00/ultra-platinum-medallion/23-isaiah-rider-3185829
p3312
asg17
g18
sg19
(lp3313
Vhttp://img.beckett.com/images/no-image.jpg
p3314
asg22
V#23
p3315
sg24
V1999-00
p3316
sg26
g27
sg28
(lp3317
VIsaiah Rider
p3318
assbag1
(g2
g3
Ntp3319
Rp3320
(dp3321
g7
(dp3322
g9
V1999-00 Ultra Platinum Medallion #84 Dikembe Mutombo
p3323
sg11
I50
sg12
VUltra Platinum Medallion
p3324
sg14
(lp3325
Vhttp://www.beckett.com/basketball/1999-00/ultra-platinum-medallion/84-dikembe-mutombo-3185890
p3326
asg17
g18
sg19
(lp3327
Vhttp://img.beckett.com/images/no-image.jpg
p3328
asg22
V#84
p3329
sg24
V1999-00
p3330
sg26
g27
sg28
(lp3331
VDikembe Mutombo
p3332
assbag1
(g2
g3
Ntp3333
Rp3334
(dp3335
g7
(dp3336
g9
V1999-00 Ultra Platinum Medallion #133 Dion Glover
p3337
sg11
I25
sg12
VUltra Platinum Medallion
p3338
sg14
(lp3339
Vhttp://www.beckett.com/basketball/1999-00/ultra-platinum-medallion/133-dion-glover-3185939
p3340
asg17
g18
sg19
(lp3341
Vhttp://img.beckett.com/images/no-image.jpg
p3342
asg22
V#133
p3343
sg24
V1999-00
p3344
sg26
g27
sg28
(lp3345
VDion Glover
p3346
assbag1
(g2
g3
Ntp3347
Rp3348
(dp3349
g7
(dp3350
g9
V1999-00 Ultra Platinum Medallion #137 Cal Bowdler
p3351
sg11
I25
sg12
VUltra Platinum Medallion
p3352
sg14
(lp3353
Vhttp://www.beckett.com/basketball/1999-00/ultra-platinum-medallion/137-cal-bowdler-3185943
p3354
asg17
g18
sg19
(lp3355
Vhttp://img.beckett.com/images/no-image.jpg
p3356
asg22
V#137
p3357
sg24
V1999-00
p3358
sg26
g27
sg28
(lp3359
VCal Bowdler
p3360
assbag1
(g2
g3
Ntp3361
Rp3362
(dp3363
g7
(dp3364
g9
V1999-00 Ultra Platinum Medallion #142 Jason Terry
p3365
sg11
I25
sg12
VUltra Platinum Medallion
p3366
sg14
(lp3367
Vhttp://www.beckett.com/basketball/1999-00/ultra-platinum-medallion/142-jason-terry-3185948
p3368
asg17
g18
sg19
(lp3369
Vhttp://img.beckett.com/images/no-image.jpg
p3370
asg22
V#142
p3371
sg24
V1999-00
p3372
sg26
g27
sg28
(lp3373
VJason Terry
p3374
assbag1
(g2
g3
Ntp3375
Rp3376
(dp3377
g7
(dp3378
g9
V1999-00 Upper Deck Bronze #1 Roshown McLeod
p3379
sg11
I100
sg12
VUpper Deck Bronze
p3380
sg14
(lp3381
Vhttp://www.beckett.com/basketball/1999-00/upper-deck-bronze/1-roshown-mcleod-3186528
p3382
asg17
g18
sg19
(lp3383
Vhttp://img.beckett.com/images/no-image.jpg
p3384
asg22
V#1
p3385
sg24
V1999-00
p3386
sg26
g27
sg28
(lp3387
VRoshown McLeod
p3388
assbag1
(g2
g3
Ntp3389
Rp3390
(dp3391
g7
(dp3392
g9
V1999-00 Upper Deck Bronze #2 Dikembe Mutombo
p3393
sg11
I100
sg12
VUpper Deck Bronze
p3394
sg14
(lp3395
Vhttp://www.beckett.com/basketball/1999-00/upper-deck-bronze/2-dikembe-mutombo-3186529
p3396
asg17
g18
sg19
(lp3397
Vhttp://img.beckett.com/images/no-image.jpg
p3398
asg22
V#2
p3399
sg24
V1999-00
p3400
sg26
g27
sg28
(lp3401
VDikembe Mutombo
p3402
assbag1
(g2
g3
Ntp3403
Rp3404
(dp3405
g7
(dp3406
g9
V1999-00 Upper Deck Bronze #3 Alan Henderson
p3407
sg11
I100
sg12
VUpper Deck Bronze
p3408
sg14
(lp3409
Vhttp://www.beckett.com/basketball/1999-00/upper-deck-bronze/3-alan-henderson-3186530
p3410
asg17
g18
sg19
(lp3411
Vhttp://img.beckett.com/images/items_stock/185226/3186514/3186530/front.jpg
p3412
asg22
V#3
p3413
sg24
V1999-00
p3414
sg26
g27
sg28
(lp3415
VAlan Henderson
p3416
assbag1
(g2
g3
Ntp3417
Rp3418
(dp3419
g7
(dp3420
g9
V1999-00 Upper Deck Bronze #4 LaPhonso Ellis
p3421
sg11
I100
sg12
VUpper Deck Bronze
p3422
sg14
(lp3423
Vhttp://www.beckett.com/basketball/1999-00/upper-deck-bronze/4-laphonso-ellis-3186531
p3424
asg17
g18
sg19
(lp3425
Vhttp://img.beckett.com/images/no-image.jpg
p3426
asg22
V#4
p3427
sg24
V1999-00
p3428
sg26
g27
sg28
(lp3429
VLaPhonso Ellis
p3430
assbag1
(g2
g3
Ntp3431
Rp3432
(dp3433
g7
(dp3434
g9
V1999-00 Upper Deck Bronze #5 Chris Crawford
p3435
sg11
I100
sg12
VUpper Deck Bronze
p3436
sg14
(lp3437
Vhttp://www.beckett.com/basketball/1999-00/upper-deck-bronze/5-chris-crawford-3186532
p3438
asg17
g18
sg19
(lp3439
Vhttp://img.beckett.com/images/no-image.jpg
p3440
asg22
V#5
p3441
sg24
V1999-00
p3442
sg26
g27
sg28
(lp3443
VChris Crawford
p3444
assbag1
(g2
g3
Ntp3445
Rp3446
(dp3447
g7
(dp3448
g9
V1999-00 Upper Deck Bronze #165 Jason Terry
p3449
sg11
I100
sg12
VUpper Deck Bronze
p3450
sg14
(lp3451
Vhttp://www.beckett.com/basketball/1999-00/upper-deck-bronze/165-jason-terry-3186692
p3452
asg17
g18
sg19
(lp3453
Vhttp://img.beckett.com/images/no-image.jpg
p3454
asg22
V#165
p3455
sg24
V1999-00
p3456
sg26
g27
sg28
(lp3457
VJason Terry
p3458
assbag1
(g2
g3
Ntp3459
Rp3460
(dp3461
g7
(dp3462
g9
V1999-00 Upper Deck Bronze #172 Cal Bowdler
p3463
sg11
I100
sg12
VUpper Deck Bronze
p3464
sg14
(lp3465
Vhttp://www.beckett.com/basketball/1999-00/upper-deck-bronze/172-cal-bowdler-3186699
p3466
asg17
g18
sg19
(lp3467
Vhttp://img.beckett.com/images/items_stock/185226/3186514/3186699/front.jpg
p3468
asg22
V#172
p3469
sg24
V1999-00
p3470
sg26
g27
sg28
(lp3471
VCal Bowdler
p3472
assbag1
(g2
g3
Ntp3473
Rp3474
(dp3475
g7
(dp3476
g9
V1999-00 Upper Deck Bronze #177 Dion Glover
p3477
sg11
I100
sg12
VUpper Deck Bronze
p3478
sg14
(lp3479
Vhttp://www.beckett.com/basketball/1999-00/upper-deck-bronze/177-dion-glover-3186704
p3480
asg17
g18
sg19
(lp3481
Vhttp://img.beckett.com/images/no-image.jpg
p3482
asg22
V#177
p3483
sg24
V1999-00
p3484
sg26
g27
sg28
(lp3485
VDion Glover
p3486
assbag1
(g2
g3
Ntp3487
Rp3488
(dp3489
g7
(dp3490
g9
V1999-00 Upper Deck Bronze #181 Jim Jackson
p3491
sg11
I100
sg12
VUpper Deck Bronze
p3492
sg14
(lp3493
Vhttp://www.beckett.com/basketball/1999-00/upper-deck-bronze/181-jim-jackson-3186708
p3494
asg17
g18
sg19
(lp3495
Vhttp://img.beckett.com/images/no-image.jpg
p3496
asg22
V#181
p3497
sg24
V1999-00
p3498
sg26
g27
sg28
(lp3499
VJim Jackson
p3500
assbag1
(g2
g3
Ntp3501
Rp3502
(dp3503
g7
(dp3504
g9
V1999-00 Upper Deck Bronze #182 Isaiah Rider
p3505
sg11
I100
sg12
VUpper Deck Bronze
p3506
sg14
(lp3507
Vhttp://www.beckett.com/basketball/1999-00/upper-deck-bronze/182-isaiah-rider-3186709
p3508
asg17
g18
sg19
(lp3509
Vhttp://img.beckett.com/images/items_stock/185226/3186514/3186709/front.jpg
p3510
asg22
V#182
p3511
sg24
V1999-00
p3512
sg26
g27
sg28
(lp3513
VIsaiah Rider
p3514
assbag1
(g2
g3
Ntp3515
Rp3516
(dp3517
g7
(dp3518
g9
V1999-00 Upper Deck Bronze #183 Lorenzen Wright
p3519
sg11
I100
sg12
VUpper Deck Bronze
p3520
sg14
(lp3521
Vhttp://www.beckett.com/basketball/1999-00/upper-deck-bronze/183-lorenzen-wright-3186710
p3522
asg17
g18
sg19
(lp3523
Vhttp://img.beckett.com/images/items_stock/185226/3186514/3186710/front.jpg
p3524
asg22
V#183
p3525
sg24
V1999-00
p3526
sg26
g27
sg28
(lp3527
VLorenzen Wright
p3528
assbag1
(g2
g3
Ntp3529
Rp3530
(dp3531
g7
(dp3532
g9
V1999-00 Upper Deck Bronze #185 Anthony Johnson
p3533
sg11
I100
sg12
VUpper Deck Bronze
p3534
sg14
(lp3535
Vhttp://www.beckett.com/basketball/1999-00/upper-deck-bronze/185-anthony-johnson-3186712
p3536
asg17
g18
sg19
(lp3537
Vhttp://img.beckett.com/images/no-image.jpg
p3538
asg22
V#185
p3539
sg24
V1999-00
p3540
sg26
g27
sg28
(lp3541
VAnthony Johnson
p3542
assbag1
(g2
g3
Ntp3543
Rp3544
(dp3545
g7
(dp3546
g9
V1999-00 Upper Deck Bronze #325 Jason Terry
p3547
sg11
I100
sg12
VUpper Deck Bronze
p3548
sg14
(lp3549
Vhttp://www.beckett.com/basketball/1999-00/upper-deck-bronze/325-jason-terry-3186852
p3550
asg17
g18
sg19
(lp3551
Vhttp://img.beckett.com/images/items_stock/185226/3186514/3186852/front.jpg
p3552
asg22
V#325
p3553
sg24
V1999-00
p3554
sg26
g27
sg28
(lp3555
VJason Terry
p3556
assbag1
(g2
g3
Ntp3557
Rp3558
(dp3559
g7
(dp3560
g9
V1999-00 Upper Deck Bronze #331 Cal Bowdler
p3561
sg11
I100
sg12
VUpper Deck Bronze
p3562
sg14
(lp3563
Vhttp://www.beckett.com/basketball/1999-00/upper-deck-bronze/331-cal-bowdler-3186858
p3564
asg17
g18
sg19
(lp3565
Vhttp://img.beckett.com/images/no-image.jpg
p3566
asg22
V#331
p3567
sg24
V1999-00
p3568
sg26
g27
sg28
(lp3569
VCal Bowdler
p3570
assbag1
(g2
g3
Ntp3571
Rp3572
(dp3573
g7
(dp3574
g9
V1999-00 Upper Deck Bronze #334 Dion Glover
p3575
sg11
I100
sg12
VUpper Deck Bronze
p3576
sg14
(lp3577
Vhttp://www.beckett.com/basketball/1999-00/upper-deck-bronze/334-dion-glover-3186861
p3578
asg17
g18
sg19
(lp3579
Vhttp://img.beckett.com/images/items_stock/185226/3186514/3186861/front.jpg
p3580
asg22
V#334
p3581
sg24
V1999-00
p3582
sg26
g27
sg28
(lp3583
VDion Glover
p3584
assbag1
(g2
g3
Ntp3585
Rp3586
(dp3587
g7
(dp3588
g9
V1999-00 Upper Deck Gold #1 Roshown McLeod
p3589
sg11
I1
sg12
VUpper Deck Gold
p3590
sg14
(lp3591
Vhttp://www.beckett.com/basketball/1999-00/upper-deck-gold/1-roshown-mcleod-3186893
p3592
asg17
g18
sg19
(lp3593
Vhttp://img.beckett.com/images/no-image.jpg
p3594
asg22
V#1
p3595
sg24
V1999-00
p3596
sg26
g27
sg28
(lp3597
VRoshown McLeod
p3598
assbag1
(g2
g3
Ntp3599
Rp3600
(dp3601
g7
(dp3602
g9
V1999-00 Upper Deck Gold #2 Dikembe Mutombo
p3603
sg11
I1
sg12
VUpper Deck Gold
p3604
sg14
(lp3605
Vhttp://www.beckett.com/basketball/1999-00/upper-deck-gold/2-dikembe-mutombo-3186894
p3606
asg17
g18
sg19
(lp3607
Vhttp://img.beckett.com/images/no-image.jpg
p3608
asg22
V#2
p3609
sg24
V1999-00
p3610
sg26
g27
sg28
(lp3611
VDikembe Mutombo
p3612
assbag1
(g2
g3
Ntp3613
Rp3614
(dp3615
g7
(dp3616
g9
V1999-00 Upper Deck Gold #3 Alan Henderson
p3617
sg11
I1
sg12
VUpper Deck Gold
p3618
sg14
(lp3619
Vhttp://www.beckett.com/basketball/1999-00/upper-deck-gold/3-alan-henderson-3186895
p3620
asg17
g18
sg19
(lp3621
Vhttp://img.beckett.com/images/no-image.jpg
p3622
asg22
V#3
p3623
sg24
V1999-00
p3624
sg26
g27
sg28
(lp3625
VAlan Henderson
p3626
assbag1
(g2
g3
Ntp3627
Rp3628
(dp3629
g7
(dp3630
g9
V1999-00 Upper Deck Gold #4 LaPhonso Ellis
p3631
sg11
I1
sg12
VUpper Deck Gold
p3632
sg14
(lp3633
Vhttp://www.beckett.com/basketball/1999-00/upper-deck-gold/4-laphonso-ellis-3186896
p3634
asg17
g18
sg19
(lp3635
Vhttp://img.beckett.com/images/no-image.jpg
p3636
asg22
V#4
p3637
sg24
V1999-00
p3638
sg26
g27
sg28
(lp3639
VLaPhonso Ellis
p3640
assbag1
(g2
g3
Ntp3641
Rp3642
(dp3643
g7
(dp3644
g9
V1999-00 Upper Deck Gold #5 Chris Crawford
p3645
sg11
I1
sg12
VUpper Deck Gold
p3646
sg14
(lp3647
Vhttp://www.beckett.com/basketball/1999-00/upper-deck-gold/5-chris-crawford-3186897
p3648
asg17
g18
sg19
(lp3649
Vhttp://img.beckett.com/images/no-image.jpg
p3650
asg22
V#5
p3651
sg24
V1999-00
p3652
sg26
g27
sg28
(lp3653
VChris Crawford
p3654
assbag1
(g2
g3
Ntp3655
Rp3656
(dp3657
g7
(dp3658
g9
V1999-00 Upper Deck Gold #165 Jason Terry
p3659
sg11
I1
sg12
VUpper Deck Gold
p3660
sg14
(lp3661
Vhttp://www.beckett.com/basketball/1999-00/upper-deck-gold/165-jason-terry-3187057
p3662
asg17
g18
sg19
(lp3663
Vhttp://img.beckett.com/images/no-image.jpg
p3664
asg22
V#165
p3665
sg24
V1999-00
p3666
sg26
g27
sg28
(lp3667
VJason Terry
p3668
assbag1
(g2
g3
Ntp3669
Rp3670
(dp3671
g7
(dp3672
g9
V1999-00 Upper Deck Gold #172 Cal Bowdler
p3673
sg11
I1
sg12
VUpper Deck Gold
p3674
sg14
(lp3675
Vhttp://www.beckett.com/basketball/1999-00/upper-deck-gold/172-cal-bowdler-3187064
p3676
asg17
g18
sg19
(lp3677
Vhttp://img.beckett.com/images/no-image.jpg
p3678
asg22
V#172
p3679
sg24
V1999-00
p3680
sg26
g27
sg28
(lp3681
VCal Bowdler
p3682
assbag1
(g2
g3
Ntp3683
Rp3684
(dp3685
g7
(dp3686
g9
V1999-00 Upper Deck Gold #177 Dion Glover
p3687
sg11
I1
sg12
VUpper Deck Gold
p3688
sg14
(lp3689
Vhttp://www.beckett.com/basketball/1999-00/upper-deck-gold/177-dion-glover-3187069
p3690
asg17
g18
sg19
(lp3691
Vhttp://img.beckett.com/images/no-image.jpg
p3692
asg22
V#177
p3693
sg24
V1999-00
p3694
sg26
g27
sg28
(lp3695
VDion Glover
p3696
assbag1
(g2
g3
Ntp3697
Rp3698
(dp3699
g7
(dp3700
g9
V1999-00 Upper Deck Gold #181 Jim Jackson
p3701
sg11
I1
sg12
VUpper Deck Gold
p3702
sg14
(lp3703
Vhttp://www.beckett.com/basketball/1999-00/upper-deck-gold/181-jim-jackson-3187073
p3704
asg17
g18
sg19
(lp3705
Vhttp://img.beckett.com/images/no-image.jpg
p3706
asg22
V#181
p3707
sg24
V1999-00
p3708
sg26
g27
sg28
(lp3709
VJim Jackson
p3710
assbag1
(g2
g3
Ntp3711
Rp3712
(dp3713
g7
(dp3714
g9
V1999-00 Upper Deck Gold #182 Isaiah Rider
p3715
sg11
I1
sg12
VUpper Deck Gold
p3716
sg14
(lp3717
Vhttp://www.beckett.com/basketball/1999-00/upper-deck-gold/182-isaiah-rider-3187074
p3718
asg17
g18
sg19
(lp3719
Vhttp://img.beckett.com/images/no-image.jpg
p3720
asg22
V#182
p3721
sg24
V1999-00
p3722
sg26
g27
sg28
(lp3723
VIsaiah Rider
p3724
assbag1
(g2
g3
Ntp3725
Rp3726
(dp3727
g7
(dp3728
g9
V1999-00 Upper Deck Gold #183 Lorenzen Wright
p3729
sg11
I1
sg12
VUpper Deck Gold
p3730
sg14
(lp3731
Vhttp://www.beckett.com/basketball/1999-00/upper-deck-gold/183-lorenzen-wright-3187075
p3732
asg17
g18
sg19
(lp3733
Vhttp://img.beckett.com/images/no-image.jpg
p3734
asg22
V#183
p3735
sg24
V1999-00
p3736
sg26
g27
sg28
(lp3737
VLorenzen Wright
p3738
assbag1
(g2
g3
Ntp3739
Rp3740
(dp3741
g7
(dp3742
g9
V1999-00 Upper Deck Gold #185 Anthony Johnson
p3743
sg11
I1
sg12
VUpper Deck Gold
p3744
sg14
(lp3745
Vhttp://www.beckett.com/basketball/1999-00/upper-deck-gold/185-anthony-johnson-3187077
p3746
asg17
g18
sg19
(lp3747
Vhttp://img.beckett.com/images/no-image.jpg
p3748
asg22
V#185
p3749
sg24
V1999-00
p3750
sg26
g27
sg28
(lp3751
VAnthony Johnson
p3752
assbag1
(g2
g3
Ntp3753
Rp3754
(dp3755
g7
(dp3756
g9
V1999-00 Upper Deck Gold #325 Jason Terry
p3757
sg11
I1
sg12
VUpper Deck Gold
p3758
sg14
(lp3759
Vhttp://www.beckett.com/basketball/1999-00/upper-deck-gold/325-jason-terry-3187217
p3760
asg17
g18
sg19
(lp3761
Vhttp://img.beckett.com/images/no-image.jpg
p3762
asg22
V#325
p3763
sg24
V1999-00
p3764
sg26
g27
sg28
(lp3765
VJason Terry
p3766
assbag1
(g2
g3
Ntp3767
Rp3768
(dp3769
g7
(dp3770
g9
V1999-00 Upper Deck Gold #331 Cal Bowdler
p3771
sg11
I1
sg12
VUpper Deck Gold
p3772
sg14
(lp3773
Vhttp://www.beckett.com/basketball/1999-00/upper-deck-gold/331-cal-bowdler-3187223
p3774
asg17
g18
sg19
(lp3775
Vhttp://img.beckett.com/images/no-image.jpg
p3776
asg22
V#331
p3777
sg24
V1999-00
p3778
sg26
g27
sg28
(lp3779
VCal Bowdler
p3780
assbag1
(g2
g3
Ntp3781
Rp3782
(dp3783
g7
(dp3784
g9
V1999-00 Upper Deck Gold #334 Dion Glover
p3785
sg11
I1
sg12
VUpper Deck Gold
p3786
sg14
(lp3787
Vhttp://www.beckett.com/basketball/1999-00/upper-deck-gold/334-dion-glover-3187226
p3788
asg17
g18
sg19
(lp3789
Vhttp://img.beckett.com/images/no-image.jpg
p3790
asg22
V#334
p3791
sg24
V1999-00
p3792
sg26
g27
sg28
(lp3793
VDion Glover
p3794
assbag1
(g2
g3
Ntp3795
Rp3796
(dp3797
g7
(dp3798
g9
V1999-00 Upper Deck Hardcourt Baseline Grooves Gold #1 Dikembe Mutombo
p3799
sg11
I1
sg12
VUpper Deck Hardcourt Baseline Grooves Gold
p3800
sg14
(lp3801
Vhttp://www.beckett.com/basketball/1999-00/upper-deck-hardcourt-baseline-grooves-gold/1-dikembe-mutombo-3183841
p3802
asg17
g18
sg19
(lp3803
Vhttp://img.beckett.com/images/no-image.jpg
p3804
asg22
V#1
p3805
sg24
V1999-00
p3806
sg26
g27
sg28
(lp3807
VDikembe Mutombo
p3808
assbag1
(g2
g3
Ntp3809
Rp3810
(dp3811
g7
(dp3812
g9
V1999-00 Upper Deck Hardcourt Baseline Grooves Gold #2 Alan Henderson
p3813
sg11
I1
sg12
VUpper Deck Hardcourt Baseline Grooves Gold
p3814
sg14
(lp3815
Vhttp://www.beckett.com/basketball/1999-00/upper-deck-hardcourt-baseline-grooves-gold/2-alan-henderson-3183842
p3816
asg17
g18
sg19
(lp3817
Vhttp://img.beckett.com/images/no-image.jpg
p3818
asg22
V#2
p3819
sg24
V1999-00
p3820
sg26
g27
sg28
(lp3821
VAlan Henderson
p3822
assbag1
(g2
g3
Ntp3823
Rp3824
(dp3825
g7
(dp3826
g9
V1999-00 Upper Deck Hardcourt Baseline Grooves Gold #62 Jason Terry
p3827
sg11
I1
sg12
VUpper Deck Hardcourt Baseline Grooves Gold
p3828
sg14
(lp3829
Vhttp://www.beckett.com/basketball/1999-00/upper-deck-hardcourt-baseline-grooves-gold/62-jason-terry-3183902
p3830
asg17
g18
sg19
(lp3831
Vhttp://img.beckett.com/images/no-image.jpg
p3832
asg22
V#62
p3833
sg24
V1999-00
p3834
sg26
g27
sg28
(lp3835
VJason Terry
p3836
assbag1
(g2
g3
Ntp3837
Rp3838
(dp3839
g7
(dp3840
g9
V1999-00 Upper Deck Hardcourt Baseline Grooves Gold #69 Dion Glover
p3841
sg11
I1
sg12
VUpper Deck Hardcourt Baseline Grooves Gold
p3842
sg14
(lp3843
Vhttp://www.beckett.com/basketball/1999-00/upper-deck-hardcourt-baseline-grooves-gold/69-dion-glover-3183909
p3844
asg17
g18
sg19
(lp3845
Vhttp://img.beckett.com/images/no-image.jpg
p3846
asg22
V#69
p3847
sg24
V1999-00
p3848
sg26
g27
sg28
(lp3849
VDion Glover
p3850
assbag1
(g2
g3
Ntp3851
Rp3852
(dp3853
g7
(dp3854
g9
V1999-00 Upper Deck Hardcourt Baseline Grooves Gold #82 Cal Bowdler
p3855
sg11
I1
sg12
VUpper Deck Hardcourt Baseline Grooves Gold
p3856
sg14
(lp3857
Vhttp://www.beckett.com/basketball/1999-00/upper-deck-hardcourt-baseline-grooves-gold/82-cal-bowdler-3183922
p3858
asg17
g18
sg19
(lp3859
Vhttp://img.beckett.com/images/no-image.jpg
p3860
asg22
V#82
p3861
sg24
V1999-00
p3862
sg26
g27
sg28
(lp3863
VCal Bowdler
p3864
assbag1
(g2
g3
Ntp3865
Rp3866
(dp3867
g7
(dp3868
g9
V1999-00 Upper Deck Hardcourt Baseline Grooves Rainbow #1 Dikembe Mutombo
p3869
sg11
I500
sg12
VUpper Deck Hardcourt Baseline Grooves Rainbow
p3870
sg14
(lp3871
Vhttp://www.beckett.com/basketball/1999-00/upper-deck-hardcourt-baseline-grooves-rainbow/1-dikembe-mutombo-3183748
p3872
asg17
g18
sg19
(lp3873
Vhttp://img.beckett.com/images/no-image.jpg
p3874
asg22
V#1
p3875
sg24
V1999-00
p3876
sg26
g27
sg28
(lp3877
VDikembe Mutombo
p3878
assbag1
(g2
g3
Ntp3879
Rp3880
(dp3881
g7
(dp3882
g9
V1999-00 Upper Deck Hardcourt Baseline Grooves Rainbow #2 Alan Henderson
p3883
sg11
I500
sg12
VUpper Deck Hardcourt Baseline Grooves Rainbow
p3884
sg14
(lp3885
Vhttp://www.beckett.com/basketball/1999-00/upper-deck-hardcourt-baseline-grooves-rainbow/2-alan-henderson-3183749
p3886
asg17
g18
sg19
(lp3887
Vhttp://img.beckett.com/images/no-image.jpg
p3888
asg22
V#2
p3889
sg24
V1999-00
p3890
sg26
g27
sg28
(lp3891
VAlan Henderson
p3892
assbag1
(g2
g3
Ntp3893
Rp3894
(dp3895
g7
(dp3896
g9
V1999-00 Upper Deck Hardcourt Baseline Grooves Rainbow #62 Jason Terry
p3897
sg11
I500
sg12
VUpper Deck Hardcourt Baseline Grooves Rainbow
p3898
sg14
(lp3899
Vhttp://www.beckett.com/basketball/1999-00/upper-deck-hardcourt-baseline-grooves-rainbow/62-jason-terry-3183809
p3900
asg17
g18
sg19
(lp3901
Vhttp://img.beckett.com/images/no-image.jpg
p3902
asg22
V#62
p3903
sg24
V1999-00
p3904
sg26
g27
sg28
(lp3905
VJason Terry
p3906
assbag1
(g2
g3
Ntp3907
Rp3908
(dp3909
g7
(dp3910
g9
V1999-00 Upper Deck Hardcourt Baseline Grooves Rainbow #69 Dion Glover
p3911
sg11
I500
sg12
VUpper Deck Hardcourt Baseline Grooves Rainbow
p3912
sg14
(lp3913
Vhttp://www.beckett.com/basketball/1999-00/upper-deck-hardcourt-baseline-grooves-rainbow/69-dion-glover-3183816
p3914
asg17
g18
sg19
(lp3915
Vhttp://img.beckett.com/images/items_stock/185226/3183740/3183816/front.jpg
p3916
asg22
V#69
p3917
sg24
V1999-00
p3918
sg26
g27
sg28
(lp3919
VDion Glover
p3920
assbag1
(g2
g3
Ntp3921
Rp3922
(dp3923
g7
(dp3924
g9
V1999-00 Upper Deck Hardcourt Baseline Grooves Rainbow #82 Cal Bowdler
p3925
sg11
I500
sg12
VUpper Deck Hardcourt Baseline Grooves Rainbow
p3926
sg14
(lp3927
Vhttp://www.beckett.com/basketball/1999-00/upper-deck-hardcourt-baseline-grooves-rainbow/82-cal-bowdler-3183829
p3928
asg17
g18
sg19
(lp3929
Vhttp://img.beckett.com/images/items_stock/185226/3183740/3183829/front.jpg
p3930
asg22
V#82
p3931
sg24
V1999-00
p3932
sg26
g27
sg28
(lp3933
VCal Bowdler
p3934
assbag1
(g2
g3
Ntp3935
Rp3936
(dp3937
g7
(dp3938
g9
V1999-00 Upper Deck Hardcourt Baseline Grooves Silver #1 Dikembe Mutombo
p3939
sg11
I50
sg12
VUpper Deck Hardcourt Baseline Grooves Silver
p3940
sg14
(lp3941
Vhttp://www.beckett.com/basketball/1999-00/upper-deck-hardcourt-baseline-grooves-silver/1-dikembe-mutombo-3183941
p3942
asg17
g18
sg19
(lp3943
Vhttp://img.beckett.com/images/no-image.jpg
p3944
asg22
V#1
p3945
sg24
V1999-00
p3946
sg26
g27
sg28
(lp3947
VDikembe Mutombo
p3948
assbag1
(g2
g3
Ntp3949
Rp3950
(dp3951
g7
(dp3952
g9
V1999-00 Upper Deck Hardcourt Baseline Grooves Silver #2 Alan Henderson
p3953
sg11
I50
sg12
VUpper Deck Hardcourt Baseline Grooves Silver
p3954
sg14
(lp3955
Vhttp://www.beckett.com/basketball/1999-00/upper-deck-hardcourt-baseline-grooves-silver/2-alan-henderson-3183942
p3956
asg17
g18
sg19
(lp3957
Vhttp://img.beckett.com/images/no-image.jpg
p3958
asg22
V#2
p3959
sg24
V1999-00
p3960
sg26
g27
sg28
(lp3961
VAlan Henderson
p3962
assbag1
(g2
g3
Ntp3963
Rp3964
(dp3965
g7
(dp3966
g9
V1999-00 Upper Deck Hardcourt Baseline Grooves Silver #62 Jason Terry
p3967
sg11
I50
sg12
VUpper Deck Hardcourt Baseline Grooves Silver
p3968
sg14
(lp3969
Vhttp://www.beckett.com/basketball/1999-00/upper-deck-hardcourt-baseline-grooves-silver/62-jason-terry-3184002
p3970
asg17
g18
sg19
(lp3971
Vhttp://img.beckett.com/images/no-image.jpg
p3972
asg22
V#62
p3973
sg24
V1999-00
p3974
sg26
g27
sg28
(lp3975
VJason Terry
p3976
assbag1
(g2
g3
Ntp3977
Rp3978
(dp3979
g7
(dp3980
g9
V1999-00 Upper Deck Hardcourt Baseline Grooves Silver #69 Dion Glover
p3981
sg11
I50
sg12
VUpper Deck Hardcourt Baseline Grooves Silver
p3982
sg14
(lp3983
Vhttp://www.beckett.com/basketball/1999-00/upper-deck-hardcourt-baseline-grooves-silver/69-dion-glover-3184009
p3984
asg17
g18
sg19
(lp3985
Vhttp://img.beckett.com/images/no-image.jpg
p3986
asg22
V#69
p3987
sg24
V1999-00
p3988
sg26
g27
sg28
(lp3989
VDion Glover
p3990
assbag1
(g2
g3
Ntp3991
Rp3992
(dp3993
g7
(dp3994
g9
V1999-00 Upper Deck Hardcourt Baseline Grooves Silver #82 Cal Bowdler
p3995
sg11
I50
sg12
VUpper Deck Hardcourt Baseline Grooves Silver
p3996
sg14
(lp3997
Vhttp://www.beckett.com/basketball/1999-00/upper-deck-hardcourt-baseline-grooves-silver/82-cal-bowdler-3184022
p3998
asg17
g18
sg19
(lp3999
Vhttp://img.beckett.com/images/no-image.jpg
p4000
asg22
V#82
p4001
sg24
V1999-00
p4002
sg26
g27
sg28
(lp4003
VCal Bowdler
p4004
assbag1
(g2
g3
Ntp4005
Rp4006
(dp4007
g7
(dp4008
g9
V1999-00 Upper Deck MVP Gold Script #1 Dikembe Mutombo
p4009
sg11
I100
sg12
VUpper Deck MVP Gold Script
p4010
sg14
(lp4011
Vhttp://www.beckett.com/basketball/1999-00/upper-deck-mvp-gold-script/1-dikembe-mutombo-3182634
p4012
asg17
g18
sg19
(lp4013
Vhttp://img.beckett.com/images/no-image.jpg
p4014
asg22
V#1
p4015
sg24
V1999-00
p4016
sg26
g27
sg28
(lp4017
VDikembe Mutombo
p4018
assbag1
(g2
g3
Ntp4019
Rp4020
(dp4021
g7
(dp4022
g9
V1999-00 Upper Deck MVP Gold Script #4 Alan Henderson
p4023
sg11
I100
sg12
VUpper Deck MVP Gold Script
p4024
sg14
(lp4025
Vhttp://www.beckett.com/basketball/1999-00/upper-deck-mvp-gold-script/4-alan-henderson-3182637
p4026
asg17
g18
sg19
(lp4027
Vhttp://img.beckett.com/images/no-image.jpg
p4028
asg22
V#4
p4029
sg24
V1999-00
p4030
sg26
g27
sg28
(lp4031
VAlan Henderson
p4032
assbag1
(g2
g3
Ntp4033
Rp4034
(dp4035
g7
(dp4036
g9
V1999-00 Upper Deck MVP Gold Script #5 LaPhonso Ellis
p4037
sg11
I100
sg12
VUpper Deck MVP Gold Script
p4038
sg14
(lp4039
Vhttp://www.beckett.com/basketball/1999-00/upper-deck-mvp-gold-script/5-laphonso-ellis-3182638
p4040
asg17
g18
sg19
(lp4041
Vhttp://img.beckett.com/images/no-image.jpg
p4042
asg22
V#5
p4043
sg24
V1999-00
p4044
sg26
g27
sg28
(lp4045
VLaPhonso Ellis
p4046
assbag1
(g2
g3
Ntp4047
Rp4048
(dp4049
g7
(dp4050
g9
V1999-00 Upper Deck MVP Gold Script #6 Grant Long
p4051
sg11
I100
sg12
VUpper Deck MVP Gold Script
p4052
sg14
(lp4053
Vhttp://www.beckett.com/basketball/1999-00/upper-deck-mvp-gold-script/6-grant-long-3182639
p4054
asg17
g18
sg19
(lp4055
Vhttp://img.beckett.com/images/no-image.jpg
p4056
asg22
V#6
p4057
sg24
V1999-00
p4058
sg26
g27
sg28
(lp4059
VGrant Long
p4060
assbag1
(g2
g3
Ntp4061
Rp4062
(dp4063
g7
(dp4064
g9
V1999-00 Upper Deck MVP Gold Script #134 Isaiah Rider
p4065
sg11
I100
sg12
VUpper Deck MVP Gold Script
p4066
sg14
(lp4067
Vhttp://www.beckett.com/basketball/1999-00/upper-deck-mvp-gold-script/134-isaiah-rider-3182767
p4068
asg17
g18
sg19
(lp4069
Vhttp://img.beckett.com/images/no-image.jpg
p4070
asg22
V#134
p4071
sg24
V1999-00
p4072
sg26
g27
sg28
(lp4073
VIsaiah Rider
p4074
assbag1
(g2
g3
Ntp4075
Rp4076
(dp4077
g7
(dp4078
g9
V1999-00 Upper Deck MVP Gold Script #136 Jim Jackson
p4079
sg11
I100
sg12
VUpper Deck MVP Gold Script
p4080
sg14
(lp4081
Vhttp://www.beckett.com/basketball/1999-00/upper-deck-mvp-gold-script/136-jim-jackson-3182769
p4082
asg17
g18
sg19
(lp4083
Vhttp://img.beckett.com/images/no-image.jpg
p4084
asg22
V#136
p4085
sg24
V1999-00
p4086
sg26
g27
sg28
(lp4087
VJim Jackson
p4088
assbag1
(g2
g3
Ntp4089
Rp4090
(dp4091
g7
(dp4092
g9
V1999-00 Upper Deck MVP Gold Script #215 Jason Terry
p4093
sg11
I100
sg12
VUpper Deck MVP Gold Script
p4094
sg14
(lp4095
Vhttp://www.beckett.com/basketball/1999-00/upper-deck-mvp-gold-script/215-jason-terry-3182848
p4096
asg17
g18
sg19
(lp4097
Vhttp://img.beckett.com/images/no-image.jpg
p4098
asg22
V#215
p4099
sg24
V1999-00
p4100
sg26
g27
sg28
(lp4101
VJason Terry
p4102
assbag1
(g2
g3
Ntp4103
Rp4104
(dp4105
g7
(dp4106
g9
V1999-00 Upper Deck MVP Super Script #1 Dikembe Mutombo
p4107
sg11
I25
sg12
VUpper Deck MVP Super Script
p4108
sg14
(lp4109
Vhttp://www.beckett.com/basketball/1999-00/upper-deck-mvp-super-script/1-dikembe-mutombo-3182864
p4110
asg17
g18
sg19
(lp4111
Vhttp://img.beckett.com/images/no-image.jpg
p4112
asg22
V#1
p4113
sg24
V1999-00
p4114
sg26
g27
sg28
(lp4115
VDikembe Mutombo
p4116
assbag1
(g2
g3
Ntp4117
Rp4118
(dp4119
g7
(dp4120
g9
V1999-00 Upper Deck MVP Super Script #4 Alan Henderson
p4121
sg11
I25
sg12
VUpper Deck MVP Super Script
p4122
sg14
(lp4123
Vhttp://www.beckett.com/basketball/1999-00/upper-deck-mvp-super-script/4-alan-henderson-3182867
p4124
asg17
g18
sg19
(lp4125
Vhttp://img.beckett.com/images/no-image.jpg
p4126
asg22
V#4
p4127
sg24
V1999-00
p4128
sg26
g27
sg28
(lp4129
VAlan Henderson
p4130
assbag1
(g2
g3
Ntp4131
Rp4132
(dp4133
g7
(dp4134
g9
V1999-00 Upper Deck MVP Super Script #5 LaPhonso Ellis
p4135
sg11
I25
sg12
VUpper Deck MVP Super Script
p4136
sg14
(lp4137
Vhttp://www.beckett.com/basketball/1999-00/upper-deck-mvp-super-script/5-laphonso-ellis-3182868
p4138
asg17
g18
sg19
(lp4139
Vhttp://img.beckett.com/images/no-image.jpg
p4140
asg22
V#5
p4141
sg24
V1999-00
p4142
sg26
g27
sg28
(lp4143
VLaPhonso Ellis
p4144
assbag1
(g2
g3
Ntp4145
Rp4146
(dp4147
g7
(dp4148
g9
V1999-00 Upper Deck MVP Super Script #6 Grant Long
p4149
sg11
I25
sg12
VUpper Deck MVP Super Script
p4150
sg14
(lp4151
Vhttp://www.beckett.com/basketball/1999-00/upper-deck-mvp-super-script/6-grant-long-3182869
p4152
asg17
g18
sg19
(lp4153
Vhttp://img.beckett.com/images/no-image.jpg
p4154
asg22
V#6
p4155
sg24
V1999-00
p4156
sg26
g27
sg28
(lp4157
VGrant Long
p4158
assbag1
(g2
g3
Ntp4159
Rp4160
(dp4161
g7
(dp4162
g9
V1999-00 Upper Deck MVP Super Script #134 Isaiah Rider
p4163
sg11
I25
sg12
VUpper Deck MVP Super Script
p4164
sg14
(lp4165
Vhttp://www.beckett.com/basketball/1999-00/upper-deck-mvp-super-script/134-isaiah-rider-3182997
p4166
asg17
g18
sg19
(lp4167
Vhttp://img.beckett.com/images/no-image.jpg
p4168
asg22
V#134
p4169
sg24
V1999-00
p4170
sg26
g27
sg28
(lp4171
VIsaiah Rider
p4172
assbag1
(g2
g3
Ntp4173
Rp4174
(dp4175
g7
(dp4176
g9
V1999-00 Upper Deck MVP Super Script #136 Jim Jackson
p4177
sg11
I25
sg12
VUpper Deck MVP Super Script
p4178
sg14
(lp4179
Vhttp://www.beckett.com/basketball/1999-00/upper-deck-mvp-super-script/136-jim-jackson-3182999
p4180
asg17
g18
sg19
(lp4181
Vhttp://img.beckett.com/images/no-image.jpg
p4182
asg22
V#136
p4183
sg24
V1999-00
p4184
sg26
g27
sg28
(lp4185
VJim Jackson
p4186
assbag1
(g2
g3
Ntp4187
Rp4188
(dp4189
g7
(dp4190
g9
V1999-00 Upper Deck MVP Super Script #215 Jason Terry
p4191
sg11
I25
sg12
VUpper Deck MVP Super Script
p4192
sg14
(lp4193
Vhttp://www.beckett.com/basketball/1999-00/upper-deck-mvp-super-script/215-jason-terry-3183078
p4194
asg17
g18
sg19
(lp4195
Vhttp://img.beckett.com/images/no-image.jpg
p4196
asg22
V#215
p4197
sg24
V1999-00
p4198
sg26
g27
sg28
(lp4199
VJason Terry
p4200
assbag1
(g2
g3
Ntp4201
Rp4202
(dp4203
g7
(dp4204
g9
V1999-00 Upper Deck Ovation Standing Ovation #1 Dikembe Mutombo
p4205
sg11
I50
sg12
VUpper Deck Ovation Standing Ovation
p4206
sg14
(lp4207
Vhttp://www.beckett.com/basketball/1999-00/upper-deck-ovation-standing-ovation/1-dikembe-mutombo-3181134
p4208
asg17
g18
sg19
(lp4209
Vhttp://img.beckett.com/images/no-image.jpg
p4210
asg22
V#1
p4211
sg24
V1999-00
p4212
sg26
g27
sg28
(lp4213
VDikembe Mutombo
p4214
assbag1
(g2
g3
Ntp4215
Rp4216
(dp4217
g7
(dp4218
g9
V1999-00 Upper Deck Ovation Standing Ovation #2 Alan Henderson
p4219
sg11
I50
sg12
VUpper Deck Ovation Standing Ovation
p4220
sg14
(lp4221
Vhttp://www.beckett.com/basketball/1999-00/upper-deck-ovation-standing-ovation/2-alan-henderson-3181135
p4222
asg17
g18
sg19
(lp4223
Vhttp://img.beckett.com/images/no-image.jpg
p4224
asg22
V#2
p4225
sg24
V1999-00
p4226
sg26
g27
sg28
(lp4227
VAlan Henderson
p4228
assbag1
(g2
g3
Ntp4229
Rp4230
(dp4231
g7
(dp4232
g9
V1999-00 Upper Deck Ovation Standing Ovation #70 Jason Terry
p4233
sg11
I50
sg12
VUpper Deck Ovation Standing Ovation
p4234
sg14
(lp4235
Vhttp://www.beckett.com/basketball/1999-00/upper-deck-ovation-standing-ovation/70-jason-terry-3181203
p4236
asg17
g18
sg19
(lp4237
Vhttp://img.beckett.com/images/no-image.jpg
p4238
asg22
V#70
p4239
sg24
V1999-00
p4240
sg26
g27
sg28
(lp4241
VJason Terry
p4242
assbag1
(g2
g3
Ntp4243
Rp4244
(dp4245
g7
(dp4246
g9
V1999-00 Upper Deck Ovation Standing Ovation #77 Cal Bowdler
p4247
sg11
I50
sg12
VUpper Deck Ovation Standing Ovation
p4248
sg14
(lp4249
Vhttp://www.beckett.com/basketball/1999-00/upper-deck-ovation-standing-ovation/77-cal-bowdler-3181210
p4250
asg17
g18
sg19
(lp4251
Vhttp://img.beckett.com/images/no-image.jpg
p4252
asg22
V#77
p4253
sg24
V1999-00
p4254
sg26
g27
sg28
(lp4255
VCal Bowdler
p4256
assbag1
(g2
g3
Ntp4257
Rp4258
(dp4259
g7
(dp4260
g9
V1999-00 Upper Deck Ovation Standing Ovation #80 Dion Glover
p4261
sg11
I50
sg12
VUpper Deck Ovation Standing Ovation
p4262
sg14
(lp4263
Vhttp://www.beckett.com/basketball/1999-00/upper-deck-ovation-standing-ovation/80-dion-glover-3181213
p4264
asg17
g18
sg19
(lp4265
Vhttp://img.beckett.com/images/no-image.jpg
p4266
asg22
V#80
p4267
sg24
V1999-00
p4268
sg26
g27
sg28
(lp4269
VDion Glover
p4270
assbag1
(g2
g3
Ntp4271
Rp4272
(dp4273
g7
(dp4274
g9
V1999-00 Upper Deck Retro Gold #26 Dikembe Mutombo
p4275
sg11
I250
sg12
VUpper Deck Retro Gold
p4276
sg14
(lp4277
Vhttp://www.beckett.com/basketball/1999-00/upper-deck-retro-gold/26-dikembe-mutombo-3181533
p4278
asg17
g18
sg19
(lp4279
Vhttp://img.beckett.com/images/no-image.jpg
p4280
asg22
V#26
p4281
sg24
V1999-00
p4282
sg26
g27
sg28
(lp4283
VDikembe Mutombo
p4284
assbag1
(g2
g3
Ntp4285
Rp4286
(dp4287
g7
(dp4288
g9
V1999-00 Upper Deck Retro Gold #70 Cal Bowdler
p4289
sg11
I250
sg12
VUpper Deck Retro Gold
p4290
sg14
(lp4291
Vhttp://www.beckett.com/basketball/1999-00/upper-deck-retro-gold/70-cal-bowdler-3181577
p4292
asg17
g18
sg19
(lp4293
Vhttp://img.beckett.com/images/items_stock/185226/3181499/3181577/front.jpg
p4294
asg22
V#70
p4295
sg24
V1999-00
p4296
sg26
g27
sg28
(lp4297
VCal Bowdler
p4298
assbag1
(g2
g3
Ntp4299
Rp4300
(dp4301
g7
(dp4302
g9
V1999-00 Upper Deck Retro Gold #104 Jason Terry
p4303
sg11
I250
sg12
VUpper Deck Retro Gold
p4304
sg14
(lp4305
Vhttp://www.beckett.com/basketball/1999-00/upper-deck-retro-gold/104-jason-terry-3181611
p4306
asg17
g18
sg19
(lp4307
Vhttp://img.beckett.com/images/items_stock/185226/3181499/3181611/front.jpg
p4308
asg22
V#104
p4309
sg24
V1999-00
p4310
sg26
g27
sg28
(lp4311
VJason Terry
p4312
assbag1
(g2
g3
Ntp4313
Rp4314
(dp4315
g7
(dp4316
g9
V1999-00 Upper Deck Retro Platinum #26 Dikembe Mutombo
p4317
sg11
I1
sg12
VUpper Deck Retro Platinum
p4318
sg14
(lp4319
Vhttp://www.beckett.com/basketball/1999-00/upper-deck-retro-platinum/26-dikembe-mutombo-3181648
p4320
asg17
g18
sg19
(lp4321
Vhttp://img.beckett.com/images/no-image.jpg
p4322
asg22
V#26
p4323
sg24
V1999-00
p4324
sg26
g27
sg28
(lp4325
VDikembe Mutombo
p4326
assbag1
(g2
g3
Ntp4327
Rp4328
(dp4329
g7
(dp4330
g9
V1999-00 Upper Deck Retro Platinum #70 Cal Bowdler
p4331
sg11
I1
sg12
VUpper Deck Retro Platinum
p4332
sg14
(lp4333
Vhttp://www.beckett.com/basketball/1999-00/upper-deck-retro-platinum/70-cal-bowdler-3181692
p4334
asg17
g18
sg19
(lp4335
Vhttp://img.beckett.com/images/no-image.jpg
p4336
asg22
V#70
p4337
sg24
V1999-00
p4338
sg26
g27
sg28
(lp4339
VCal Bowdler
p4340
assbag1
(g2
g3
Ntp4341
Rp4342
(dp4343
g7
(dp4344
g9
V1999-00 Upper Deck Retro Platinum #104 Jason Terry
p4345
sg11
I1
sg12
VUpper Deck Retro Platinum
p4346
sg14
(lp4347
Vhttp://www.beckett.com/basketball/1999-00/upper-deck-retro-platinum/104-jason-terry-3181726
p4348
asg17
g18
sg19
(lp4349
Vhttp://img.beckett.com/images/no-image.jpg
p4350
asg22
V#104
p4351
sg24
V1999-00
p4352
sg26
g27
sg28
(lp4353
VJason Terry
p4354
assbag1
(g2
g3
Ntp4355
Rp4356
(dp4357
g7
(dp4358
g9
V1999-00 Bowman's Best Class Photo #CS1 Draft Picks Refractor/Richard Hamilton/Corey Maggette/Lamar Odom/Wally Szczerbiak/Jonathan Bender/Trajan Langdon/Aleksandar Radojevic/Baron Davis/Shawn Marion/Jason Terry/Andre Miller/Steve Francis/Elton
p4359
sg11
I125
sg12
VBowman's Best Class Photo
p4360
sg14
(lp4361
Vhttp://www.beckett.com/basketball/1999-00/bowmans-best-class-photo/cs1-draft-picks-refractorrichard-hamiltoncorey-maggettelamar-odomwally-szczerbiakjonathan-bendertrajan-langdonaleksandar-radojevicbaron-davisshawn-marionjason-terryandre-millersteve-franciselton-brand-3204949
p4362
asg17
g18
sg19
(lp4363
Vhttp://img.beckett.com/images/no-image.jpg
p4364
asg22
V#CS1
p4365
sg24
V1999-00
p4366
sg26
g27
sg28
(lp4367
VDraft Picks Refractor
p4368
aVRichard Hamilton
p4369
aVCorey Maggette
p4370
aVLamar Odom
p4371
aVWally Szczerbiak
p4372
aVJonathan Bender
p4373
aVTrajan Langdon
p4374
aVAleksandar Radojevic
p4375
aVBaron Davis
p4376
aVShawn Marion
p4377
aVJason Terry
p4378
aVAndre Miller
p4379
aVSteve Francis
p4380
aVElton
p4381
assbag1
(g2
g3
Ntp4382
Rp4383
(dp4384
g7
(dp4385
g9
V1999-00 Bowman's Best Class Photo #CS1 Draft Picks Atomic Refractor/Richard Hamilton/Corey Maggette/Lamar Odom/Wally Szczerbiak/Jonathan Bender/Trajan Langdon/Aleksandar Radojevic/Baron Davis/Shawn Marion/Jason Terry/Andre Miller/Steve Francis
p4386
sg11
I35
sg12
VBowman's Best Class Photo
p4387
sg14
(lp4388
Vhttp://www.beckett.com/basketball/1999-00/bowmans-best-class-photo/cs1-draft-picks-atomic-refractorrichard-hamiltoncorey-maggettelamar-odomwally-szczerbiakjonathan-bendertrajan-langdonaleksandar-radojevicbaron-davisshawn-marionjason-terryandre-millersteve-franciselton-brand-320
p4389
asg17
g18
sg19
(lp4390
Vhttp://img.beckett.com/images/no-image.jpg
p4391
asg22
V#CS1
p4392
sg24
V1999-00
p4393
sg26
g27
sg28
(lp4394
VDraft Picks Refractor
p4395
aVRichard Hamilton
p4396
aVCorey Maggette
p4397
aVLamar Odom
p4398
aVWally Szczerbiak
p4399
aVJonathan Bender
p4400
aVTrajan Langdon
p4401
aVAleksandar Radojevic
p4402
aVBaron Davis
p4403
aVShawn Marion
p4404
aVJason Terry
p4405
aVAndre Miller
p4406
aVSteve Francis
p4407
assbag1
(g2
g3
Ntp4408
Rp4409
(dp4410
g7
(dp4411
g9
V1999-00 E-X E-Xplosive #XP6 Jason Terry
p4412
sg11
I1900
sg12
VE-X E-Xplosive
p4413
sg14
(lp4414
Vhttp://www.beckett.com/basketball/1999-00/e-x-e-xplosive/xp6-jason-terry-3203271
p4415
asg17
g18
sg19
(lp4416
Vhttp://img.beckett.com/images/items_stock/185226/3203252/3203271/front.jpg
p4417
asg22
V#XP6
p4418
sg24
V1999-00
p4419
sg26
g27
sg28
(lp4420
VJason Terry
p4421
assbag1
(g2
g3
Ntp4422
Rp4423
(dp4424
g7
(dp4425
g9
V1999-00 E-X E-Xplosive #XP6A Jason Terry AU
p4426
sg11
I99
sg12
VE-X E-Xplosive
p4427
sg14
(lp4428
Vhttp://www.beckett.com/basketball/1999-00/e-x-e-xplosive/xp6a-jason-terry-au-3203272
p4429
asg17
g18
sg19
(lp4430
Vhttp://img.beckett.com/images/no-image.jpg
p4431
asg22
V#XP6A
p4432
sg341
I1
sg24
V1999-00
p4433
sg26
g27
sg28
(lp4434
VJason Terry
p4435
assbag1
(g2
g3
Ntp4436
Rp4437
(dp4438
g7
(dp4439
g9
V1999-00 Finest Future's Finest #FF10 Jason Terry
p4440
sg11
I750
sg12
VFinest Future's Finest
p4441
sg14
(lp4442
Vhttp://www.beckett.com/basketball/1999-00/finest-futures-finest/ff10-jason-terry-3204432
p4443
asg17
g18
sg19
(lp4444
Vhttp://img.beckett.com/images/no-image.jpg
p4445
asg22
V#FF10
p4446
sg24
V1999-00
p4447
sg26
g27
sg28
(lp4448
VJason Terry
p4449
assbag1
(g2
g3
Ntp4450
Rp4451
(dp4452
g7
(dp4453
g9
V1999-00 Finest Future's Finest #FF15 Cal Bowdler
p4454
sg11
I750
sg12
VFinest Future's Finest
p4455
sg14
(lp4456
Vhttp://www.beckett.com/basketball/1999-00/finest-futures-finest/ff15-cal-bowdler-3204437
p4457
asg17
g18
sg19
(lp4458
Vhttp://img.beckett.com/images/no-image.jpg
p4459
asg22
V#FF15
p4460
sg24
V1999-00
p4461
sg26
g27
sg28
(lp4462
VCal Bowdler
p4463
assbag1
(g2
g3
Ntp4464
Rp4465
(dp4466
g7
(dp4467
g9
V1999-00 Flair Showcase Rookie Showcase Firsts #1 Cal Bowdler
p4468
sg11
I500
sg12
VFlair Showcase Rookie Showcase Firsts
p4469
sg14
(lp4470
Vhttp://www.beckett.com/basketball/1999-00/flair-showcase-rookie-showcase-firsts/1-cal-bowdler-3201003
p4471
asg17
g18
sg19
(lp4472
Vhttp://img.beckett.com/images/no-image.jpg
p4473
asg22
V#1
p4474
sg24
V1999-00
p4475
sg26
g27
sg28
(lp4476
VCal Bowdler
p4477
assbag1
(g2
g3
Ntp4478
Rp4479
(dp4480
g7
(dp4481
g9
V1999-00 Flair Showcase Rookie Showcase Firsts #2 Dion Glover
p4482
sg11
I500
sg12
VFlair Showcase Rookie Showcase Firsts
p4483
sg14
(lp4484
Vhttp://www.beckett.com/basketball/1999-00/flair-showcase-rookie-showcase-firsts/2-dion-glover-3201004
p4485
asg17
g18
sg19
(lp4486
Vhttp://img.beckett.com/images/items_stock/185226/3200996/3201004/front.jpg
p4487
asg22
V#2
p4488
sg24
V1999-00
p4489
sg26
g27
sg28
(lp4490
VDion Glover
p4491
assbag1
(g2
g3
Ntp4492
Rp4493
(dp4494
g7
(dp4495
g9
V1999-00 Flair Showcase Rookie Showcase Firsts #3 Jason Terry
p4496
sg11
I500
sg12
VFlair Showcase Rookie Showcase Firsts
p4497
sg14
(lp4498
Vhttp://www.beckett.com/basketball/1999-00/flair-showcase-rookie-showcase-firsts/3-jason-terry-3201005
p4499
asg17
g18
sg19
(lp4500
Vhttp://img.beckett.com/images/items_stock/185226/3200996/3201005/front.jpg
p4501
asg22
V#3
p4502
sg24
V1999-00
p4503
sg26
g27
sg28
(lp4504
VJason Terry
p4505
assbag1
(g2
g3
Ntp4506
Rp4507
(dp4508
g7
(dp4509
g9
V1999-00 Fleer Mystique Point Perfect #PP10 Jason Terry
p4510
sg11
I1999
sg12
VFleer Mystique Point Perfect
p4511
sg14
(lp4512
Vhttp://www.beckett.com/basketball/1999-00/fleer-mystique-point-perfect/pp10-jason-terry-3198826
p4513
asg17
g18
sg19
(lp4514
Vhttp://img.beckett.com/images/items_stock/185226/3198810/3198826/front.jpg
p4515
asg22
V#PP10
p4516
sg24
V1999-00
p4517
sg26
g27
sg28
(lp4518
VJason Terry
p4519
assbag1
(g2
g3
Ntp4520
Rp4521
(dp4522
g7
(dp4523
g9
V1999-00 SkyBox Dominion Hats Off #8 Jason Terry/170
p4524
sg11
I170
sg12
VSkyBox Dominion Hats Off
p4525
sg14
(lp4526
Vhttp://www.beckett.com/basketball/1999-00/skybox-dominion-hats-off/8-jason-terry170-3197190
p4527
asg17
g18
sS'memorabilia'
p4528
I1
sg19
(lp4529
Vhttp://img.beckett.com/images/no-image.jpg
p4530
asg22
V#8
p4531
sg24
V1999-00
p4532
sg26
g27
sg28
(lp4533
VJason Terry
p4534
assbag1
(g2
g3
Ntp4535
Rp4536
(dp4537
g7
(dp4538
g9
V1999-00 Black Diamond A Piece of History Triple #JT Jason Terry H/R
p4539
sg11
I25
sg12
VBlack Diamond A Piece of History Triple
p4540
sg14
(lp4541
Vhttp://www.beckett.com/basketball/1999-00/black-diamond-a-piece-of-history-triple/jt-jason-terry-hr-3205884
p4542
asg17
g18
sg4528
I1
sg19
(lp4543
Vhttp://img.beckett.com/images/no-image.jpg
p4544
asg22
V#JT
p4545
sg24
V1999-00
p4546
sg26
g27
sg28
(lp4547
VJason Terry
p4548
assbag1
(g2
g3
Ntp4549
Rp4550
(dp4551
g7
(dp4552
g9
V1999-00 E-X Essential Credentials Future #10 Isaiah Rider/51
p4553
sg11
I51
sg12
VE-X Essential Credentials Future
p4554
sg14
(lp4555
Vhttp://www.beckett.com/basketball/1999-00/e-x-essential-credentials-future/10-isaiah-rider51-3205171
p4556
asg17
g18
sg19
(lp4557
Vhttp://img.beckett.com/images/no-image.jpg
p4558
asg22
V#10
p4559
sg24
V1999-00
p4560
sg26
g27
sg28
(lp4561
VIsaiah Rider
p4562
assbag1
(g2
g3
Ntp4563
Rp4564
(dp4565
g7
(dp4566
g9
V1999-00 E-X Essential Credentials Future #63 Cal Bowdler/28
p4567
sg11
I28
sg12
VE-X Essential Credentials Future
p4568
sg14
(lp4569
Vhttp://www.beckett.com/basketball/1999-00/e-x-essential-credentials-future/63-cal-bowdler28-3205224
p4570
asg17
g18
sg19
(lp4571
Vhttp://img.beckett.com/images/no-image.jpg
p4572
asg22
V#63
p4573
sg24
V1999-00
p4574
sg26
g27
sg28
(lp4575
VCal Bowdler
p4576
assbag1
(g2
g3
Ntp4577
Rp4578
(dp4579
g7
(dp4580
g9
V1999-00 E-X Essential Credentials Future #64 Dion Glover/27
p4581
sg11
I27
sg12
VE-X Essential Credentials Future
p4582
sg14
(lp4583
Vhttp://www.beckett.com/basketball/1999-00/e-x-essential-credentials-future/64-dion-glover27-3205225
p4584
asg17
g18
sg19
(lp4585
Vhttp://img.beckett.com/images/no-image.jpg
p4586
asg22
V#64
p4587
sg24
V1999-00
p4588
sg26
g27
sg28
(lp4589
VDion Glover
p4590
assbag1
(g2
g3
Ntp4591
Rp4592
(dp4593
g7
(dp4594
g9
V1999-00 E-X Essential Credentials Future #72 Jason Terry/19
p4595
sg11
I19
sg12
VE-X Essential Credentials Future
p4596
sg14
(lp4597
Vhttp://www.beckett.com/basketball/1999-00/e-x-essential-credentials-future/72-jason-terry19-3205233
p4598
asg17
g18
sg19
(lp4599
Vhttp://img.beckett.com/images/no-image.jpg
p4600
asg22
V#72
p4601
sg24
V1999-00
p4602
sg26
g27
sg28
(lp4603
VJason Terry
p4604
assbag1
(g2
g3
Ntp4605
Rp4606
(dp4607
g7
(dp4608
g9
V1999-00 E-X Essential Credentials Now #10 Isaiah Rider/10
p4609
sg11
I10
sg12
VE-X Essential Credentials Now
p4610
sg14
(lp4611
Vhttp://www.beckett.com/basketball/1999-00/e-x-essential-credentials-now/10-isaiah-rider10-3205268
p4612
asg17
g18
sg19
(lp4613
Vhttp://img.beckett.com/images/no-image.jpg
p4614
asg22
V#10
p4615
sg24
V1999-00
p4616
sg26
g27
sg28
(lp4617
VIsaiah Rider
p4618
assbag1
(g2
g3
Ntp4619
Rp4620
(dp4621
g7
(dp4622
g9
V1999-00 E-X Essential Credentials Now #63 Cal Bowdler/3
p4623
sg11
I3
sg12
VE-X Essential Credentials Now
p4624
sg14
(lp4625
Vhttp://www.beckett.com/basketball/1999-00/e-x-essential-credentials-now/63-cal-bowdler3-3205321
p4626
asg17
g18
sg19
(lp4627
Vhttp://img.beckett.com/images/no-image.jpg
p4628
asg22
V#63
p4629
sg24
V1999-00
p4630
sg26
g27
sg28
(lp4631
VCal Bowdler
p4632
assbag1
(g2
g3
Ntp4633
Rp4634
(dp4635
g7
(dp4636
g9
V1999-00 E-X Essential Credentials Now #64 Dion Glover/4
p4637
sg11
I4
sg12
VE-X Essential Credentials Now
p4638
sg14
(lp4639
Vhttp://www.beckett.com/basketball/1999-00/e-x-essential-credentials-now/64-dion-glover4-3205322
p4640
asg17
g18
sg19
(lp4641
Vhttp://img.beckett.com/images/no-image.jpg
p4642
asg22
V#64
p4643
sg24
V1999-00
p4644
sg26
g27
sg28
(lp4645
VDion Glover
p4646
assbag1
(g2
g3
Ntp4647
Rp4648
(dp4649
g7
(dp4650
g9
V1999-00 E-X Essential Credentials Now #72 Jason Terry/12
p4651
sg11
I12
sg12
VE-X Essential Credentials Now
p4652
sg14
(lp4653
Vhttp://www.beckett.com/basketball/1999-00/e-x-essential-credentials-now/72-jason-terry12-3205330
p4654
asg17
g18
sg19
(lp4655
Vhttp://img.beckett.com/images/no-image.jpg
p4656
asg22
V#72
p4657
sg24
V1999-00
p4658
sg26
g27
sg28
(lp4659
VJason Terry
p4660
assbag1
(g2
g3
Ntp4661
Rp4662
(dp4663
g7
(dp4664
g9
V1999-00 Finest Future's Finest Refractors #FF10 Jason Terry
p4665
sg11
I150
sg12
VFinest Future's Finest Refractors
p4666
sg14
(lp4667
Vhttp://www.beckett.com/basketball/1999-00/finest-futures-finest-refractors/ff10-jason-terry-3202387
p4668
asg17
g18
sg19
(lp4669
Vhttp://img.beckett.com/images/no-image.jpg
p4670
asg22
V#FF10
p4671
sg24
V1999-00
p4672
sg26
g27
sg28
(lp4673
VJason Terry
p4674
assbag1
(g2
g3
Ntp4675
Rp4676
(dp4677
g7
(dp4678
g9
V1999-00 Finest Future's Finest Refractors #FF15 Cal Bowdler
p4679
sg11
I150
sg12
VFinest Future's Finest Refractors
p4680
sg14
(lp4681
Vhttp://www.beckett.com/basketball/1999-00/finest-futures-finest-refractors/ff15-cal-bowdler-3202392
p4682
asg17
g18
sg19
(lp4683
Vhttp://img.beckett.com/images/items_stock/185226/3202370/3202392/front.jpg
p4684
asg22
V#FF15
p4685
sg24
V1999-00
p4686
sg26
g27
sg28
(lp4687
VCal Bowdler
p4688
assbag1
(g2
g3
Ntp4689
Rp4690
(dp4691
g7
(dp4692
g9
V1999-00 Hoops Decade Draft Day Dominance Parallel #DD3 Dikembe Mutombo
p4693
sg11
I1989
sg12
VHoops Decade Draft Day Dominance Parallel
p4694
sg14
(lp4695
Vhttp://www.beckett.com/basketball/1999-00/hoops-decade-draft-day-dominance-parallel/dd3-dikembe-mutombo-3197303
p4696
asg17
g18
sg19
(lp4697
Vhttp://img.beckett.com/images/items_stock/185226/3197293/3197303/front.jpg
p4698
asg22
V#DD3
p4699
sg24
V1999-00
p4700
sg26
g27
sg28
(lp4701
VDikembe Mutombo
p4702
assbag1
(g2
g3
Ntp4703
Rp4704
(dp4705
g7
(dp4706
g9
V1999-00 Hoops Decade New Style Parallel #NS8 Cal Bowdler
p4707
sg11
I1989
sg12
VHoops Decade New Style Parallel
p4708
sg14
(lp4709
Vhttp://www.beckett.com/basketball/1999-00/hoops-decade-new-style-parallel/ns8-cal-bowdler-3197371
p4710
asg17
g18
sg19
(lp4711
Vhttp://img.beckett.com/images/items_stock/185226/3197356/3197371/front.jpg
p4712
asg22
V#NS8
p4713
sg24
V1999-00
p4714
sg26
g27
sg28
(lp4715
VCal Bowdler
p4716
assbag1
(g2
g3
Ntp4717
Rp4718
(dp4719
g7
(dp4720
g9
V1999-00 Hoops Decade New Style Parallel #NS11 Jason Terry
p4721
sg11
I1989
sg12
VHoops Decade New Style Parallel
p4722
sg14
(lp4723
Vhttp://www.beckett.com/basketball/1999-00/hoops-decade-new-style-parallel/ns11-jason-terry-3197374
p4724
asg17
g18
sg19
(lp4725
Vhttp://img.beckett.com/images/items_stock/185226/3197356/3197374/front.jpg
p4726
asg22
V#NS11
p4727
sg24
V1999-00
p4728
sg26
g27
sg28
(lp4729
VJason Terry
p4730
assbag1
(g2
g3
Ntp4731
Rp4732
(dp4733
g7
(dp4734
g9
V1999-00 SkyBox Premium Autographics Blue #12 Cal Bowdler
p4735
sg11
I50
sg12
VSkyBox Premium Autographics Blue
p4736
sg14
(lp4737
Vhttp://www.beckett.com/basketball/1999-00/skybox-premium-autographics-blue/12-cal-bowdler-3195876
p4738
asg17
g18
sg19
(lp4739
Vhttp://img.beckett.com/images/no-image.jpg
p4740
asg22
V#12
p4741
sg341
I1
sg24
V1999-00
p4742
sg26
g27
sg28
(lp4743
VCal Bowdler
p4744
assbag1
(g2
g3
Ntp4745
Rp4746
(dp4747
g7
(dp4748
g9
V1999-00 SkyBox Premium Autographics Blue #40 Dion Glover
p4749
sg11
I50
sg12
VSkyBox Premium Autographics Blue
p4750
sg14
(lp4751
Vhttp://www.beckett.com/basketball/1999-00/skybox-premium-autographics-blue/40-dion-glover-3195904
p4752
asg17
g18
sg19
(lp4753
Vhttp://img.beckett.com/images/no-image.jpg
p4754
asg22
V#40
p4755
sg341
I1
sg24
V1999-00
p4756
sg26
g27
sg28
(lp4757
VDion Glover
p4758
assbag1
(g2
g3
Ntp4759
Rp4760
(dp4761
g7
(dp4762
g9
V1999-00 SkyBox Premium Autographics Blue #53 Anthony Johnson
p4763
sg11
I50
sg12
VSkyBox Premium Autographics Blue
p4764
sg14
(lp4765
Vhttp://www.beckett.com/basketball/1999-00/skybox-premium-autographics-blue/53-anthony-johnson-3195917
p4766
asg17
g18
sg19
(lp4767
Vhttp://img.beckett.com/images/no-image.jpg
p4768
asg22
V#53
p4769
sg341
I1
sg24
V1999-00
p4770
sg26
g27
sg28
(lp4771
VAnthony Johnson
p4772
assbag1
(g2
g3
Ntp4773
Rp4774
(dp4775
g7
(dp4776
g9
V1999-00 SkyBox Premium Autographics Blue #74 Roshown McLeod
p4777
sg11
I50
sg12
VSkyBox Premium Autographics Blue
p4778
sg14
(lp4779
Vhttp://www.beckett.com/basketball/1999-00/skybox-premium-autographics-blue/74-roshown-mcleod-3195938
p4780
asg17
g18
sg19
(lp4781
Vhttp://img.beckett.com/images/no-image.jpg
p4782
asg22
V#74
p4783
sg341
I1
sg24
V1999-00
p4784
sg26
g27
sg28
(lp4785
VRoshown McLeod
p4786
assbag1
(g2
g3
Ntp4787
Rp4788
(dp4789
g7
(dp4790
g9
V1999-00 SkyBox Premium Autographics Blue #104 Jason Terry
p4791
sg11
I50
sg12
VSkyBox Premium Autographics Blue
p4792
sg14
(lp4793
Vhttp://www.beckett.com/basketball/1999-00/skybox-premium-autographics-blue/104-jason-terry-3195968
p4794
asg17
g18
sg19
(lp4795
Vhttp://img.beckett.com/images/no-image.jpg
p4796
asg22
V#104
p4797
sg341
I1
sg24
V1999-00
p4798
sg26
g27
sg28
(lp4799
VJason Terry
p4800
assbag1
(g2
g3
Ntp4801
Rp4802
(dp4803
g7
(dp4804
g9
V1999-00 SkyBox Premium Prime Time Rookies Autographs #PT10 Jason Terry
p4805
sg11
I25
sg12
VSkyBox Premium Prime Time Rookies Autographs
p4806
sg14
(lp4807
Vhttp://www.beckett.com/basketball/1999-00/skybox-premium-prime-time-rookies-autographs/pt10-jason-terry-3196129
p4808
asg17
g18
sg19
(lp4809
Vhttp://img.beckett.com/images/no-image.jpg
p4810
asg22
V#PT10
p4811
sg341
I1
sg24
V1999-00
p4812
sg26
g27
sg28
(lp4813
VJason Terry
p4814
assbag1
(g2
g3
Ntp4815
Rp4816
(dp4817
g7
(dp4818
g9
V1999-00 SkyBox Premium Prime Time Rookies Autographs #PT12 Dion Glover
p4819
sg11
I25
sg12
VSkyBox Premium Prime Time Rookies Autographs
p4820
sg14
(lp4821
Vhttp://www.beckett.com/basketball/1999-00/skybox-premium-prime-time-rookies-autographs/pt12-dion-glover-3196131
p4822
asg17
g18
sg19
(lp4823
Vhttp://img.beckett.com/images/no-image.jpg
p4824
asg22
V#PT12
p4825
sg341
I1
sg24
V1999-00
p4826
sg26
g27
sg28
(lp4827
VDion Glover
p4828
assbag1
(g2
g3
Ntp4829
Rp4830
(dp4831
g7
(dp4832
g9
V1999-00 SP Authentic Sign of the Times Gold #AL Alan Henderson
p4833
sg11
I25
sg12
VSP Authentic Sign of the Times Gold
p4834
sg14
(lp4835
Vhttp://www.beckett.com/basketball/1999-00/sp-authentic-sign-of-the-times-gold/al-alan-henderson-3192999
p4836
asg17
g18
sg19
(lp4837
Vhttp://img.beckett.com/images/no-image.jpg
p4838
asg22
V#AL
p4839
sg341
I1
sg24
V1999-00
p4840
sg26
g27
sg28
(lp4841
VAlan Henderson
p4842
assbag1
(g2
g3
Ntp4843
Rp4844
(dp4845
g7
(dp4846
g9
V1999-00 SP Authentic Sign of the Times Gold #DG Dion Glover
p4847
sg11
I25
sg12
VSP Authentic Sign of the Times Gold
p4848
sg14
(lp4849
Vhttp://www.beckett.com/basketball/1999-00/sp-authentic-sign-of-the-times-gold/dg-dion-glover-3193012
p4850
asg17
g18
sg19
(lp4851
Vhttp://img.beckett.com/images/no-image.jpg
p4852
asg22
V#DG
p4853
sg341
I1
sg24
V1999-00
p4854
sg26
g27
sg28
(lp4855
VDion Glover
p4856
assbag1
(g2
g3
Ntp4857
Rp4858
(dp4859
g7
(dp4860
g9
V1999-00 SP Authentic Sign of the Times Gold #JT Jason Terry
p4861
sg11
I25
sg12
VSP Authentic Sign of the Times Gold
p4862
sg14
(lp4863
Vhttp://www.beckett.com/basketball/1999-00/sp-authentic-sign-of-the-times-gold/jt-jason-terry-3193022
p4864
asg17
g18
sg19
(lp4865
Vhttp://img.beckett.com/images/no-image.jpg
p4866
asg22
V#JT
p4867
sg341
I1
sg24
V1999-00
p4868
sg26
g27
sg28
(lp4869
VJason Terry
p4870
assbag1
(g2
g3
Ntp4871
Rp4872
(dp4873
g7
(dp4874
g9
V1999-00 Stadium Club Never Compromise Game-View #NCG10 Jason Terry
p4875
sg11
I100
sg12
VStadium Club Never Compromise Game-View
p4876
sg14
(lp4877
Vhttp://www.beckett.com/basketball/1999-00/stadium-club-never-compromise-game-view/ncg10-jason-terry-3192144
p4878
asg17
g18
sg19
(lp4879
Vhttp://img.beckett.com/images/no-image.jpg
p4880
asg22
V#NCG10
p4881
sg24
V1999-00
p4882
sg26
g27
sg28
(lp4883
VJason Terry
p4884
assbag1
(g2
g3
Ntp4885
Rp4886
(dp4887
g7
(dp4888
g9
V1999-00 Topps Gold Label New Standard One to One #NS14 Jason Terry
p4889
sg11
I1
sg12
VTopps Gold Label New Standard One to One
p4890
sg14
(lp4891
Vhttp://www.beckett.com/basketball/1999-00/topps-gold-label-new-standard-one-to-one/ns14-jason-terry-3187593
p4892
asg17
g18
sg19
(lp4893
Vhttp://img.beckett.com/images/no-image.jpg
p4894
asg22
V#NS14
p4895
sg24
V1999-00
p4896
sg26
g27
sg28
(lp4897
VJason Terry
p4898
assbag1
(g2
g3
Ntp4899
Rp4900
(dp4901
g7
(dp4902
g9
V1999-00 Topps Gold Label New Standard Red Label #NS14 Jason Terry
p4903
sg11
I25
sg12
VTopps Gold Label New Standard Red Label
p4904
sg14
(lp4905
Vhttp://www.beckett.com/basketball/1999-00/topps-gold-label-new-standard-red-label/ns14-jason-terry-3187617
p4906
asg17
g18
sg19
(lp4907
Vhttp://img.beckett.com/images/no-image.jpg
p4908
asg22
V#NS14
p4909
sg24
V1999-00
p4910
sg26
g27
sg28
(lp4911
VJason Terry
p4912
assbag1
(g2
g3
Ntp4913
Rp4914
(dp4915
g7
(dp4916
g9
V1999-00 Upper Deck BioGraphics Level 1 #B12 Jim Jackson
p4917
sg11
I100
sg12
VUpper Deck BioGraphics Level 1
p4918
sg14
(lp4919
Vhttp://www.beckett.com/basketball/1999-00/upper-deck-biographics-level-1/b12-jim-jackson-3187318
p4920
asg17
g18
sg19
(lp4921
Vhttp://img.beckett.com/images/no-image.jpg
p4922
asg22
V#B12
p4923
sg24
V1999-00
p4924
sg26
g27
sg28
(lp4925
VJim Jackson
p4926
assbag1
(g2
g3
Ntp4927
Rp4928
(dp4929
g7
(dp4930
g9
V1999-00 Upper Deck BioGraphics Level 2 #B12 Jim Jackson
p4931
sg11
I25
sg12
VUpper Deck BioGraphics Level 2
p4932
sg14
(lp4933
Vhttp://www.beckett.com/basketball/1999-00/upper-deck-biographics-level-2/b12-jim-jackson-3187356
p4934
asg17
g18
sg19
(lp4935
Vhttp://img.beckett.com/images/no-image.jpg
p4936
asg22
V#B12
p4937
sg24
V1999-00
p4938
sg26
g27
sg28
(lp4939
VJim Jackson
p4940
assbag1
(g2
g3
Ntp4941
Rp4942
(dp4943
g7
(dp4944
g9
V1999-00 Upper Deck Future Charge Level 1 #FC5 Jason Terry
p4945
sg11
I100
sg12
VUpper Deck Future Charge Level 1
p4946
sg14
(lp4947
Vhttp://www.beckett.com/basketball/1999-00/upper-deck-future-charge-level-1/fc5-jason-terry-3184921
p4948
asg17
g18
sg19
(lp4949
Vhttp://img.beckett.com/images/no-image.jpg
p4950
asg22
V#FC5
p4951
sg24
V1999-00
p4952
sg26
g27
sg28
(lp4953
VJason Terry
p4954
assbag1
(g2
g3
Ntp4955
Rp4956
(dp4957
g7
(dp4958
g9
V1999-00 Upper Deck Future Charge Level 2 #FC5 Jason Terry
p4959
sg11
I25
sg12
VUpper Deck Future Charge Level 2
p4960
sg14
(lp4961
Vhttp://www.beckett.com/basketball/1999-00/upper-deck-future-charge-level-2/fc5-jason-terry-3184944
p4962
asg17
g18
sg19
(lp4963
Vhttp://img.beckett.com/images/no-image.jpg
p4964
asg22
V#FC5
p4965
sg24
V1999-00
p4966
sg26
g27
sg28
(lp4967
VJason Terry
p4968
assbag1
(g2
g3
Ntp4969
Rp4970
(dp4971
g7
(dp4972
g9
V1999-00 Upper Deck Now Showing Level 1 #NS1 Dikembe Mutombo
p4973
sg11
I100
sg12
VUpper Deck Now Showing Level 1
p4974
sg14
(lp4975
Vhttp://www.beckett.com/basketball/1999-00/upper-deck-now-showing-level-1/ns1-dikembe-mutombo-3184270
p4976
asg17
g18
sg19
(lp4977
Vhttp://img.beckett.com/images/no-image.jpg
p4978
asg22
V#NS1
p4979
sg24
V1999-00
p4980
sg26
g27
sg28
(lp4981
VDikembe Mutombo
p4982
assbag1
(g2
g3
Ntp4983
Rp4984
(dp4985
g7
(dp4986
g9
V1999-00 Upper Deck Now Showing Level 2 #NS1 Dikembe Mutombo
p4987
sg11
I25
sg12
VUpper Deck Now Showing Level 2
p4988
sg14
(lp4989
Vhttp://www.beckett.com/basketball/1999-00/upper-deck-now-showing-level-2/ns1-dikembe-mutombo-3184308
p4990
asg17
g18
sg19
(lp4991
Vhttp://img.beckett.com/images/no-image.jpg
p4992
asg22
V#NS1
p4993
sg24
V1999-00
p4994
sg26
g27
sg28
(lp4995
VDikembe Mutombo
p4996
assbag1
(g2
g3
Ntp4997
Rp4998
(dp4999
g7
(dp5000
g9
V1999-00 Upper Deck Wild! Level 1 #W19 Jason Terry
p5001
sg11
I100
sg12
VUpper Deck Wild! Level 1
p5002
sg14
(lp5003
Vhttp://www.beckett.com/basketball/1999-00/upper-deck-wild-level-1/w19-jason-terry-3184570
p5004
asg17
g18
sg19
(lp5005
Vhttp://img.beckett.com/images/no-image.jpg
p5006
asg22
V#W19
p5007
sg24
V1999-00
p5008
sg26
g27
sg28
(lp5009
VJason Terry
p5010
assbag1
(g2
g3
Ntp5011
Rp5012
(dp5013
g7
(dp5014
g9
V1999-00 Upper Deck Wild! Level 2 #W19 Jason Terry
p5015
sg11
I25
sg12
VUpper Deck Wild! Level 2
p5016
sg14
(lp5017
Vhttp://www.beckett.com/basketball/1999-00/upper-deck-wild-level-2/w19-jason-terry-3184597
p5018
asg17
g18
sg19
(lp5019
Vhttp://img.beckett.com/images/no-image.jpg
p5020
asg22
V#W19
p5021
sg24
V1999-00
p5022
sg26
g27
sg28
(lp5023
VJason Terry
p5024
assba.