(lp0
Naccopy_reg
_reconstructor
p1
(ctutorial.items
BeckettItem
p2
c__builtin__
object
p3
Ntp4
Rp5
(dp6
S'_values'
p7
(dp8
S'originalItemDescription'
p9
V1999 Upper Deck Century Legends Century Collection #2 Bill Russell
p10
sS'serialNumber'
p11
I100
sS'setName'
p12
VUpper Deck Century Legends Century Collection
p13
sS'beckettLink'
p14
(lp15
Vhttp://www.beckett.com/basketball/1999/upper-deck-century-legends-century-collection/2-bill-russell-3175432
p16
asS'team'
p17
S'Boston Celtics'
p18
sS'imageLink'
p19
(lp20
Vhttp://img.beckett.com/images/no-image.jpg
p21
asS'cardNumber'
p22
V#2
p23
sS'year'
p24
V1999
p25
sS'sport'
p26
S'Basketball'
p27
sS'playerNames'
p28
(lp29
VBill Russell
p30
assbag1
(g2
g3
Ntp31
Rp32
(dp33
g7
(dp34
g9
V1999 Upper Deck Century Legends Century Collection #5 Oscar Robertson
p35
sg11
I100
sg12
VUpper Deck Century Legends Century Collection
p36
sg14
(lp37
Vhttp://www.beckett.com/basketball/1999/upper-deck-century-legends-century-collection/5-oscar-robertson-3175435
p38
asg17
g18
sg19
(lp39
Vhttp://img.beckett.com/images/no-image.jpg
p40
asg22
V#5
p41
sg24
V1999
p42
sg26
g27
sg28
(lp43
VOscar Robertson
p44
assbag1
(g2
g3
Ntp45
Rp46
(dp47
g7
(dp48
g9
V1999 Upper Deck Century Legends Century Collection #7 Larry Bird
p49
sg11
I100
sg12
VUpper Deck Century Legends Century Collection
p50
sg14
(lp51
Vhttp://www.beckett.com/basketball/1999/upper-deck-century-legends-century-collection/7-larry-bird-3175437
p52
asg17
g18
sg19
(lp53
Vhttp://img.beckett.com/images/no-image.jpg
p54
asg22
V#7
p55
sg24
V1999
p56
sg26
g27
sg28
(lp57
VLarry Bird
p58
assbag1
(g2
g3
Ntp59
Rp60
(dp61
g7
(dp62
g9
V1999 Upper Deck Century Legends Century Collection #12 Bob Cousy
p63
sg11
I100
sg12
VUpper Deck Century Legends Century Collection
p64
sg14
(lp65
Vhttp://www.beckett.com/basketball/1999/upper-deck-century-legends-century-collection/12-bob-cousy-3175442
p66
asg17
g18
sg19
(lp67
Vhttp://img.beckett.com/images/no-image.jpg
p68
asg22
V#12
p69
sg24
V1999
p70
sg26
g27
sg28
(lp71
VBob Cousy
p72
assbag1
(g2
g3
Ntp73
Rp74
(dp75
g7
(dp76
g9
V1999 Upper Deck Century Legends Century Collection #15 John Havlicek
p77
sg11
I100
sg12
VUpper Deck Century Legends Century Collection
p78
sg14
(lp79
Vhttp://www.beckett.com/basketball/1999/upper-deck-century-legends-century-collection/15-john-havlicek-3175445
p80
asg17
g18
sg19
(lp81
Vhttp://img.beckett.com/images/no-image.jpg
p82
asg22
V#15
p83
sg24
V1999
p84
sg26
g27
sg28
(lp85
VJohn Havlicek
p86
assbag1
(g2
g3
Ntp87
Rp88
(dp89
g7
(dp90
g9
V1999 Upper Deck Century Legends Century Collection #27 Bill Sharman
p91
sg11
I100
sg12
VUpper Deck Century Legends Century Collection
p92
sg14
(lp93
Vhttp://www.beckett.com/basketball/1999/upper-deck-century-legends-century-collection/27-bill-sharman-3175457
p94
asg17
g18
sg19
(lp95
Vhttp://img.beckett.com/images/no-image.jpg
p96
asg22
V#27
p97
sg24
V1999
p98
sg26
g27
sg28
(lp99
VBill Sharman
p100
assbag1
(g2
g3
Ntp101
Rp102
(dp103
g7
(dp104
g9
V1999 Upper Deck Century Legends Century Collection #32 Kevin McHale
p105
sg11
I100
sg12
VUpper Deck Century Legends Century Collection
p106
sg14
(lp107
Vhttp://www.beckett.com/basketball/1999/upper-deck-century-legends-century-collection/32-kevin-mchale-3175462
p108
asg17
g18
sg19
(lp109
Vhttp://img.beckett.com/images/no-image.jpg
p110
asg22
V#32
p111
sg24
V1999
p112
sg26
g27
sg28
(lp113
VKevin McHale
p114
assbag1
(g2
g3
Ntp115
Rp116
(dp117
g7
(dp118
g9
V1999 Upper Deck Century Legends Century Collection #43 Billy Cunningham
p119
sg11
I100
sg12
VUpper Deck Century Legends Century Collection
p120
sg14
(lp121
Vhttp://www.beckett.com/basketball/1999/upper-deck-century-legends-century-collection/43-billy-cunningham-3175473
p122
asg17
g18
sg19
(lp123
Vhttp://img.beckett.com/images/no-image.jpg
p124
asg22
V#43
p125
sg24
V1999
p126
sg26
g27
sg28
(lp127
VBilly Cunningham
p128
assbag1
(g2
g3
Ntp129
Rp130
(dp131
g7
(dp132
g9
V1999 Upper Deck Century Legends Century Collection #44 Sam Jones
p133
sg11
I100
sg12
VUpper Deck Century Legends Century Collection
p134
sg14
(lp135
Vhttp://www.beckett.com/basketball/1999/upper-deck-century-legends-century-collection/44-sam-jones-3175474
p136
asg17
g18
sg19
(lp137
Vhttp://img.beckett.com/images/no-image.jpg
p138
asg22
V#44
p139
sg24
V1999
p140
sg26
g27
sg28
(lp141
VSam Jones
p142
assbag1
(g2
g3
Ntp143
Rp144
(dp145
g7
(dp146
g9
V1999 Upper Deck Century Legends Century Collection #45 Dave Cowens
p147
sg11
I100
sg12
VUpper Deck Century Legends Century Collection
p148
sg14
(lp149
Vhttp://www.beckett.com/basketball/1999/upper-deck-century-legends-century-collection/45-dave-cowens-3175475
p150
asg17
g18
sg19
(lp151
Vhttp://img.beckett.com/images/no-image.jpg
p152
asg22
V#45
p153
sg24
V1999
p154
sg26
g27
sg28
(lp155
VDave Cowens
p156
assbag1
(g2
g3
Ntp157
Rp158
(dp159
g7
(dp160
g9
V1999 Upper Deck Century Legends Century Collection #46 Robert Parish
p161
sg11
I100
sg12
VUpper Deck Century Legends Century Collection
p162
sg14
(lp163
Vhttp://www.beckett.com/basketball/1999/upper-deck-century-legends-century-collection/46-robert-parish-3175476
p164
asg17
g18
sg19
(lp165
Vhttp://img.beckett.com/images/no-image.jpg
p166
asg22
V#46
p167
sg24
V1999
p168
sg26
g27
sg28
(lp169
VRobert Parish
p170
assbag1
(g2
g3
Ntp171
Rp172
(dp173
g7
(dp174
g9
V1999 Upper Deck Century Legends Century Collection #53 Paul Pierce
p175
sg11
I100
sg12
VUpper Deck Century Legends Century Collection
p176
sg14
(lp177
Vhttp://www.beckett.com/basketball/1999/upper-deck-century-legends-century-collection/53-paul-pierce-3175483
p178
asg17
g18
sg19
(lp179
Vhttp://img.beckett.com/images/no-image.jpg
p180
asg22
V#53
p181
sg24
V1999
p182
sg26
g27
sg28
(lp183
VPaul Pierce
p184
assbag1
(g2
g3
Ntp185
Rp186
(dp187
g7
(dp188
g9
V1999 Upper Deck Century Legends Century Collection #61 Antoine Walker
p189
sg11
I100
sg12
VUpper Deck Century Legends Century Collection
p190
sg14
(lp191
Vhttp://www.beckett.com/basketball/1999/upper-deck-century-legends-century-collection/61-antoine-walker-3175491
p192
asg17
g18
sg19
(lp193
Vhttp://img.beckett.com/images/no-image.jpg
p194
asg22
V#61
p195
sg24
V1999
p196
sg26
g27
sg28
(lp197
VAntoine Walker
p198
assbag1
(g2
g3
Ntp199
Rp200
(dp201
g7
(dp202
g9
V1999-00 Finest #265 Adrian Griffin RC
p203
sg11
I2000
sg12
VFinest
p204
sg14
(lp205
Vhttp://www.beckett.com/basketball/1999-00/finest/265-adrian-griffin-rc-3203613
p206
asg17
g18
sS'rookieCard'
p207
I1
sg19
(lp208
Vhttp://img.beckett.com/images/items_stock/185226/3203330/3203613/front.jpg
p209
asg22
V#265
p210
sg24
V1999-00
p211
sg26
g27
sg28
(lp212
VAdrian Griffin
p213
assbag1
(g2
g3
Ntp214
Rp215
(dp216
g7
(dp217
g9
V1999-00 Flair Showcase #104 Adrian Griffin RC
p218
sg11
I2000
sg12
VFlair Showcase
p219
sg14
(lp220
Vhttp://www.beckett.com/basketball/1999-00/flair-showcase/104-adrian-griffin-rc-3202888
p221
asg17
g18
sg207
I1
sg19
(lp222
Vhttp://img.beckett.com/images/no-image.jpg
p223
asg22
V#104
p224
sg24
V1999-00
p225
sg26
g27
sg28
(lp226
VAdrian Griffin
p227
assbag1
(g2
g3
Ntp228
Rp229
(dp230
g7
(dp231
g9
V1999-00 Fleer Focus #129 Adrian Griffin RC
p232
sg11
I3000
sg12
VFleer Focus
p233
sg14
(lp234
Vhttp://www.beckett.com/basketball/1999-00/fleer-focus/129-adrian-griffin-rc-3202011
p235
asg17
g18
sg207
I1
sg19
(lp236
Vhttp://img.beckett.com/images/no-image.jpg
p237
asg22
V#129
p238
sg24
V1999-00
p239
sg26
g27
sg28
(lp240
VAdrian Griffin
p241
assbag1
(g2
g3
Ntp242
Rp243
(dp244
g7
(dp245
g9
V1999-00 Fleer Focus #129A Adrian Griffin SP
p246
sg11
I999
sg12
VFleer Focus
p247
sg14
(lp248
Vhttp://www.beckett.com/basketball/1999-00/fleer-focus/129a-adrian-griffin-sp-3202012
p249
asg17
g18
sg19
(lp250
Vhttp://img.beckett.com/images/no-image.jpg
p251
asg22
V#129A
p252
sg24
V1999-00
p253
sS'subsetName'
p254
VSP
p255
sg26
g27
sg28
(lp256
VAdrian Griffin
p257
assbag1
(g2
g3
Ntp258
Rp259
(dp260
g7
(dp261
g9
V1999-00 Fleer Force #234 Adrian Griffin RC
p262
sg11
I1600
sg12
VFleer Force
p263
sg14
(lp264
Vhttp://www.beckett.com/basketball/1999-00/fleer-force/234-adrian-griffin-rc-3200308
p265
asg17
g18
sg207
I1
sg19
(lp266
Vhttp://img.beckett.com/images/items_stock/185226/3200062/3200308/front.jpg
p267
asg22
V#234
p268
sg24
V1999-00
p269
sg26
g27
sg28
(lp270
VAdrian Griffin
p271
assbag1
(g2
g3
Ntp272
Rp273
(dp274
g7
(dp275
g9
V1999-00 Fleer Mystique #131 Adrian Griffin RC
p276
sg11
I2999
sg12
VFleer Mystique
p277
sg14
(lp278
Vhttp://www.beckett.com/basketball/1999-00/fleer-mystique/131-adrian-griffin-rc-3198465
p279
asg17
g18
sg207
I1
sg19
(lp280
Vhttp://img.beckett.com/images/items_stock/185226/3198320/3198465/front.jpg
p281
asg22
V#131
p282
sg24
V1999-00
p283
sg26
g27
sg28
(lp284
VAdrian Griffin
p285
assbag1
(g2
g3
Ntp286
Rp287
(dp288
g7
(dp289
g9
V1999-00 Fleer Mystique #149 Antoine Walker STAR
p290
sg11
I2500
sg12
VFleer Mystique
p291
sg14
(lp292
Vhttp://www.beckett.com/basketball/1999-00/fleer-mystique/149-antoine-walker-star-3198483
p293
asg17
g18
sg19
(lp294
Vhttp://img.beckett.com/images/items_stock/185226/3198320/3198483/front.jpg
p295
asg22
V#149
p296
sg24
V1999-00
p297
sg254
VSTAR
p298
sg26
g27
sg28
(lp299
VAntoine Walker
p300
assbag1
(g2
g3
Ntp301
Rp302
(dp303
g7
(dp304
g9
V1999-00 SP Authentic #115 Adrian Griffin RC
p305
sg11
I1500
sg12
VSP Authentic
p306
sg14
(lp307
Vhttp://www.beckett.com/basketball/1999-00/sp-authentic/115-adrian-griffin-rc-3196260
p308
asg17
g18
sg207
I1
sg19
(lp309
Vhttp://img.beckett.com/images/no-image.jpg
p310
asg22
V#115
p311
sg24
V1999-00
p312
sg26
g27
sg28
(lp313
VAdrian Griffin
p314
assbag1
(g2
g3
Ntp315
Rp316
(dp317
g7
(dp318
g9
V1999-00 UD Ionix #88 Adrian Griffin RC
p319
sg11
I3500
sg12
VUD Ionix
p320
sg14
(lp321
Vhttp://www.beckett.com/basketball/1999-00/ud-ionix/88-adrian-griffin-rc-3188018
p322
asg17
g18
sg207
I1
sg19
(lp323
Vhttp://img.beckett.com/images/items_stock/185226/3187919/3188018/front.jpg
p324
asg22
V#88
p325
sg24
V1999-00
p326
sg26
g27
sg28
(lp327
VAdrian Griffin
p328
assbag1
(g2
g3
Ntp329
Rp330
(dp331
g7
(dp332
g9
V1999-00 Upper Deck Encore #115 Adrian Griffin RC
p333
sg11
I1999
sg12
VUpper Deck Encore
p334
sg14
(lp335
Vhttp://www.beckett.com/basketball/1999-00/upper-deck-encore/115-adrian-griffin-rc-3184724
p336
asg17
g18
sg207
I1
sg19
(lp337
Vhttp://img.beckett.com/images/items_stock/185226/3184598/3184724/front.jpg
p338
asg22
V#115
p339
sg24
V1999-00
p340
sg26
g27
sg28
(lp341
VAdrian Griffin
p342
assbag1
(g2
g3
Ntp343
Rp344
(dp345
g7
(dp346
g9
V1999-00 Upper Deck Gold Reserve #268 Adrian Griffin RC
p347
sg11
I3500
sg12
VUpper Deck Gold Reserve
p348
sg14
(lp349
Vhttp://www.beckett.com/basketball/1999-00/upper-deck-gold-reserve/268-adrian-griffin-rc-3183572
p350
asg17
g18
sg207
I1
sg19
(lp351
Vhttp://img.beckett.com/images/items_stock/185226/3183293/3183572/front.jpg
p352
asg22
V#268
p353
sg24
V1999-00
p354
sg26
g27
sg28
(lp355
VAdrian Griffin
p356
assbag1
(g2
g3
Ntp357
Rp358
(dp359
g7
(dp360
g9
V1999-00 Black Diamond Final Cut #4 Kenny Anderson
p361
sg11
I100
sg12
VBlack Diamond Final Cut
p362
sg14
(lp363
Vhttp://www.beckett.com/basketball/1999-00/black-diamond-final-cut/4-kenny-anderson-3205678
p364
asg17
g18
sg19
(lp365
Vhttp://img.beckett.com/images/no-image.jpg
p366
asg22
V#4
p367
sg24
V1999-00
p368
sg26
g27
sg28
(lp369
VKenny Anderson
p370
assbag1
(g2
g3
Ntp371
Rp372
(dp373
g7
(dp374
g9
V1999-00 Black Diamond Final Cut #5 Paul Pierce
p375
sg11
I100
sg12
VBlack Diamond Final Cut
p376
sg14
(lp377
Vhttp://www.beckett.com/basketball/1999-00/black-diamond-final-cut/5-paul-pierce-3205679
p378
asg17
g18
sg19
(lp379
Vhttp://img.beckett.com/images/no-image.jpg
p380
asg22
V#5
p381
sg24
V1999-00
p382
sg26
g27
sg28
(lp383
VPaul Pierce
p384
assbag1
(g2
g3
Ntp385
Rp386
(dp387
g7
(dp388
g9
V1999-00 Black Diamond Final Cut #6 Antoine Walker
p389
sg11
I100
sg12
VBlack Diamond Final Cut
p390
sg14
(lp391
Vhttp://www.beckett.com/basketball/1999-00/black-diamond-final-cut/6-antoine-walker-3205680
p392
asg17
g18
sg19
(lp393
Vhttp://img.beckett.com/images/no-image.jpg
p394
asg22
V#6
p395
sg24
V1999-00
p396
sg26
g27
sg28
(lp397
VAntoine Walker
p398
assbag1
(g2
g3
Ntp399
Rp400
(dp401
g7
(dp402
g9
V1999-00 Black Diamond Final Cut #21 Ron Mercer
p403
sg11
I100
sg12
VBlack Diamond Final Cut
p404
sg14
(lp405
Vhttp://www.beckett.com/basketball/1999-00/black-diamond-final-cut/21-ron-mercer-3205695
p406
asg17
g18
sg19
(lp407
Vhttp://img.beckett.com/images/no-image.jpg
p408
asg22
V#21
p409
sg24
V1999-00
p410
sg26
g27
sg28
(lp411
VRon Mercer
p412
assbag1
(g2
g3
Ntp413
Rp414
(dp415
g7
(dp416
g9
V1999-00 Black Diamond Final Cut #106 Adrian Griffin
p417
sg11
I50
sg12
VBlack Diamond Final Cut
p418
sg14
(lp419
Vhttp://www.beckett.com/basketball/1999-00/black-diamond-final-cut/106-adrian-griffin-3205780
p420
asg17
g18
sg19
(lp421
Vhttp://img.beckett.com/images/no-image.jpg
p422
asg22
V#106
p423
sg24
V1999-00
p424
sg26
g27
sg28
(lp425
VAdrian Griffin
p426
assbag1
(g2
g3
Ntp427
Rp428
(dp429
g7
(dp430
g9
V1999-00 Bowman's Best Atomic Refractors #25 Antoine Walker
p431
sg11
I100
sg12
VBowman's Best Atomic Refractors
p432
sg14
(lp433
Vhttp://www.beckett.com/basketball/1999-00/bowmans-best-atomic-refractors/25-antoine-walker-3204812
p434
asg17
g18
sg19
(lp435
Vhttp://img.beckett.com/images/items_stock/185226/3204779/3204812/front.jpg
p436
asg22
V#25
p437
sg24
V1999-00
p438
sg26
g27
sg28
(lp439
VAntoine Walker
p440
assbag1
(g2
g3
Ntp441
Rp442
(dp443
g7
(dp444
g9
V1999-00 Bowman's Best Atomic Refractors #44 Kenny Anderson
p445
sg11
I100
sg12
VBowman's Best Atomic Refractors
p446
sg14
(lp447
Vhttp://www.beckett.com/basketball/1999-00/bowmans-best-atomic-refractors/44-kenny-anderson-3204831
p448
asg17
g18
sg19
(lp449
Vhttp://img.beckett.com/images/items_stock/185226/3204779/3204831/front.jpg
p450
asg22
V#44
p451
sg24
V1999-00
p452
sg26
g27
sg28
(lp453
VKenny Anderson
p454
assbag1
(g2
g3
Ntp455
Rp456
(dp457
g7
(dp458
g9
V1999-00 Bowman's Best Atomic Refractors #59 Ron Mercer
p459
sg11
I100
sg12
VBowman's Best Atomic Refractors
p460
sg14
(lp461
Vhttp://www.beckett.com/basketball/1999-00/bowmans-best-atomic-refractors/59-ron-mercer-3204846
p462
asg17
g18
sg19
(lp463
Vhttp://img.beckett.com/images/items_stock/185226/3204779/3204846/front.jpg
p464
asg22
V#59
p465
sg24
V1999-00
p466
sg26
g27
sg28
(lp467
VRon Mercer
p468
assbag1
(g2
g3
Ntp469
Rp470
(dp471
g7
(dp472
g9
V1999-00 Bowman's Best Atomic Refractors #79 Paul Pierce
p473
sg11
I100
sg12
VBowman's Best Atomic Refractors
p474
sg14
(lp475
Vhttp://www.beckett.com/basketball/1999-00/bowmans-best-atomic-refractors/79-paul-pierce-3204866
p476
asg17
g18
sg19
(lp477
Vhttp://img.beckett.com/images/no-image.jpg
p478
asg22
V#79
p479
sg24
V1999-00
p480
sg26
g27
sg28
(lp481
VPaul Pierce
p482
assbag1
(g2
g3
Ntp483
Rp484
(dp485
g7
(dp486
g9
V1999-00 Bowman's Best Atomic Refractors #132 Adrian Griffin
p487
sg11
I100
sg12
VBowman's Best Atomic Refractors
p488
sg14
(lp489
Vhttp://www.beckett.com/basketball/1999-00/bowmans-best-atomic-refractors/132-adrian-griffin-3204919
p490
asg17
g18
sg19
(lp491
Vhttp://img.beckett.com/images/no-image.jpg
p492
asg22
V#132
p493
sg24
V1999-00
p494
sg26
g27
sg28
(lp495
VAdrian Griffin
p496
assbag1
(g2
g3
Ntp497
Rp498
(dp499
g7
(dp500
g9
V1999-00 Bowman's Best Refractors #25 Antoine Walker
p501
sg11
I400
sg12
VBowman's Best Refractors
p502
sg14
(lp503
Vhttp://www.beckett.com/basketball/1999-00/bowmans-best-refractors/25-antoine-walker-3204670
p504
asg17
g18
sg19
(lp505
Vhttp://img.beckett.com/images/items_stock/185226/3204637/3204670/front.jpg
p506
asg22
V#25
p507
sg24
V1999-00
p508
sg26
g27
sg28
(lp509
VAntoine Walker
p510
assbag1
(g2
g3
Ntp511
Rp512
(dp513
g7
(dp514
g9
V1999-00 Bowman's Best Refractors #44 Kenny Anderson
p515
sg11
I400
sg12
VBowman's Best Refractors
p516
sg14
(lp517
Vhttp://www.beckett.com/basketball/1999-00/bowmans-best-refractors/44-kenny-anderson-3204689
p518
asg17
g18
sg19
(lp519
Vhttp://img.beckett.com/images/items_stock/185226/3204637/3204689/front.jpg
p520
asg22
V#44
p521
sg24
V1999-00
p522
sg26
g27
sg28
(lp523
VKenny Anderson
p524
assbag1
(g2
g3
Ntp525
Rp526
(dp527
g7
(dp528
g9
V1999-00 Bowman's Best Refractors #59 Ron Mercer
p529
sg11
I400
sg12
VBowman's Best Refractors
p530
sg14
(lp531
Vhttp://www.beckett.com/basketball/1999-00/bowmans-best-refractors/59-ron-mercer-3204704
p532
asg17
g18
sg19
(lp533
Vhttp://img.beckett.com/images/items_stock/185226/3204637/3204704/front.jpg
p534
asg22
V#59
p535
sg24
V1999-00
p536
sg26
g27
sg28
(lp537
VRon Mercer
p538
assbag1
(g2
g3
Ntp539
Rp540
(dp541
g7
(dp542
g9
V1999-00 Bowman's Best Refractors #79 Paul Pierce
p543
sg11
I400
sg12
VBowman's Best Refractors
p544
sg14
(lp545
Vhttp://www.beckett.com/basketball/1999-00/bowmans-best-refractors/79-paul-pierce-3204724
p546
asg17
g18
sg19
(lp547
Vhttp://img.beckett.com/images/items_stock/185226/3204637/3204724/front.jpg
p548
asg22
V#79
p549
sg24
V1999-00
p550
sg26
g27
sg28
(lp551
VPaul Pierce
p552
assbag1
(g2
g3
Ntp553
Rp554
(dp555
g7
(dp556
g9
V1999-00 Bowman's Best Refractors #132 Adrian Griffin
p557
sg11
I400
sg12
VBowman's Best Refractors
p558
sg14
(lp559
Vhttp://www.beckett.com/basketball/1999-00/bowmans-best-refractors/132-adrian-griffin-3204777
p560
asg17
g18
sg19
(lp561
Vhttp://img.beckett.com/images/items_stock/185226/3204637/3204777/front.jpg
p562
asg22
V#132
p563
sg24
V1999-00
p564
sg26
g27
sg28
(lp565
VAdrian Griffin
p566
assbag1
(g2
g3
Ntp567
Rp568
(dp569
g7
(dp570
g9
V1999-00 Finest Refractors #265 Adrian Griffin
p571
sg11
I200
sg12
VFinest Refractors
p572
sg14
(lp573
Vhttp://www.beckett.com/basketball/1999-00/finest-refractors/265-adrian-griffin-3203896
p574
asg17
g18
sg19
(lp575
Vhttp://img.beckett.com/images/items_stock/185226/3203616/3203896/front.jpg
p576
asg22
V#265
p577
sg24
V1999-00
p578
sg26
g27
sg28
(lp579
VAdrian Griffin
p580
assbag1
(g2
g3
Ntp581
Rp582
(dp583
g7
(dp584
g9
V1999-00 Finest Refractors Gold #12 Vitaly Potapenko
p585
sg11
I100
sg12
VFinest Refractors Gold
p586
sg14
(lp587
Vhttp://www.beckett.com/basketball/1999-00/finest-refractors-gold/12-vitaly-potapenko-3203924
p588
asg17
g18
sg19
(lp589
Vhttp://img.beckett.com/images/no-image.jpg
p590
asg22
V#12
p591
sg24
V1999-00
p592
sg26
g27
sg28
(lp593
VVitaly Potapenko
p594
assbag1
(g2
g3
Ntp595
Rp596
(dp597
g7
(dp598
g9
V1999-00 Finest Refractors Gold #34 Kenny Anderson
p599
sg11
I100
sg12
VFinest Refractors Gold
p600
sg14
(lp601
Vhttp://www.beckett.com/basketball/1999-00/finest-refractors-gold/34-kenny-anderson-3203946
p602
asg17
g18
sg19
(lp603
Vhttp://img.beckett.com/images/no-image.jpg
p604
asg22
V#34
p605
sg24
V1999-00
p606
sg26
g27
sg28
(lp607
VKenny Anderson
p608
assbag1
(g2
g3
Ntp609
Rp610
(dp611
g7
(dp612
g9
V1999-00 Finest Refractors Gold #68 Walter McCarty
p613
sg11
I100
sg12
VFinest Refractors Gold
p614
sg14
(lp615
Vhttp://www.beckett.com/basketball/1999-00/finest-refractors-gold/68-walter-mccarty-3203980
p616
asg17
g18
sg19
(lp617
Vhttp://img.beckett.com/images/no-image.jpg
p618
asg22
V#68
p619
sg24
V1999-00
p620
sg26
g27
sg28
(lp621
VWalter McCarty
p622
assbag1
(g2
g3
Ntp623
Rp624
(dp625
g7
(dp626
g9
V1999-00 Finest Refractors Gold #90 Antoine Walker
p627
sg11
I100
sg12
VFinest Refractors Gold
p628
sg14
(lp629
Vhttp://www.beckett.com/basketball/1999-00/finest-refractors-gold/90-antoine-walker-3204002
p630
asg17
g18
sg19
(lp631
Vhttp://img.beckett.com/images/no-image.jpg
p632
asg22
V#90
p633
sg24
V1999-00
p634
sg26
g27
sg28
(lp635
VAntoine Walker
p636
assbag1
(g2
g3
Ntp637
Rp638
(dp639
g7
(dp640
g9
V1999-00 Finest Refractors Gold #127 Paul Pierce SEN
p641
sg11
I100
sg12
VFinest Refractors Gold
p642
sg14
(lp643
Vhttp://www.beckett.com/basketball/1999-00/finest-refractors-gold/127-paul-pierce-sen-3204039
p644
asg17
g18
sg19
(lp645
Vhttp://img.beckett.com/images/no-image.jpg
p646
asg22
V#127
p647
sg24
V1999-00
p648
sg254
VSEN
p649
sg26
g27
sg28
(lp650
VPaul Pierce
p651
assbag1
(g2
g3
Ntp652
Rp653
(dp654
g7
(dp655
g9
V1999-00 Finest Refractors Gold #162 Ron Mercer
p656
sg11
I100
sg12
VFinest Refractors Gold
p657
sg14
(lp658
Vhttp://www.beckett.com/basketball/1999-00/finest-refractors-gold/162-ron-mercer-3204074
p659
asg17
g18
sg19
(lp660
Vhttp://img.beckett.com/images/no-image.jpg
p661
asg22
V#162
p662
sg24
V1999-00
p663
sg26
g27
sg28
(lp664
VRon Mercer
p665
assbag1
(g2
g3
Ntp666
Rp667
(dp668
g7
(dp669
g9
V1999-00 Finest Refractors Gold #184 Paul Pierce
p670
sg11
I100
sg12
VFinest Refractors Gold
p671
sg14
(lp672
Vhttp://www.beckett.com/basketball/1999-00/finest-refractors-gold/184-paul-pierce-3204096
p673
asg17
g18
sg19
(lp674
Vhttp://img.beckett.com/images/no-image.jpg
p675
asg22
V#184
p676
sg24
V1999-00
p677
sg26
g27
sg28
(lp678
VPaul Pierce
p679
assbag1
(g2
g3
Ntp680
Rp681
(dp682
g7
(dp683
g9
V1999-00 Finest Refractors Gold #242 Ron Mercer CAT
p684
sg11
I100
sg12
VFinest Refractors Gold
p685
sg14
(lp686
Vhttp://www.beckett.com/basketball/1999-00/finest-refractors-gold/242-ron-mercer-cat-3204154
p687
asg17
g18
sg19
(lp688
Vhttp://img.beckett.com/images/items_stock/185226/3203898/3204154/front.jpg
p689
asg22
V#242
p690
sg24
V1999-00
p691
sg254
VCAT
p692
sg26
g27
sg28
(lp693
VRon Mercer
p694
assbag1
(g2
g3
Ntp695
Rp696
(dp697
g7
(dp698
g9
V1999-00 Finest Refractors Gold #265 Adrian Griffin
p699
sg11
I100
sg12
VFinest Refractors Gold
p700
sg14
(lp701
Vhttp://www.beckett.com/basketball/1999-00/finest-refractors-gold/265-adrian-griffin-3204177
p702
asg17
g18
sg19
(lp703
Vhttp://img.beckett.com/images/no-image.jpg
p704
asg22
V#265
p705
sg24
V1999-00
p706
sg26
g27
sg28
(lp707
VAdrian Griffin
p708
assbag1
(g2
g3
Ntp709
Rp710
(dp711
g7
(dp712
g9
V1999-00 Flair Showcase Legacy Collection #19 Paul Pierce
p713
sg11
I20
sg12
VFlair Showcase Legacy Collection
p714
sg14
(lp715
Vhttp://www.beckett.com/basketball/1999-00/flair-showcase-legacy-collection/19-paul-pierce-3202943
p716
asg17
g18
sg19
(lp717
Vhttp://img.beckett.com/images/no-image.jpg
p718
asg22
V#19
p719
sg24
V1999-00
p720
sg26
g27
sg28
(lp721
VPaul Pierce
p722
assbag1
(g2
g3
Ntp723
Rp724
(dp725
g7
(dp726
g9
V1999-00 Flair Showcase Legacy Collection #63 Kenny Anderson
p727
sg11
I20
sg12
VFlair Showcase Legacy Collection
p728
sg14
(lp729
Vhttp://www.beckett.com/basketball/1999-00/flair-showcase-legacy-collection/63-kenny-anderson-3202987
p730
asg17
g18
sg19
(lp731
Vhttp://img.beckett.com/images/no-image.jpg
p732
asg22
V#63
p733
sg24
V1999-00
p734
sg26
g27
sg28
(lp735
VKenny Anderson
p736
assbag1
(g2
g3
Ntp737
Rp738
(dp739
g7
(dp740
g9
V1999-00 Flair Showcase Legacy Collection #71 Ron Mercer
p741
sg11
I20
sg12
VFlair Showcase Legacy Collection
p742
sg14
(lp743
Vhttp://www.beckett.com/basketball/1999-00/flair-showcase-legacy-collection/71-ron-mercer-3202995
p744
asg17
g18
sg19
(lp745
Vhttp://img.beckett.com/images/items_stock/185226/3202916/3202995/front.jpg
p746
asg22
V#71
p747
sg24
V1999-00
p748
sg26
g27
sg28
(lp749
VRon Mercer
p750
assbag1
(g2
g3
Ntp751
Rp752
(dp753
g7
(dp754
g9
V1999-00 Flair Showcase Legacy Collection #85 Antoine Walker
p755
sg11
I20
sg12
VFlair Showcase Legacy Collection
p756
sg14
(lp757
Vhttp://www.beckett.com/basketball/1999-00/flair-showcase-legacy-collection/85-antoine-walker-3203009
p758
asg17
g18
sg19
(lp759
Vhttp://img.beckett.com/images/no-image.jpg
p760
asg22
V#85
p761
sg24
V1999-00
p762
sg26
g27
sg28
(lp763
VAntoine Walker
p764
assbag1
(g2
g3
Ntp765
Rp766
(dp767
g7
(dp768
g9
V1999-00 Flair Showcase Legacy Collection #104 Adrian Griffin
p769
sg11
I20
sg12
VFlair Showcase Legacy Collection
p770
sg14
(lp771
Vhttp://www.beckett.com/basketball/1999-00/flair-showcase-legacy-collection/104-adrian-griffin-3203028
p772
asg17
g18
sg19
(lp773
Vhttp://img.beckett.com/images/no-image.jpg
p774
asg22
V#104
p775
sg24
V1999-00
p776
sg26
g27
sg28
(lp777
VAdrian Griffin
p778
assbag1
(g2
g3
Ntp779
Rp780
(dp781
g7
(dp782
g9
V1999-00 Flair Showcase Masterpiece #19 Paul Pierce
p783
sg11
I1
sg12
VFlair Showcase Masterpiece
p784
sg14
(lp785
Vhttp://www.beckett.com/basketball/1999-00/flair-showcase-masterpiece/19-paul-pierce-3203078
p786
asg17
g18
sg19
(lp787
Vhttp://img.beckett.com/images/no-image.jpg
p788
asg22
V#19
p789
sg24
V1999-00
p790
sg26
g27
sg28
(lp791
VPaul Pierce
p792
assbag1
(g2
g3
Ntp793
Rp794
(dp795
g7
(dp796
g9
V1999-00 Flair Showcase Masterpiece #63 Kenny Anderson
p797
sg11
I1
sg12
VFlair Showcase Masterpiece
p798
sg14
(lp799
Vhttp://www.beckett.com/basketball/1999-00/flair-showcase-masterpiece/63-kenny-anderson-3203122
p800
asg17
g18
sg19
(lp801
Vhttp://img.beckett.com/images/no-image.jpg
p802
asg22
V#63
p803
sg24
V1999-00
p804
sg26
g27
sg28
(lp805
VKenny Anderson
p806
assbag1
(g2
g3
Ntp807
Rp808
(dp809
g7
(dp810
g9
V1999-00 Flair Showcase Masterpiece #71 Ron Mercer
p811
sg11
I1
sg12
VFlair Showcase Masterpiece
p812
sg14
(lp813
Vhttp://www.beckett.com/basketball/1999-00/flair-showcase-masterpiece/71-ron-mercer-3203130
p814
asg17
g18
sg19
(lp815
Vhttp://img.beckett.com/images/no-image.jpg
p816
asg22
V#71
p817
sg24
V1999-00
p818
sg26
g27
sg28
(lp819
VRon Mercer
p820
assbag1
(g2
g3
Ntp821
Rp822
(dp823
g7
(dp824
g9
V1999-00 Flair Showcase Masterpiece #85 Antoine Walker
p825
sg11
I1
sg12
VFlair Showcase Masterpiece
p826
sg14
(lp827
Vhttp://www.beckett.com/basketball/1999-00/flair-showcase-masterpiece/85-antoine-walker-3203144
p828
asg17
g18
sg19
(lp829
Vhttp://img.beckett.com/images/no-image.jpg
p830
asg22
V#85
p831
sg24
V1999-00
p832
sg26
g27
sg28
(lp833
VAntoine Walker
p834
assbag1
(g2
g3
Ntp835
Rp836
(dp837
g7
(dp838
g9
V1999-00 Flair Showcase Masterpiece #104 Adrian Griffin
p839
sg11
I1
sg12
VFlair Showcase Masterpiece
p840
sg14
(lp841
Vhttp://www.beckett.com/basketball/1999-00/flair-showcase-masterpiece/104-adrian-griffin-3203163
p842
asg17
g18
sg19
(lp843
Vhttp://img.beckett.com/images/no-image.jpg
p844
asg22
V#104
p845
sg24
V1999-00
p846
sg26
g27
sg28
(lp847
VAdrian Griffin
p848
assbag1
(g2
g3
Ntp849
Rp850
(dp851
g7
(dp852
g9
V1999-00 Fleer Supreme Court Collection #9 Paul Pierce
p853
sg11
I20
sg12
VFleer Supreme Court Collection
p854
sg14
(lp855
Vhttp://www.beckett.com/basketball/1999-00/fleer-supreme-court-collection/9-paul-pierce-3201515
p856
asg17
g18
sg19
(lp857
Vhttp://img.beckett.com/images/no-image.jpg
p858
asg22
V#9
p859
sg24
V1999-00
p860
sg26
g27
sg28
(lp861
VPaul Pierce
p862
assbag1
(g2
g3
Ntp863
Rp864
(dp865
g7
(dp866
g9
V1999-00 Fleer Supreme Court Collection #12 Kenny Anderson
p867
sg11
I20
sg12
VFleer Supreme Court Collection
p868
sg14
(lp869
Vhttp://www.beckett.com/basketball/1999-00/fleer-supreme-court-collection/12-kenny-anderson-3201518
p870
asg17
g18
sg19
(lp871
Vhttp://img.beckett.com/images/no-image.jpg
p872
asg22
V#12
p873
sg24
V1999-00
p874
sg26
g27
sg28
(lp875
VKenny Anderson
p876
assbag1
(g2
g3
Ntp877
Rp878
(dp879
g7
(dp880
g9
V1999-00 Fleer Supreme Court Collection #42 Tony Battie
p881
sg11
I20
sg12
VFleer Supreme Court Collection
p882
sg14
(lp883
Vhttp://www.beckett.com/basketball/1999-00/fleer-supreme-court-collection/42-tony-battie-3201548
p884
asg17
g18
sg19
(lp885
Vhttp://img.beckett.com/images/no-image.jpg
p886
asg22
V#42
p887
sg24
V1999-00
p888
sg26
g27
sg28
(lp889
VTony Battie
p890
assbag1
(g2
g3
Ntp891
Rp892
(dp893
g7
(dp894
g9
V1999-00 Fleer Supreme Court Collection #72 Dana Barros
p895
sg11
I20
sg12
VFleer Supreme Court Collection
p896
sg14
(lp897
Vhttp://www.beckett.com/basketball/1999-00/fleer-supreme-court-collection/72-dana-barros-3201578
p898
asg17
g18
sg19
(lp899
Vhttp://img.beckett.com/images/no-image.jpg
p900
asg22
V#72
p901
sg24
V1999-00
p902
sg26
g27
sg28
(lp903
VDana Barros
p904
assbag1
(g2
g3
Ntp905
Rp906
(dp907
g7
(dp908
g9
V1999-00 Fleer Supreme Court Collection #102 Ron Mercer
p909
sg11
I20
sg12
VFleer Supreme Court Collection
p910
sg14
(lp911
Vhttp://www.beckett.com/basketball/1999-00/fleer-supreme-court-collection/102-ron-mercer-3201608
p912
asg17
g18
sg19
(lp913
Vhttp://img.beckett.com/images/no-image.jpg
p914
asg22
V#102
p915
sg24
V1999-00
p916
sg26
g27
sg28
(lp917
VRon Mercer
p918
assbag1
(g2
g3
Ntp919
Rp920
(dp921
g7
(dp922
g9
V1999-00 Fleer Supreme Court Collection #131 Vitaly Potapenko
p923
sg11
I20
sg12
VFleer Supreme Court Collection
p924
sg14
(lp925
Vhttp://www.beckett.com/basketball/1999-00/fleer-supreme-court-collection/131-vitaly-potapenko-3201637
p926
asg17
g18
sg19
(lp927
Vhttp://img.beckett.com/images/no-image.jpg
p928
asg22
V#131
p929
sg24
V1999-00
p930
sg26
g27
sg28
(lp931
VVitaly Potapenko
p932
assbag1
(g2
g3
Ntp933
Rp934
(dp935
g7
(dp936
g9
V1999-00 Fleer Supreme Court Collection #160 Antoine Walker
p937
sg11
I20
sg12
VFleer Supreme Court Collection
p938
sg14
(lp939
Vhttp://www.beckett.com/basketball/1999-00/fleer-supreme-court-collection/160-antoine-walker-3201666
p940
asg17
g18
sg19
(lp941
Vhttp://img.beckett.com/images/no-image.jpg
p942
asg22
V#160
p943
sg24
V1999-00
p944
sg26
g27
sg28
(lp945
VAntoine Walker
p946
assbag1
(g2
g3
Ntp947
Rp948
(dp949
g7
(dp950
g9
V1999-00 Fleer Focus Masterpiece Mania #4 Ron Mercer
p951
sg11
I300
sg12
VFleer Focus Masterpiece Mania
p952
sg14
(lp953
Vhttp://www.beckett.com/basketball/1999-00/fleer-focus-masterpiece-mania/4-ron-mercer-3202223
p954
asg17
g18
sg19
(lp955
Vhttp://img.beckett.com/images/items_stock/185226/3202210/3202223/front.jpg
p956
asg22
V#4
p957
sg24
V1999-00
p958
sg26
g27
sg28
(lp959
VRon Mercer
p960
assbag1
(g2
g3
Ntp961
Rp962
(dp963
g7
(dp964
g9
V1999-00 Fleer Focus Masterpiece Mania #16 Paul Pierce
p965
sg11
I300
sg12
VFleer Focus Masterpiece Mania
p966
sg14
(lp967
Vhttp://www.beckett.com/basketball/1999-00/fleer-focus-masterpiece-mania/16-paul-pierce-3202235
p968
asg17
g18
sg19
(lp969
Vhttp://img.beckett.com/images/items_stock/185226/3202210/3202235/front.jpg
p970
asg22
V#16
p971
sg24
V1999-00
p972
sg26
g27
sg28
(lp973
VPaul Pierce
p974
assbag1
(g2
g3
Ntp975
Rp976
(dp977
g7
(dp978
g9
V1999-00 Fleer Focus Masterpiece Mania #59 Kenny Anderson
p979
sg11
I300
sg12
VFleer Focus Masterpiece Mania
p980
sg14
(lp981
Vhttp://www.beckett.com/basketball/1999-00/fleer-focus-masterpiece-mania/59-kenny-anderson-3202278
p982
asg17
g18
sg19
(lp983
Vhttp://img.beckett.com/images/items_stock/185226/3202210/3202278/front.jpg
p984
asg22
V#59
p985
sg24
V1999-00
p986
sg26
g27
sg28
(lp987
VKenny Anderson
p988
assbag1
(g2
g3
Ntp989
Rp990
(dp991
g7
(dp992
g9
V1999-00 Fleer Focus Masterpiece Mania #61 Antoine Walker
p993
sg11
I300
sg12
VFleer Focus Masterpiece Mania
p994
sg14
(lp995
Vhttp://www.beckett.com/basketball/1999-00/fleer-focus-masterpiece-mania/61-antoine-walker-3202280
p996
asg17
g18
sg19
(lp997
Vhttp://img.beckett.com/images/items_stock/185226/3202210/3202280/front.jpg
p998
asg22
V#61
p999
sg24
V1999-00
p1000
sg26
g27
sg28
(lp1001
VAntoine Walker
p1002
assbag1
(g2
g3
Ntp1003
Rp1004
(dp1005
g7
(dp1006
g9
V1999-00 Fleer Focus Masterpiece Mania #129 Adrian Griffin
p1007
sg11
I300
sg12
VFleer Focus Masterpiece Mania
p1008
sg14
(lp1009
Vhttp://www.beckett.com/basketball/1999-00/fleer-focus-masterpiece-mania/129-adrian-griffin-3202348
p1010
asg17
g18
sg19
(lp1011
Vhttp://img.beckett.com/images/no-image.jpg
p1012
asg22
V#129
p1013
sg24
V1999-00
p1014
sg26
g27
sg28
(lp1015
VAdrian Griffin
p1016
assbag1
(g2
g3
Ntp1017
Rp1018
(dp1019
g7
(dp1020
g9
V1999-00 Fleer Focus Masterpieces #4 Ron Mercer
p1021
sg11
I1
sg12
VFleer Focus Masterpieces
p1022
sg14
(lp1023
Vhttp://www.beckett.com/basketball/1999-00/fleer-focus-masterpieces/4-ron-mercer-3202063
p1024
asg17
g18
sg19
(lp1025
Vhttp://img.beckett.com/images/no-image.jpg
p1026
asg22
V#4
p1027
sg24
V1999-00
p1028
sg26
g27
sg28
(lp1029
VRon Mercer
p1030
assbag1
(g2
g3
Ntp1031
Rp1032
(dp1033
g7
(dp1034
g9
V1999-00 Fleer Focus Masterpieces #16 Paul Pierce
p1035
sg11
I1
sg12
VFleer Focus Masterpieces
p1036
sg14
(lp1037
Vhttp://www.beckett.com/basketball/1999-00/fleer-focus-masterpieces/16-paul-pierce-3202075
p1038
asg17
g18
sg19
(lp1039
Vhttp://img.beckett.com/images/no-image.jpg
p1040
asg22
V#16
p1041
sg24
V1999-00
p1042
sg26
g27
sg28
(lp1043
VPaul Pierce
p1044
assbag1
(g2
g3
Ntp1045
Rp1046
(dp1047
g7
(dp1048
g9
V1999-00 Fleer Focus Masterpieces #59 Kenny Anderson
p1049
sg11
I1
sg12
VFleer Focus Masterpieces
p1050
sg14
(lp1051
Vhttp://www.beckett.com/basketball/1999-00/fleer-focus-masterpieces/59-kenny-anderson-3202118
p1052
asg17
g18
sg19
(lp1053
Vhttp://img.beckett.com/images/no-image.jpg
p1054
asg22
V#59
p1055
sg24
V1999-00
p1056
sg26
g27
sg28
(lp1057
VKenny Anderson
p1058
assbag1
(g2
g3
Ntp1059
Rp1060
(dp1061
g7
(dp1062
g9
V1999-00 Fleer Focus Masterpieces #61 Antoine Walker
p1063
sg11
I1
sg12
VFleer Focus Masterpieces
p1064
sg14
(lp1065
Vhttp://www.beckett.com/basketball/1999-00/fleer-focus-masterpieces/61-antoine-walker-3202120
p1066
asg17
g18
sg19
(lp1067
Vhttp://img.beckett.com/images/no-image.jpg
p1068
asg22
V#61
p1069
sg24
V1999-00
p1070
sg26
g27
sg28
(lp1071
VAntoine Walker
p1072
assbag1
(g2
g3
Ntp1073
Rp1074
(dp1075
g7
(dp1076
g9
V1999-00 Fleer Focus Masterpieces #129 Adrian Griffin
p1077
sg11
I1
sg12
VFleer Focus Masterpieces
p1078
sg14
(lp1079
Vhttp://www.beckett.com/basketball/1999-00/fleer-focus-masterpieces/129-adrian-griffin-3202188
p1080
asg17
g18
sg19
(lp1081
Vhttp://img.beckett.com/images/no-image.jpg
p1082
asg22
V#129
p1083
sg24
V1999-00
p1084
sg26
g27
sg28
(lp1085
VAdrian Griffin
p1086
assbag1
(g2
g3
Ntp1087
Rp1088
(dp1089
g7
(dp1090
g9
V1999-00 Fleer Force Forcefield #234 Adrian Griffin
p1091
sg11
I100
sg12
VFleer Force Forcefield
p1092
sg14
(lp1093
Vhttp://www.beckett.com/basketball/1999-00/fleer-force-forcefield/234-adrian-griffin-3200556
p1094
asg17
g18
sg19
(lp1095
Vhttp://img.beckett.com/images/no-image.jpg
p1096
asg22
V#234
p1097
sg24
V1999-00
p1098
sg26
g27
sg28
(lp1099
VAdrian Griffin
p1100
assbag1
(g2
g3
Ntp1101
Rp1102
(dp1103
g7
(dp1104
g9
V1999-00 Fleer Mystique Masterpiece #5 Kenny Anderson
p1105
sg11
I1
sg12
VFleer Mystique Masterpiece
p1106
sg14
(lp1107
Vhttp://www.beckett.com/basketball/1999-00/fleer-mystique-masterpiece/5-kenny-anderson-3198601
p1108
asg17
g18
sg19
(lp1109
Vhttp://img.beckett.com/images/no-image.jpg
p1110
asg22
V#5
p1111
sg24
V1999-00
p1112
sg26
g27
sg28
(lp1113
VKenny Anderson
p1114
assbag1
(g2
g3
Ntp1115
Rp1116
(dp1117
g7
(dp1118
g9
V1999-00 Fleer Mystique Masterpiece #14 Antoine Walker
p1119
sg11
I1
sg12
VFleer Mystique Masterpiece
p1120
sg14
(lp1121
Vhttp://www.beckett.com/basketball/1999-00/fleer-mystique-masterpiece/14-antoine-walker-3198610
p1122
asg17
g18
sg19
(lp1123
Vhttp://img.beckett.com/images/no-image.jpg
p1124
asg22
V#14
p1125
sg24
V1999-00
p1126
sg26
g27
sg28
(lp1127
VAntoine Walker
p1128
assbag1
(g2
g3
Ntp1129
Rp1130
(dp1131
g7
(dp1132
g9
V1999-00 Fleer Mystique Masterpiece #48 Paul Pierce
p1133
sg11
I1
sg12
VFleer Mystique Masterpiece
p1134
sg14
(lp1135
Vhttp://www.beckett.com/basketball/1999-00/fleer-mystique-masterpiece/48-paul-pierce-3198644
p1136
asg17
g18
sg19
(lp1137
Vhttp://img.beckett.com/images/no-image.jpg
p1138
asg22
V#48
p1139
sg24
V1999-00
p1140
sg26
g27
sg28
(lp1141
VPaul Pierce
p1142
assbag1
(g2
g3
Ntp1143
Rp1144
(dp1145
g7
(dp1146
g9
V1999-00 Fleer Mystique Masterpiece #80 Ron Mercer
p1147
sg11
I1
sg12
VFleer Mystique Masterpiece
p1148
sg14
(lp1149
Vhttp://www.beckett.com/basketball/1999-00/fleer-mystique-masterpiece/80-ron-mercer-3198676
p1150
asg17
g18
sg19
(lp1151
Vhttp://img.beckett.com/images/no-image.jpg
p1152
asg22
V#80
p1153
sg24
V1999-00
p1154
sg26
g27
sg28
(lp1155
VRon Mercer
p1156
assbag1
(g2
g3
Ntp1157
Rp1158
(dp1159
g7
(dp1160
g9
V1999-00 Fleer Mystique Masterpiece #131 Adrian Griffin
p1161
sg11
I1
sg12
VFleer Mystique Masterpiece
p1162
sg14
(lp1163
Vhttp://www.beckett.com/basketball/1999-00/fleer-mystique-masterpiece/131-adrian-griffin-3198727
p1164
asg17
g18
sg19
(lp1165
Vhttp://img.beckett.com/images/no-image.jpg
p1166
asg22
V#131
p1167
sg24
V1999-00
p1168
sg26
g27
sg28
(lp1169
VAdrian Griffin
p1170
assbag1
(g2
g3
Ntp1171
Rp1172
(dp1173
g7
(dp1174
g9
V1999-00 Fleer Mystique Masterpiece #149 Antoine Walker STAR
p1175
sg11
I1
sg12
VFleer Mystique Masterpiece
p1176
sg14
(lp1177
Vhttp://www.beckett.com/basketball/1999-00/fleer-mystique-masterpiece/149-antoine-walker-star-3198745
p1178
asg17
g18
sg19
(lp1179
Vhttp://img.beckett.com/images/no-image.jpg
p1180
asg22
V#149
p1181
sg24
V1999-00
p1182
sg254
VSTAR
p1183
sg26
g27
sg28
(lp1184
VAntoine Walker
p1185
assbag1
(g2
g3
Ntp1186
Rp1187
(dp1188
g7
(dp1189
g9
V1999-00 Hoops Starting Five #1 Paul Pierce
p1190
sg11
I5
sg12
VHoops Starting Five
p1191
sg14
(lp1192
Vhttp://www.beckett.com/basketball/1999-00/hoops-starting-five/1-paul-pierce-3199063
p1193
asg17
g18
sg19
(lp1194
Vhttp://img.beckett.com/images/no-image.jpg
p1195
asg22
V#1
p1196
sg24
V1999-00
p1197
sg26
g27
sg28
(lp1198
VPaul Pierce
p1199
assbag1
(g2
g3
Ntp1200
Rp1201
(dp1202
g7
(dp1203
g9
V1999-00 Hoops Starting Five #61 Marlon Garnett
p1204
sg11
I5
sg12
VHoops Starting Five
p1205
sg14
(lp1206
Vhttp://www.beckett.com/basketball/1999-00/hoops-starting-five/61-marlon-garnett-3199123
p1207
asg17
g18
sg19
(lp1208
Vhttp://img.beckett.com/images/no-image.jpg
p1209
asg22
V#61
p1210
sg24
V1999-00
p1211
sg26
g27
sg28
(lp1212
VMarlon Garnett
p1213
assbag1
(g2
g3
Ntp1214
Rp1215
(dp1216
g7
(dp1217
g9
V1999-00 Hoops Starting Five #73 Kenny Anderson
p1218
sg11
I5
sg12
VHoops Starting Five
p1219
sg14
(lp1220
Vhttp://www.beckett.com/basketball/1999-00/hoops-starting-five/73-kenny-anderson-3199135
p1221
asg17
g18
sg19
(lp1222
Vhttp://img.beckett.com/images/no-image.jpg
p1223
asg22
V#73
p1224
sg24
V1999-00
p1225
sg26
g27
sg28
(lp1226
VKenny Anderson
p1227
assbag1
(g2
g3
Ntp1228
Rp1229
(dp1230
g7
(dp1231
g9
V1999-00 Hoops Starting Five #91 Vitaly Potapenko
p1232
sg11
I5
sg12
VHoops Starting Five
p1233
sg14
(lp1234
Vhttp://www.beckett.com/basketball/1999-00/hoops-starting-five/91-vitaly-potapenko-3199153
p1235
asg17
g18
sg19
(lp1236
Vhttp://img.beckett.com/images/no-image.jpg
p1237
asg22
V#91
p1238
sg24
V1999-00
p1239
sg26
g27
sg28
(lp1240
VVitaly Potapenko
p1241
assbag1
(g2
g3
Ntp1242
Rp1243
(dp1244
g7
(dp1245
g9
V1999-00 Hoops Starting Five #97 Antoine Walker
p1246
sg11
I5
sg12
VHoops Starting Five
p1247
sg14
(lp1248
Vhttp://www.beckett.com/basketball/1999-00/hoops-starting-five/97-antoine-walker-3199159
p1249
asg17
g18
sg19
(lp1250
Vhttp://img.beckett.com/images/no-image.jpg
p1251
asg22
V#97
p1252
sg24
V1999-00
p1253
sg26
g27
sg28
(lp1254
VAntoine Walker
p1255
assbag1
(g2
g3
Ntp1256
Rp1257
(dp1258
g7
(dp1259
g9
V1999-00 Hoops Starting Five #114 Ron Mercer
p1260
sg11
I5
sg12
VHoops Starting Five
p1261
sg14
(lp1262
Vhttp://www.beckett.com/basketball/1999-00/hoops-starting-five/114-ron-mercer-3199176
p1263
asg17
g18
sg19
(lp1264
Vhttp://img.beckett.com/images/no-image.jpg
p1265
asg22
V#114
p1266
sg24
V1999-00
p1267
sg26
g27
sg28
(lp1268
VRon Mercer
p1269
assbag1
(g2
g3
Ntp1270
Rp1271
(dp1272
g7
(dp1273
g9
V1999-00 SkyBox APEX Xtra #1 Paul Pierce
p1274
sg11
I50
sg12
VSkyBox APEX Xtra
p1275
sg14
(lp1276
Vhttp://www.beckett.com/basketball/1999-00/skybox-apex-xtra/1-paul-pierce-3198135
p1277
asg17
g18
sg19
(lp1278
Vhttp://img.beckett.com/images/no-image.jpg
p1279
asg22
V#1
p1280
sg24
V1999-00
p1281
sg26
g27
sg28
(lp1282
VPaul Pierce
p1283
assbag1
(g2
g3
Ntp1284
Rp1285
(dp1286
g7
(dp1287
g9
V1999-00 SkyBox APEX Xtra #22 Ron Mercer
p1288
sg11
I50
sg12
VSkyBox APEX Xtra
p1289
sg14
(lp1290
Vhttp://www.beckett.com/basketball/1999-00/skybox-apex-xtra/22-ron-mercer-3198156
p1291
asg17
g18
sg19
(lp1292
Vhttp://img.beckett.com/images/no-image.jpg
p1293
asg22
V#22
p1294
sg24
V1999-00
p1295
sg26
g27
sg28
(lp1296
VRon Mercer
p1297
assbag1
(g2
g3
Ntp1298
Rp1299
(dp1300
g7
(dp1301
g9
V1999-00 SkyBox APEX Xtra #27 Vitaly Potapenko
p1302
sg11
I50
sg12
VSkyBox APEX Xtra
p1303
sg14
(lp1304
Vhttp://www.beckett.com/basketball/1999-00/skybox-apex-xtra/27-vitaly-potapenko-3198161
p1305
asg17
g18
sg19
(lp1306
Vhttp://img.beckett.com/images/no-image.jpg
p1307
asg22
V#27
p1308
sg24
V1999-00
p1309
sg26
g27
sg28
(lp1310
VVitaly Potapenko
p1311
assbag1
(g2
g3
Ntp1312
Rp1313
(dp1314
g7
(dp1315
g9
V1999-00 SkyBox APEX Xtra #38 Kenny Anderson
p1316
sg11
I50
sg12
VSkyBox APEX Xtra
p1317
sg14
(lp1318
Vhttp://www.beckett.com/basketball/1999-00/skybox-apex-xtra/38-kenny-anderson-3198172
p1319
asg17
g18
sg19
(lp1320
Vhttp://img.beckett.com/images/no-image.jpg
p1321
asg22
V#38
p1322
sg24
V1999-00
p1323
sg26
g27
sg28
(lp1324
VKenny Anderson
p1325
assbag1
(g2
g3
Ntp1326
Rp1327
(dp1328
g7
(dp1329
g9
V1999-00 SkyBox APEX Xtra #82 Antoine Walker
p1330
sg11
I50
sg12
VSkyBox APEX Xtra
p1331
sg14
(lp1332
Vhttp://www.beckett.com/basketball/1999-00/skybox-apex-xtra/82-antoine-walker-3198216
p1333
asg17
g18
sg19
(lp1334
Vhttp://img.beckett.com/images/no-image.jpg
p1335
asg22
V#82
p1336
sg24
V1999-00
p1337
sg26
g27
sg28
(lp1338
VAntoine Walker
p1339
assbag1
(g2
g3
Ntp1340
Rp1341
(dp1342
g7
(dp1343
g9
V1999-00 SkyBox APEX Xtra #142 Tony Battie
p1344
sg11
I50
sg12
VSkyBox APEX Xtra
p1345
sg14
(lp1346
Vhttp://www.beckett.com/basketball/1999-00/skybox-apex-xtra/142-tony-battie-3198276
p1347
asg17
g18
sg19
(lp1348
Vhttp://img.beckett.com/images/no-image.jpg
p1349
asg22
V#142
p1350
sg24
V1999-00
p1351
sg26
g27
sg28
(lp1352
VTony Battie
p1353
assbag1
(g2
g3
Ntp1354
Rp1355
(dp1356
g7
(dp1357
g9
V1999-00 SkyBox APEX Xtreme #1 Paul Pierce
p1358
sg11
I1
sg12
VSkyBox APEX Xtreme
p1359
sg14
(lp1360
Vhttp://www.beckett.com/basketball/1999-00/skybox-apex-xtreme/1-paul-pierce-3196477
p1361
asg17
g18
sg19
(lp1362
Vhttp://img.beckett.com/images/no-image.jpg
p1363
asg22
V#1
p1364
sg24
V1999-00
p1365
sg26
g27
sg28
(lp1366
VPaul Pierce
p1367
assbag1
(g2
g3
Ntp1368
Rp1369
(dp1370
g7
(dp1371
g9
V1999-00 SkyBox APEX Xtreme #22 Ron Mercer
p1372
sg11
I1
sg12
VSkyBox APEX Xtreme
p1373
sg14
(lp1374
Vhttp://www.beckett.com/basketball/1999-00/skybox-apex-xtreme/22-ron-mercer-3196498
p1375
asg17
g18
sg19
(lp1376
Vhttp://img.beckett.com/images/no-image.jpg
p1377
asg22
V#22
p1378
sg24
V1999-00
p1379
sg26
g27
sg28
(lp1380
VRon Mercer
p1381
assbag1
(g2
g3
Ntp1382
Rp1383
(dp1384
g7
(dp1385
g9
V1999-00 SkyBox APEX Xtreme #27 Vitaly Potapenko
p1386
sg11
I1
sg12
VSkyBox APEX Xtreme
p1387
sg14
(lp1388
Vhttp://www.beckett.com/basketball/1999-00/skybox-apex-xtreme/27-vitaly-potapenko-3196503
p1389
asg17
g18
sg19
(lp1390
Vhttp://img.beckett.com/images/no-image.jpg
p1391
asg22
V#27
p1392
sg24
V1999-00
p1393
sg26
g27
sg28
(lp1394
VVitaly Potapenko
p1395
assbag1
(g2
g3
Ntp1396
Rp1397
(dp1398
g7
(dp1399
g9
V1999-00 SkyBox APEX Xtreme #38 Kenny Anderson
p1400
sg11
I1
sg12
VSkyBox APEX Xtreme
p1401
sg14
(lp1402
Vhttp://www.beckett.com/basketball/1999-00/skybox-apex-xtreme/38-kenny-anderson-3196514
p1403
asg17
g18
sg19
(lp1404
Vhttp://img.beckett.com/images/no-image.jpg
p1405
asg22
V#38
p1406
sg24
V1999-00
p1407
sg26
g27
sg28
(lp1408
VKenny Anderson
p1409
assbag1
(g2
g3
Ntp1410
Rp1411
(dp1412
g7
(dp1413
g9
V1999-00 SkyBox APEX Xtreme #82 Antoine Walker
p1414
sg11
I1
sg12
VSkyBox APEX Xtreme
p1415
sg14
(lp1416
Vhttp://www.beckett.com/basketball/1999-00/skybox-apex-xtreme/82-antoine-walker-3196558
p1417
asg17
g18
sg19
(lp1418
Vhttp://img.beckett.com/images/no-image.jpg
p1419
asg22
V#82
p1420
sg24
V1999-00
p1421
sg26
g27
sg28
(lp1422
VAntoine Walker
p1423
assbag1
(g2
g3
Ntp1424
Rp1425
(dp1426
g7
(dp1427
g9
V1999-00 SkyBox APEX Xtreme #142 Tony Battie
p1428
sg11
I1
sg12
VSkyBox APEX Xtreme
p1429
sg14
(lp1430
Vhttp://www.beckett.com/basketball/1999-00/skybox-apex-xtreme/142-tony-battie-3196618
p1431
asg17
g18
sg19
(lp1432
Vhttp://img.beckett.com/images/no-image.jpg
p1433
asg22
V#142
p1434
sg24
V1999-00
p1435
sg26
g27
sg28
(lp1436
VTony Battie
p1437
assbag1
(g2
g3
Ntp1438
Rp1439
(dp1440
g7
(dp1441
g9
V1999-00 SkyBox Premium Star Rubies #6 Kenny Anderson
p1442
sg11
I45
sg12
VSkyBox Premium Star Rubies
p1443
sg14
(lp1444
Vhttp://www.beckett.com/basketball/1999-00/skybox-premium-star-rubies/6-kenny-anderson-3195584
p1445
asg17
g18
sg19
(lp1446
Vhttp://img.beckett.com/images/no-image.jpg
p1447
asg22
V#6
p1448
sg24
V1999-00
p1449
sg26
g27
sg28
(lp1450
VKenny Anderson
p1451
assbag1
(g2
g3
Ntp1452
Rp1453
(dp1454
g7
(dp1455
g9
V1999-00 SkyBox Premium Star Rubies #37 Paul Pierce
p1456
sg11
I45
sg12
VSkyBox Premium Star Rubies
p1457
sg14
(lp1458
Vhttp://www.beckett.com/basketball/1999-00/skybox-premium-star-rubies/37-paul-pierce-3195615
p1459
asg17
g18
sg19
(lp1460
Vhttp://img.beckett.com/images/no-image.jpg
p1461
asg22
V#37
p1462
sg24
V1999-00
p1463
sg26
g27
sg28
(lp1464
VPaul Pierce
p1465
assbag1
(g2
g3
Ntp1466
Rp1467
(dp1468
g7
(dp1469
g9
V1999-00 SkyBox Premium Star Rubies #41 Antoine Walker
p1470
sg11
I45
sg12
VSkyBox Premium Star Rubies
p1471
sg14
(lp1472
Vhttp://www.beckett.com/basketball/1999-00/skybox-premium-star-rubies/41-antoine-walker-3195619
p1473
asg17
g18
sg19
(lp1474
Vhttp://img.beckett.com/images/no-image.jpg
p1475
asg22
V#41
p1476
sg24
V1999-00
p1477
sg26
g27
sg28
(lp1478
VAntoine Walker
p1479
assbag1
(g2
g3
Ntp1480
Rp1481
(dp1482
g7
(dp1483
g9
V1999-00 SkyBox Premium Star Rubies #92 Ron Mercer
p1484
sg11
I45
sg12
VSkyBox Premium Star Rubies
p1485
sg14
(lp1486
Vhttp://www.beckett.com/basketball/1999-00/skybox-premium-star-rubies/92-ron-mercer-3195670
p1487
asg17
g18
sg19
(lp1488
Vhttp://img.beckett.com/images/no-image.jpg
p1489
asg22
V#92
p1490
sg24
V1999-00
p1491
sg26
g27
sg28
(lp1492
VRon Mercer
p1493
assbag1
(g2
g3
Ntp1494
Rp1495
(dp1496
g7
(dp1497
g9
V1999-00 SPx Radiance #3 Antoine Walker
p1498
sg11
I100
sg12
VSPx Radiance
p1499
sg14
(lp1500
Vhttp://www.beckett.com/basketball/1999-00/spx-radiance/3-antoine-walker-3193216
p1501
asg17
g18
sg19
(lp1502
Vhttp://img.beckett.com/images/items_stock/185226/3193202/3193216/front.jpg
p1503
asg22
V#3
p1504
sg24
V1999-00
p1505
sg26
g27
sg28
(lp1506
VAntoine Walker
p1507
assbag1
(g2
g3
Ntp1508
Rp1509
(dp1510
g7
(dp1511
g9
V1999-00 SPx Radiance #4 Paul Pierce
p1512
sg11
I100
sg12
VSPx Radiance
p1513
sg14
(lp1514
Vhttp://www.beckett.com/basketball/1999-00/spx-radiance/4-paul-pierce-3193217
p1515
asg17
g18
sg19
(lp1516
Vhttp://img.beckett.com/images/no-image.jpg
p1517
asg22
V#4
p1518
sg24
V1999-00
p1519
sg26
g27
sg28
(lp1520
VPaul Pierce
p1521
assbag1
(g2
g3
Ntp1522
Rp1523
(dp1524
g7
(dp1525
g9
V1999-00 SPx Radiance #5 Kenny Anderson
p1526
sg11
I100
sg12
VSPx Radiance
p1527
sg14
(lp1528
Vhttp://www.beckett.com/basketball/1999-00/spx-radiance/5-kenny-anderson-3193218
p1529
asg17
g18
sg19
(lp1530
Vhttp://img.beckett.com/images/items_stock/185226/3193202/3193218/front.jpg
p1531
asg22
V#5
p1532
sg24
V1999-00
p1533
sg26
g27
sg28
(lp1534
VKenny Anderson
p1535
assbag1
(g2
g3
Ntp1536
Rp1537
(dp1538
g7
(dp1539
g9
V1999-00 SPx Spectrum #3 Antoine Walker
p1540
sg11
I1
sg12
VSPx Spectrum
p1541
sg14
(lp1542
Vhttp://www.beckett.com/basketball/1999-00/spx-spectrum/3-antoine-walker-3193341
p1543
asg17
g18
sg19
(lp1544
Vhttp://img.beckett.com/images/no-image.jpg
p1545
asg22
V#3
p1546
sg24
V1999-00
p1547
sg26
g27
sg28
(lp1548
VAntoine Walker
p1549
assbag1
(g2
g3
Ntp1550
Rp1551
(dp1552
g7
(dp1553
g9
V1999-00 SPx Spectrum #4 Paul Pierce
p1554
sg11
I1
sg12
VSPx Spectrum
p1555
sg14
(lp1556
Vhttp://www.beckett.com/basketball/1999-00/spx-spectrum/4-paul-pierce-3193342
p1557
asg17
g18
sg19
(lp1558
Vhttp://img.beckett.com/images/no-image.jpg
p1559
asg22
V#4
p1560
sg24
V1999-00
p1561
sg26
g27
sg28
(lp1562
VPaul Pierce
p1563
assbag1
(g2
g3
Ntp1564
Rp1565
(dp1566
g7
(dp1567
g9
V1999-00 SPx Spectrum #5 Kenny Anderson
p1568
sg11
I1
sg12
VSPx Spectrum
p1569
sg14
(lp1570
Vhttp://www.beckett.com/basketball/1999-00/spx-spectrum/5-kenny-anderson-3193343
p1571
asg17
g18
sg19
(lp1572
Vhttp://img.beckett.com/images/no-image.jpg
p1573
asg22
V#5
p1574
sg24
V1999-00
p1575
sg26
g27
sg28
(lp1576
VKenny Anderson
p1577
assbag1
(g2
g3
Ntp1578
Rp1579
(dp1580
g7
(dp1581
g9
V1999-00 Stadium Club First Day Issue #81 Antoine Walker
p1582
sg11
I150
sg12
VStadium Club First Day Issue
p1583
sg14
(lp1584
Vhttp://www.beckett.com/basketball/1999-00/stadium-club-first-day-issue/81-antoine-walker-3193915
p1585
asg17
g18
sg19
(lp1586
Vhttp://img.beckett.com/images/no-image.jpg
p1587
asg22
V#81
p1588
sg24
V1999-00
p1589
sg26
g27
sg28
(lp1590
VAntoine Walker
p1591
assbag1
(g2
g3
Ntp1592
Rp1593
(dp1594
g7
(dp1595
g9
V1999-00 Stadium Club First Day Issue #98 Walter McCarty
p1596
sg11
I150
sg12
VStadium Club First Day Issue
p1597
sg14
(lp1598
Vhttp://www.beckett.com/basketball/1999-00/stadium-club-first-day-issue/98-walter-mccarty-3193932
p1599
asg17
g18
sg19
(lp1600
Vhttp://img.beckett.com/images/no-image.jpg
p1601
asg22
V#98
p1602
sg24
V1999-00
p1603
sg26
g27
sg28
(lp1604
VWalter McCarty
p1605
assbag1
(g2
g3
Ntp1606
Rp1607
(dp1608
g7
(dp1609
g9
V1999-00 Stadium Club First Day Issue #111 Kenny Anderson
p1610
sg11
I150
sg12
VStadium Club First Day Issue
p1611
sg14
(lp1612
Vhttp://www.beckett.com/basketball/1999-00/stadium-club-first-day-issue/111-kenny-anderson-3193945
p1613
asg17
g18
sg19
(lp1614
Vhttp://img.beckett.com/images/no-image.jpg
p1615
asg22
V#111
p1616
sg24
V1999-00
p1617
sg26
g27
sg28
(lp1618
VKenny Anderson
p1619
assbag1
(g2
g3
Ntp1620
Rp1621
(dp1622
g7
(dp1623
g9
V1999-00 Stadium Club First Day Issue #119 Vitaly Potapenko
p1624
sg11
I150
sg12
VStadium Club First Day Issue
p1625
sg14
(lp1626
Vhttp://www.beckett.com/basketball/1999-00/stadium-club-first-day-issue/119-vitaly-potapenko-3193953
p1627
asg17
g18
sg19
(lp1628
Vhttp://img.beckett.com/images/no-image.jpg
p1629
asg22
V#119
p1630
sg24
V1999-00
p1631
sg26
g27
sg28
(lp1632
VVitaly Potapenko
p1633
assbag1
(g2
g3
Ntp1634
Rp1635
(dp1636
g7
(dp1637
g9
V1999-00 Stadium Club First Day Issue #133 Paul Pierce
p1638
sg11
I150
sg12
VStadium Club First Day Issue
p1639
sg14
(lp1640
Vhttp://www.beckett.com/basketball/1999-00/stadium-club-first-day-issue/133-paul-pierce-3193967
p1641
asg17
g18
sg19
(lp1642
Vhttp://img.beckett.com/images/no-image.jpg
p1643
asg22
V#133
p1644
sg24
V1999-00
p1645
sg26
g27
sg28
(lp1646
VPaul Pierce
p1647
assbag1
(g2
g3
Ntp1648
Rp1649
(dp1650
g7
(dp1651
g9
V1999-00 Stadium Club First Day Issue #141 Adrian Griffin
p1652
sg11
I150
sg12
VStadium Club First Day Issue
p1653
sg14
(lp1654
Vhttp://www.beckett.com/basketball/1999-00/stadium-club-first-day-issue/141-adrian-griffin-3193975
p1655
asg17
g18
sg19
(lp1656
Vhttp://img.beckett.com/images/no-image.jpg
p1657
asg22
V#141
p1658
sg24
V1999-00
p1659
sg26
g27
sg28
(lp1660
VAdrian Griffin
p1661
assbag1
(g2
g3
Ntp1662
Rp1663
(dp1664
g7
(dp1665
g9
V1999-00 Stadium Club First Day Issue #153 Ron Mercer TRAN
p1666
sg11
I150
sg12
VStadium Club First Day Issue
p1667
sg14
(lp1668
Vhttp://www.beckett.com/basketball/1999-00/stadium-club-first-day-issue/153-ron-mercer-tran-3193987
p1669
asg17
g18
sg19
(lp1670
Vhttp://img.beckett.com/images/no-image.jpg
p1671
asg22
V#153
p1672
sg24
V1999-00
p1673
sg254
VTRAN
p1674
sg26
g27
sg28
(lp1675
VRon Mercer
p1676
assbag1
(g2
g3
Ntp1677
Rp1678
(dp1679
g7
(dp1680
g9
V1999-00 Stadium Club One of a Kind #81 Antoine Walker
p1681
sg11
I150
sg12
VStadium Club One of a Kind
p1682
sg14
(lp1683
Vhttp://www.beckett.com/basketball/1999-00/stadium-club-one-of-a-kind/81-antoine-walker-3194127
p1684
asg17
g18
sg19
(lp1685
Vhttp://img.beckett.com/images/no-image.jpg
p1686
asg22
V#81
p1687
sg24
V1999-00
p1688
sg26
g27
sg28
(lp1689
VAntoine Walker
p1690
assbag1
(g2
g3
Ntp1691
Rp1692
(dp1693
g7
(dp1694
g9
V1999-00 Stadium Club One of a Kind #98 Walter McCarty
p1695
sg11
I150
sg12
VStadium Club One of a Kind
p1696
sg14
(lp1697
Vhttp://www.beckett.com/basketball/1999-00/stadium-club-one-of-a-kind/98-walter-mccarty-3194144
p1698
asg17
g18
sg19
(lp1699
Vhttp://img.beckett.com/images/no-image.jpg
p1700
asg22
V#98
p1701
sg24
V1999-00
p1702
sg26
g27
sg28
(lp1703
VWalter McCarty
p1704
assbag1
(g2
g3
Ntp1705
Rp1706
(dp1707
g7
(dp1708
g9
V1999-00 Stadium Club One of a Kind #111 Kenny Anderson
p1709
sg11
I150
sg12
VStadium Club One of a Kind
p1710
sg14
(lp1711
Vhttp://www.beckett.com/basketball/1999-00/stadium-club-one-of-a-kind/111-kenny-anderson-3194157
p1712
asg17
g18
sg19
(lp1713
Vhttp://img.beckett.com/images/no-image.jpg
p1714
asg22
V#111
p1715
sg24
V1999-00
p1716
sg26
g27
sg28
(lp1717
VKenny Anderson
p1718
assbag1
(g2
g3
Ntp1719
Rp1720
(dp1721
g7
(dp1722
g9
V1999-00 Stadium Club One of a Kind #119 Vitaly Potapenko
p1723
sg11
I150
sg12
VStadium Club One of a Kind
p1724
sg14
(lp1725
Vhttp://www.beckett.com/basketball/1999-00/stadium-club-one-of-a-kind/119-vitaly-potapenko-3194165
p1726
asg17
g18
sg19
(lp1727
Vhttp://img.beckett.com/images/no-image.jpg
p1728
asg22
V#119
p1729
sg24
V1999-00
p1730
sg26
g27
sg28
(lp1731
VVitaly Potapenko
p1732
assbag1
(g2
g3
Ntp1733
Rp1734
(dp1735
g7
(dp1736
g9
V1999-00 Stadium Club One of a Kind #133 Paul Pierce
p1737
sg11
I150
sg12
VStadium Club One of a Kind
p1738
sg14
(lp1739
Vhttp://www.beckett.com/basketball/1999-00/stadium-club-one-of-a-kind/133-paul-pierce-3194179
p1740
asg17
g18
sg19
(lp1741
Vhttp://img.beckett.com/images/no-image.jpg
p1742
asg22
V#133
p1743
sg24
V1999-00
p1744
sg26
g27
sg28
(lp1745
VPaul Pierce
p1746
assbag1
(g2
g3
Ntp1747
Rp1748
(dp1749
g7
(dp1750
g9
V1999-00 Stadium Club One of a Kind #141 Adrian Griffin
p1751
sg11
I150
sg12
VStadium Club One of a Kind
p1752
sg14
(lp1753
Vhttp://www.beckett.com/basketball/1999-00/stadium-club-one-of-a-kind/141-adrian-griffin-3194187
p1754
asg17
g18
sg19
(lp1755
Vhttp://img.beckett.com/images/no-image.jpg
p1756
asg22
V#141
p1757
sg24
V1999-00
p1758
sg26
g27
sg28
(lp1759
VAdrian Griffin
p1760
assbag1
(g2
g3
Ntp1761
Rp1762
(dp1763
g7
(dp1764
g9
V1999-00 Stadium Club One of a Kind #153 Ron Mercer TRAN
p1765
sg11
I150
sg12
VStadium Club One of a Kind
p1766
sg14
(lp1767
Vhttp://www.beckett.com/basketball/1999-00/stadium-club-one-of-a-kind/153-ron-mercer-tran-3194199
p1768
asg17
g18
sg19
(lp1769
Vhttp://img.beckett.com/images/no-image.jpg
p1770
asg22
V#153
p1771
sg24
V1999-00
p1772
sg254
VTRAN
p1773
sg26
g27
sg28
(lp1774
VRon Mercer
p1775
assbag1
(g2
g3
Ntp1776
Rp1777
(dp1778
g7
(dp1779
g9
V1999-00 Stadium Club Printing Plates #81A Antonie Walker Black
p1780
sg11
I1
sg12
VStadium Club Printing Plates
p1781
sg14
(lp1782
Vhttp://www.beckett.com/basketball/1999-00/stadium-club-printing-plates/81a-antonie-walker-black-3194574
p1783
asg17
g18
sg19
(lp1784
Vhttp://img.beckett.com/images/no-image.jpg
p1785
asg22
V#81A
p1786
sg24
V1999-00
p1787
sg26
g27
sg28
(lp1788
VAntoine Walker
p1789
assbag1
(g2
g3
Ntp1790
Rp1791
(dp1792
g7
(dp1793
g9
V1999-00 Stadium Club Printing Plates #81B Antonie Walker Cyan
p1794
sg11
I1
sg12
VStadium Club Printing Plates
p1795
sg14
(lp1796
Vhttp://www.beckett.com/basketball/1999-00/stadium-club-printing-plates/81b-antonie-walker-cyan-3194575
p1797
asg17
g18
sg19
(lp1798
Vhttp://img.beckett.com/images/no-image.jpg
p1799
asg22
V#81B
p1800
sg24
V1999-00
p1801
sg26
g27
sg28
(lp1802
g1789
assbag1
(g2
g3
Ntp1803
Rp1804
(dp1805
g7
(dp1806
g9
V1999-00 Stadium Club Printing Plates #81C Antonie Walker Magenta
p1807
sg11
I1
sg12
VStadium Club Printing Plates
p1808
sg14
(lp1809
Vhttp://www.beckett.com/basketball/1999-00/stadium-club-printing-plates/81c-antonie-walker-magenta-3194576
p1810
asg17
g18
sg19
(lp1811
Vhttp://img.beckett.com/images/no-image.jpg
p1812
asg22
V#81C
p1813
sg24
V1999-00
p1814
sg26
g27
sg28
(lp1815
g1789
assbag1
(g2
g3
Ntp1816
Rp1817
(dp1818
g7
(dp1819
g9
V1999-00 Stadium Club Printing Plates #81D Antoine Walker Yellow
p1820
sg11
I1
sg12
VStadium Club Printing Plates
p1821
sg14
(lp1822
Vhttp://www.beckett.com/basketball/1999-00/stadium-club-printing-plates/81d-antoine-walker-yellow-3194577
p1823
asg17
g18
sg19
(lp1824
Vhttp://img.beckett.com/images/no-image.jpg
p1825
asg22
V#81D
p1826
sg24
V1999-00
p1827
sg26
g27
sg28
(lp1828
VAntoine Carr
p1829
assbag1
(g2
g3
Ntp1830
Rp1831
(dp1832
g7
(dp1833
g9
V1999-00 Stadium Club Printing Plates #98A Walter McCarty Black
p1834
sg11
I1
sg12
VStadium Club Printing Plates
p1835
sg14
(lp1836
Vhttp://www.beckett.com/basketball/1999-00/stadium-club-printing-plates/98a-walter-mccarty-black-3194642
p1837
asg17
g18
sg19
(lp1838
Vhttp://img.beckett.com/images/no-image.jpg
p1839
asg22
V#98A
p1840
sg24
V1999-00
p1841
sg26
g27
sg28
(lp1842
VWalter McCarty
p1843
assbag1
(g2
g3
Ntp1844
Rp1845
(dp1846
g7
(dp1847
g9
V1999-00 Stadium Club Printing Plates #98B Walter McCarty Cyan
p1848
sg11
I1
sg12
VStadium Club Printing Plates
p1849
sg14
(lp1850
Vhttp://www.beckett.com/basketball/1999-00/stadium-club-printing-plates/98b-walter-mccarty-cyan-3194643
p1851
asg17
g18
sg19
(lp1852
Vhttp://img.beckett.com/images/no-image.jpg
p1853
asg22
V#98B
p1854
sg24
V1999-00
p1855
sg26
g27
sg28
(lp1856
g1843
assbag1
(g2
g3
Ntp1857
Rp1858
(dp1859
g7
(dp1860
g9
V1999-00 Stadium Club Printing Plates #98C Walter McCarty Magenta
p1861
sg11
I1
sg12
VStadium Club Printing Plates
p1862
sg14
(lp1863
Vhttp://www.beckett.com/basketball/1999-00/stadium-club-printing-plates/98c-walter-mccarty-magenta-3194644
p1864
asg17
g18
sg19
(lp1865
Vhttp://img.beckett.com/images/no-image.jpg
p1866
asg22
V#98C
p1867
sg24
V1999-00
p1868
sg26
g27
sg28
(lp1869
g1843
assbag1
(g2
g3
Ntp1870
Rp1871
(dp1872
g7
(dp1873
g9
V1999-00 Stadium Club Printing Plates #98D Walter McCarty Yellow
p1874
sg11
I1
sg12
VStadium Club Printing Plates
p1875
sg14
(lp1876
Vhttp://www.beckett.com/basketball/1999-00/stadium-club-printing-plates/98d-walter-mccarty-yellow-3194645
p1877
asg17
g18
sg19
(lp1878
Vhttp://img.beckett.com/images/no-image.jpg
p1879
asg22
V#98D
p1880
sg24
V1999-00
p1881
sg26
g27
sg28
(lp1882
g1843
assbag1
(g2
g3
Ntp1883
Rp1884
(dp1885
g7
(dp1886
g9
V1999-00 Stadium Club Printing Plates #111A Kenny Anderson Black
p1887
sg11
I1
sg12
VStadium Club Printing Plates
p1888
sg14
(lp1889
Vhttp://www.beckett.com/basketball/1999-00/stadium-club-printing-plates/111a-kenny-anderson-black-3194694
p1890
asg17
g18
sg19
(lp1891
Vhttp://img.beckett.com/images/no-image.jpg
p1892
asg22
V#111A
p1893
sg24
V1999-00
p1894
sg26
g27
sg28
(lp1895
VKenny Anderson
p1896
assbag1
(g2
g3
Ntp1897
Rp1898
(dp1899
g7
(dp1900
g9
V1999-00 Stadium Club Printing Plates #111B Kenny Anderson Cyan
p1901
sg11
I1
sg12
VStadium Club Printing Plates
p1902
sg14
(lp1903
Vhttp://www.beckett.com/basketball/1999-00/stadium-club-printing-plates/111b-kenny-anderson-cyan-3194695
p1904
asg17
g18
sg19
(lp1905
Vhttp://img.beckett.com/images/no-image.jpg
p1906
asg22
V#111B
p1907
sg24
V1999-00
p1908
sg26
g27
sg28
(lp1909
g1896
assbag1
(g2
g3
Ntp1910
Rp1911
(dp1912
g7
(dp1913
g9
V1999-00 Stadium Club Printing Plates #111C Kenny Anderson Magenta
p1914
sg11
I1
sg12
VStadium Club Printing Plates
p1915
sg14
(lp1916
Vhttp://www.beckett.com/basketball/1999-00/stadium-club-printing-plates/111c-kenny-anderson-magenta-3194696
p1917
asg17
g18
sg19
(lp1918
Vhttp://img.beckett.com/images/no-image.jpg
p1919
asg22
V#111C
p1920
sg24
V1999-00
p1921
sg26
g27
sg28
(lp1922
g1896
assbag1
(g2
g3
Ntp1923
Rp1924
(dp1925
g7
(dp1926
g9
V1999-00 Stadium Club Printing Plates #111D Kenny Anderson Yellow
p1927
sg11
I1
sg12
VStadium Club Printing Plates
p1928
sg14
(lp1929
Vhttp://www.beckett.com/basketball/1999-00/stadium-club-printing-plates/111d-kenny-anderson-yellow-3194697
p1930
asg17
g18
sg19
(lp1931
Vhttp://img.beckett.com/images/no-image.jpg
p1932
asg22
V#111D
p1933
sg24
V1999-00
p1934
sg26
g27
sg28
(lp1935
g1896
assbag1
(g2
g3
Ntp1936
Rp1937
(dp1938
g7
(dp1939
g9
V1999-00 Stadium Club Printing Plates #119A Vitaly Potapenko Black
p1940
sg11
I1
sg12
VStadium Club Printing Plates
p1941
sg14
(lp1942
Vhttp://www.beckett.com/basketball/1999-00/stadium-club-printing-plates/119a-vitaly-potapenko-black-3194726
p1943
asg17
g18
sg19
(lp1944
Vhttp://img.beckett.com/images/no-image.jpg
p1945
asg22
V#119A
p1946
sg24
V1999-00
p1947
sg26
g27
sg28
(lp1948
VVitaly Potapenko
p1949
assbag1
(g2
g3
Ntp1950
Rp1951
(dp1952
g7
(dp1953
g9
V1999-00 Stadium Club Printing Plates #119B Vitaly Potapenko Cyan
p1954
sg11
I1
sg12
VStadium Club Printing Plates
p1955
sg14
(lp1956
Vhttp://www.beckett.com/basketball/1999-00/stadium-club-printing-plates/119b-vitaly-potapenko-cyan-3194727
p1957
asg17
g18
sg19
(lp1958
Vhttp://img.beckett.com/images/no-image.jpg
p1959
asg22
V#119B
p1960
sg24
V1999-00
p1961
sg26
g27
sg28
(lp1962
g1949
assbag1
(g2
g3
Ntp1963
Rp1964
(dp1965
g7
(dp1966
g9
V1999-00 Stadium Club Printing Plates #119C Vitaly Potapenko Magenta
p1967
sg11
I1
sg12
VStadium Club Printing Plates
p1968
sg14
(lp1969
Vhttp://www.beckett.com/basketball/1999-00/stadium-club-printing-plates/119c-vitaly-potapenko-magenta-3194728
p1970
asg17
g18
sg19
(lp1971
Vhttp://img.beckett.com/images/no-image.jpg
p1972
asg22
V#119C
p1973
sg24
V1999-00
p1974
sg26
g27
sg28
(lp1975
g1949
assbag1
(g2
g3
Ntp1976
Rp1977
(dp1978
g7
(dp1979
g9
V1999-00 Stadium Club Printing Plates #119D Vitaly Potapenko Yellow
p1980
sg11
I1
sg12
VStadium Club Printing Plates
p1981
sg14
(lp1982
Vhttp://www.beckett.com/basketball/1999-00/stadium-club-printing-plates/119d-vitaly-potapenko-yellow-3194729
p1983
asg17
g18
sg19
(lp1984
Vhttp://img.beckett.com/images/no-image.jpg
p1985
asg22
V#119D
p1986
sg24
V1999-00
p1987
sg26
g27
sg28
(lp1988
g1949
assbag1
(g2
g3
Ntp1989
Rp1990
(dp1991
g7
(dp1992
g9
V1999-00 Stadium Club Printing Plates #133A Paul Pierce Black
p1993
sg11
I1
sg12
VStadium Club Printing Plates
p1994
sg14
(lp1995
Vhttp://www.beckett.com/basketball/1999-00/stadium-club-printing-plates/133a-paul-pierce-black-3194782
p1996
asg17
g18
sg19
(lp1997
Vhttp://img.beckett.com/images/no-image.jpg
p1998
asg22
V#133A
p1999
sg24
V1999-00
p2000
sg26
g27
sg28
(lp2001
VPaul Pierce
p2002
assbag1
(g2
g3
Ntp2003
Rp2004
(dp2005
g7
(dp2006
g9
V1999-00 Stadium Club Printing Plates #133B Paul Pierce Cyan
p2007
sg11
I1
sg12
VStadium Club Printing Plates
p2008
sg14
(lp2009
Vhttp://www.beckett.com/basketball/1999-00/stadium-club-printing-plates/133b-paul-pierce-cyan-3194783
p2010
asg17
g18
sg19
(lp2011
Vhttp://img.beckett.com/images/no-image.jpg
p2012
asg22
V#133B
p2013
sg24
V1999-00
p2014
sg26
g27
sg28
(lp2015
g2002
assbag1
(g2
g3
Ntp2016
Rp2017
(dp2018
g7
(dp2019
g9
V1999-00 Stadium Club Printing Plates #133C Paul Pierce Magenta
p2020
sg11
I1
sg12
VStadium Club Printing Plates
p2021
sg14
(lp2022
Vhttp://www.beckett.com/basketball/1999-00/stadium-club-printing-plates/133c-paul-pierce-magenta-3194784
p2023
asg17
g18
sg19
(lp2024
Vhttp://img.beckett.com/images/no-image.jpg
p2025
asg22
V#133C
p2026
sg24
V1999-00
p2027
sg26
g27
sg28
(lp2028
g2002
assbag1
(g2
g3
Ntp2029
Rp2030
(dp2031
g7
(dp2032
g9
V1999-00 Stadium Club Printing Plates #133D Paul Pierce Yellow
p2033
sg11
I1
sg12
VStadium Club Printing Plates
p2034
sg14
(lp2035
Vhttp://www.beckett.com/basketball/1999-00/stadium-club-printing-plates/133d-paul-pierce-yellow-3194785
p2036
asg17
g18
sg19
(lp2037
Vhttp://img.beckett.com/images/no-image.jpg
p2038
asg22
V#133D
p2039
sg24
V1999-00
p2040
sg26
g27
sg28
(lp2041
g2002
assbag1
(g2
g3
Ntp2042
Rp2043
(dp2044
g7
(dp2045
g9
V1999-00 Stadium Club Printing Plates #141A Adrian Griffin Black
p2046
sg11
I1
sg12
VStadium Club Printing Plates
p2047
sg14
(lp2048
Vhttp://www.beckett.com/basketball/1999-00/stadium-club-printing-plates/141a-adrian-griffin-black-3194814
p2049
asg17
g18
sg19
(lp2050
Vhttp://img.beckett.com/images/no-image.jpg
p2051
asg22
V#141A
p2052
sg24
V1999-00
p2053
sg26
g27
sg28
(lp2054
VAdrian Griffin
p2055
assbag1
(g2
g3
Ntp2056
Rp2057
(dp2058
g7
(dp2059
g9
V1999-00 Stadium Club Printing Plates #141B Adrian Griffin Cyan
p2060
sg11
I1
sg12
VStadium Club Printing Plates
p2061
sg14
(lp2062
Vhttp://www.beckett.com/basketball/1999-00/stadium-club-printing-plates/141b-adrian-griffin-cyan-3194815
p2063
asg17
g18
sg19
(lp2064
Vhttp://img.beckett.com/images/no-image.jpg
p2065
asg22
V#141B
p2066
sg24
V1999-00
p2067
sg26
g27
sg28
(lp2068
g2055
assbag1
(g2
g3
Ntp2069
Rp2070
(dp2071
g7
(dp2072
g9
V1999-00 Stadium Club Printing Plates #141C Adrian Griffin Magenta
p2073
sg11
I1
sg12
VStadium Club Printing Plates
p2074
sg14
(lp2075
Vhttp://www.beckett.com/basketball/1999-00/stadium-club-printing-plates/141c-adrian-griffin-magenta-3194816
p2076
asg17
g18
sg19
(lp2077
Vhttp://img.beckett.com/images/no-image.jpg
p2078
asg22
V#141C
p2079
sg24
V1999-00
p2080
sg26
g27
sg28
(lp2081
g2055
assbag1
(g2
g3
Ntp2082
Rp2083
(dp2084
g7
(dp2085
g9
V1999-00 Stadium Club Printing Plates #141D Adrian Griffin Yellow
p2086
sg11
I1
sg12
VStadium Club Printing Plates
p2087
sg14
(lp2088
Vhttp://www.beckett.com/basketball/1999-00/stadium-club-printing-plates/141d-adrian-griffin-yellow-3194817
p2089
asg17
g18
sg19
(lp2090
Vhttp://img.beckett.com/images/no-image.jpg
p2091
asg22
V#141D
p2092
sg24
V1999-00
p2093
sg26
g27
sg28
(lp2094
g2055
assbag1
(g2
g3
Ntp2095
Rp2096
(dp2097
g7
(dp2098
g9
V1999-00 Stadium Club Printing Plates #153A Ron Mercer Black
p2099
sg11
I1
sg12
VStadium Club Printing Plates
p2100
sg14
(lp2101
Vhttp://www.beckett.com/basketball/1999-00/stadium-club-printing-plates/153a-ron-mercer-black-3194862
p2102
asg17
g18
sg19
(lp2103
Vhttp://img.beckett.com/images/no-image.jpg
p2104
asg22
V#153A
p2105
sg24
V1999-00
p2106
sg26
g27
sg28
(lp2107
VRon Mercer
p2108
assbag1
(g2
g3
Ntp2109
Rp2110
(dp2111
g7
(dp2112
g9
V1999-00 Stadium Club Printing Plates #153B Ron Mercer Cyan
p2113
sg11
I1
sg12
VStadium Club Printing Plates
p2114
sg14
(lp2115
Vhttp://www.beckett.com/basketball/1999-00/stadium-club-printing-plates/153b-ron-mercer-cyan-3194863
p2116
asg17
g18
sg19
(lp2117
Vhttp://img.beckett.com/images/no-image.jpg
p2118
asg22
V#153B
p2119
sg24
V1999-00
p2120
sg26
g27
sg28
(lp2121
g2108
assbag1
(g2
g3
Ntp2122
Rp2123
(dp2124
g7
(dp2125
g9
V1999-00 Stadium Club Printing Plates #153C Ron Mercer Magenta
p2126
sg11
I1
sg12
VStadium Club Printing Plates
p2127
sg14
(lp2128
Vhttp://www.beckett.com/basketball/1999-00/stadium-club-printing-plates/153c-ron-mercer-magenta-3194864
p2129
asg17
g18
sg19
(lp2130
Vhttp://img.beckett.com/images/no-image.jpg
p2131
asg22
V#153C
p2132
sg24
V1999-00
p2133
sg26
g27
sg28
(lp2134
g2108
assbag1
(g2
g3
Ntp2135
Rp2136
(dp2137
g7
(dp2138
g9
V1999-00 Stadium Club Printing Plates #153D Ron Mercer Yellow
p2139
sg11
I1
sg12
VStadium Club Printing Plates
p2140
sg14
(lp2141
Vhttp://www.beckett.com/basketball/1999-00/stadium-club-printing-plates/153d-ron-mercer-yellow-3194865
p2142
asg17
g18
sg19
(lp2143
Vhttp://img.beckett.com/images/no-image.jpg
p2144
asg22
V#153D
p2145
sg24
V1999-00
p2146
sg26
g27
sg28
(lp2147
g2108
assbag1
(g2
g3
Ntp2148
Rp2149
(dp2150
g7
(dp2151
g9
V1999-00 Stadium Club Chrome First Day Issue #58 Antoine Walker
p2152
sg11
I100
sg12
VStadium Club Chrome First Day Issue
p2153
sg14
(lp2154
Vhttp://www.beckett.com/basketball/1999-00/stadium-club-chrome-first-day-issue/58-antoine-walker-3192458
p2155
asg17
g18
sg19
(lp2156
Vhttp://img.beckett.com/images/no-image.jpg
p2157
asg22
V#58
p2158
sg24
V1999-00
p2159
sg26
g27
sg28
(lp2160
VAntoine Walker
p2161
assbag1
(g2
g3
Ntp2162
Rp2163
(dp2164
g7
(dp2165
g9
V1999-00 Stadium Club Chrome First Day Issue #70 Walter McCarty
p2166
sg11
I100
sg12
VStadium Club Chrome First Day Issue
p2167
sg14
(lp2168
Vhttp://www.beckett.com/basketball/1999-00/stadium-club-chrome-first-day-issue/70-walter-mccarty-3192470
p2169
asg17
g18
sg19
(lp2170
Vhttp://img.beckett.com/images/no-image.jpg
p2171
asg22
V#70
p2172
sg24
V1999-00
p2173
sg26
g27
sg28
(lp2174
VWalter McCarty
p2175
assbag1
(g2
g3
Ntp2176
Rp2177
(dp2178
g7
(dp2179
g9
V1999-00 Stadium Club Chrome First Day Issue #82 Kenny Anderson
p2180
sg11
I100
sg12
VStadium Club Chrome First Day Issue
p2181
sg14
(lp2182
Vhttp://www.beckett.com/basketball/1999-00/stadium-club-chrome-first-day-issue/82-kenny-anderson-3192482
p2183
asg17
g18
sg19
(lp2184
Vhttp://img.beckett.com/images/items_stock/185226/3192391/3192482/front.jpg
p2185
asg22
V#82
p2186
sg24
V1999-00
p2187
sg26
g27
sg28
(lp2188
VKenny Anderson
p2189
assbag1
(g2
g3
Ntp2190
Rp2191
(dp2192
g7
(dp2193
g9
V1999-00 Stadium Club Chrome First Day Issue #102 Paul Pierce
p2194
sg11
I100
sg12
VStadium Club Chrome First Day Issue
p2195
sg14
(lp2196
Vhttp://www.beckett.com/basketball/1999-00/stadium-club-chrome-first-day-issue/102-paul-pierce-3192502
p2197
asg17
g18
sg19
(lp2198
Vhttp://img.beckett.com/images/no-image.jpg
p2199
asg22
V#102
p2200
sg24
V1999-00
p2201
sg26
g27
sg28
(lp2202
VPaul Pierce
p2203
assbag1
(g2
g3
Ntp2204
Rp2205
(dp2206
g7
(dp2207
g9
V1999-00 Stadium Club Chrome First Day Issue #108 Adrian Griffin
p2208
sg11
I100
sg12
VStadium Club Chrome First Day Issue
p2209
sg14
(lp2210
Vhttp://www.beckett.com/basketball/1999-00/stadium-club-chrome-first-day-issue/108-adrian-griffin-3192508
p2211
asg17
g18
sg19
(lp2212
Vhttp://img.beckett.com/images/no-image.jpg
p2213
asg22
V#108
p2214
sg24
V1999-00
p2215
sg26
g27
sg28
(lp2216
VAdrian Griffin
p2217
assbag1
(g2
g3
Ntp2218
Rp2219
(dp2220
g7
(dp2221
g9
V1999-00 Stadium Club Chrome First Day Issue #118 Ron Mercer TRAN
p2222
sg11
I100
sg12
VStadium Club Chrome First Day Issue
p2223
sg14
(lp2224
Vhttp://www.beckett.com/basketball/1999-00/stadium-club-chrome-first-day-issue/118-ron-mercer-tran-3192518
p2225
asg17
g18
sg19
(lp2226
Vhttp://img.beckett.com/images/items_stock/185226/3192391/3192518/front.jpg
p2227
asg22
V#118
p2228
sg24
V1999-00
p2229
sg254
VTRAN
p2230
sg26
g27
sg28
(lp2231
VRon Mercer
p2232
assbag1
(g2
g3
Ntp2233
Rp2234
(dp2235
g7
(dp2236
g9
V1999-00 Stadium Club Chrome First Day Issue Refractors #58 Antoine Walker
p2237
sg11
I25
sg12
VStadium Club Chrome First Day Issue Refractors
p2238
sg14
(lp2239
Vhttp://www.beckett.com/basketball/1999-00/stadium-club-chrome-first-day-issue-refractors/58-antoine-walker-3192618
p2240
asg17
g18
sg19
(lp2241
Vhttp://img.beckett.com/images/no-image.jpg
p2242
asg22
V#58
p2243
sg24
V1999-00
p2244
sg26
g27
sg28
(lp2245
VAntoine Walker
p2246
assbag1
(g2
g3
Ntp2247
Rp2248
(dp2249
g7
(dp2250
g9
V1999-00 Stadium Club Chrome First Day Issue Refractors #70 Walter McCarty
p2251
sg11
I25
sg12
VStadium Club Chrome First Day Issue Refractors
p2252
sg14
(lp2253
Vhttp://www.beckett.com/basketball/1999-00/stadium-club-chrome-first-day-issue-refractors/70-walter-mccarty-3192630
p2254
asg17
g18
sg19
(lp2255
Vhttp://img.beckett.com/images/items_stock/185226/3192551/3192630/front.jpg
p2256
asg22
V#70
p2257
sg24
V1999-00
p2258
sg26
g27
sg28
(lp2259
VWalter McCarty
p2260
assbag1
(g2
g3
Ntp2261
Rp2262
(dp2263
g7
(dp2264
g9
V1999-00 Stadium Club Chrome First Day Issue Refractors #82 Kenny Anderson
p2265
sg11
I25
sg12
VStadium Club Chrome First Day Issue Refractors
p2266
sg14
(lp2267
Vhttp://www.beckett.com/basketball/1999-00/stadium-club-chrome-first-day-issue-refractors/82-kenny-anderson-3192642
p2268
asg17
g18
sg19
(lp2269
Vhttp://img.beckett.com/images/no-image.jpg
p2270
asg22
V#82
p2271
sg24
V1999-00
p2272
sg26
g27
sg28
(lp2273
VKenny Anderson
p2274
assbag1
(g2
g3
Ntp2275
Rp2276
(dp2277
g7
(dp2278
g9
V1999-00 Stadium Club Chrome First Day Issue Refractors #102 Paul Pierce
p2279
sg11
I25
sg12
VStadium Club Chrome First Day Issue Refractors
p2280
sg14
(lp2281
Vhttp://www.beckett.com/basketball/1999-00/stadium-club-chrome-first-day-issue-refractors/102-paul-pierce-3192662
p2282
asg17
g18
sg19
(lp2283
Vhttp://img.beckett.com/images/no-image.jpg
p2284
asg22
V#102
p2285
sg24
V1999-00
p2286
sg26
g27
sg28
(lp2287
VPaul Pierce
p2288
assbag1
(g2
g3
Ntp2289
Rp2290
(dp2291
g7
(dp2292
g9
V1999-00 Stadium Club Chrome First Day Issue Refractors #108 Adrian Griffin
p2293
sg11
I25
sg12
VStadium Club Chrome First Day Issue Refractors
p2294
sg14
(lp2295
Vhttp://www.beckett.com/basketball/1999-00/stadium-club-chrome-first-day-issue-refractors/108-adrian-griffin-3192668
p2296
asg17
g18
sg19
(lp2297
Vhttp://img.beckett.com/images/no-image.jpg
p2298
asg22
V#108
p2299
sg24
V1999-00
p2300
sg26
g27
sg28
(lp2301
VAdrian Griffin
p2302
assbag1
(g2
g3
Ntp2303
Rp2304
(dp2305
g7
(dp2306
g9
V1999-00 Stadium Club Chrome First Day Issue Refractors #118 Ron Mercer TRAN
p2307
sg11
I25
sg12
VStadium Club Chrome First Day Issue Refractors
p2308
sg14
(lp2309
Vhttp://www.beckett.com/basketball/1999-00/stadium-club-chrome-first-day-issue-refractors/118-ron-mercer-tran-3192678
p2310
asg17
g18
sg19
(lp2311
Vhttp://img.beckett.com/images/no-image.jpg
p2312
asg22
V#118
p2313
sg24
V1999-00
p2314
sg254
VTRAN
p2315
sg26
g27
sg28
(lp2316
VRon Mercer
p2317
assbag1
(g2
g3
Ntp2318
Rp2319
(dp2320
g7
(dp2321
g9
V1999-00 Topps Gallery Player's Private Issue #7 Paul Pierce
p2322
sg11
I250
sg12
VTopps Gallery Player's Private Issue
p2323
sg14
(lp2324
Vhttp://www.beckett.com/basketball/1999-00/topps-gallery-players-private-issue/7-paul-pierce-3190801
p2325
asg17
g18
sg19
(lp2326
Vhttp://img.beckett.com/images/items_stock/185226/3190784/3190801/front.jpg
p2327
asg22
V#7
p2328
sg24
V1999-00
p2329
sg26
g27
sg28
(lp2330
VPaul Pierce
p2331
assbag1
(g2
g3
Ntp2332
Rp2333
(dp2334
g7
(dp2335
g9
V1999-00 Topps Gallery Player's Private Issue #77 Antoine Walker
p2336
sg11
I250
sg12
VTopps Gallery Player's Private Issue
p2337
sg14
(lp2338
Vhttp://www.beckett.com/basketball/1999-00/topps-gallery-players-private-issue/77-antoine-walker-3190871
p2339
asg17
g18
sg19
(lp2340
Vhttp://img.beckett.com/images/no-image.jpg
p2341
asg22
V#77
p2342
sg24
V1999-00
p2343
sg26
g27
sg28
(lp2344
VAntoine Walker
p2345
assbag1
(g2
g3
Ntp2346
Rp2347
(dp2348
g7
(dp2349
g9
V1999-00 Topps Gallery Player's Private Issue #89 Kenny Anderson
p2350
sg11
I250
sg12
VTopps Gallery Player's Private Issue
p2351
sg14
(lp2352
Vhttp://www.beckett.com/basketball/1999-00/topps-gallery-players-private-issue/89-kenny-anderson-3190883
p2353
asg17
g18
sg19
(lp2354
Vhttp://img.beckett.com/images/items_stock/185226/3190784/3190883/front.jpg
p2355
asg22
V#89
p2356
sg24
V1999-00
p2357
sg26
g27
sg28
(lp2358
VKenny Anderson
p2359
assbag1
(g2
g3
Ntp2360
Rp2361
(dp2362
g7
(dp2363
g9
V1999-00 Topps Gallery Player's Private Issue #96 Ron Mercer
p2364
sg11
I250
sg12
VTopps Gallery Player's Private Issue
p2365
sg14
(lp2366
Vhttp://www.beckett.com/basketball/1999-00/topps-gallery-players-private-issue/96-ron-mercer-3190890
p2367
asg17
g18
sg19
(lp2368
Vhttp://img.beckett.com/images/items_stock/185226/3190784/3190890/front.jpg
p2369
asg22
V#96
p2370
sg24
V1999-00
p2371
sg26
g27
sg28
(lp2372
VRon Mercer
p2373
assbag1
(g2
g3
Ntp2374
Rp2375
(dp2376
g7
(dp2377
g9
V1999-00 Topps Gallery Player's Private Issue #119 Paul Pierce ART
p2378
sg11
I250
sg12
VTopps Gallery Player's Private Issue
p2379
sg14
(lp2380
Vhttp://www.beckett.com/basketball/1999-00/topps-gallery-players-private-issue/119-paul-pierce-art-3190913
p2381
asg17
g18
sg19
(lp2382
Vhttp://img.beckett.com/images/no-image.jpg
p2383
asg22
V#119
p2384
sg24
V1999-00
p2385
sg254
VART
p2386
sg26
g27
sg28
(lp2387
VPaul Pierce
p2388
assbag1
(g2
g3
Ntp2389
Rp2390
(dp2391
g7
(dp2392
g9
V1999-00 Topps Gallery Player's Private Issue #128 Adrian Griffin
p2393
sg11
I250
sg12
VTopps Gallery Player's Private Issue
p2394
sg14
(lp2395
Vhttp://www.beckett.com/basketball/1999-00/topps-gallery-players-private-issue/128-adrian-griffin-3190922
p2396
asg17
g18
sg19
(lp2397
Vhttp://img.beckett.com/images/no-image.jpg
p2398
asg22
V#128
p2399
sg24
V1999-00
p2400
sg26
g27
sg28
(lp2401
VAdrian Griffin
p2402
assbag1
(g2
g3
Ntp2403
Rp2404
(dp2405
g7
(dp2406
g9
V1999-00 Topps Gallery Printing Plates Black #96 Ron Mercer
p2407
sg11
I1
sg12
VTopps Gallery Printing Plates Black
p2408
sg14
(lp2409
Vhttp://www.beckett.com/basketball/1999-00/topps-gallery-printing-plates-black/96-ron-mercer-3188289
p2410
asg17
g18
sg19
(lp2411
Vhttp://img.beckett.com/images/no-image.jpg
p2412
asg22
V#96
p2413
sg24
V1999-00
p2414
sg26
g27
sg28
(lp2415
VRon Mercer
p2416
assbag1
(g2
g3
Ntp2417
Rp2418
(dp2419
g7
(dp2420
g9
V1999-00 Topps Gold Label Class 1 One to One #5 Paul Pierce
p2421
sg11
I1
sg12
VTopps Gold Label Class 1 One to One
p2422
sg14
(lp2423
Vhttp://www.beckett.com/basketball/1999-00/topps-gold-label-class-1-one-to-one/5-paul-pierce-3188723
p2424
asg17
g18
sg19
(lp2425
Vhttp://img.beckett.com/images/no-image.jpg
p2426
asg22
V#5
p2427
sg24
V1999-00
p2428
sg26
g27
sg28
(lp2429
VPaul Pierce
p2430
assbag1
(g2
g3
Ntp2431
Rp2432
(dp2433
g7
(dp2434
g9
V1999-00 Topps Gold Label Class 1 One to One #44 Ron Mercer
p2435
sg11
I1
sg12
VTopps Gold Label Class 1 One to One
p2436
sg14
(lp2437
Vhttp://www.beckett.com/basketball/1999-00/topps-gold-label-class-1-one-to-one/44-ron-mercer-3188762
p2438
asg17
g18
sg19
(lp2439
Vhttp://img.beckett.com/images/no-image.jpg
p2440
asg22
V#44
p2441
sg24
V1999-00
p2442
sg26
g27
sg28
(lp2443
VRon Mercer
p2444
assbag1
(g2
g3
Ntp2445
Rp2446
(dp2447
g7
(dp2448
g9
V1999-00 Topps Gold Label Class 1 One to One #82 Antoine Walker
p2449
sg11
I1
sg12
VTopps Gold Label Class 1 One to One
p2450
sg14
(lp2451
Vhttp://www.beckett.com/basketball/1999-00/topps-gold-label-class-1-one-to-one/82-antoine-walker-3188800
p2452
asg17
g18
sg19
(lp2453
Vhttp://img.beckett.com/images/no-image.jpg
p2454
asg22
V#82
p2455
sg24
V1999-00
p2456
sg26
g27
sg28
(lp2457
VAntoine Walker
p2458
assbag1
(g2
g3
Ntp2459
Rp2460
(dp2461
g7
(dp2462
g9
V1999-00 Topps Gold Label Class 1 Red Label #5 Paul Pierce
p2463
sg11
I100
sg12
VTopps Gold Label Class 1 Red Label
p2464
sg14
(lp2465
Vhttp://www.beckett.com/basketball/1999-00/topps-gold-label-class-1-red-label/5-paul-pierce-3188833
p2466
asg17
g18
sg19
(lp2467
Vhttp://img.beckett.com/images/no-image.jpg
p2468
asg22
V#5
p2469
sg24
V1999-00
p2470
sg26
g27
sg28
(lp2471
VPaul Pierce
p2472
assbag1
(g2
g3
Ntp2473
Rp2474
(dp2475
g7
(dp2476
g9
V1999-00 Topps Gold Label Class 1 Red Label #44 Ron Mercer
p2477
sg11
I100
sg12
VTopps Gold Label Class 1 Red Label
p2478
sg14
(lp2479
Vhttp://www.beckett.com/basketball/1999-00/topps-gold-label-class-1-red-label/44-ron-mercer-3188872
p2480
asg17
g18
sg19
(lp2481
Vhttp://img.beckett.com/images/no-image.jpg
p2482
asg22
V#44
p2483
sg24
V1999-00
p2484
sg26
g27
sg28
(lp2485
VRon Mercer
p2486
assbag1
(g2
g3
Ntp2487
Rp2488
(dp2489
g7
(dp2490
g9
V1999-00 Topps Gold Label Class 1 Red Label #82 Antoine Walker
p2491
sg11
I100
sg12
VTopps Gold Label Class 1 Red Label
p2492
sg14
(lp2493
Vhttp://www.beckett.com/basketball/1999-00/topps-gold-label-class-1-red-label/82-antoine-walker-3188910
p2494
asg17
g18
sg19
(lp2495
Vhttp://img.beckett.com/images/no-image.jpg
p2496
asg22
V#82
p2497
sg24
V1999-00
p2498
sg26
g27
sg28
(lp2499
VAntoine Walker
p2500
assbag1
(g2
g3
Ntp2501
Rp2502
(dp2503
g7
(dp2504
g9
V1999-00 Topps Gold Label Class 2 One to One #5 Paul Pierce
p2505
sg11
I1
sg12
VTopps Gold Label Class 2 One to One
p2506
sg14
(lp2507
Vhttp://www.beckett.com/basketball/1999-00/topps-gold-label-class-2-one-to-one/5-paul-pierce-3189169
p2508
asg17
g18
sg19
(lp2509
Vhttp://img.beckett.com/images/no-image.jpg
p2510
asg22
V#5
p2511
sg24
V1999-00
p2512
sg26
g27
sg28
(lp2513
VPaul Pierce
p2514
assbag1
(g2
g3
Ntp2515
Rp2516
(dp2517
g7
(dp2518
g9
V1999-00 Topps Gold Label Class 2 One to One #44 Ron Mercer
p2519
sg11
I1
sg12
VTopps Gold Label Class 2 One to One
p2520
sg14
(lp2521
Vhttp://www.beckett.com/basketball/1999-00/topps-gold-label-class-2-one-to-one/44-ron-mercer-3189208
p2522
asg17
g18
sg19
(lp2523
Vhttp://img.beckett.com/images/no-image.jpg
p2524
asg22
V#44
p2525
sg24
V1999-00
p2526
sg26
g27
sg28
(lp2527
VRon Mercer
p2528
assbag1
(g2
g3
Ntp2529
Rp2530
(dp2531
g7
(dp2532
g9
V1999-00 Topps Gold Label Class 2 One to One #82 Antoine Walker
p2533
sg11
I1
sg12
VTopps Gold Label Class 2 One to One
p2534
sg14
(lp2535
Vhttp://www.beckett.com/basketball/1999-00/topps-gold-label-class-2-one-to-one/82-antoine-walker-3189246
p2536
asg17
g18
sg19
(lp2537
Vhttp://img.beckett.com/images/no-image.jpg
p2538
asg22
V#82
p2539
sg24
V1999-00
p2540
sg26
g27
sg28
(lp2541
VAntoine Walker
p2542
assbag1
(g2
g3
Ntp2543
Rp2544
(dp2545
g7
(dp2546
g9
V1999-00 Topps Gold Label Class 2 Red Label #5 Paul Pierce
p2547
sg11
I50
sg12
VTopps Gold Label Class 2 Red Label
p2548
sg14
(lp2549
Vhttp://www.beckett.com/basketball/1999-00/topps-gold-label-class-2-red-label/5-paul-pierce-3189279
p2550
asg17
g18
sg19
(lp2551
Vhttp://img.beckett.com/images/no-image.jpg
p2552
asg22
V#5
p2553
sg24
V1999-00
p2554
sg26
g27
sg28
(lp2555
VPaul Pierce
p2556
assbag1
(g2
g3
Ntp2557
Rp2558
(dp2559
g7
(dp2560
g9
V1999-00 Topps Gold Label Class 2 Red Label #44 Ron Mercer
p2561
sg11
I50
sg12
VTopps Gold Label Class 2 Red Label
p2562
sg14
(lp2563
Vhttp://www.beckett.com/basketball/1999-00/topps-gold-label-class-2-red-label/44-ron-mercer-3189318
p2564
asg17
g18
sg19
(lp2565
Vhttp://img.beckett.com/images/no-image.jpg
p2566
asg22
V#44
p2567
sg24
V1999-00
p2568
sg26
g27
sg28
(lp2569
VRon Mercer
p2570
assbag1
(g2
g3
Ntp2571
Rp2572
(dp2573
g7
(dp2574
g9
V1999-00 Topps Gold Label Class 2 Red Label #82 Antoine Walker
p2575
sg11
I50
sg12
VTopps Gold Label Class 2 Red Label
p2576
sg14
(lp2577
Vhttp://www.beckett.com/basketball/1999-00/topps-gold-label-class-2-red-label/82-antoine-walker-3189356
p2578
asg17
g18
sg19
(lp2579
Vhttp://img.beckett.com/images/no-image.jpg
p2580
asg22
V#82
p2581
sg24
V1999-00
p2582
sg26
g27
sg28
(lp2583
VAntoine Walker
p2584
assbag1
(g2
g3
Ntp2585
Rp2586
(dp2587
g7
(dp2588
g9
V1999-00 Topps Gold Label Class 3 One to One #5 Paul Pierce
p2589
sg11
I1
sg12
VTopps Gold Label Class 3 One to One
p2590
sg14
(lp2591
Vhttp://www.beckett.com/basketball/1999-00/topps-gold-label-class-3-one-to-one/5-paul-pierce-3189615
p2592
asg17
g18
sg19
(lp2593
Vhttp://img.beckett.com/images/no-image.jpg
p2594
asg22
V#5
p2595
sg24
V1999-00
p2596
sg26
g27
sg28
(lp2597
VPaul Pierce
p2598
assbag1
(g2
g3
Ntp2599
Rp2600
(dp2601
g7
(dp2602
g9
V1999-00 Topps Gold Label Class 3 One to One #44 Ron Mercer
p2603
sg11
I1
sg12
VTopps Gold Label Class 3 One to One
p2604
sg14
(lp2605
Vhttp://www.beckett.com/basketball/1999-00/topps-gold-label-class-3-one-to-one/44-ron-mercer-3189654
p2606
asg17
g18
sg19
(lp2607
Vhttp://img.beckett.com/images/no-image.jpg
p2608
asg22
V#44
p2609
sg24
V1999-00
p2610
sg26
g27
sg28
(lp2611
VRon Mercer
p2612
assbag1
(g2
g3
Ntp2613
Rp2614
(dp2615
g7
(dp2616
g9
V1999-00 Topps Gold Label Class 3 One to One #82 Antoine Walker
p2617
sg11
I1
sg12
VTopps Gold Label Class 3 One to One
p2618
sg14
(lp2619
Vhttp://www.beckett.com/basketball/1999-00/topps-gold-label-class-3-one-to-one/82-antoine-walker-3189692
p2620
asg17
g18
sg19
(lp2621
Vhttp://img.beckett.com/images/no-image.jpg
p2622
asg22
V#82
p2623
sg24
V1999-00
p2624
sg26
g27
sg28
(lp2625
VAntoine Walker
p2626
assbag1
(g2
g3
Ntp2627
Rp2628
(dp2629
g7
(dp2630
g9
V1999-00 Topps Gold Label Class 3 Red Label #5 Paul Pierce
p2631
sg11
I25
sg12
VTopps Gold Label Class 3 Red Label
p2632
sg14
(lp2633
Vhttp://www.beckett.com/basketball/1999-00/topps-gold-label-class-3-red-label/5-paul-pierce-3187426
p2634
asg17
g18
sg19
(lp2635
Vhttp://img.beckett.com/images/no-image.jpg
p2636
asg22
V#5
p2637
sg24
V1999-00
p2638
sg26
g27
sg28
(lp2639
VPaul Pierce
p2640
assbag1
(g2
g3
Ntp2641
Rp2642
(dp2643
g7
(dp2644
g9
V1999-00 Topps Gold Label Class 3 Red Label #44 Ron Mercer
p2645
sg11
I25
sg12
VTopps Gold Label Class 3 Red Label
p2646
sg14
(lp2647
Vhttp://www.beckett.com/basketball/1999-00/topps-gold-label-class-3-red-label/44-ron-mercer-3187465
p2648
asg17
g18
sg19
(lp2649
Vhttp://img.beckett.com/images/no-image.jpg
p2650
asg22
V#44
p2651
sg24
V1999-00
p2652
sg26
g27
sg28
(lp2653
VRon Mercer
p2654
assbag1
(g2
g3
Ntp2655
Rp2656
(dp2657
g7
(dp2658
g9
V1999-00 Topps Gold Label Class 3 Red Label #82 Antoine Walker
p2659
sg11
I25
sg12
VTopps Gold Label Class 3 Red Label
p2660
sg14
(lp2661
Vhttp://www.beckett.com/basketball/1999-00/topps-gold-label-class-3-red-label/82-antoine-walker-3187503
p2662
asg17
g18
sg19
(lp2663
Vhttp://img.beckett.com/images/no-image.jpg
p2664
asg22
V#82
p2665
sg24
V1999-00
p2666
sg26
g27
sg28
(lp2667
VAntoine Walker
p2668
assbag1
(g2
g3
Ntp2669
Rp2670
(dp2671
g7
(dp2672
g9
V1999-00 UD Ionix Reciprocal #88 Adrian Griffin
p2673
sg11
I100
sg12
VUD Ionix Reciprocal
p2674
sg14
(lp2675
Vhttp://www.beckett.com/basketball/1999-00/ud-ionix-reciprocal/88-adrian-griffin-3188119
p2676
asg17
g18
sg19
(lp2677
Vhttp://img.beckett.com/images/no-image.jpg
p2678
asg22
V#88
p2679
sg24
V1999-00
p2680
sg26
g27
sg28
(lp2681
VAdrian Griffin
p2682
assbag1
(g2
g3
Ntp2683
Rp2684
(dp2685
g7
(dp2686
g9
V1999-00 Ultimate Victory 1 of 1 #4 Kenny Anderson
p2687
sg11
I1
sg12
VUltimate Victory 1 of 1
p2688
sg14
(lp2689
Vhttp://www.beckett.com/basketball/1999-00/ultimate-victory-1-of-1/4-kenny-anderson-3180368
p2690
asg17
g18
sg19
(lp2691
Vhttp://img.beckett.com/images/no-image.jpg
p2692
asg22
V#4
p2693
sg24
V1999-00
p2694
sg26
g27
sg28
(lp2695
VKenny Anderson
p2696
assbag1
(g2
g3
Ntp2697
Rp2698
(dp2699
g7
(dp2700
g9
V1999-00 Ultimate Victory 1 of 1 #5 Antoine Walker
p2701
sg11
I1
sg12
VUltimate Victory 1 of 1
p2702
sg14
(lp2703
Vhttp://www.beckett.com/basketball/1999-00/ultimate-victory-1-of-1/5-antoine-walker-3180369
p2704
asg17
g18
sg19
(lp2705
Vhttp://img.beckett.com/images/no-image.jpg
p2706
asg22
V#5
p2707
sg24
V1999-00
p2708
sg26
g27
sg28
(lp2709
VAntoine Walker
p2710
assbag1
(g2
g3
Ntp2711
Rp2712
(dp2713
g7
(dp2714
g9
V1999-00 Ultimate Victory 1 of 1 #6 Paul Pierce
p2715
sg11
I1
sg12
VUltimate Victory 1 of 1
p2716
sg14
(lp2717
Vhttp://www.beckett.com/basketball/1999-00/ultimate-victory-1-of-1/6-paul-pierce-3180370
p2718
asg17
g18
sg19
(lp2719
Vhttp://img.beckett.com/images/no-image.jpg
p2720
asg22
V#6
p2721
sg24
V1999-00
p2722
sg26
g27
sg28
(lp2723
VPaul Pierce
p2724
assbag1
(g2
g3
Ntp2725
Rp2726
(dp2727
g7
(dp2728
g9
V1999-00 Ultimate Victory 1 of 1 #21 Ron Mercer
p2729
sg11
I1
sg12
VUltimate Victory 1 of 1
p2730
sg14
(lp2731
Vhttp://www.beckett.com/basketball/1999-00/ultimate-victory-1-of-1/21-ron-mercer-3180385
p2732
asg17
g18
sg19
(lp2733
Vhttp://img.beckett.com/images/no-image.jpg
p2734
asg22
V#21
p2735
sg24
V1999-00
p2736
sg26
g27
sg28
(lp2737
VRon Mercer
p2738
assbag1
(g2
g3
Ntp2739
Rp2740
(dp2741
g7
(dp2742
g9
V1999-00 Ultimate Victory 1 of 1 #148 Adrian Griffin
p2743
sg11
I1
sg12
VUltimate Victory 1 of 1
p2744
sg14
(lp2745
Vhttp://www.beckett.com/basketball/1999-00/ultimate-victory-1-of-1/148-adrian-griffin-3180512
p2746
asg17
g18
sg19
(lp2747
Vhttp://img.beckett.com/images/no-image.jpg
p2748
asg22
V#148
p2749
sg24
V1999-00
p2750
sg26
g27
sg28
(lp2751
VAdrian Griffin
p2752
assbag1
(g2
g3
Ntp2753
Rp2754
(dp2755
g7
(dp2756
g9
V1999-00 Ultimate Victory Parallel 100 #4 Kenny Anderson
p2757
sg11
I100
sg12
VUltimate Victory Parallel 100
p2758
sg14
(lp2759
Vhttp://www.beckett.com/basketball/1999-00/ultimate-victory-parallel-100/4-kenny-anderson-3180690
p2760
asg17
g18
sg19
(lp2761
Vhttp://img.beckett.com/images/no-image.jpg
p2762
asg22
V#4
p2763
sg24
V1999-00
p2764
sg26
g27
sg28
(lp2765
VKenny Anderson
p2766
assbag1
(g2
g3
Ntp2767
Rp2768
(dp2769
g7
(dp2770
g9
V1999-00 Ultimate Victory Parallel 100 #5 Antoine Walker
p2771
sg11
I100
sg12
VUltimate Victory Parallel 100
p2772
sg14
(lp2773
Vhttp://www.beckett.com/basketball/1999-00/ultimate-victory-parallel-100/5-antoine-walker-3180691
p2774
asg17
g18
sg19
(lp2775
Vhttp://img.beckett.com/images/no-image.jpg
p2776
asg22
V#5
p2777
sg24
V1999-00
p2778
sg26
g27
sg28
(lp2779
VAntoine Walker
p2780
assbag1
(g2
g3
Ntp2781
Rp2782
(dp2783
g7
(dp2784
g9
V1999-00 Ultimate Victory Parallel 100 #6 Paul Pierce
p2785
sg11
I100
sg12
VUltimate Victory Parallel 100
p2786
sg14
(lp2787
Vhttp://www.beckett.com/basketball/1999-00/ultimate-victory-parallel-100/6-paul-pierce-3180692
p2788
asg17
g18
sg19
(lp2789
Vhttp://img.beckett.com/images/no-image.jpg
p2790
asg22
V#6
p2791
sg24
V1999-00
p2792
sg26
g27
sg28
(lp2793
VPaul Pierce
p2794
assbag1
(g2
g3
Ntp2795
Rp2796
(dp2797
g7
(dp2798
g9
V1999-00 Ultimate Victory Parallel 100 #21 Ron Mercer
p2799
sg11
I100
sg12
VUltimate Victory Parallel 100
p2800
sg14
(lp2801
Vhttp://www.beckett.com/basketball/1999-00/ultimate-victory-parallel-100/21-ron-mercer-3180707
p2802
asg17
g18
sg19
(lp2803
Vhttp://img.beckett.com/images/no-image.jpg
p2804
asg22
V#21
p2805
sg24
V1999-00
p2806
sg26
g27
sg28
(lp2807
VRon Mercer
p2808
assbag1
(g2
g3
Ntp2809
Rp2810
(dp2811
g7
(dp2812
g9
V1999-00 Ultimate Victory Parallel 100 #148 Adrian Griffin
p2813
sg11
I100
sg12
VUltimate Victory Parallel 100
p2814
sg14
(lp2815
Vhttp://www.beckett.com/basketball/1999-00/ultimate-victory-parallel-100/148-adrian-griffin-3180834
p2816
asg17
g18
sg19
(lp2817
Vhttp://img.beckett.com/images/no-image.jpg
p2818
asg22
V#148
p2819
sg24
V1999-00
p2820
sg26
g27
sg28
(lp2821
VAdrian Griffin
p2822
assbag1
(g2
g3
Ntp2823
Rp2824
(dp2825
g7
(dp2826
g9
V1999-00 Ultra Masterpieces #21 Kenny Anderson
p2827
sg11
I1
sg12
VUltra Masterpieces
p2828
sg14
(lp2829
Vhttp://www.beckett.com/basketball/1999-00/ultra-masterpieces/21-kenny-anderson-3206012
p2830
asg17
g18
sg19
(lp2831
Vhttp://img.beckett.com/images/no-image.jpg
p2832
asg22
V#21
p2833
sg24
V1999-00
p2834
sg26
g27
sg28
(lp2835
VKenny Anderson
p2836
assbag1
(g2
g3
Ntp2837
Rp2838
(dp2839
g7
(dp2840
g9
V1999-00 Ultra Masterpieces #25 Vitaly Potapenko
p2841
sg11
I1
sg12
VUltra Masterpieces
p2842
sg14
(lp2843
Vhttp://www.beckett.com/basketball/1999-00/ultra-masterpieces/25-vitaly-potapenko-3206016
p2844
asg17
g18
sg19
(lp2845
Vhttp://img.beckett.com/images/no-image.jpg
p2846
asg22
V#25
p2847
sg24
V1999-00
p2848
sg26
g27
sg28
(lp2849
VVitaly Potapenko
p2850
assbag1
(g2
g3
Ntp2851
Rp2852
(dp2853
g7
(dp2854
g9
V1999-00 Ultra Masterpieces #115 Antoine Walker
p2855
sg11
I1
sg12
VUltra Masterpieces
p2856
sg14
(lp2857
Vhttp://www.beckett.com/basketball/1999-00/ultra-masterpieces/115-antoine-walker-3206106
p2858
asg17
g18
sg19
(lp2859
Vhttp://img.beckett.com/images/no-image.jpg
p2860
asg22
V#115
p2861
sg24
V1999-00
p2862
sg26
g27
sg28
(lp2863
VAntoine Walker
p2864
assbag1
(g2
g3
Ntp2865
Rp2866
(dp2867
g7
(dp2868
g9
V1999-00 Ultra Masterpieces #120 Paul Pierce
p2869
sg11
I1
sg12
VUltra Masterpieces
p2870
sg14
(lp2871
Vhttp://www.beckett.com/basketball/1999-00/ultra-masterpieces/120-paul-pierce-3206111
p2872
asg17
g18
sg19
(lp2873
Vhttp://img.beckett.com/images/no-image.jpg
p2874
asg22
V#120
p2875
sg24
V1999-00
p2876
sg26
g27
sg28
(lp2877
VPaul Pierce
p2878
assbag1
(g2
g3
Ntp2879
Rp2880
(dp2881
g7
(dp2882
g9
V1999-00 Ultra Platinum Medallion #21 Kenny Anderson
p2883
sg11
I50
sg12
VUltra Platinum Medallion
p2884
sg14
(lp2885
Vhttp://www.beckett.com/basketball/1999-00/ultra-platinum-medallion/21-kenny-anderson-3185827
p2886
asg17
g18
sg19
(lp2887
Vhttp://img.beckett.com/images/no-image.jpg
p2888
asg22
V#21
p2889
sg24
V1999-00
p2890
sg26
g27
sg28
(lp2891
VKenny Anderson
p2892
assbag1
(g2
g3
Ntp2893
Rp2894
(dp2895
g7
(dp2896
g9
V1999-00 Ultra Platinum Medallion #25 Vitaly Potapenko
p2897
sg11
I50
sg12
VUltra Platinum Medallion
p2898
sg14
(lp2899
Vhttp://www.beckett.com/basketball/1999-00/ultra-platinum-medallion/25-vitaly-potapenko-3185831
p2900
asg17
g18
sg19
(lp2901
Vhttp://img.beckett.com/images/no-image.jpg
p2902
asg22
V#25
p2903
sg24
V1999-00
p2904
sg26
g27
sg28
(lp2905
VVitaly Potapenko
p2906
assbag1
(g2
g3
Ntp2907
Rp2908
(dp2909
g7
(dp2910
g9
V1999-00 Ultra Platinum Medallion #115 Antoine Walker
p2911
sg11
I50
sg12
VUltra Platinum Medallion
p2912
sg14
(lp2913
Vhttp://www.beckett.com/basketball/1999-00/ultra-platinum-medallion/115-antoine-walker-3185921
p2914
asg17
g18
sg19
(lp2915
Vhttp://img.beckett.com/images/no-image.jpg
p2916
asg22
V#115
p2917
sg24
V1999-00
p2918
sg26
g27
sg28
(lp2919
VAntoine Walker
p2920
assbag1
(g2
g3
Ntp2921
Rp2922
(dp2923
g7
(dp2924
g9
V1999-00 Ultra Platinum Medallion #120 Paul Pierce
p2925
sg11
I50
sg12
VUltra Platinum Medallion
p2926
sg14
(lp2927
Vhttp://www.beckett.com/basketball/1999-00/ultra-platinum-medallion/120-paul-pierce-3185926
p2928
asg17
g18
sg19
(lp2929
Vhttp://img.beckett.com/images/no-image.jpg
p2930
asg22
V#120
p2931
sg24
V1999-00
p2932
sg26
g27
sg28
(lp2933
VPaul Pierce
p2934
assbag1
(g2
g3
Ntp2935
Rp2936
(dp2937
g7
(dp2938
g9
V1999-00 Upper Deck Bronze #6 Kenny Anderson
p2939
sg11
I100
sg12
VUpper Deck Bronze
p2940
sg14
(lp2941
Vhttp://www.beckett.com/basketball/1999-00/upper-deck-bronze/6-kenny-anderson-3186533
p2942
asg17
g18
sg19
(lp2943
Vhttp://img.beckett.com/images/no-image.jpg
p2944
asg22
V#6
p2945
sg24
V1999-00
p2946
sg26
g27
sg28
(lp2947
VKenny Anderson
p2948
assbag1
(g2
g3
Ntp2949
Rp2950
(dp2951
g7
(dp2952
g9
V1999-00 Upper Deck Bronze #7 Antoine Walker
p2953
sg11
I100
sg12
VUpper Deck Bronze
p2954
sg14
(lp2955
Vhttp://www.beckett.com/basketball/1999-00/upper-deck-bronze/7-antoine-walker-3186534
p2956
asg17
g18
sg19
(lp2957
Vhttp://img.beckett.com/images/no-image.jpg
p2958
asg22
V#7
p2959
sg24
V1999-00
p2960
sg26
g27
sg28
(lp2961
VAntoine Walker
p2962
assbag1
(g2
g3
Ntp2963
Rp2964
(dp2965
g7
(dp2966
g9
V1999-00 Upper Deck Bronze #8 Paul Pierce
p2967
sg11
I100
sg12
VUpper Deck Bronze
p2968
sg14
(lp2969
Vhttp://www.beckett.com/basketball/1999-00/upper-deck-bronze/8-paul-pierce-3186535
p2970
asg17
g18
sg19
(lp2971
Vhttp://img.beckett.com/images/no-image.jpg
p2972
asg22
V#8
p2973
sg24
V1999-00
p2974
sg26
g27
sg28
(lp2975
VPaul Pierce
p2976
assbag1
(g2
g3
Ntp2977
Rp2978
(dp2979
g7
(dp2980
g9
V1999-00 Upper Deck Bronze #9 Vitaly Potapenko
p2981
sg11
I100
sg12
VUpper Deck Bronze
p2982
sg14
(lp2983
Vhttp://www.beckett.com/basketball/1999-00/upper-deck-bronze/9-vitaly-potapenko-3186536
p2984
asg17
g18
sg19
(lp2985
Vhttp://img.beckett.com/images/no-image.jpg
p2986
asg22
V#9
p2987
sg24
V1999-00
p2988
sg26
g27
sg28
(lp2989
VVitaly Potapenko
p2990
assbag1
(g2
g3
Ntp2991
Rp2992
(dp2993
g7
(dp2994
g9
V1999-00 Upper Deck Bronze #10 Dana Barros
p2995
sg11
I100
sg12
VUpper Deck Bronze
p2996
sg14
(lp2997
Vhttp://www.beckett.com/basketball/1999-00/upper-deck-bronze/10-dana-barros-3186537
p2998
asg17
g18
sg19
(lp2999
Vhttp://img.beckett.com/images/no-image.jpg
p3000
asg22
V#10
p3001
sg24
V1999-00
p3002
sg26
g27
sg28
(lp3003
VDana Barros
p3004
assbag1
(g2
g3
Ntp3005
Rp3006
(dp3007
g7
(dp3008
g9
V1999-00 Upper Deck Bronze #187 Pervis Ellison
p3009
sg11
I100
sg12
VUpper Deck Bronze
p3010
sg14
(lp3011
Vhttp://www.beckett.com/basketball/1999-00/upper-deck-bronze/187-pervis-ellison-3186714
p3012
asg17
g18
sg19
(lp3013
Vhttp://img.beckett.com/images/no-image.jpg
p3014
asg22
V#187
p3015
sg24
V1999-00
p3016
sg26
g27
sg28
(lp3017
VPervis Ellison
p3018
assbag1
(g2
g3
Ntp3019
Rp3020
(dp3021
g7
(dp3022
g9
V1999-00 Upper Deck Bronze #188 Walter McCarty
p3023
sg11
I100
sg12
VUpper Deck Bronze
p3024
sg14
(lp3025
Vhttp://www.beckett.com/basketball/1999-00/upper-deck-bronze/188-walter-mccarty-3186715
p3026
asg17
g18
sg19
(lp3027
Vhttp://img.beckett.com/images/items_stock/185226/3186514/3186715/front.jpg
p3028
asg22
V#188
p3029
sg24
V1999-00
p3030
sg26
g27
sg28
(lp3031
VWalter McCarty
p3032
assbag1
(g2
g3
Ntp3033
Rp3034
(dp3035
g7
(dp3036
g9
V1999-00 Upper Deck Bronze #190 Tony Battie
p3037
sg11
I100
sg12
VUpper Deck Bronze
p3038
sg14
(lp3039
Vhttp://www.beckett.com/basketball/1999-00/upper-deck-bronze/190-tony-battie-3186717
p3040
asg17
g18
sg19
(lp3041
Vhttp://img.beckett.com/images/no-image.jpg
p3042
asg22
V#190
p3043
sg24
V1999-00
p3044
sg26
g27
sg28
(lp3045
VTony Battie
p3046
assbag1
(g2
g3
Ntp3047
Rp3048
(dp3049
g7
(dp3050
g9
V1999-00 Upper Deck Bronze #343 Adrian Griffin
p3051
sg11
I100
sg12
VUpper Deck Bronze
p3052
sg14
(lp3053
Vhttp://www.beckett.com/basketball/1999-00/upper-deck-bronze/343-adrian-griffin-3186870
p3054
asg17
g18
sg19
(lp3055
Vhttp://img.beckett.com/images/no-image.jpg
p3056
asg22
V#343
p3057
sg24
V1999-00
p3058
sg26
g27
sg28
(lp3059
VAdrian Griffin
p3060
assbag1
(g2
g3
Ntp3061
Rp3062
(dp3063
g7
(dp3064
g9
V1999-00 Upper Deck Gold #6 Kenny Anderson
p3065
sg11
I1
sg12
VUpper Deck Gold
p3066
sg14
(lp3067
Vhttp://www.beckett.com/basketball/1999-00/upper-deck-gold/6-kenny-anderson-3186898
p3068
asg17
g18
sg19
(lp3069
Vhttp://img.beckett.com/images/no-image.jpg
p3070
asg22
V#6
p3071
sg24
V1999-00
p3072
sg26
g27
sg28
(lp3073
VKenny Anderson
p3074
assbag1
(g2
g3
Ntp3075
Rp3076
(dp3077
g7
(dp3078
g9
V1999-00 Upper Deck Gold #7 Antoine Walker
p3079
sg11
I1
sg12
VUpper Deck Gold
p3080
sg14
(lp3081
Vhttp://www.beckett.com/basketball/1999-00/upper-deck-gold/7-antoine-walker-3186899
p3082
asg17
g18
sg19
(lp3083
Vhttp://img.beckett.com/images/no-image.jpg
p3084
asg22
V#7
p3085
sg24
V1999-00
p3086
sg26
g27
sg28
(lp3087
VAntoine Walker
p3088
assbag1
(g2
g3
Ntp3089
Rp3090
(dp3091
g7
(dp3092
g9
V1999-00 Upper Deck Gold #8 Paul Pierce
p3093
sg11
I1
sg12
VUpper Deck Gold
p3094
sg14
(lp3095
Vhttp://www.beckett.com/basketball/1999-00/upper-deck-gold/8-paul-pierce-3186900
p3096
asg17
g18
sg19
(lp3097
Vhttp://img.beckett.com/images/no-image.jpg
p3098
asg22
V#8
p3099
sg24
V1999-00
p3100
sg26
g27
sg28
(lp3101
VPaul Pierce
p3102
assbag1
(g2
g3
Ntp3103
Rp3104
(dp3105
g7
(dp3106
g9
V1999-00 Upper Deck Gold #9 Vitaly Potapenko
p3107
sg11
I1
sg12
VUpper Deck Gold
p3108
sg14
(lp3109
Vhttp://www.beckett.com/basketball/1999-00/upper-deck-gold/9-vitaly-potapenko-3186901
p3110
asg17
g18
sg19
(lp3111
Vhttp://img.beckett.com/images/no-image.jpg
p3112
asg22
V#9
p3113
sg24
V1999-00
p3114
sg26
g27
sg28
(lp3115
VVitaly Potapenko
p3116
assbag1
(g2
g3
Ntp3117
Rp3118
(dp3119
g7
(dp3120
g9
V1999-00 Upper Deck Gold #10 Dana Barros
p3121
sg11
I1
sg12
VUpper Deck Gold
p3122
sg14
(lp3123
Vhttp://www.beckett.com/basketball/1999-00/upper-deck-gold/10-dana-barros-3186902
p3124
asg17
g18
sg19
(lp3125
Vhttp://img.beckett.com/images/no-image.jpg
p3126
asg22
V#10
p3127
sg24
V1999-00
p3128
sg26
g27
sg28
(lp3129
VDana Barros
p3130
assbag1
(g2
g3
Ntp3131
Rp3132
(dp3133
g7
(dp3134
g9
V1999-00 Upper Deck Gold #187 Pervis Ellison
p3135
sg11
I1
sg12
VUpper Deck Gold
p3136
sg14
(lp3137
Vhttp://www.beckett.com/basketball/1999-00/upper-deck-gold/187-pervis-ellison-3187079
p3138
asg17
g18
sg19
(lp3139
Vhttp://img.beckett.com/images/no-image.jpg
p3140
asg22
V#187
p3141
sg24
V1999-00
p3142
sg26
g27
sg28
(lp3143
VPervis Ellison
p3144
assbag1
(g2
g3
Ntp3145
Rp3146
(dp3147
g7
(dp3148
g9
V1999-00 Upper Deck Gold #188 Walter McCarty
p3149
sg11
I1
sg12
VUpper Deck Gold
p3150
sg14
(lp3151
Vhttp://www.beckett.com/basketball/1999-00/upper-deck-gold/188-walter-mccarty-3187080
p3152
asg17
g18
sg19
(lp3153
Vhttp://img.beckett.com/images/no-image.jpg
p3154
asg22
V#188
p3155
sg24
V1999-00
p3156
sg26
g27
sg28
(lp3157
VWalter McCarty
p3158
assbag1
(g2
g3
Ntp3159
Rp3160
(dp3161
g7
(dp3162
g9
V1999-00 Upper Deck Gold #190 Tony Battie
p3163
sg11
I1
sg12
VUpper Deck Gold
p3164
sg14
(lp3165
Vhttp://www.beckett.com/basketball/1999-00/upper-deck-gold/190-tony-battie-3187082
p3166
asg17
g18
sg19
(lp3167
Vhttp://img.beckett.com/images/no-image.jpg
p3168
asg22
V#190
p3169
sg24
V1999-00
p3170
sg26
g27
sg28
(lp3171
VTony Battie
p3172
assbag1
(g2
g3
Ntp3173
Rp3174
(dp3175
g7
(dp3176
g9
V1999-00 Upper Deck Gold #343 Adrian Griffin
p3177
sg11
I1
sg12
VUpper Deck Gold
p3178
sg14
(lp3179
Vhttp://www.beckett.com/basketball/1999-00/upper-deck-gold/343-adrian-griffin-3187235
p3180
asg17
g18
sg19
(lp3181
Vhttp://img.beckett.com/images/no-image.jpg
p3182
asg22
V#343
p3183
sg24
V1999-00
p3184
sg26
g27
sg28
(lp3185
VAdrian Griffin
p3186
assbag1
(g2
g3
Ntp3187
Rp3188
(dp3189
g7
(dp3190
g9
V1999-00 Upper Deck Hardcourt Baseline Grooves Gold #3 Antoine Walker
p3191
sg11
I1
sg12
VUpper Deck Hardcourt Baseline Grooves Gold
p3192
sg14
(lp3193
Vhttp://www.beckett.com/basketball/1999-00/upper-deck-hardcourt-baseline-grooves-gold/3-antoine-walker-3183843
p3194
asg17
g18
sg19
(lp3195
Vhttp://img.beckett.com/images/no-image.jpg
p3196
asg22
V#3
p3197
sg24
V1999-00
p3198
sg26
g27
sg28
(lp3199
VAntoine Walker
p3200
assbag1
(g2
g3
Ntp3201
Rp3202
(dp3203
g7
(dp3204
g9
V1999-00 Upper Deck Hardcourt Baseline Grooves Gold #4 Paul Pierce
p3205
sg11
I1
sg12
VUpper Deck Hardcourt Baseline Grooves Gold
p3206
sg14
(lp3207
Vhttp://www.beckett.com/basketball/1999-00/upper-deck-hardcourt-baseline-grooves-gold/4-paul-pierce-3183844
p3208
asg17
g18
sg19
(lp3209
Vhttp://img.beckett.com/images/no-image.jpg
p3210
asg22
V#4
p3211
sg24
V1999-00
p3212
sg26
g27
sg28
(lp3213
VPaul Pierce
p3214
assbag1
(g2
g3
Ntp3215
Rp3216
(dp3217
g7
(dp3218
g9
V1999-00 Upper Deck Hardcourt Baseline Grooves Gold #83 Kris Clack
p3219
sg11
I1
sg12
VUpper Deck Hardcourt Baseline Grooves Gold
p3220
sg14
(lp3221
Vhttp://www.beckett.com/basketball/1999-00/upper-deck-hardcourt-baseline-grooves-gold/83-kris-clack-3183923
p3222
asg17
g18
sg19
(lp3223
Vhttp://img.beckett.com/images/no-image.jpg
p3224
asg22
V#83
p3225
sg24
V1999-00
p3226
sg26
g27
sg28
(lp3227
VKris Clack
p3228
assbag1
(g2
g3
Ntp3229
Rp3230
(dp3231
g7
(dp3232
g9
V1999-00 Upper Deck Hardcourt Baseline Grooves Rainbow #3 Antoine Walker
p3233
sg11
I500
sg12
VUpper Deck Hardcourt Baseline Grooves Rainbow
p3234
sg14
(lp3235
Vhttp://www.beckett.com/basketball/1999-00/upper-deck-hardcourt-baseline-grooves-rainbow/3-antoine-walker-3183750
p3236
asg17
g18
sg19
(lp3237
Vhttp://img.beckett.com/images/items_stock/185226/3183740/3183750/front.jpg
p3238
asg22
V#3
p3239
sg24
V1999-00
p3240
sg26
g27
sg28
(lp3241
VAntoine Walker
p3242
assbag1
(g2
g3
Ntp3243
Rp3244
(dp3245
g7
(dp3246
g9
V1999-00 Upper Deck Hardcourt Baseline Grooves Rainbow #4 Paul Pierce
p3247
sg11
I500
sg12
VUpper Deck Hardcourt Baseline Grooves Rainbow
p3248
sg14
(lp3249
Vhttp://www.beckett.com/basketball/1999-00/upper-deck-hardcourt-baseline-grooves-rainbow/4-paul-pierce-3183751
p3250
asg17
g18
sg19
(lp3251
Vhttp://img.beckett.com/images/no-image.jpg
p3252
asg22
V#4
p3253
sg24
V1999-00
p3254
sg26
g27
sg28
(lp3255
VPaul Pierce
p3256
assbag1
(g2
g3
Ntp3257
Rp3258
(dp3259
g7
(dp3260
g9
V1999-00 Upper Deck Hardcourt Baseline Grooves Rainbow #83 Kris Clack
p3261
sg11
I500
sg12
VUpper Deck Hardcourt Baseline Grooves Rainbow
p3262
sg14
(lp3263
Vhttp://www.beckett.com/basketball/1999-00/upper-deck-hardcourt-baseline-grooves-rainbow/83-kris-clack-3183830
p3264
asg17
g18
sg19
(lp3265
Vhttp://img.beckett.com/images/no-image.jpg
p3266
asg22
V#83
p3267
sg24
V1999-00
p3268
sg26
g27
sg28
(lp3269
VKris Clack
p3270
assbag1
(g2
g3
Ntp3271
Rp3272
(dp3273
g7
(dp3274
g9
V1999-00 Upper Deck Hardcourt Baseline Grooves Silver #3 Antoine Walker
p3275
sg11
I50
sg12
VUpper Deck Hardcourt Baseline Grooves Silver
p3276
sg14
(lp3277
Vhttp://www.beckett.com/basketball/1999-00/upper-deck-hardcourt-baseline-grooves-silver/3-antoine-walker-3183943
p3278
asg17
g18
sg19
(lp3279
Vhttp://img.beckett.com/images/no-image.jpg
p3280
asg22
V#3
p3281
sg24
V1999-00
p3282
sg26
g27
sg28
(lp3283
VAntoine Walker
p3284
assbag1
(g2
g3
Ntp3285
Rp3286
(dp3287
g7
(dp3288
g9
V1999-00 Upper Deck Hardcourt Baseline Grooves Silver #4 Paul Pierce
p3289
sg11
I50
sg12
VUpper Deck Hardcourt Baseline Grooves Silver
p3290
sg14
(lp3291
Vhttp://www.beckett.com/basketball/1999-00/upper-deck-hardcourt-baseline-grooves-silver/4-paul-pierce-3183944
p3292
asg17
g18
sg19
(lp3293
Vhttp://img.beckett.com/images/no-image.jpg
p3294
asg22
V#4
p3295
sg24
V1999-00
p3296
sg26
g27
sg28
(lp3297
VPaul Pierce
p3298
assbag1
(g2
g3
Ntp3299
Rp3300
(dp3301
g7
(dp3302
g9
V1999-00 Upper Deck Hardcourt Baseline Grooves Silver #83 Kris Clack
p3303
sg11
I50
sg12
VUpper Deck Hardcourt Baseline Grooves Silver
p3304
sg14
(lp3305
Vhttp://www.beckett.com/basketball/1999-00/upper-deck-hardcourt-baseline-grooves-silver/83-kris-clack-3184023
p3306
asg17
g18
sg19
(lp3307
Vhttp://img.beckett.com/images/no-image.jpg
p3308
asg22
V#83
p3309
sg24
V1999-00
p3310
sg26
g27
sg28
(lp3311
VKris Clack
p3312
assbag1
(g2
g3
Ntp3313
Rp3314
(dp3315
g7
(dp3316
g9
V1999-00 Upper Deck MVP Gold Script #7 Kenny Anderson
p3317
sg11
I100
sg12
VUpper Deck MVP Gold Script
p3318
sg14
(lp3319
Vhttp://www.beckett.com/basketball/1999-00/upper-deck-mvp-gold-script/7-kenny-anderson-3182640
p3320
asg17
g18
sg19
(lp3321
Vhttp://img.beckett.com/images/items_stock/185226/3182624/3182640/front.jpg
p3322
asg22
V#7
p3323
sg24
V1999-00
p3324
sg26
g27
sg28
(lp3325
VKenny Anderson
p3326
assbag1
(g2
g3
Ntp3327
Rp3328
(dp3329
g7
(dp3330
g9
V1999-00 Upper Deck MVP Gold Script #8 Antoine Walker
p3331
sg11
I100
sg12
VUpper Deck MVP Gold Script
p3332
sg14
(lp3333
Vhttp://www.beckett.com/basketball/1999-00/upper-deck-mvp-gold-script/8-antoine-walker-3182641
p3334
asg17
g18
sg19
(lp3335
Vhttp://img.beckett.com/images/items_stock/185226/3182624/3182641/front.jpg
p3336
asg22
V#8
p3337
sg24
V1999-00
p3338
sg26
g27
sg28
(lp3339
VAntoine Walker
p3340
assbag1
(g2
g3
Ntp3341
Rp3342
(dp3343
g7
(dp3344
g9
V1999-00 Upper Deck MVP Gold Script #9 Ron Mercer
p3345
sg11
I100
sg12
VUpper Deck MVP Gold Script
p3346
sg14
(lp3347
Vhttp://www.beckett.com/basketball/1999-00/upper-deck-mvp-gold-script/9-ron-mercer-3182642
p3348
asg17
g18
sg19
(lp3349
Vhttp://img.beckett.com/images/items_stock/185226/3182624/3182642/front.jpg
p3350
asg22
V#9
p3351
sg24
V1999-00
p3352
sg26
g27
sg28
(lp3353
VRon Mercer
p3354
assbag1
(g2
g3
Ntp3355
Rp3356
(dp3357
g7
(dp3358
g9
V1999-00 Upper Deck MVP Gold Script #10 Paul Pierce
p3359
sg11
I100
sg12
VUpper Deck MVP Gold Script
p3360
sg14
(lp3361
Vhttp://www.beckett.com/basketball/1999-00/upper-deck-mvp-gold-script/10-paul-pierce-3182643
p3362
asg17
g18
sg19
(lp3363
Vhttp://img.beckett.com/images/no-image.jpg
p3364
asg22
V#10
p3365
sg24
V1999-00
p3366
sg26
g27
sg28
(lp3367
VPaul Pierce
p3368
assbag1
(g2
g3
Ntp3369
Rp3370
(dp3371
g7
(dp3372
g9
V1999-00 Upper Deck MVP Gold Script #11 Vitaly Potapenko
p3373
sg11
I100
sg12
VUpper Deck MVP Gold Script
p3374
sg14
(lp3375
Vhttp://www.beckett.com/basketball/1999-00/upper-deck-mvp-gold-script/11-vitaly-potapenko-3182644
p3376
asg17
g18
sg19
(lp3377
Vhttp://img.beckett.com/images/no-image.jpg
p3378
asg22
V#11
p3379
sg24
V1999-00
p3380
sg26
g27
sg28
(lp3381
VVitaly Potapenko
p3382
assbag1
(g2
g3
Ntp3383
Rp3384
(dp3385
g7
(dp3386
g9
V1999-00 Upper Deck MVP Gold Script #12 Dana Barros
p3387
sg11
I100
sg12
VUpper Deck MVP Gold Script
p3388
sg14
(lp3389
Vhttp://www.beckett.com/basketball/1999-00/upper-deck-mvp-gold-script/12-dana-barros-3182645
p3390
asg17
g18
sg19
(lp3391
Vhttp://img.beckett.com/images/items_stock/185226/3182624/3182645/front.jpg
p3392
asg22
V#12
p3393
sg24
V1999-00
p3394
sg26
g27
sg28
(lp3395
VDana Barros
p3396
assbag1
(g2
g3
Ntp3397
Rp3398
(dp3399
g7
(dp3400
g9
V1999-00 Upper Deck MVP Super Script #7 Kenny Anderson
p3401
sg11
I25
sg12
VUpper Deck MVP Super Script
p3402
sg14
(lp3403
Vhttp://www.beckett.com/basketball/1999-00/upper-deck-mvp-super-script/7-kenny-anderson-3182870
p3404
asg17
g18
sg19
(lp3405
Vhttp://img.beckett.com/images/no-image.jpg
p3406
asg22
V#7
p3407
sg24
V1999-00
p3408
sg26
g27
sg28
(lp3409
VKenny Anderson
p3410
assbag1
(g2
g3
Ntp3411
Rp3412
(dp3413
g7
(dp3414
g9
V1999-00 Upper Deck MVP Super Script #8 Antoine Walker
p3415
sg11
I25
sg12
VUpper Deck MVP Super Script
p3416
sg14
(lp3417
Vhttp://www.beckett.com/basketball/1999-00/upper-deck-mvp-super-script/8-antoine-walker-3182871
p3418
asg17
g18
sg19
(lp3419
Vhttp://img.beckett.com/images/no-image.jpg
p3420
asg22
V#8
p3421
sg24
V1999-00
p3422
sg26
g27
sg28
(lp3423
VAntoine Walker
p3424
assbag1
(g2
g3
Ntp3425
Rp3426
(dp3427
g7
(dp3428
g9
V1999-00 Upper Deck MVP Super Script #9 Ron Mercer
p3429
sg11
I25
sg12
VUpper Deck MVP Super Script
p3430
sg14
(lp3431
Vhttp://www.beckett.com/basketball/1999-00/upper-deck-mvp-super-script/9-ron-mercer-3182872
p3432
asg17
g18
sg19
(lp3433
Vhttp://img.beckett.com/images/no-image.jpg
p3434
asg22
V#9
p3435
sg24
V1999-00
p3436
sg26
g27
sg28
(lp3437
VRon Mercer
p3438
assbag1
(g2
g3
Ntp3439
Rp3440
(dp3441
g7
(dp3442
g9
V1999-00 Upper Deck MVP Super Script #10 Paul Pierce
p3443
sg11
I25
sg12
VUpper Deck MVP Super Script
p3444
sg14
(lp3445
Vhttp://www.beckett.com/basketball/1999-00/upper-deck-mvp-super-script/10-paul-pierce-3182873
p3446
asg17
g18
sg19
(lp3447
Vhttp://img.beckett.com/images/no-image.jpg
p3448
asg22
V#10
p3449
sg24
V1999-00
p3450
sg26
g27
sg28
(lp3451
VPaul Pierce
p3452
assbag1
(g2
g3
Ntp3453
Rp3454
(dp3455
g7
(dp3456
g9
V1999-00 Upper Deck MVP Super Script #11 Vitaly Potapenko
p3457
sg11
I25
sg12
VUpper Deck MVP Super Script
p3458
sg14
(lp3459
Vhttp://www.beckett.com/basketball/1999-00/upper-deck-mvp-super-script/11-vitaly-potapenko-3182874
p3460
asg17
g18
sg19
(lp3461
Vhttp://img.beckett.com/images/no-image.jpg
p3462
asg22
V#11
p3463
sg24
V1999-00
p3464
sg26
g27
sg28
(lp3465
VVitaly Potapenko
p3466
assbag1
(g2
g3
Ntp3467
Rp3468
(dp3469
g7
(dp3470
g9
V1999-00 Upper Deck MVP Super Script #12 Dana Barros
p3471
sg11
I25
sg12
VUpper Deck MVP Super Script
p3472
sg14
(lp3473
Vhttp://www.beckett.com/basketball/1999-00/upper-deck-mvp-super-script/12-dana-barros-3182875
p3474
asg17
g18
sg19
(lp3475
Vhttp://img.beckett.com/images/no-image.jpg
p3476
asg22
V#12
p3477
sg24
V1999-00
p3478
sg26
g27
sg28
(lp3479
VDana Barros
p3480
assbag1
(g2
g3
Ntp3481
Rp3482
(dp3483
g7
(dp3484
g9
V1999-00 Upper Deck Ovation Standing Ovation #3 Antoine Walker
p3485
sg11
I50
sg12
VUpper Deck Ovation Standing Ovation
p3486
sg14
(lp3487
Vhttp://www.beckett.com/basketball/1999-00/upper-deck-ovation-standing-ovation/3-antoine-walker-3181136
p3488
asg17
g18
sg19
(lp3489
Vhttp://img.beckett.com/images/no-image.jpg
p3490
asg22
V#3
p3491
sg24
V1999-00
p3492
sg26
g27
sg28
(lp3493
VAntoine Walker
p3494
assbag1
(g2
g3
Ntp3495
Rp3496
(dp3497
g7
(dp3498
g9
V1999-00 Upper Deck Ovation Standing Ovation #4 Paul Pierce
p3499
sg11
I50
sg12
VUpper Deck Ovation Standing Ovation
p3500
sg14
(lp3501
Vhttp://www.beckett.com/basketball/1999-00/upper-deck-ovation-standing-ovation/4-paul-pierce-3181137
p3502
asg17
g18
sg19
(lp3503
Vhttp://img.beckett.com/images/no-image.jpg
p3504
asg22
V#4
p3505
sg24
V1999-00
p3506
sg26
g27
sg28
(lp3507
VPaul Pierce
p3508
assbag1
(g2
g3
Ntp3509
Rp3510
(dp3511
g7
(dp3512
g9
V1999-00 Upper Deck Retro Gold #2 John Havlicek
p3513
sg11
I250
sg12
VUpper Deck Retro Gold
p3514
sg14
(lp3515
Vhttp://www.beckett.com/basketball/1999-00/upper-deck-retro-gold/2-john-havlicek-3181509
p3516
asg17
g18
sg19
(lp3517
Vhttp://img.beckett.com/images/items_stock/185226/3181499/3181509/front.jpg
p3518
asg22
V#2
p3519
sg24
V1999-00
p3520
sg26
g27
sg28
(lp3521
VJohn Havlicek
p3522
assbag1
(g2
g3
Ntp3523
Rp3524
(dp3525
g7
(dp3526
g9
V1999-00 Upper Deck Retro Gold #11 Larry Bird
p3527
sg11
I250
sg12
VUpper Deck Retro Gold
p3528
sg14
(lp3529
Vhttp://www.beckett.com/basketball/1999-00/upper-deck-retro-gold/11-larry-bird-3181518
p3530
asg17
g18
sg19
(lp3531
Vhttp://img.beckett.com/images/no-image.jpg
p3532
asg22
V#11
p3533
sg24
V1999-00
p3534
sg26
g27
sg28
(lp3535
VLarry Bird
p3536
assbag1
(g2
g3
Ntp3537
Rp3538
(dp3539
g7
(dp3540
g9
V1999-00 Upper Deck Retro Gold #14 Bob Cousy
p3541
sg11
I250
sg12
VUpper Deck Retro Gold
p3542
sg14
(lp3543
Vhttp://www.beckett.com/basketball/1999-00/upper-deck-retro-gold/14-bob-cousy-3181521
p3544
asg17
g18
sg19
(lp3545
Vhttp://img.beckett.com/images/no-image.jpg
p3546
asg22
V#14
p3547
sg24
V1999-00
p3548
sg26
g27
sg28
(lp3549
VBob Cousy
p3550
assbag1
(g2
g3
Ntp3551
Rp3552
(dp3553
g7
(dp3554
g9
V1999-00 Upper Deck Retro Gold #21 Dave Cowens
p3555
sg11
I250
sg12
VUpper Deck Retro Gold
p3556
sg14
(lp3557
Vhttp://www.beckett.com/basketball/1999-00/upper-deck-retro-gold/21-dave-cowens-3181528
p3558
asg17
g18
sg19
(lp3559
Vhttp://img.beckett.com/images/items_stock/185226/3181499/3181528/front.jpg
p3560
asg22
V#21
p3561
sg24
V1999-00
p3562
sg26
g27
sg28
(lp3563
VDave Cowens
p3564
assbag1
(g2
g3
Ntp3565
Rp3566
(dp3567
g7
(dp3568
g9
V1999-00 Upper Deck Retro Gold #27 Oscar Robertson
p3569
sg11
I250
sg12
VUpper Deck Retro Gold
p3570
sg14
(lp3571
Vhttp://www.beckett.com/basketball/1999-00/upper-deck-retro-gold/27-oscar-robertson-3181534
p3572
asg17
g18
sg19
(lp3573
Vhttp://img.beckett.com/images/items_stock/185226/3181499/3181534/front.jpg
p3574
asg22
V#27
p3575
sg24
V1999-00
p3576
sg26
g27
sg28
(lp3577
VOscar Robertson
p3578
assbag1
(g2
g3
Ntp3579
Rp3580
(dp3581
g7
(dp3582
g9
V1999-00 Upper Deck Retro Gold #57 Kevin McHale
p3583
sg11
I250
sg12
VUpper Deck Retro Gold
p3584
sg14
(lp3585
Vhttp://www.beckett.com/basketball/1999-00/upper-deck-retro-gold/57-kevin-mchale-3181564
p3586
asg17
g18
sg19
(lp3587
Vhttp://img.beckett.com/images/items_stock/185226/3181499/3181564/front.jpg
p3588
asg22
V#57
p3589
sg24
V1999-00
p3590
sg26
g27
sg28
(lp3591
VKevin McHale
p3592
assbag1
(g2
g3
Ntp3593
Rp3594
(dp3595
g7
(dp3596
g9
V1999-00 Upper Deck Retro Gold #73 Ron Mercer
p3597
sg11
I250
sg12
VUpper Deck Retro Gold
p3598
sg14
(lp3599
Vhttp://www.beckett.com/basketball/1999-00/upper-deck-retro-gold/73-ron-mercer-3181580
p3600
asg17
g18
sg19
(lp3601
Vhttp://img.beckett.com/images/no-image.jpg
p3602
asg22
V#73
p3603
sg24
V1999-00
p3604
sg26
g27
sg28
(lp3605
VRon Mercer
p3606
assbag1
(g2
g3
Ntp3607
Rp3608
(dp3609
g7
(dp3610
g9
V1999-00 Upper Deck Retro Gold #79 Paul Pierce
p3611
sg11
I250
sg12
VUpper Deck Retro Gold
p3612
sg14
(lp3613
Vhttp://www.beckett.com/basketball/1999-00/upper-deck-retro-gold/79-paul-pierce-3181586
p3614
asg17
g18
sg19
(lp3615
Vhttp://img.beckett.com/images/items_stock/185226/3181499/3181586/front.jpg
p3616
asg22
V#79
p3617
sg24
V1999-00
p3618
sg26
g27
sg28
(lp3619
VPaul Pierce
p3620
assbag1
(g2
g3
Ntp3621
Rp3622
(dp3623
g7
(dp3624
g9
V1999-00 Upper Deck Retro Gold #85 Bill Russell
p3625
sg11
I250
sg12
VUpper Deck Retro Gold
p3626
sg14
(lp3627
Vhttp://www.beckett.com/basketball/1999-00/upper-deck-retro-gold/85-bill-russell-3181592
p3628
asg17
g18
sg19
(lp3629
Vhttp://img.beckett.com/images/no-image.jpg
p3630
asg22
V#85
p3631
sg24
V1999-00
p3632
sg26
g27
sg28
(lp3633
VBill Russell
p3634
assbag1
(g2
g3
Ntp3635
Rp3636
(dp3637
g7
(dp3638
g9
V1999-00 Upper Deck Retro Gold #87 Robert Parish
p3639
sg11
I250
sg12
VUpper Deck Retro Gold
p3640
sg14
(lp3641
Vhttp://www.beckett.com/basketball/1999-00/upper-deck-retro-gold/87-robert-parish-3181594
p3642
asg17
g18
sg19
(lp3643
Vhttp://img.beckett.com/images/items_stock/185226/3181499/3181594/front.jpg
p3644
asg22
V#87
p3645
sg24
V1999-00
p3646
sg26
g27
sg28
(lp3647
VRobert Parish
p3648
assbag1
(g2
g3
Ntp3649
Rp3650
(dp3651
g7
(dp3652
g9
V1999-00 Upper Deck Retro Gold #89 Antoine Walker
p3653
sg11
I250
sg12
VUpper Deck Retro Gold
p3654
sg14
(lp3655
Vhttp://www.beckett.com/basketball/1999-00/upper-deck-retro-gold/89-antoine-walker-3181596
p3656
asg17
g18
sg19
(lp3657
Vhttp://img.beckett.com/images/items_stock/185226/3181499/3181596/front.jpg
p3658
asg22
V#89
p3659
sg24
V1999-00
p3660
sg26
g27
sg28
(lp3661
VAntoine Walker
p3662
assbag1
(g2
g3
Ntp3663
Rp3664
(dp3665
g7
(dp3666
g9
V1999-00 Upper Deck Retro Platinum #2 John Havlicek
p3667
sg11
I1
sg12
VUpper Deck Retro Platinum
p3668
sg14
(lp3669
Vhttp://www.beckett.com/basketball/1999-00/upper-deck-retro-platinum/2-john-havlicek-3181624
p3670
asg17
g18
sg19
(lp3671
Vhttp://img.beckett.com/images/no-image.jpg
p3672
asg22
V#2
p3673
sg24
V1999-00
p3674
sg26
g27
sg28
(lp3675
VJohn Havlicek
p3676
assbag1
(g2
g3
Ntp3677
Rp3678
(dp3679
g7
(dp3680
g9
V1999-00 Upper Deck Retro Platinum #11 Larry Bird
p3681
sg11
I1
sg12
VUpper Deck Retro Platinum
p3682
sg14
(lp3683
Vhttp://www.beckett.com/basketball/1999-00/upper-deck-retro-platinum/11-larry-bird-3181633
p3684
asg17
g18
sg19
(lp3685
Vhttp://img.beckett.com/images/no-image.jpg
p3686
asg22
V#11
p3687
sg24
V1999-00
p3688
sg26
g27
sg28
(lp3689
VLarry Bird
p3690
assbag1
(g2
g3
Ntp3691
Rp3692
(dp3693
g7
(dp3694
g9
V1999-00 Upper Deck Retro Platinum #14 Bob Cousy
p3695
sg11
I1
sg12
VUpper Deck Retro Platinum
p3696
sg14
(lp3697
Vhttp://www.beckett.com/basketball/1999-00/upper-deck-retro-platinum/14-bob-cousy-3181636
p3698
asg17
g18
sg19
(lp3699
Vhttp://img.beckett.com/images/no-image.jpg
p3700
asg22
V#14
p3701
sg24
V1999-00
p3702
sg26
g27
sg28
(lp3703
VBob Cousy
p3704
assbag1
(g2
g3
Ntp3705
Rp3706
(dp3707
g7
(dp3708
g9
V1999-00 Upper Deck Retro Platinum #21 Dave Cowens
p3709
sg11
I1
sg12
VUpper Deck Retro Platinum
p3710
sg14
(lp3711
Vhttp://www.beckett.com/basketball/1999-00/upper-deck-retro-platinum/21-dave-cowens-3181643
p3712
asg17
g18
sg19
(lp3713
Vhttp://img.beckett.com/images/no-image.jpg
p3714
asg22
V#21
p3715
sg24
V1999-00
p3716
sg26
g27
sg28
(lp3717
VDave Cowens
p3718
assbag1
(g2
g3
Ntp3719
Rp3720
(dp3721
g7
(dp3722
g9
V1999-00 Upper Deck Retro Platinum #27 Oscar Robertson
p3723
sg11
I1
sg12
VUpper Deck Retro Platinum
p3724
sg14
(lp3725
Vhttp://www.beckett.com/basketball/1999-00/upper-deck-retro-platinum/27-oscar-robertson-3181649
p3726
asg17
g18
sg19
(lp3727
Vhttp://img.beckett.com/images/no-image.jpg
p3728
asg22
V#27
p3729
sg24
V1999-00
p3730
sg26
g27
sg28
(lp3731
VOscar Robertson
p3732
assbag1
(g2
g3
Ntp3733
Rp3734
(dp3735
g7
(dp3736
g9
V1999-00 Upper Deck Retro Platinum #57 Kevin McHale
p3737
sg11
I1
sg12
VUpper Deck Retro Platinum
p3738
sg14
(lp3739
Vhttp://www.beckett.com/basketball/1999-00/upper-deck-retro-platinum/57-kevin-mchale-3181679
p3740
asg17
g18
sg19
(lp3741
Vhttp://img.beckett.com/images/no-image.jpg
p3742
asg22
V#57
p3743
sg24
V1999-00
p3744
sg26
g27
sg28
(lp3745
VKevin McHale
p3746
assbag1
(g2
g3
Ntp3747
Rp3748
(dp3749
g7
(dp3750
g9
V1999-00 Upper Deck Retro Platinum #73 Ron Mercer
p3751
sg11
I1
sg12
VUpper Deck Retro Platinum
p3752
sg14
(lp3753
Vhttp://www.beckett.com/basketball/1999-00/upper-deck-retro-platinum/73-ron-mercer-3181695
p3754
asg17
g18
sg19
(lp3755
Vhttp://img.beckett.com/images/no-image.jpg
p3756
asg22
V#73
p3757
sg24
V1999-00
p3758
sg26
g27
sg28
(lp3759
VRon Mercer
p3760
assbag1
(g2
g3
Ntp3761
Rp3762
(dp3763
g7
(dp3764
g9
V1999-00 Upper Deck Retro Platinum #79 Paul Pierce
p3765
sg11
I1
sg12
VUpper Deck Retro Platinum
p3766
sg14
(lp3767
Vhttp://www.beckett.com/basketball/1999-00/upper-deck-retro-platinum/79-paul-pierce-3181701
p3768
asg17
g18
sg19
(lp3769
Vhttp://img.beckett.com/images/no-image.jpg
p3770
asg22
V#79
p3771
sg24
V1999-00
p3772
sg26
g27
sg28
(lp3773
VPaul Pierce
p3774
assbag1
(g2
g3
Ntp3775
Rp3776
(dp3777
g7
(dp3778
g9
V1999-00 Upper Deck Retro Platinum #85 Bill Russell
p3779
sg11
I1
sg12
VUpper Deck Retro Platinum
p3780
sg14
(lp3781
Vhttp://www.beckett.com/basketball/1999-00/upper-deck-retro-platinum/85-bill-russell-3181707
p3782
asg17
g18
sg19
(lp3783
Vhttp://img.beckett.com/images/no-image.jpg
p3784
asg22
V#85
p3785
sg24
V1999-00
p3786
sg26
g27
sg28
(lp3787
VBill Russell
p3788
assbag1
(g2
g3
Ntp3789
Rp3790
(dp3791
g7
(dp3792
g9
V1999-00 Upper Deck Retro Platinum #87 Robert Parish
p3793
sg11
I1
sg12
VUpper Deck Retro Platinum
p3794
sg14
(lp3795
Vhttp://www.beckett.com/basketball/1999-00/upper-deck-retro-platinum/87-robert-parish-3181709
p3796
asg17
g18
sg19
(lp3797
Vhttp://img.beckett.com/images/no-image.jpg
p3798
asg22
V#87
p3799
sg24
V1999-00
p3800
sg26
g27
sg28
(lp3801
VRobert Parish
p3802
assbag1
(g2
g3
Ntp3803
Rp3804
(dp3805
g7
(dp3806
g9
V1999-00 Upper Deck Retro Platinum #89 Antoine Walker
p3807
sg11
I1
sg12
VUpper Deck Retro Platinum
p3808
sg14
(lp3809
Vhttp://www.beckett.com/basketball/1999-00/upper-deck-retro-platinum/89-antoine-walker-3181711
p3810
asg17
g18
sg19
(lp3811
Vhttp://img.beckett.com/images/no-image.jpg
p3812
asg22
V#89
p3813
sg24
V1999-00
p3814
sg26
g27
sg28
(lp3815
VAntoine Walker
p3816
assbag1
(g2
g3
Ntp3817
Rp3818
(dp3819
g7
(dp3820
g9
V1999-00 Finest Dunk Masters #DM8 Antoine Walker
p3821
sg11
I750
sg12
VFinest Dunk Masters
p3822
sg14
(lp3823
Vhttp://www.beckett.com/basketball/1999-00/finest-dunk-masters/dm8-antoine-walker-3204382
p3824
asg17
g18
sg19
(lp3825
Vhttp://img.beckett.com/images/no-image.jpg
p3826
asg22
V#DM8
p3827
sg24
V1999-00
p3828
sg26
g27
sg28
(lp3829
VAntoine Walker
p3830
assbag1
(g2
g3
Ntp3831
Rp3832
(dp3833
g7
(dp3834
g9
V1999-00 Finest New Millennium #NM3 Paul Pierce
p3835
sg11
I1500
sg12
VFinest New Millennium
p3836
sg14
(lp3837
Vhttp://www.beckett.com/basketball/1999-00/finest-new-millennium/nm3-paul-pierce-3202440
p3838
asg17
g18
sg19
(lp3839
Vhttp://img.beckett.com/images/items_stock/185226/3202428/3202440/front.jpg
p3840
asg22
V#NM3
p3841
sg24
V1999-00
p3842
sg26
g27
sg28
(lp3843
VPaul Pierce
p3844
assbag1
(g2
g3
Ntp3845
Rp3846
(dp3847
g7
(dp3848
g9
V1999-00 Finest Team Finest Blue #TF5 Antoine Walker
p3849
sg11
I1500
sg12
VFinest Team Finest Blue
p3850
sg14
(lp3851
Vhttp://www.beckett.com/basketball/1999-00/finest-team-finest-blue/tf5-antoine-walker-3202602
p3852
asg17
g18
sg19
(lp3853
Vhttp://img.beckett.com/images/items_stock/185226/3202568/3202602/front.jpg
p3854
asg22
V#TF5
p3855
sg24
V1999-00
p3856
sg26
g27
sg28
(lp3857
VAntoine Walker
p3858
assbag1
(g2
g3
Ntp3859
Rp3860
(dp3861
g7
(dp3862
g9
V1999-00 Flair Showcase Rookie Showcase Firsts #4 Adrian Griffin
p3863
sg11
I500
sg12
VFlair Showcase Rookie Showcase Firsts
p3864
sg14
(lp3865
Vhttp://www.beckett.com/basketball/1999-00/flair-showcase-rookie-showcase-firsts/4-adrian-griffin-3201006
p3866
asg17
g18
sg19
(lp3867
Vhttp://img.beckett.com/images/no-image.jpg
p3868
asg22
V#4
p3869
sg24
V1999-00
p3870
sg26
g27
sg28
(lp3871
VAdrian Griffin
p3872
assbag1
(g2
g3
Ntp3873
Rp3874
(dp3875
g7
(dp3876
g9
V1999-00 Fleer Game Breakers #11 Ron Mercer
p3877
sg11
I100
sg12
VFleer Game Breakers
p3878
sg14
(lp3879
Vhttp://www.beckett.com/basketball/1999-00/fleer-game-breakers/11-ron-mercer-3201770
p3880
asg17
g18
sg19
(lp3881
Vhttp://img.beckett.com/images/no-image.jpg
p3882
asg22
V#11
p3883
sg24
V1999-00
p3884
sg26
g27
sg28
(lp3885
VRon Mercer
p3886
assbag1
(g2
g3
Ntp3887
Rp3888
(dp3889
g7
(dp3890
g9
V1999-00 Fleer Game Breakers #14 Antoine Walker
p3891
sg11
I100
sg12
VFleer Game Breakers
p3892
sg14
(lp3893
Vhttp://www.beckett.com/basketball/1999-00/fleer-game-breakers/14-antoine-walker-3201773
p3894
asg17
g18
sg19
(lp3895
Vhttp://img.beckett.com/images/no-image.jpg
p3896
asg22
V#14
p3897
sg24
V1999-00
p3898
sg26
g27
sg28
(lp3899
VAntoine Walker
p3900
assbag1
(g2
g3
Ntp3901
Rp3902
(dp3903
g7
(dp3904
g9
V1999-00 Fleer Mystique Raise the Roof #RR9 Paul Pierce
p3905
sg11
I100
sg12
VFleer Mystique Raise the Roof
p3906
sg14
(lp3907
Vhttp://www.beckett.com/basketball/1999-00/fleer-mystique-raise-the-roof/rr9-paul-pierce-3198842
p3908
asg17
g18
sg19
(lp3909
Vhttp://img.beckett.com/images/no-image.jpg
p3910
asg22
V#RR9
p3911
sg24
V1999-00
p3912
sg26
g27
sg28
(lp3913
VPaul Pierce
p3914
assbag1
(g2
g3
Ntp3915
Rp3916
(dp3917
g7
(dp3918
g9
V1999-00 Fleer Mystique Slamboree #S1 Antoine Walker
p3919
sg11
I999
sg12
VFleer Mystique Slamboree
p3920
sg14
(lp3921
Vhttp://www.beckett.com/basketball/1999-00/fleer-mystique-slamboree/s1-antoine-walker-3198851
p3922
asg17
g18
sg19
(lp3923
Vhttp://img.beckett.com/images/items_stock/185226/3198844/3198851/front.jpg
p3924
asg22
V#S1
p3925
sg24
V1999-00
p3926
sg26
g27
sg28
(lp3927
VAntoine Walker
p3928
assbag1
(g2
g3
Ntp3929
Rp3930
(dp3931
g7
(dp3932
g9
V1999-00 Hoops Pure Players #PP8 Antoine Walker
p3933
sg11
I500
sg12
VHoops Pure Players
p3934
sg14
(lp3935
Vhttp://www.beckett.com/basketball/1999-00/hoops-pure-players/pp8-antoine-walker-3199323
p3936
asg17
g18
sg19
(lp3937
Vhttp://img.beckett.com/images/no-image.jpg
p3938
asg22
V#PP8
p3939
sg24
V1999-00
p3940
sg26
g27
sg28
(lp3941
VAntoine Walker
p3942
assbag1
(g2
g3
Ntp3943
Rp3944
(dp3945
g7
(dp3946
g9
V1999-00 SkyBox Premium Club Vertical #4 Paul Pierce
p3947
sg11
I100
sg12
VSkyBox Premium Club Vertical
p3948
sg14
(lp3949
Vhttp://www.beckett.com/basketball/1999-00/skybox-premium-club-vertical/4-paul-pierce-3196011
p3950
asg17
g18
sg19
(lp3951
Vhttp://img.beckett.com/images/no-image.jpg
p3952
asg22
V#4
p3953
sg24
V1999-00
p3954
sg26
g27
sg28
(lp3955
VPaul Pierce
p3956
assbag1
(g2
g3
Ntp3957
Rp3958
(dp3959
g7
(dp3960
g9
V1999-00 Ultra Millennium Men #2 Paul Pierce
p3961
sg11
I100
sg12
VUltra Millennium Men
p3962
sg14
(lp3963
Vhttp://www.beckett.com/basketball/1999-00/ultra-millennium-men/2-paul-pierce-3186084
p3964
asg17
g18
sg19
(lp3965
Vhttp://img.beckett.com/images/no-image.jpg
p3966
asg22
V#2
p3967
sg24
V1999-00
p3968
sg26
g27
sg28
(lp3969
VPaul Pierce
p3970
assbag1
(g2
g3
Ntp3971
Rp3972
(dp3973
g7
(dp3974
g9
V1999-00 Ultra Millennium Men #15 Antoine Walker
p3975
sg11
I100
sg12
VUltra Millennium Men
p3976
sg14
(lp3977
Vhttp://www.beckett.com/basketball/1999-00/ultra-millennium-men/15-antoine-walker-3186097
p3978
asg17
g18
sg19
(lp3979
Vhttp://img.beckett.com/images/no-image.jpg
p3980
asg22
V#15
p3981
sg24
V1999-00
p3982
sg26
g27
sg28
(lp3983
VAntoine Walker
p3984
assbag1
(g2
g3
Ntp3985
Rp3986
(dp3987
g7
(dp3988
g9
V1999-00 Upper Deck Game Jerseys Patch Super #AW Antoine Walker
p3989
sg11
I25
sg12
VUpper Deck Game Jerseys Patch Super
p3990
sg14
(lp3991
Vhttp://www.beckett.com/basketball/1999-00/upper-deck-game-jerseys-patch-super/aw-antoine-walker-3185128
p3992
asg17
g18
sS'memorabilia'
p3993
I1
sg19
(lp3994
Vhttp://img.beckett.com/images/no-image.jpg
p3995
asg22
V#AW
p3996
sg24
V1999-00
p3997
sg26
g27
sg28
(lp3998
VAntoine Walker
p3999
assbag1
(g2
g3
Ntp4000
Rp4001
(dp4002
g7
(dp4003
g9
V1999-00 Black Diamond A Piece of History Triple #AW Antoine Walker H
p4004
sg11
I25
sg12
VBlack Diamond A Piece of History Triple
p4005
sg14
(lp4006
Vhttp://www.beckett.com/basketball/1999-00/black-diamond-a-piece-of-history-triple/aw-antoine-walker-h-3205873
p4007
asg17
g18
sg3993
I1
sg19
(lp4008
Vhttp://img.beckett.com/images/no-image.jpg
p4009
asg22
V#AW
p4010
sg24
V1999-00
p4011
sg26
g27
sg28
(lp4012
VAntoine Walker
p4013
assbag1
(g2
g3
Ntp4014
Rp4015
(dp4016
g7
(dp4017
g9
V1999-00 Black Diamond A Piece of History Triple #PP Paul Pierce H/R
p4018
sg11
I25
sg12
VBlack Diamond A Piece of History Triple
p4019
sg14
(lp4020
Vhttp://www.beckett.com/basketball/1999-00/black-diamond-a-piece-of-history-triple/pp-paul-pierce-hr-3205890
p4021
asg17
g18
sg3993
I1
sg19
(lp4022
Vhttp://img.beckett.com/images/no-image.jpg
p4023
asg22
V#PP
p4024
sg24
V1999-00
p4025
sg26
g27
sg28
(lp4026
VPaul Pierce
p4027
assbag1
(g2
g3
Ntp4028
Rp4029
(dp4030
g7
(dp4031
g9
V1999-00 E-X Essential Credentials Future #7 Ron Mercer/54
p4032
sg11
I54
sg12
VE-X Essential Credentials Future
p4033
sg14
(lp4034
Vhttp://www.beckett.com/basketball/1999-00/e-x-essential-credentials-future/7-ron-mercer54-3205168
p4035
asg17
g18
sg19
(lp4036
Vhttp://img.beckett.com/images/items_stock/185226/3205153/3205168/front.jpg
p4037
asg22
V#7
p4038
sg24
V1999-00
p4039
sg26
g27
sg28
(lp4040
VRon Mercer
p4041
assbag1
(g2
g3
Ntp4042
Rp4043
(dp4044
g7
(dp4045
g9
V1999-00 E-X Essential Credentials Future #18 Paul Pierce/43
p4046
sg11
I43
sg12
VE-X Essential Credentials Future
p4047
sg14
(lp4048
Vhttp://www.beckett.com/basketball/1999-00/e-x-essential-credentials-future/18-paul-pierce43-3205179
p4049
asg17
g18
sg19
(lp4050
Vhttp://img.beckett.com/images/no-image.jpg
p4051
asg22
V#18
p4052
sg24
V1999-00
p4053
sg26
g27
sg28
(lp4054
VPaul Pierce
p4055
assbag1
(g2
g3
Ntp4056
Rp4057
(dp4058
g7
(dp4059
g9
V1999-00 E-X Essential Credentials Future #33 Antoine Walker/28
p4060
sg11
I28
sg12
VE-X Essential Credentials Future
p4061
sg14
(lp4062
Vhttp://www.beckett.com/basketball/1999-00/e-x-essential-credentials-future/33-antoine-walker28-3205194
p4063
asg17
g18
sg19
(lp4064
Vhttp://img.beckett.com/images/no-image.jpg
p4065
asg22
V#33
p4066
sg24
V1999-00
p4067
sg26
g27
sg28
(lp4068
VAntoine Walker
p4069
assbag1
(g2
g3
Ntp4070
Rp4071
(dp4072
g7
(dp4073
g9
V1999-00 E-X Essential Credentials Now #7 Ron Mercer/7
p4074
sg11
I7
sg12
VE-X Essential Credentials Now
p4075
sg14
(lp4076
Vhttp://www.beckett.com/basketball/1999-00/e-x-essential-credentials-now/7-ron-mercer7-3205265
p4077
asg17
g18
sg19
(lp4078
Vhttp://img.beckett.com/images/no-image.jpg
p4079
asg22
V#7
p4080
sg24
V1999-00
p4081
sg26
g27
sg28
(lp4082
VRon Mercer
p4083
assbag1
(g2
g3
Ntp4084
Rp4085
(dp4086
g7
(dp4087
g9
V1999-00 E-X Essential Credentials Now #18 Paul Pierce/18
p4088
sg11
I18
sg12
VE-X Essential Credentials Now
p4089
sg14
(lp4090
Vhttp://www.beckett.com/basketball/1999-00/e-x-essential-credentials-now/18-paul-pierce18-3205276
p4091
asg17
g18
sg19
(lp4092
Vhttp://img.beckett.com/images/no-image.jpg
p4093
asg22
V#18
p4094
sg24
V1999-00
p4095
sg26
g27
sg28
(lp4096
VPaul Pierce
p4097
assbag1
(g2
g3
Ntp4098
Rp4099
(dp4100
g7
(dp4101
g9
V1999-00 E-X Essential Credentials Now #33 Antoine Walker/33
p4102
sg11
I33
sg12
VE-X Essential Credentials Now
p4103
sg14
(lp4104
Vhttp://www.beckett.com/basketball/1999-00/e-x-essential-credentials-now/33-antoine-walker33-3205291
p4105
asg17
g18
sg19
(lp4106
Vhttp://img.beckett.com/images/items_stock/185226/3205252/3205291/front.jpg
p4107
asg22
V#33
p4108
sg24
V1999-00
p4109
sg26
g27
sg28
(lp4110
VAntoine Walker
p4111
assbag1
(g2
g3
Ntp4112
Rp4113
(dp4114
g7
(dp4115
g9
V1999-00 E-X E-Xceptional Green #XC4 Paul Pierce
p4116
sg11
I500
sg12
VE-X E-Xceptional Green
p4117
sg14
(lp4118
Vhttp://www.beckett.com/basketball/1999-00/e-x-e-xceptional-green/xc4-paul-pierce-3203223
p4119
asg17
g18
sg19
(lp4120
Vhttp://img.beckett.com/images/no-image.jpg
p4121
asg22
V#XC4
p4122
sg24
V1999-00
p4123
sg26
g27
sg28
(lp4124
VPaul Pierce
p4125
assbag1
(g2
g3
Ntp4126
Rp4127
(dp4128
g7
(dp4129
g9
V1999-00 E-X E-Xceptional Blue #XC4 Paul Pierce
p4130
sg11
I250
sg12
VE-X E-Xceptional Blue
p4131
sg14
(lp4132
Vhttp://www.beckett.com/basketball/1999-00/e-x-e-xceptional-blue/xc4-paul-pierce-3205392
p4133
asg17
g18
sg19
(lp4134
Vhttp://img.beckett.com/images/no-image.jpg
p4135
asg22
V#XC4
p4136
sg24
V1999-00
p4137
sg26
g27
sg28
(lp4138
VPaul Pierce
p4139
assbag1
(g2
g3
Ntp4140
Rp4141
(dp4142
g7
(dp4143
g9
V1999-00 Finest Dunk Masters Refractors #DM8 Antoine Walker
p4144
sg11
I150
sg12
VFinest Dunk Masters Refractors
p4145
sg14
(lp4146
Vhttp://www.beckett.com/basketball/1999-00/finest-dunk-masters-refractors/dm8-antoine-walker-3204405
p4147
asg17
g18
sg19
(lp4148
Vhttp://img.beckett.com/images/no-image.jpg
p4149
asg22
V#DM8
p4150
sg24
V1999-00
p4151
sg26
g27
sg28
(lp4152
VAntoine Walker
p4153
assbag1
(g2
g3
Ntp4154
Rp4155
(dp4156
g7
(dp4157
g9
V1999-00 Finest New Millennium Refractors #NM3 Paul Pierce
p4158
sg11
I300
sg12
VFinest New Millennium Refractors
p4159
sg14
(lp4160
Vhttp://www.beckett.com/basketball/1999-00/finest-new-millennium-refractors/nm3-paul-pierce-3202458
p4161
asg17
g18
sg19
(lp4162
Vhttp://img.beckett.com/images/no-image.jpg
p4163
asg22
V#NM3
p4164
sg24
V1999-00
p4165
sg26
g27
sg28
(lp4166
VPaul Pierce
p4167
assbag1
(g2
g3
Ntp4168
Rp4169
(dp4170
g7
(dp4171
g9
V1999-00 Finest Team Finest Blue Refractors #TF5 Antoine Walker
p4172
sg11
I150
sg12
VFinest Team Finest Blue Refractors
p4173
sg14
(lp4174
Vhttp://www.beckett.com/basketball/1999-00/finest-team-finest-blue-refractors/tf5-antoine-walker-3202633
p4175
asg17
g18
sg19
(lp4176
Vhttp://img.beckett.com/images/no-image.jpg
p4177
asg22
V#TF5
p4178
sg24
V1999-00
p4179
sg26
g27
sg28
(lp4180
VAntoine Walker
p4181
assbag1
(g2
g3
Ntp4182
Rp4183
(dp4184
g7
(dp4185
g9
V1999-00 Finest Team Finest Gold #TF5 Antoine Walker
p4186
sg11
I250
sg12
VFinest Team Finest Gold
p4187
sg14
(lp4188
Vhttp://www.beckett.com/basketball/1999-00/finest-team-finest-gold/tf5-antoine-walker-3202664
p4189
asg17
g18
sg19
(lp4190
Vhttp://img.beckett.com/images/no-image.jpg
p4191
asg22
V#TF5
p4192
sg24
V1999-00
p4193
sg26
g27
sg28
(lp4194
VAntoine Walker
p4195
assbag1
(g2
g3
Ntp4196
Rp4197
(dp4198
g7
(dp4199
g9
V1999-00 Finest Team Finest Gold Refractors #TF5 Antoine Walker
p4200
sg11
I25
sg12
VFinest Team Finest Gold Refractors
p4201
sg14
(lp4202
Vhttp://www.beckett.com/basketball/1999-00/finest-team-finest-gold-refractors/tf5-antoine-walker-3202695
p4203
asg17
g18
sg19
(lp4204
Vhttp://img.beckett.com/images/no-image.jpg
p4205
asg22
V#TF5
p4206
sg24
V1999-00
p4207
sg26
g27
sg28
(lp4208
VAntoine Walker
p4209
assbag1
(g2
g3
Ntp4210
Rp4211
(dp4212
g7
(dp4213
g9
V1999-00 Finest Team Finest Red #TF5 Antoine Walker
p4214
sg11
I500
sg12
VFinest Team Finest Red
p4215
sg14
(lp4216
Vhttp://www.beckett.com/basketball/1999-00/finest-team-finest-red/tf5-antoine-walker-3202726
p4217
asg17
g18
sg19
(lp4218
Vhttp://img.beckett.com/images/items_stock/185226/3202711/3202726/front.jpg
p4219
asg22
V#TF5
p4220
sg24
V1999-00
p4221
sg26
g27
sg28
(lp4222
VAntoine Walker
p4223
assbag1
(g2
g3
Ntp4224
Rp4225
(dp4226
g7
(dp4227
g9
V1999-00 Finest Team Finest Red Refractors #TF5 Antoine Walker
p4228
sg11
I50
sg12
VFinest Team Finest Red Refractors
p4229
sg14
(lp4230
Vhttp://www.beckett.com/basketball/1999-00/finest-team-finest-red-refractors/tf5-antoine-walker-3202757
p4231
asg17
g18
sg19
(lp4232
Vhttp://img.beckett.com/images/no-image.jpg
p4233
asg22
V#TF5
p4234
sg24
V1999-00
p4235
sg26
g27
sg28
(lp4236
VAntoine Walker
p4237
assbag1
(g2
g3
Ntp4238
Rp4239
(dp4240
g7
(dp4241
g9
V1999-00 Flair Showcase Fresh Ink Rock Steady #3 Ron Mercer
p4242
sg11
I25
sg12
VFlair Showcase Fresh Ink Rock Steady
p4243
sg14
(lp4244
Vhttp://www.beckett.com/basketball/1999-00/flair-showcase-fresh-ink-rock-steady/3-ron-mercer-3200933
p4245
asg17
g18
sg19
(lp4246
Vhttp://img.beckett.com/images/no-image.jpg
p4247
asg22
V#3
p4248
sS'autograph'
p4249
I1
sg24
V1999-00
p4250
sg26
g27
sg28
(lp4251
VRon Mercer
p4252
assbag1
(g2
g3
Ntp4253
Rp4254
(dp4255
g7
(dp4256
g9
V1999-00 Fleer Focus Soar Subjects Vivid #SS3 Paul Pierce
p4257
sg11
I50
sg12
VFleer Focus Soar Subjects Vivid
p4258
sg14
(lp4259
Vhttp://www.beckett.com/basketball/1999-00/fleer-focus-soar-subjects-vivid/ss3-paul-pierce-3200049
p4260
asg17
g18
sg19
(lp4261
Vhttp://img.beckett.com/images/no-image.jpg
p4262
asg22
V#SS3
p4263
sg24
V1999-00
p4264
sg26
g27
sg28
(lp4265
VPaul Pierce
p4266
assbag1
(g2
g3
Ntp4267
Rp4268
(dp4269
g7
(dp4270
g9
V1999-00 Fleer Focus Soar Subjects Vivid #SS4 Antoine Walker
p4271
sg11
I50
sg12
VFleer Focus Soar Subjects Vivid
p4272
sg14
(lp4273
Vhttp://www.beckett.com/basketball/1999-00/fleer-focus-soar-subjects-vivid/ss4-antoine-walker-3200050
p4274
asg17
g18
sg19
(lp4275
Vhttp://img.beckett.com/images/no-image.jpg
p4276
asg22
V#SS4
p4277
sg24
V1999-00
p4278
sg26
g27
sg28
(lp4279
VAntoine Walker
p4280
assbag1
(g2
g3
Ntp4281
Rp4282
(dp4283
g7
(dp4284
g9
V1999-00 Hoops Build Your Own Card Redemptions #10a Paul Pierce/Ball F/Body B
p4285
sg11
I250
sg12
VHoops Build Your Own Card Redemptions
p4286
sg14
(lp4287
Vhttp://www.beckett.com/basketball/1999-00/hoops-build-your-own-card-redemptions/10a-paul-pierceball-fbody-b-8642361
p4288
asg17
g18
sg19
(lp4289
Vhttp://img.beckett.com/images/no-image.jpg
p4290
asg22
V#10a
p4291
sg24
V1999-00
p4292
sg26
g27
sg28
(lp4293
VPaul Pierce
p4294
aVBall
p4295
aVBody
p4296
assbag1
(g2
g3
Ntp4297
Rp4298
(dp4299
g7
(dp4300
g9
V1999-00 Hoops Build Your Own Card Redemptions #10b Paul Pierce/Ball F/Head B
p4301
sg11
I250
sg12
VHoops Build Your Own Card Redemptions
p4302
sg14
(lp4303
Vhttp://www.beckett.com/basketball/1999-00/hoops-build-your-own-card-redemptions/10b-paul-pierceball-fhead-b-8642362
p4304
asg17
g18
sg19
(lp4305
Vhttp://img.beckett.com/images/no-image.jpg
p4306
asg22
V#10b
p4307
sg24
V1999-00
p4308
sg26
g27
sg28
(lp4309
VPaul Pierce
p4310
aVBall
p4311
aVHead
p4312
assbag1
(g2
g3
Ntp4313
Rp4314
(dp4315
g7
(dp4316
g9
V1999-00 Hoops Build Your Own Card Redemptions #10c Paul Pierce/Ball F/Horizonal B
p4317
sg11
I250
sg12
VHoops Build Your Own Card Redemptions
p4318
sg14
(lp4319
Vhttp://www.beckett.com/basketball/1999-00/hoops-build-your-own-card-redemptions/10c-paul-pierceball-fhorizonal-b-8642363
p4320
asg17
g18
sg19
(lp4321
Vhttp://img.beckett.com/images/no-image.jpg
p4322
asg22
V#10c
p4323
sg24
V1999-00
p4324
sg26
g27
sg28
(lp4325
VPaul Pierce
p4326
aVBall
p4327
aVHorizonal
p4328
assbag1
(g2
g3
Ntp4329
Rp4330
(dp4331
g7
(dp4332
g9
V1999-00 Hoops Build Your Own Card Redemptions #10d Paul Pierce/No Ball F/Body B
p4333
sg11
I250
sg12
VHoops Build Your Own Card Redemptions
p4334
sg14
(lp4335
Vhttp://www.beckett.com/basketball/1999-00/hoops-build-your-own-card-redemptions/10d-paul-pierceno-ball-fbody-b-8642364
p4336
asg17
g18
sg19
(lp4337
Vhttp://img.beckett.com/images/no-image.jpg
p4338
asg22
V#10d
p4339
sg24
V1999-00
p4340
sg26
g27
sg28
(lp4341
VPaul Pierce
p4342
aVBall
p4343
aVBody
p4344
assbag1
(g2
g3
Ntp4345
Rp4346
(dp4347
g7
(dp4348
g9
V1999-00 Hoops Build Your Own Card Redemptions #10e Paul Pierce/No Ball F/Head B
p4349
sg11
I250
sg12
VHoops Build Your Own Card Redemptions
p4350
sg14
(lp4351
Vhttp://www.beckett.com/basketball/1999-00/hoops-build-your-own-card-redemptions/10e-paul-pierceno-ball-fhead-b-8642365
p4352
asg17
g18
sg19
(lp4353
Vhttp://img.beckett.com/images/no-image.jpg
p4354
asg22
V#10e
p4355
sg24
V1999-00
p4356
sg26
g27
sg28
(lp4357
VPaul Pierce
p4358
ag4343
aVHead
p4359
assbag1
(g2
g3
Ntp4360
Rp4361
(dp4362
g7
(dp4363
g9
V1999-00 Hoops Build Your Own Card Redemptions #10f Paul Pierce/No Ball F/Horizontal B
p4364
sg11
I250
sg12
VHoops Build Your Own Card Redemptions
p4365
sg14
(lp4366
Vhttp://www.beckett.com/basketball/1999-00/hoops-build-your-own-card-redemptions/10f-paul-pierceno-ball-fhorizontal-b-8642366
p4367
asg17
g18
sg19
(lp4368
Vhttp://img.beckett.com/images/no-image.jpg
p4369
asg22
V#10f
p4370
sg24
V1999-00
p4371
sg26
g27
sg28
(lp4372
VPaul Pierce
p4373
ag4343
aVHorizonal
p4374
assbag1
(g2
g3
Ntp4375
Rp4376
(dp4377
g7
(dp4378
g9
V1999-00 Hoops Build Your Own Card Redemptions #10g Paul Pierce/Shoot F/Body B
p4379
sg11
I250
sg12
VHoops Build Your Own Card Redemptions
p4380
sg14
(lp4381
Vhttp://www.beckett.com/basketball/1999-00/hoops-build-your-own-card-redemptions/10g-paul-pierceshoot-fbody-b-8642367
p4382
asg17
g18
sg19
(lp4383
Vhttp://img.beckett.com/images/no-image.jpg
p4384
asg22
V#10g
p4385
sg24
V1999-00
p4386
sg26
g27
sg28
(lp4387
VPaul Pierce
p4388
aVShoot
p4389
aVBody
p4390
assbag1
(g2
g3
Ntp4391
Rp4392
(dp4393
g7
(dp4394
g9
V1999-00 Hoops Build Your Own Card Redemptions #10h Paul Pierce/Shoot F/Head B
p4395
sg11
I250
sg12
VHoops Build Your Own Card Redemptions
p4396
sg14
(lp4397
Vhttp://www.beckett.com/basketball/1999-00/hoops-build-your-own-card-redemptions/10h-paul-pierceshoot-fhead-b-8642368
p4398
asg17
g18
sg19
(lp4399
Vhttp://img.beckett.com/images/no-image.jpg
p4400
asg22
V#10h
p4401
sg24
V1999-00
p4402
sg26
g27
sg28
(lp4403
VPaul Pierce
p4404
aVShoot
p4405
aVHead
p4406
assbag1
(g2
g3
Ntp4407
Rp4408
(dp4409
g7
(dp4410
g9
V1999-00 Hoops Build Your Own Card Redemptions #10i Paul Pierce/Shoot F/Horizontal B
p4411
sg11
I250
sg12
VHoops Build Your Own Card Redemptions
p4412
sg14
(lp4413
Vhttp://www.beckett.com/basketball/1999-00/hoops-build-your-own-card-redemptions/10i-paul-pierceshoot-fhorizontal-b-8642369
p4414
asg17
g18
sg19
(lp4415
Vhttp://img.beckett.com/images/no-image.jpg
p4416
asg22
V#10i
p4417
sg24
V1999-00
p4418
sg26
g27
sg28
(lp4419
VPaul Pierce
p4420
aVShoot
p4421
ag4374
assbag1
(g2
g3
Ntp4422
Rp4423
(dp4424
g7
(dp4425
g9
V1999-00 Hoops Pure Players 100% #PP8 Antoine Walker
p4426
sg11
I100
sg12
VHoops Pure Players 100%
p4427
sg14
(lp4428
Vhttp://www.beckett.com/basketball/1999-00/hoops-pure-players-100/pp8-antoine-walker-3199341
p4429
asg17
g18
sg19
(lp4430
Vhttp://img.beckett.com/images/no-image.jpg
p4431
asg22
V#PP8
p4432
sg24
V1999-00
p4433
sg26
g27
sg28
(lp4434
VAntoine Walker
p4435
assbag1
(g2
g3
Ntp4436
Rp4437
(dp4438
g7
(dp4439
g9
V1999-00 Hoops Decade Retrospection Collection Parallel #RC6 Ron Mercer
p4440
sg11
I89
sg12
VHoops Decade Retrospection Collection Parallel
p4441
sg14
(lp4442
Vhttp://www.beckett.com/basketball/1999-00/hoops-decade-retrospection-collection-parallel/rc6-ron-mercer-3197413
p4443
asg17
g18
sg19
(lp4444
Vhttp://img.beckett.com/images/no-image.jpg
p4445
asg22
V#RC6
p4446
sg24
V1999-00
p4447
sg26
g27
sg28
(lp4448
VRon Mercer
p4449
assbag1
(g2
g3
Ntp4450
Rp4451
(dp4452
g7
(dp4453
g9
V1999-00 Hoops Decade Up Tempo Parallel #UT7 Paul Pierce
p4454
sg11
I1989
sg12
VHoops Decade Up Tempo Parallel
p4455
sg14
(lp4456
Vhttp://www.beckett.com/basketball/1999-00/hoops-decade-up-tempo-parallel/ut7-paul-pierce-3197458
p4457
asg17
g18
sg19
(lp4458
Vhttp://img.beckett.com/images/items_stock/185226/3197444/3197458/front.jpg
p4459
asg22
V#UT7
p4460
sg24
V1999-00
p4461
sg26
g27
sg28
(lp4462
VPaul Pierce
p4463
assbag1
(g2
g3
Ntp4464
Rp4465
(dp4466
g7
(dp4467
g9
V1999-00 Hoops Decade Up Tempo Parallel #UT12 Antoine Walker
p4468
sg11
I1989
sg12
VHoops Decade Up Tempo Parallel
p4469
sg14
(lp4470
Vhttp://www.beckett.com/basketball/1999-00/hoops-decade-up-tempo-parallel/ut12-antoine-walker-3197463
p4471
asg17
g18
sg19
(lp4472
Vhttp://img.beckett.com/images/items_stock/185226/3197444/3197463/front.jpg
p4473
asg22
V#UT12
p4474
sg24
V1999-00
p4475
sg26
g27
sg28
(lp4476
VAntoine Walker
p4477
assbag1
(g2
g3
Ntp4478
Rp4479
(dp4480
g7
(dp4481
g9
V1999-00 SkyBox APEX Cutting Edge Warp Tek #2 Paul Pierce
p4482
sg11
I25
sg12
VSkyBox APEX Cutting Edge Warp Tek
p4483
sg14
(lp4484
Vhttp://www.beckett.com/basketball/1999-00/skybox-apex-cutting-edge-warp-tek/2-paul-pierce-3196722
p4485
asg17
g18
sg19
(lp4486
Vhttp://img.beckett.com/images/no-image.jpg
p4487
asg22
V#2
p4488
sg24
V1999-00
p4489
sg26
g27
sg28
(lp4490
VPaul Pierce
p4491
assbag1
(g2
g3
Ntp4492
Rp4493
(dp4494
g7
(dp4495
g9
V1999-00 SkyBox Dominion Sky's the Limit Warp Tek #6 Ron Mercer
p4496
sg11
I25
sg12
VSkyBox Dominion Sky's the Limit Warp Tek
p4497
sg14
(lp4498
Vhttp://www.beckett.com/basketball/1999-00/skybox-dominion-skys-the-limit-warp-tek/6-ron-mercer-3197262
p4499
asg17
g18
sg19
(lp4500
Vhttp://img.beckett.com/images/no-image.jpg
p4501
asg22
V#6
p4502
sg24
V1999-00
p4503
sg26
g27
sg28
(lp4504
VRon Mercer
p4505
assbag1
(g2
g3
Ntp4506
Rp4507
(dp4508
g7
(dp4509
g9
V1999-00 SkyBox Dominion Sky's the Limit Warp Tek #13 Paul Pierce
p4510
sg11
I25
sg12
VSkyBox Dominion Sky's the Limit Warp Tek
p4511
sg14
(lp4512
Vhttp://www.beckett.com/basketball/1999-00/skybox-dominion-skys-the-limit-warp-tek/13-paul-pierce-3197269
p4513
asg17
g18
sg19
(lp4514
Vhttp://img.beckett.com/images/no-image.jpg
p4515
asg22
V#13
p4516
sg24
V1999-00
p4517
sg26
g27
sg28
(lp4518
VPaul Pierce
p4519
assbag1
(g2
g3
Ntp4520
Rp4521
(dp4522
g7
(dp4523
g9
V1999-00 SkyBox Premium Autographics Blue #7 Dana Barros
p4524
sg11
I50
sg12
VSkyBox Premium Autographics Blue
p4525
sg14
(lp4526
Vhttp://www.beckett.com/basketball/1999-00/skybox-premium-autographics-blue/7-dana-barros-3195871
p4527
asg17
g18
sg19
(lp4528
Vhttp://img.beckett.com/images/no-image.jpg
p4529
asg22
V#7
p4530
sg4249
I1
sg24
V1999-00
p4531
sg26
g27
sg28
(lp4532
VDana Barros
p4533
assbag1
(g2
g3
Ntp4534
Rp4535
(dp4536
g7
(dp4537
g9
V1999-00 SkyBox Premium Autographics Blue #108 Antoine Walker
p4538
sg11
I50
sg12
VSkyBox Premium Autographics Blue
p4539
sg14
(lp4540
Vhttp://www.beckett.com/basketball/1999-00/skybox-premium-autographics-blue/108-antoine-walker-3195972
p4541
asg17
g18
sg19
(lp4542
Vhttp://img.beckett.com/images/no-image.jpg
p4543
asg22
V#108
p4544
sg4249
I1
sg24
V1999-00
p4545
sg26
g27
sg28
(lp4546
VAntoine Walker
p4547
assbag1
(g2
g3
Ntp4548
Rp4549
(dp4550
g7
(dp4551
g9
V1999-00 SkyBox Premium Good Stuff Parallel #4 Paul Pierce
p4552
sg11
I99
sg12
VSkyBox Premium Good Stuff Parallel
p4553
sg14
(lp4554
Vhttp://www.beckett.com/basketball/1999-00/skybox-premium-good-stuff-parallel/4-paul-pierce-3196062
p4555
asg17
g18
sg19
(lp4556
Vhttp://img.beckett.com/images/no-image.jpg
p4557
asg22
V#4
p4558
sg24
V1999-00
p4559
sg26
g27
sg28
(lp4560
VPaul Pierce
p4561
assbag1
(g2
g3
Ntp4562
Rp4563
(dp4564
g7
(dp4565
g9
V1999-00 SP Authentic Sign of the Times Gold #AG Adrian Griffin
p4566
sg11
I25
sg12
VSP Authentic Sign of the Times Gold
p4567
sg14
(lp4568
Vhttp://www.beckett.com/basketball/1999-00/sp-authentic-sign-of-the-times-gold/ag-adrian-griffin-3192996
p4569
asg17
g18
sg19
(lp4570
Vhttp://img.beckett.com/images/no-image.jpg
p4571
asg22
V#AG
p4572
sg4249
I1
sg24
V1999-00
p4573
sg26
g27
sg28
(lp4574
VAdrian Griffin
p4575
assbag1
(g2
g3
Ntp4576
Rp4577
(dp4578
g7
(dp4579
g9
V1999-00 SP Authentic Sign of the Times Gold #AW Antoine Walker
p4580
sg11
I25
sg12
VSP Authentic Sign of the Times Gold
p4581
sg14
(lp4582
Vhttp://www.beckett.com/basketball/1999-00/sp-authentic-sign-of-the-times-gold/aw-antoine-walker-3193002
p4583
asg17
g18
sg19
(lp4584
Vhttp://img.beckett.com/images/no-image.jpg
p4585
asg22
V#AW
p4586
sg4249
I1
sg24
V1999-00
p4587
sg26
g27
sg28
(lp4588
VAntoine Walker
p4589
assbag1
(g2
g3
Ntp4590
Rp4591
(dp4592
g7
(dp4593
g9
V1999-00 Upper Deck BioGraphics Level 1 #B3 Antoine Walker
p4594
sg11
I100
sg12
VUpper Deck BioGraphics Level 1
p4595
sg14
(lp4596
Vhttp://www.beckett.com/basketball/1999-00/upper-deck-biographics-level-1/b3-antoine-walker-3187309
p4597
asg17
g18
sg19
(lp4598
Vhttp://img.beckett.com/images/no-image.jpg
p4599
asg22
V#B3
p4600
sg24
V1999-00
p4601
sg26
g27
sg28
(lp4602
VAntoine Walker
p4603
assbag1
(g2
g3
Ntp4604
Rp4605
(dp4606
g7
(dp4607
g9
V1999-00 Upper Deck BioGraphics Level 1 #B20 Paul Pierce
p4608
sg11
I100
sg12
VUpper Deck BioGraphics Level 1
p4609
sg14
(lp4610
Vhttp://www.beckett.com/basketball/1999-00/upper-deck-biographics-level-1/b20-paul-pierce-3187326
p4611
asg17
g18
sg19
(lp4612
Vhttp://img.beckett.com/images/no-image.jpg
p4613
asg22
V#B20
p4614
sg24
V1999-00
p4615
sg26
g27
sg28
(lp4616
VPaul Pierce
p4617
assbag1
(g2
g3
Ntp4618
Rp4619
(dp4620
g7
(dp4621
g9
V1999-00 Upper Deck BioGraphics Level 2 #B3 Antoine Walker
p4622
sg11
I25
sg12
VUpper Deck BioGraphics Level 2
p4623
sg14
(lp4624
Vhttp://www.beckett.com/basketball/1999-00/upper-deck-biographics-level-2/b3-antoine-walker-3187347
p4625
asg17
g18
sg19
(lp4626
Vhttp://img.beckett.com/images/no-image.jpg
p4627
asg22
V#B3
p4628
sg24
V1999-00
p4629
sg26
g27
sg28
(lp4630
VAntoine Walker
p4631
assbag1
(g2
g3
Ntp4632
Rp4633
(dp4634
g7
(dp4635
g9
V1999-00 Upper Deck BioGraphics Level 2 #B20 Paul Pierce
p4636
sg11
I25
sg12
VUpper Deck BioGraphics Level 2
p4637
sg14
(lp4638
Vhttp://www.beckett.com/basketball/1999-00/upper-deck-biographics-level-2/b20-paul-pierce-3187364
p4639
asg17
g18
sg19
(lp4640
Vhttp://img.beckett.com/images/no-image.jpg
p4641
asg22
V#B20
p4642
sg24
V1999-00
p4643
sg26
g27
sg28
(lp4644
VPaul Pierce
p4645
assbag1
(g2
g3
Ntp4646
Rp4647
(dp4648
g7
(dp4649
g9
V1999-00 Upper Deck Future Charge Level 1 #FC3 Antoine Walker
p4650
sg11
I100
sg12
VUpper Deck Future Charge Level 1
p4651
sg14
(lp4652
Vhttp://www.beckett.com/basketball/1999-00/upper-deck-future-charge-level-1/fc3-antoine-walker-3184919
p4653
asg17
g18
sg19
(lp4654
Vhttp://img.beckett.com/images/no-image.jpg
p4655
asg22
V#FC3
p4656
sg24
V1999-00
p4657
sg26
g27
sg28
(lp4658
VAntoine Walker
p4659
assbag1
(g2
g3
Ntp4660
Rp4661
(dp4662
g7
(dp4663
g9
V1999-00 Upper Deck Future Charge Level 2 #FC3 Antoine Walker
p4664
sg11
I25
sg12
VUpper Deck Future Charge Level 2
p4665
sg14
(lp4666
Vhttp://www.beckett.com/basketball/1999-00/upper-deck-future-charge-level-2/fc3-antoine-walker-3184942
p4667
asg17
g18
sg19
(lp4668
Vhttp://img.beckett.com/images/no-image.jpg
p4669
asg22
V#FC3
p4670
sg24
V1999-00
p4671
sg26
g27
sg28
(lp4672
VAntoine Walker
p4673
assbag1
(g2
g3
Ntp4674
Rp4675
(dp4676
g7
(dp4677
g9
V1999-00 Upper Deck High Definition Level 1 #HD19 Paul Pierce
p4678
sg11
I100
sg12
VUpper Deck High Definition Level 1
p4679
sg14
(lp4680
Vhttp://www.beckett.com/basketball/1999-00/upper-deck-high-definition-level-1/hd19-paul-pierce-3185208
p4681
asg17
g18
sg19
(lp4682
Vhttp://img.beckett.com/images/no-image.jpg
p4683
asg22
V#HD19
p4684
sg24
V1999-00
p4685
sg26
g27
sg28
(lp4686
VPaul Pierce
p4687
assbag1
(g2
g3
Ntp4688
Rp4689
(dp4690
g7
(dp4691
g9
V1999-00 Upper Deck High Definition Level 2 #HD19 Paul Pierce
p4692
sg11
I25
sg12
VUpper Deck High Definition Level 2
p4693
sg14
(lp4694
Vhttp://www.beckett.com/basketball/1999-00/upper-deck-high-definition-level-2/hd19-paul-pierce-3185236
p4695
asg17
g18
sg19
(lp4696
Vhttp://img.beckett.com/images/no-image.jpg
p4697
asg22
V#HD19
p4698
sg24
V1999-00
p4699
sg26
g27
sg28
(lp4700
VPaul Pierce
p4701
assbag1
(g2
g3
Ntp4702
Rp4703
(dp4704
g7
(dp4705
g9
V1999-00 Upper Deck History Class Level 1 #HC4 John Havlicek
p4706
sg11
I100
sg12
VUpper Deck History Class Level 1
p4707
sg14
(lp4708
Vhttp://www.beckett.com/basketball/1999-00/upper-deck-history-class-level-1/hc4-john-havlicek-3185279
p4709
asg17
g18
sg19
(lp4710
Vhttp://img.beckett.com/images/no-image.jpg
p4711
asg22
V#HC4
p4712
sg24
V1999-00
p4713
sg26
g27
sg28
(lp4714
VJohn Havlicek
p4715
assbag1
(g2
g3
Ntp4716
Rp4717
(dp4718
g7
(dp4719
g9
V1999-00 Upper Deck History Class Level 1 #HC9 Bob Cousy
p4720
sg11
I100
sg12
VUpper Deck History Class Level 1
p4721
sg14
(lp4722
Vhttp://www.beckett.com/basketball/1999-00/upper-deck-history-class-level-1/hc9-bob-cousy-3185284
p4723
asg17
g18
sg19
(lp4724
Vhttp://img.beckett.com/images/no-image.jpg
p4725
asg22
V#HC9
p4726
sg24
V1999-00
p4727
sg26
g27
sg28
(lp4728
VBob Cousy
p4729
assbag1
(g2
g3
Ntp4730
Rp4731
(dp4732
g7
(dp4733
g9
V1999-00 Upper Deck History Class Level 1 #HC10 Kevin McHale
p4734
sg11
I100
sg12
VUpper Deck History Class Level 1
p4735
sg14
(lp4736
Vhttp://www.beckett.com/basketball/1999-00/upper-deck-history-class-level-1/hc10-kevin-mchale-3185285
p4737
asg17
g18
sg19
(lp4738
Vhttp://img.beckett.com/images/no-image.jpg
p4739
asg22
V#HC10
p4740
sg24
V1999-00
p4741
sg26
g27
sg28
(lp4742
VKevin McHale
p4743
assbag1
(g2
g3
Ntp4744
Rp4745
(dp4746
g7
(dp4747
g9
V1999-00 Upper Deck History Class Level 1 #HC20 Larry Bird
p4748
sg11
I100
sg12
VUpper Deck History Class Level 1
p4749
sg14
(lp4750
Vhttp://www.beckett.com/basketball/1999-00/upper-deck-history-class-level-1/hc20-larry-bird-3185295
p4751
asg17
g18
sg19
(lp4752
Vhttp://img.beckett.com/images/no-image.jpg
p4753
asg22
V#HC20
p4754
sg24
V1999-00
p4755
sg26
g27
sg28
(lp4756
VLarry Bird
p4757
assbag1
(g2
g3
Ntp4758
Rp4759
(dp4760
g7
(dp4761
g9
V1999-00 Upper Deck History Class Level 2 #HC4 John Havlicek
p4762
sg11
I25
sg12
VUpper Deck History Class Level 2
p4763
sg14
(lp4764
Vhttp://www.beckett.com/basketball/1999-00/upper-deck-history-class-level-2/hc4-john-havlicek-3185307
p4765
asg17
g18
sg19
(lp4766
Vhttp://img.beckett.com/images/no-image.jpg
p4767
asg22
V#HC4
p4768
sg24
V1999-00
p4769
sg26
g27
sg28
(lp4770
VJohn Havlicek
p4771
assbag1
(g2
g3
Ntp4772
Rp4773
(dp4774
g7
(dp4775
g9
V1999-00 Upper Deck History Class Level 2 #HC9 Bob Cousy
p4776
sg11
I25
sg12
VUpper Deck History Class Level 2
p4777
sg14
(lp4778
Vhttp://www.beckett.com/basketball/1999-00/upper-deck-history-class-level-2/hc9-bob-cousy-3185312
p4779
asg17
g18
sg19
(lp4780
Vhttp://img.beckett.com/images/no-image.jpg
p4781
asg22
V#HC9
p4782
sg24
V1999-00
p4783
sg26
g27
sg28
(lp4784
VBob Cousy
p4785
assbag1
(g2
g3
Ntp4786
Rp4787
(dp4788
g7
(dp4789
g9
V1999-00 Upper Deck History Class Level 2 #HC10 Kevin McHale
p4790
sg11
I25
sg12
VUpper Deck History Class Level 2
p4791
sg14
(lp4792
Vhttp://www.beckett.com/basketball/1999-00/upper-deck-history-class-level-2/hc10-kevin-mchale-3185313
p4793
asg17
g18
sg19
(lp4794
Vhttp://img.beckett.com/images/no-image.jpg
p4795
asg22
V#HC10
p4796
sg24
V1999-00
p4797
sg26
g27
sg28
(lp4798
VKevin McHale
p4799
assbag1
(g2
g3
Ntp4800
Rp4801
(dp4802
g7
(dp4803
g9
V1999-00 Upper Deck History Class Level 2 #HC20 Larry Bird
p4804
sg11
I25
sg12
VUpper Deck History Class Level 2
p4805
sg14
(lp4806
Vhttp://www.beckett.com/basketball/1999-00/upper-deck-history-class-level-2/hc20-larry-bird-3185323
p4807
asg17
g18
sg19
(lp4808
Vhttp://img.beckett.com/images/no-image.jpg
p4809
asg22
V#HC20
p4810
sg24
V1999-00
p4811
sg26
g27
sg28
(lp4812
VLarry Bird
p4813
assbag1
(g2
g3
Ntp4814
Rp4815
(dp4816
g7
(dp4817
g9
V1999-00 Upper Deck Now Showing Level 1 #NS2 Antoine Walker
p4818
sg11
I100
sg12
VUpper Deck Now Showing Level 1
p4819
sg14
(lp4820
Vhttp://www.beckett.com/basketball/1999-00/upper-deck-now-showing-level-1/ns2-antoine-walker-3184271
p4821
asg17
g18
sg19
(lp4822
Vhttp://img.beckett.com/images/no-image.jpg
p4823
asg22
V#NS2
p4824
sg24
V1999-00
p4825
sg26
g27
sg28
(lp4826
VAntoine Walker
p4827
assbag1
(g2
g3
Ntp4828
Rp4829
(dp4830
g7
(dp4831
g9
V1999-00 Upper Deck Now Showing Level 2 #NS2 Antoine Walker
p4832
sg11
I25
sg12
VUpper Deck Now Showing Level 2
p4833
sg14
(lp4834
Vhttp://www.beckett.com/basketball/1999-00/upper-deck-now-showing-level-2/ns2-antoine-walker-3184309
p4835
asg17
g18
sg19
(lp4836
Vhttp://img.beckett.com/images/no-image.jpg
p4837
asg22
V#NS2
p4838
sg24
V1999-00
p4839
sg26
g27
sg28
(lp4840
VAntoine Walker
p4841
assbag1
(g2
g3
Ntp4842
Rp4843
(dp4844
g7
(dp4845
g9
V1999-00 Upper Deck Rookies Illustrated Level 1 #RI4 Adrian Griffin
p4846
sg11
I100
sg12
VUpper Deck Rookies Illustrated Level 1
p4847
sg14
(lp4848
Vhttp://www.beckett.com/basketball/1999-00/upper-deck-rookies-illustrated-level-1/ri4-adrian-griffin-3184409
p4849
asg17
g18
sg19
(lp4850
Vhttp://img.beckett.com/images/items_stock/185226/3184398/3184409/front.jpg
p4851
asg22
V#RI4
p4852
sg24
V1999-00
p4853
sg26
g27
sg28
(lp4854
VAdrian Griffin
p4855
assbag1
(g2
g3
Ntp4856
Rp4857
(dp4858
g7
(dp4859
g9
V1999-00 Upper Deck Rookies Illustrated Level 2 #RI4 Adrian Griffin
p4860
sg11
I25
sg12
VUpper Deck Rookies Illustrated Level 2
p4861
sg14
(lp4862
Vhttp://www.beckett.com/basketball/1999-00/upper-deck-rookies-illustrated-level-2/ri4-adrian-griffin-3184427
p4863
asg17
g18
sg19
(lp4864
Vhttp://img.beckett.com/images/items_stock/185226/3184416/3184427/front.jpg
p4865
asg22
V#RI4
p4866
sg24
V1999-00
p4867
sg26
g27
sg28
(lp4868
VAdrian Griffin
p4869
assbag1
(g2
g3
Ntp4870
Rp4871
(dp4872
g7
(dp4873
g9
V1999-00 Upper Deck Star Surge Level 1 #S10 Antoine Walker
p4874
sg11
I100
sg12
VUpper Deck Star Surge Level 1
p4875
sg14
(lp4876
Vhttp://www.beckett.com/basketball/1999-00/upper-deck-star-surge-level-1/s10-antoine-walker-3184481
p4877
asg17
g18
sg19
(lp4878
Vhttp://img.beckett.com/images/items_stock/185226/3184464/3184481/front.jpg
p4879
asg22
V#S10
p4880
sg24
V1999-00
p4881
sg26
g27
sg28
(lp4882
VAntoine Walker
p4883
assbag1
(g2
g3
Ntp4884
Rp4885
(dp4886
g7
(dp4887
g9
V1999-00 Upper Deck Star Surge Level 2 #S10 Antoine Walker
p4888
sg11
I25
sg12
VUpper Deck Star Surge Level 2
p4889
sg14
(lp4890
Vhttp://www.beckett.com/basketball/1999-00/upper-deck-star-surge-level-2/s10-antoine-walker-3184504
p4891
asg17
g18
sg19
(lp4892
Vhttp://img.beckett.com/images/no-image.jpg
p4893
asg22
V#S10
p4894
sg24
V1999-00
p4895
sg26
g27
sg28
(lp4896
VAntoine Walker
p4897
assbag1
(g2
g3
Ntp4898
Rp4899
(dp4900
g7
(dp4901
g9
V1999-00 Upper Deck Wild! Level 1 #W8 Ron Mercer
p4902
sg11
I100
sg12
VUpper Deck Wild! Level 1
p4903
sg14
(lp4904
Vhttp://www.beckett.com/basketball/1999-00/upper-deck-wild-level-1/w8-ron-mercer-3184559
p4905
asg17
g18
sg19
(lp4906
Vhttp://img.beckett.com/images/no-image.jpg
p4907
asg22
V#W8
p4908
sg24
V1999-00
p4909
sg26
g27
sg28
(lp4910
VRon Mercer
p4911
assbag1
(g2
g3
Ntp4912
Rp4913
(dp4914
g7
(dp4915
g9
V1999-00 Upper Deck Wild! Level 1 #W17 Paul Pierce
p4916
sg11
I100
sg12
VUpper Deck Wild! Level 1
p4917
sg14
(lp4918
Vhttp://www.beckett.com/basketball/1999-00/upper-deck-wild-level-1/w17-paul-pierce-3184568
p4919
asg17
g18
sg19
(lp4920
Vhttp://img.beckett.com/images/no-image.jpg
p4921
asg22
V#W17
p4922
sg24
V1999-00
p4923
sg26
g27
sg28
(lp4924
VPaul Pierce
p4925
assbag1
(g2
g3
Ntp4926
Rp4927
(dp4928
g7
(dp4929
g9
V1999-00 Upper Deck Wild! Level 2 #W8 Ron Mercer
p4930
sg11
I25
sg12
VUpper Deck Wild! Level 2
p4931
sg14
(lp4932
Vhttp://www.beckett.com/basketball/1999-00/upper-deck-wild-level-2/w8-ron-mercer-3184586
p4933
asg17
g18
sg19
(lp4934
Vhttp://img.beckett.com/images/no-image.jpg
p4935
asg22
V#W8
p4936
sg24
V1999-00
p4937
sg26
g27
sg28
(lp4938
VRon Mercer
p4939
assbag1
(g2
g3
Ntp4940
Rp4941
(dp4942
g7
(dp4943
g9
V1999-00 Upper Deck Wild! Level 2 #W17 Paul Pierce
p4944
sg11
I25
sg12
VUpper Deck Wild! Level 2
p4945
sg14
(lp4946
Vhttp://www.beckett.com/basketball/1999-00/upper-deck-wild-level-2/w17-paul-pierce-3184595
p4947
asg17
g18
sg19
(lp4948
Vhttp://img.beckett.com/images/no-image.jpg
p4949
asg22
V#W17
p4950
sg24
V1999-00
p4951
sg26
g27
sg28
(lp4952
VPaul Pierce
p4953
assbag1
(g2
g3
Ntp4954
Rp4955
(dp4956
g7
(dp4957
g9
V1999-00 Upper Deck Encore Electric Currents F/X #EC18 Paul Pierce
p4958
sg11
I150
sg12
VUpper Deck Encore Electric Currents F/X
p4959
sg14
(lp4960
Vhttp://www.beckett.com/basketball/1999-00/upper-deck-encore-electric-currents-fx/ec18-paul-pierce-3184786
p4961
asg17
g18
sg19
(lp4962
Vhttp://img.beckett.com/images/no-image.jpg
p4963
asg22
V#EC18
p4964
sg24
V1999-00
p4965
sg26
g27
sg28
(lp4966
VPaul Pierce
p4967
assbag1
(g2
g3
Ntp4968
Rp4969
(dp4970
g7
(dp4971
g9
V1999-00 Upper Deck Retro Distant Replay Parallel #D3 Bill Russell
p4972
sg11
I100
sg12
VUpper Deck Retro Distant Replay Parallel
p4973
sg14
(lp4974
Vhttp://www.beckett.com/basketball/1999-00/upper-deck-retro-distant-replay-parallel/d3-bill-russell-3181764
p4975
asg17
g18
sg19
(lp4976
Vhttp://img.beckett.com/images/no-image.jpg
p4977
asg22
V#D3
p4978
sg24
V1999-00
p4979
sg26
g27
sg28
(lp4980
VBill Russell
p4981
assbag1
(g2
g3
Ntp4982
Rp4983
(dp4984
g7
(dp4985
g9
V1999-00 Upper Deck Retro Distant Replay Parallel #D7 Larry Bird
p4986
sg11
I100
sg12
VUpper Deck Retro Distant Replay Parallel
p4987
sg14
(lp4988
Vhttp://www.beckett.com/basketball/1999-00/upper-deck-retro-distant-replay-parallel/d7-larry-bird-3181768
p4989
asg17
g18
sg19
(lp4990
Vhttp://img.beckett.com/images/no-image.jpg
p4991
asg22
V#D7
p4992
sg24
V1999-00
p4993
sg26
g27
sg28
(lp4994
VLarry Bird
p4995
assbag1
(g2
g3
Ntp4996
Rp4997
(dp4998
g7
(dp4999
g9
V1999-00 Upper Deck Retro Distant Replay Parallel #D9 Oscar Robertson
p5000
sg11
I100
sg12
VUpper Deck Retro Distant Replay Parallel
p5001
sg14
(lp5002
Vhttp://www.beckett.com/basketball/1999-00/upper-deck-retro-distant-replay-parallel/d9-oscar-robertson-3181770
p5003
asg17
g18
sg19
(lp5004
Vhttp://img.beckett.com/images/no-image.jpg
p5005
asg22
V#D9
p5006
sg24
V1999-00
p5007
sg26
g27
sg28
(lp5008
VOscar Robertson
p5009
assbag1
(g2
g3
Ntp5010
Rp5011
(dp5012
g7
(dp5013
g9
V1999-00 Upper Deck Retro Inkredible Level 2 #BC Bob Cousy/14
p5014
sg11
I14
sg12
VUpper Deck Retro Inkredible Level 2
p5015
sg14
(lp5016
Vhttp://www.beckett.com/basketball/1999-00/upper-deck-retro-inkredible-level-2/bc-bob-cousy14-3180078
p5017
asg17
g18
sg19
(lp5018
Vhttp://img.beckett.com/images/no-image.jpg
p5019
asg22
V#BC
p5020
sg4249
I1
sg24
V1999-00
p5021
sg26
g27
sg28
(lp5022
VBob Cousy
p5023
assbag1
(g2
g3
Ntp5024
Rp5025
(dp5026
g7
(dp5027
g9
V1999-00 Upper Deck Retro Inkredible Level 2 #BR Bill Russell/6
p5028
sg11
I6
sg12
VUpper Deck Retro Inkredible Level 2
p5029
sg14
(lp5030
Vhttp://www.beckett.com/basketball/1999-00/upper-deck-retro-inkredible-level-2/br-bill-russell6-3180080
p5031
asg17
g18
sg19
(lp5032
Vhttp://img.beckett.com/images/no-image.jpg
p5033
asg22
V#BR
p5034
sg4249
I1
sg24
V1999-00
p5035
sg26
g27
sg28
(lp5036
VBill Russell
p5037
assbag1
(g2
g3
Ntp5038
Rp5039
(dp5040
g7
(dp5041
g9
V1999-00 Upper Deck Retro Inkredible Level 2 #JH John Havlicek/17
p5042
sg11
I17
sg12
VUpper Deck Retro Inkredible Level 2
p5043
sg14
(lp5044
Vhttp://www.beckett.com/basketball/1999-00/upper-deck-retro-inkredible-level-2/jh-john-havlicek17-3180088
p5045
asg17
g18
sg19
(lp5046
Vhttp://img.beckett.com/images/no-image.jpg
p5047
asg22
V#JH
p5048
sg4249
I1
sg24
V1999-00
p5049
sg26
g27
sg28
(lp5050
VJohn Havlicek
p5051
assbag1
(g2
g3
Ntp5052
Rp5053
(dp5054
g7
(dp5055
g9
V1999-00 Upper Deck Retro Old School/New School Parallel #S3 Oscar Robertson
p5056
sg11
I500
sg12
VUpper Deck Retro Old School/New School Parallel
p5057
sg14
(lp5058
Vhttp://www.beckett.com/basketball/1999-00/upper-deck-retro-old-schoolnew-school-parallel/s3-oscar-robertson-3180168
p5059
asg17
g18
sg19
(lp5060
Vhttp://img.beckett.com/images/no-image.jpg
p5061
asg22
V#S3
p5062
sg24
V1999-00
p5063
sg26
g27
sg28
(lp5064
VOscar Robertson
p5065
assbag1
(g2
g3
Ntp5066
Rp5067
(dp5068
g7
(dp5069
g9
V1999-00 Upper Deck Retro Old School/New School Parallel #S6 John Havlicek
p5070
sg11
I500
sg12
VUpper Deck Retro Old School/New School Parallel
p5071
sg14
(lp5072
Vhttp://www.beckett.com/basketball/1999-00/upper-deck-retro-old-schoolnew-school-parallel/s6-john-havlicek-3180171
p5073
asg17
g18
sg19
(lp5074
Vhttp://img.beckett.com/images/no-image.jpg
p5075
asg22
V#S6
p5076
sg24
V1999-00
p5077
sg26
g27
sg28
(lp5078
VJohn Havlicek
p5079
assbag1
(g2
g3
Ntp5080
Rp5081
(dp5082
g7
(dp5083
g9
V1999-00 Upper Deck Retro Old School/New School Parallel #S10 Larry Bird
p5084
sg11
I500
sg12
VUpper Deck Retro Old School/New School Parallel
p5085
sg14
(lp5086
Vhttp://www.beckett.com/basketball/1999-00/upper-deck-retro-old-schoolnew-school-parallel/s10-larry-bird-3180175
p5087
asg17
g18
sg19
(lp5088
Vhttp://img.beckett.com/images/no-image.jpg
p5089
asg22
V#S10
p5090
sg24
V1999-00
p5091
sg26
g27
sg28
(lp5092
VLarry Bird
p5093
assbag1
(g2
g3
Ntp5094
Rp5095
(dp5096
g7
(dp5097
g9
V1999-00 Upper Deck Retro Old School/New School Parallel #S15 Bill Russell
p5098
sg11
I500
sg12
VUpper Deck Retro Old School/New School Parallel
p5099
sg14
(lp5100
Vhttp://www.beckett.com/basketball/1999-00/upper-deck-retro-old-schoolnew-school-parallel/s15-bill-russell-3180180
p5101
asg17
g18
sg19
(lp5102
Vhttp://img.beckett.com/images/no-image.jpg
p5103
asg22
V#S15
p5104
sg24
V1999-00
p5105
sg26
g27
sg28
(lp5106
VBill Russell
p5107
assbag1
(g2
g3
Ntp5108
Rp5109
(dp5110
g7
(dp5111
g9
V1999-00 Upper Deck Retro Old School/New School Parallel #S23 Paul Pierce
p5112
sg11
I500
sg12
VUpper Deck Retro Old School/New School Parallel
p5113
sg14
(lp5114
Vhttp://www.beckett.com/basketball/1999-00/upper-deck-retro-old-schoolnew-school-parallel/s23-paul-pierce-3180188
p5115
asg17
g18
sg19
(lp5116
Vhttp://img.beckett.com/images/no-image.jpg
p5117
asg22
V#S23
p5118
sg24
V1999-00
p5119
sg26
g27
sg28
(lp5120
VPaul Pierce
p5121
assbag1
(g2
g3
Ntp5122
Rp5123
(dp5124
g7
(dp5125
g9
V1999-00 Upper Deck Retro Old School/New School Parallel #S26 Antoine Walker
p5126
sg11
I500
sg12
VUpper Deck Retro Old School/New School Parallel
p5127
sg14
(lp5128
Vhttp://www.beckett.com/basketball/1999-00/upper-deck-retro-old-schoolnew-school-parallel/s26-antoine-walker-3180191
p5129
asg17
g18
sg19
(lp5130
Vhttp://img.beckett.com/images/no-image.jpg
p5131
asg22
V#S26
p5132
sg24
V1999-00
p5133
sg26
g27
sg28
(lp5134
VAntoine Walker
p5135
assba.