(lp0
Naccopy_reg
_reconstructor
p1
(ctutorial.items
BeckettItem
p2
c__builtin__
object
p3
Ntp4
Rp5
(dp6
S'_values'
p7
(dp8
S'originalItemDescription'
p9
V1999 Upper Deck Century Legends Century Collection #23 Isiah Thomas
p10
sS'serialNumber'
p11
I100
sS'setName'
p12
VUpper Deck Century Legends Century Collection
p13
sS'beckettLink'
p14
(lp15
Vhttp://www.beckett.com/basketball/1999/upper-deck-century-legends-century-collection/23-isiah-thomas-3175453
p16
asS'team'
p17
S'Detroit Pistons'
p18
sS'imageLink'
p19
(lp20
Vhttp://img.beckett.com/images/no-image.jpg
p21
asS'cardNumber'
p22
V#23
p23
sS'year'
p24
V1999
p25
sS'sport'
p26
S'Basketball'
p27
sS'playerNames'
p28
(lp29
VIsiah Thomas
p30
assbag1
(g2
g3
Ntp31
Rp32
(dp33
g7
(dp34
g9
V1999 Upper Deck Century Legends Century Collection #70 Grant Hill
p35
sg11
I100
sg12
VUpper Deck Century Legends Century Collection
p36
sg14
(lp37
Vhttp://www.beckett.com/basketball/1999/upper-deck-century-legends-century-collection/70-grant-hill-3175500
p38
asg17
g18
sg19
(lp39
Vhttp://img.beckett.com/images/no-image.jpg
p40
asg22
V#70
p41
sg24
V1999
p42
sg26
g27
sg28
(lp43
VGrant Hill
p44
assbag1
(g2
g3
Ntp45
Rp46
(dp47
g7
(dp48
g9
V1999-00 Fleer Focus #150 Jermaine Jackson RC
p49
sg11
I3000
sg12
VFleer Focus
p50
sg14
(lp51
Vhttp://www.beckett.com/basketball/1999-00/fleer-focus/150-jermaine-jackson-rc-3202053
p52
asg17
g18
sS'rookieCard'
p53
I1
sg19
(lp54
Vhttp://img.beckett.com/images/no-image.jpg
p55
asg22
V#150
p56
sg24
V1999-00
p57
sg26
g27
sg28
(lp58
VJermaine Jackson
p59
assbag1
(g2
g3
Ntp60
Rp61
(dp62
g7
(dp63
g9
V1999-00 Fleer Focus #150A Jermaine Jackson SP
p64
sg11
I999
sg12
VFleer Focus
p65
sg14
(lp66
Vhttp://www.beckett.com/basketball/1999-00/fleer-focus/150a-jermaine-jackson-sp-3202054
p67
asg17
g18
sg19
(lp68
Vhttp://img.beckett.com/images/no-image.jpg
p69
asg22
V#150A
p70
sg24
V1999-00
p71
sS'subsetName'
p72
VSP
p73
sg26
g27
sg28
(lp74
VJermaine Jackson
p75
assbag1
(g2
g3
Ntp76
Rp77
(dp78
g7
(dp79
g9
V1999-00 Fleer Force #233 Jermaine Jackson RC
p80
sg11
I1600
sg12
VFleer Force
p81
sg14
(lp82
Vhttp://www.beckett.com/basketball/1999-00/fleer-force/233-jermaine-jackson-rc-3200307
p83
asg17
g18
sg53
I1
sg19
(lp84
Vhttp://img.beckett.com/images/items_stock/185226/3200062/3200307/front.jpg
p85
asg22
V#233
p86
sg24
V1999-00
p87
sg26
g27
sg28
(lp88
VJermaine Jackson
p89
assbag1
(g2
g3
Ntp90
Rp91
(dp92
g7
(dp93
g9
V1999-00 Fleer Mystique #136 Jermaine Jackson RC
p94
sg11
I2999
sg12
VFleer Mystique
p95
sg14
(lp96
Vhttp://www.beckett.com/basketball/1999-00/fleer-mystique/136-jermaine-jackson-rc-3198470
p97
asg17
g18
sg53
I1
sg19
(lp98
Vhttp://img.beckett.com/images/items_stock/185226/3198320/3198470/front.jpg
p99
asg22
V#136
p100
sg24
V1999-00
p101
sg26
g27
sg28
(lp102
VJermaine Jackson
p103
assbag1
(g2
g3
Ntp104
Rp105
(dp106
g7
(dp107
g9
V1999-00 Fleer Mystique #147 Grant Hill STAR
p108
sg11
I2500
sg12
VFleer Mystique
p109
sg14
(lp110
Vhttp://www.beckett.com/basketball/1999-00/fleer-mystique/147-grant-hill-star-3198481
p111
asg17
g18
sg19
(lp112
Vhttp://img.beckett.com/images/items_stock/185226/3198320/3198481/front.jpg
p113
asg22
V#147
p114
sg24
V1999-00
p115
sg72
VSTAR
p116
sg26
g27
sg28
(lp117
VGrant Hill
p118
assbag1
(g2
g3
Ntp119
Rp120
(dp121
g7
(dp122
g9
V1999-00 SP Authentic #133 Jermaine Jackson RC
p123
sg11
I1500
sg12
VSP Authentic
p124
sg14
(lp125
Vhttp://www.beckett.com/basketball/1999-00/sp-authentic/133-jermaine-jackson-rc-3196278
p126
asg17
g18
sg53
I1
sg19
(lp127
Vhttp://img.beckett.com/images/no-image.jpg
p128
asg22
V#133
p129
sg24
V1999-00
p130
sg26
g27
sg28
(lp131
VJermaine Jackson
p132
assbag1
(g2
g3
Ntp133
Rp134
(dp135
g7
(dp136
g9
V1999-00 Black Diamond Final Cut #22 Grant Hill
p137
sg11
I100
sg12
VBlack Diamond Final Cut
p138
sg14
(lp139
Vhttp://www.beckett.com/basketball/1999-00/black-diamond-final-cut/22-grant-hill-3205696
p140
asg17
g18
sg19
(lp141
Vhttp://img.beckett.com/images/no-image.jpg
p142
asg22
V#22
p143
sg24
V1999-00
p144
sg26
g27
sg28
(lp145
VGrant Hill
p146
assbag1
(g2
g3
Ntp147
Rp148
(dp149
g7
(dp150
g9
V1999-00 Black Diamond Final Cut #23 Lindsey Hunter
p151
sg11
I100
sg12
VBlack Diamond Final Cut
p152
sg14
(lp153
Vhttp://www.beckett.com/basketball/1999-00/black-diamond-final-cut/23-lindsey-hunter-3205697
p154
asg17
g18
sg19
(lp155
Vhttp://img.beckett.com/images/no-image.jpg
p156
asg22
V#23
p157
sg24
V1999-00
p158
sg26
g27
sg28
(lp159
VLindsey Hunter
p160
assbag1
(g2
g3
Ntp161
Rp162
(dp163
g7
(dp164
g9
V1999-00 Black Diamond Final Cut #24 Jerry Stackhouse
p165
sg11
I100
sg12
VBlack Diamond Final Cut
p166
sg14
(lp167
Vhttp://www.beckett.com/basketball/1999-00/black-diamond-final-cut/24-jerry-stackhouse-3205698
p168
asg17
g18
sg19
(lp169
Vhttp://img.beckett.com/images/no-image.jpg
p170
asg22
V#24
p171
sg24
V1999-00
p172
sg26
g27
sg28
(lp173
VJerry Stackhouse
p174
assbag1
(g2
g3
Ntp175
Rp176
(dp177
g7
(dp178
g9
V1999-00 Bowman's Best Atomic Refractors #20 Grant Hill
p179
sg11
I100
sg12
VBowman's Best Atomic Refractors
p180
sg14
(lp181
Vhttp://www.beckett.com/basketball/1999-00/bowmans-best-atomic-refractors/20-grant-hill-3204807
p182
asg17
g18
sg19
(lp183
Vhttp://img.beckett.com/images/no-image.jpg
p184
asg22
V#20
p185
sg24
V1999-00
p186
sg26
g27
sg28
(lp187
VGrant Hill
p188
assbag1
(g2
g3
Ntp189
Rp190
(dp191
g7
(dp192
g9
V1999-00 Bowman's Best Atomic Refractors #41 Jerry Stackhouse
p193
sg11
I100
sg12
VBowman's Best Atomic Refractors
p194
sg14
(lp195
Vhttp://www.beckett.com/basketball/1999-00/bowmans-best-atomic-refractors/41-jerry-stackhouse-3204828
p196
asg17
g18
sg19
(lp197
Vhttp://img.beckett.com/images/no-image.jpg
p198
asg22
V#41
p199
sg24
V1999-00
p200
sg26
g27
sg28
(lp201
VJerry Stackhouse
p202
assbag1
(g2
g3
Ntp203
Rp204
(dp205
g7
(dp206
g9
V1999-00 Bowman's Best Atomic Refractors #47 Lindsey Hunter
p207
sg11
I100
sg12
VBowman's Best Atomic Refractors
p208
sg14
(lp209
Vhttp://www.beckett.com/basketball/1999-00/bowmans-best-atomic-refractors/47-lindsey-hunter-3204834
p210
asg17
g18
sg19
(lp211
Vhttp://img.beckett.com/images/no-image.jpg
p212
asg22
V#47
p213
sg24
V1999-00
p214
sg26
g27
sg28
(lp215
VLindsey Hunter
p216
assbag1
(g2
g3
Ntp217
Rp218
(dp219
g7
(dp220
g9
V1999-00 Bowman's Best Refractors #20 Grant Hill
p221
sg11
I400
sg12
VBowman's Best Refractors
p222
sg14
(lp223
Vhttp://www.beckett.com/basketball/1999-00/bowmans-best-refractors/20-grant-hill-3204665
p224
asg17
g18
sg19
(lp225
Vhttp://img.beckett.com/images/no-image.jpg
p226
asg22
V#20
p227
sg24
V1999-00
p228
sg26
g27
sg28
(lp229
VGrant Hill
p230
assbag1
(g2
g3
Ntp231
Rp232
(dp233
g7
(dp234
g9
V1999-00 Bowman's Best Refractors #41 Jerry Stackhouse
p235
sg11
I400
sg12
VBowman's Best Refractors
p236
sg14
(lp237
Vhttp://www.beckett.com/basketball/1999-00/bowmans-best-refractors/41-jerry-stackhouse-3204686
p238
asg17
g18
sg19
(lp239
Vhttp://img.beckett.com/images/no-image.jpg
p240
asg22
V#41
p241
sg24
V1999-00
p242
sg26
g27
sg28
(lp243
VJerry Stackhouse
p244
assbag1
(g2
g3
Ntp245
Rp246
(dp247
g7
(dp248
g9
V1999-00 Bowman's Best Refractors #47 Lindsey Hunter
p249
sg11
I400
sg12
VBowman's Best Refractors
p250
sg14
(lp251
Vhttp://www.beckett.com/basketball/1999-00/bowmans-best-refractors/47-lindsey-hunter-3204692
p252
asg17
g18
sg19
(lp253
Vhttp://img.beckett.com/images/items_stock/185226/3204637/3204692/front.jpg
p254
asg22
V#47
p255
sg24
V1999-00
p256
sg26
g27
sg28
(lp257
VLindsey Hunter
p258
assbag1
(g2
g3
Ntp259
Rp260
(dp261
g7
(dp262
g9
V1999-00 Finest Refractors Gold #15 Lindsey Hunter
p263
sg11
I100
sg12
VFinest Refractors Gold
p264
sg14
(lp265
Vhttp://www.beckett.com/basketball/1999-00/finest-refractors-gold/15-lindsey-hunter-3203927
p266
asg17
g18
sg19
(lp267
Vhttp://img.beckett.com/images/no-image.jpg
p268
asg22
V#15
p269
sg24
V1999-00
p270
sg26
g27
sg28
(lp271
VLindsey Hunter
p272
assbag1
(g2
g3
Ntp273
Rp274
(dp275
g7
(dp276
g9
V1999-00 Finest Refractors Gold #41 Grant Hill
p277
sg11
I100
sg12
VFinest Refractors Gold
p278
sg14
(lp279
Vhttp://www.beckett.com/basketball/1999-00/finest-refractors-gold/41-grant-hill-3203953
p280
asg17
g18
sg19
(lp281
Vhttp://img.beckett.com/images/no-image.jpg
p282
asg22
V#41
p283
sg24
V1999-00
p284
sg26
g27
sg28
(lp285
VGrant Hill
p286
assbag1
(g2
g3
Ntp287
Rp288
(dp289
g7
(dp290
g9
V1999-00 Finest Refractors Gold #61 Jerome Williams
p291
sg11
I100
sg12
VFinest Refractors Gold
p292
sg14
(lp293
Vhttp://www.beckett.com/basketball/1999-00/finest-refractors-gold/61-jerome-williams-3203973
p294
asg17
g18
sg19
(lp295
Vhttp://img.beckett.com/images/no-image.jpg
p296
asg22
V#61
p297
sg24
V1999-00
p298
sg26
g27
sg28
(lp299
VJerome Williams
p300
assbag1
(g2
g3
Ntp301
Rp302
(dp303
g7
(dp304
g9
V1999-00 Finest Refractors Gold #96 Bison Dele
p305
sg11
I100
sg12
VFinest Refractors Gold
p306
sg14
(lp307
Vhttp://www.beckett.com/basketball/1999-00/finest-refractors-gold/96-bison-dele-3204008
p308
asg17
g18
sg19
(lp309
Vhttp://img.beckett.com/images/no-image.jpg
p310
asg22
V#96
p311
sg24
V1999-00
p312
sg26
g27
sg28
(lp313
VBison Dele
p314
assbag1
(g2
g3
Ntp315
Rp316
(dp317
g7
(dp318
g9
V1999-00 Finest Refractors Gold #102 Grant Hill GEM
p319
sg11
I100
sg12
VFinest Refractors Gold
p320
sg14
(lp321
Vhttp://www.beckett.com/basketball/1999-00/finest-refractors-gold/102-grant-hill-gem-3204014
p322
asg17
g18
sg19
(lp323
Vhttp://img.beckett.com/images/no-image.jpg
p324
asg22
V#102
p325
sg24
V1999-00
p326
sg72
VGEM
p327
sg26
g27
sg28
(lp328
VGrant Hill
p329
assbag1
(g2
g3
Ntp330
Rp331
(dp332
g7
(dp333
g9
V1999-00 Finest Refractors Gold #140 Christian Laettner
p334
sg11
I100
sg12
VFinest Refractors Gold
p335
sg14
(lp336
Vhttp://www.beckett.com/basketball/1999-00/finest-refractors-gold/140-christian-laettner-3204052
p337
asg17
g18
sg19
(lp338
Vhttp://img.beckett.com/images/no-image.jpg
p339
asg22
V#140
p340
sg24
V1999-00
p341
sg26
g27
sg28
(lp342
VChristian Laettner
p343
assbag1
(g2
g3
Ntp344
Rp345
(dp346
g7
(dp347
g9
V1999-00 Finest Refractors Gold #177 Loy Vaught
p348
sg11
I100
sg12
VFinest Refractors Gold
p349
sg14
(lp350
Vhttp://www.beckett.com/basketball/1999-00/finest-refractors-gold/177-loy-vaught-3204089
p351
asg17
g18
sg19
(lp352
Vhttp://img.beckett.com/images/items_stock/185226/3203898/3204089/front.jpg
p353
asg22
V#177
p354
sg24
V1999-00
p355
sg26
g27
sg28
(lp356
VLoy Vaught
p357
assbag1
(g2
g3
Ntp358
Rp359
(dp360
g7
(dp361
g9
V1999-00 Finest Refractors Gold #222 Jerry Stackhouse
p362
sg11
I100
sg12
VFinest Refractors Gold
p363
sg14
(lp364
Vhttp://www.beckett.com/basketball/1999-00/finest-refractors-gold/222-jerry-stackhouse-3204134
p365
asg17
g18
sg19
(lp366
Vhttp://img.beckett.com/images/no-image.jpg
p367
asg22
V#222
p368
sg24
V1999-00
p369
sg26
g27
sg28
(lp370
VJerry Stackhouse
p371
assbag1
(g2
g3
Ntp372
Rp373
(dp374
g7
(dp375
g9
V1999-00 Finest Refractors Gold #249 Jerry Stackhouse EDGE
p376
sg11
I100
sg12
VFinest Refractors Gold
p377
sg14
(lp378
Vhttp://www.beckett.com/basketball/1999-00/finest-refractors-gold/249-jerry-stackhouse-edge-3204161
p379
asg17
g18
sg19
(lp380
Vhttp://img.beckett.com/images/items_stock/185226/3203898/3204161/front.jpg
p381
asg22
V#249
p382
sg24
V1999-00
p383
sg72
VEDGE
p384
sg26
g27
sg28
(lp385
VJerry Stackhouse
p386
assbag1
(g2
g3
Ntp387
Rp388
(dp389
g7
(dp390
g9
V1999-00 Flair Showcase Legacy Collection #10 Jerome Williams
p391
sg11
I20
sg12
VFlair Showcase Legacy Collection
p392
sg14
(lp393
Vhttp://www.beckett.com/basketball/1999-00/flair-showcase-legacy-collection/10-jerome-williams-3202934
p394
asg17
g18
sg19
(lp395
Vhttp://img.beckett.com/images/no-image.jpg
p396
asg22
V#10
p397
sg24
V1999-00
p398
sg26
g27
sg28
(lp399
VJerome Williams
p400
assbag1
(g2
g3
Ntp401
Rp402
(dp403
g7
(dp404
g9
V1999-00 Flair Showcase Legacy Collection #12 Jerry Stackhouse
p405
sg11
I20
sg12
VFlair Showcase Legacy Collection
p406
sg14
(lp407
Vhttp://www.beckett.com/basketball/1999-00/flair-showcase-legacy-collection/12-jerry-stackhouse-3202936
p408
asg17
g18
sg19
(lp409
Vhttp://img.beckett.com/images/no-image.jpg
p410
asg22
V#12
p411
sg24
V1999-00
p412
sg26
g27
sg28
(lp413
VJerry Stackhouse
p414
assbag1
(g2
g3
Ntp415
Rp416
(dp417
g7
(dp418
g9
V1999-00 Flair Showcase Legacy Collection #33 Grant Hill
p419
sg11
I20
sg12
VFlair Showcase Legacy Collection
p420
sg14
(lp421
Vhttp://www.beckett.com/basketball/1999-00/flair-showcase-legacy-collection/33-grant-hill-3202957
p422
asg17
g18
sg19
(lp423
Vhttp://img.beckett.com/images/no-image.jpg
p424
asg22
V#33
p425
sg24
V1999-00
p426
sg26
g27
sg28
(lp427
VGrant Hill
p428
assbag1
(g2
g3
Ntp429
Rp430
(dp431
g7
(dp432
g9
V1999-00 Flair Showcase Legacy Collection #83 Lindsey Hunter
p433
sg11
I20
sg12
VFlair Showcase Legacy Collection
p434
sg14
(lp435
Vhttp://www.beckett.com/basketball/1999-00/flair-showcase-legacy-collection/83-lindsey-hunter-3203007
p436
asg17
g18
sg19
(lp437
Vhttp://img.beckett.com/images/no-image.jpg
p438
asg22
V#83
p439
sg24
V1999-00
p440
sg26
g27
sg28
(lp441
VLindsey Hunter
p442
assbag1
(g2
g3
Ntp443
Rp444
(dp445
g7
(dp446
g9
V1999-00 Flair Showcase Masterpiece #10 Jerome Williams
p447
sg11
I1
sg12
VFlair Showcase Masterpiece
p448
sg14
(lp449
Vhttp://www.beckett.com/basketball/1999-00/flair-showcase-masterpiece/10-jerome-williams-3203069
p450
asg17
g18
sg19
(lp451
Vhttp://img.beckett.com/images/no-image.jpg
p452
asg22
V#10
p453
sg24
V1999-00
p454
sg26
g27
sg28
(lp455
VJerome Williams
p456
assbag1
(g2
g3
Ntp457
Rp458
(dp459
g7
(dp460
g9
V1999-00 Flair Showcase Masterpiece #12 Jerry Stackhouse
p461
sg11
I1
sg12
VFlair Showcase Masterpiece
p462
sg14
(lp463
Vhttp://www.beckett.com/basketball/1999-00/flair-showcase-masterpiece/12-jerry-stackhouse-3203071
p464
asg17
g18
sg19
(lp465
Vhttp://img.beckett.com/images/no-image.jpg
p466
asg22
V#12
p467
sg24
V1999-00
p468
sg26
g27
sg28
(lp469
VJerry Stackhouse
p470
assbag1
(g2
g3
Ntp471
Rp472
(dp473
g7
(dp474
g9
V1999-00 Flair Showcase Masterpiece #33 Grant Hill
p475
sg11
I1
sg12
VFlair Showcase Masterpiece
p476
sg14
(lp477
Vhttp://www.beckett.com/basketball/1999-00/flair-showcase-masterpiece/33-grant-hill-3203092
p478
asg17
g18
sg19
(lp479
Vhttp://img.beckett.com/images/no-image.jpg
p480
asg22
V#33
p481
sg24
V1999-00
p482
sg26
g27
sg28
(lp483
VGrant Hill
p484
assbag1
(g2
g3
Ntp485
Rp486
(dp487
g7
(dp488
g9
V1999-00 Flair Showcase Masterpiece #83 Lindsey Hunter
p489
sg11
I1
sg12
VFlair Showcase Masterpiece
p490
sg14
(lp491
Vhttp://www.beckett.com/basketball/1999-00/flair-showcase-masterpiece/83-lindsey-hunter-3203142
p492
asg17
g18
sg19
(lp493
Vhttp://img.beckett.com/images/no-image.jpg
p494
asg22
V#83
p495
sg24
V1999-00
p496
sg26
g27
sg28
(lp497
VLindsey Hunter
p498
assbag1
(g2
g3
Ntp499
Rp500
(dp501
g7
(dp502
g9
V1999-00 Fleer Supreme Court Collection #5 Grant Hill
p503
sg11
I20
sg12
VFleer Supreme Court Collection
p504
sg14
(lp505
Vhttp://www.beckett.com/basketball/1999-00/fleer-supreme-court-collection/5-grant-hill-3201511
p506
asg17
g18
sg19
(lp507
Vhttp://img.beckett.com/images/no-image.jpg
p508
asg22
V#5
p509
sg24
V1999-00
p510
sg26
g27
sg28
(lp511
VGrant Hill
p512
assbag1
(g2
g3
Ntp513
Rp514
(dp515
g7
(dp516
g9
V1999-00 Fleer Supreme Court Collection #20 Bison Dele
p517
sg11
I20
sg12
VFleer Supreme Court Collection
p518
sg14
(lp519
Vhttp://www.beckett.com/basketball/1999-00/fleer-supreme-court-collection/20-bison-dele-3201526
p520
asg17
g18
sg19
(lp521
Vhttp://img.beckett.com/images/no-image.jpg
p522
asg22
V#20
p523
sg24
V1999-00
p524
sg26
g27
sg28
(lp525
VBison Dele
p526
assbag1
(g2
g3
Ntp527
Rp528
(dp529
g7
(dp530
g9
V1999-00 Fleer Supreme Court Collection #80 Lindsey Hunter
p531
sg11
I20
sg12
VFleer Supreme Court Collection
p532
sg14
(lp533
Vhttp://www.beckett.com/basketball/1999-00/fleer-supreme-court-collection/80-lindsey-hunter-3201586
p534
asg17
g18
sg19
(lp535
Vhttp://img.beckett.com/images/no-image.jpg
p536
asg22
V#80
p537
sg24
V1999-00
p538
sg26
g27
sg28
(lp539
VLindsey Hunter
p540
assbag1
(g2
g3
Ntp541
Rp542
(dp543
g7
(dp544
g9
V1999-00 Fleer Supreme Court Collection #110 Christian Laettner
p545
sg11
I20
sg12
VFleer Supreme Court Collection
p546
sg14
(lp547
Vhttp://www.beckett.com/basketball/1999-00/fleer-supreme-court-collection/110-christian-laettner-3201616
p548
asg17
g18
sg19
(lp549
Vhttp://img.beckett.com/images/no-image.jpg
p550
asg22
V#110
p551
sg24
V1999-00
p552
sg26
g27
sg28
(lp553
VChristian Laettner
p554
assbag1
(g2
g3
Ntp555
Rp556
(dp557
g7
(dp558
g9
V1999-00 Fleer Supreme Court Collection #139 Jerry Stackhouse
p559
sg11
I20
sg12
VFleer Supreme Court Collection
p560
sg14
(lp561
Vhttp://www.beckett.com/basketball/1999-00/fleer-supreme-court-collection/139-jerry-stackhouse-3201645
p562
asg17
g18
sg19
(lp563
Vhttp://img.beckett.com/images/no-image.jpg
p564
asg22
V#139
p565
sg24
V1999-00
p566
sg26
g27
sg28
(lp567
VJerry Stackhouse
p568
assbag1
(g2
g3
Ntp569
Rp570
(dp571
g7
(dp572
g9
V1999-00 Fleer Supreme Court Collection #168 Korleone Young
p573
sg11
I20
sg12
VFleer Supreme Court Collection
p574
sg14
(lp575
Vhttp://www.beckett.com/basketball/1999-00/fleer-supreme-court-collection/168-korleone-young-3201674
p576
asg17
g18
sg19
(lp577
Vhttp://img.beckett.com/images/no-image.jpg
p578
asg22
V#168
p579
sg24
V1999-00
p580
sg26
g27
sg28
(lp581
VKorleone Young
p582
assbag1
(g2
g3
Ntp583
Rp584
(dp585
g7
(dp586
g9
V1999-00 Fleer Focus Masterpiece Mania #5 Jerry Stackhouse
p587
sg11
I300
sg12
VFleer Focus Masterpiece Mania
p588
sg14
(lp589
Vhttp://www.beckett.com/basketball/1999-00/fleer-focus-masterpiece-mania/5-jerry-stackhouse-3202224
p590
asg17
g18
sg19
(lp591
Vhttp://img.beckett.com/images/items_stock/185226/3202210/3202224/front.jpg
p592
asg22
V#5
p593
sg24
V1999-00
p594
sg26
g27
sg28
(lp595
VJerry Stackhouse
p596
assbag1
(g2
g3
Ntp597
Rp598
(dp599
g7
(dp600
g9
V1999-00 Fleer Focus Masterpiece Mania #8 Lindsey Hunter
p601
sg11
I300
sg12
VFleer Focus Masterpiece Mania
p602
sg14
(lp603
Vhttp://www.beckett.com/basketball/1999-00/fleer-focus-masterpiece-mania/8-lindsey-hunter-3202227
p604
asg17
g18
sg19
(lp605
Vhttp://img.beckett.com/images/items_stock/185226/3202210/3202227/front.jpg
p606
asg22
V#8
p607
sg24
V1999-00
p608
sg26
g27
sg28
(lp609
VLindsey Hunter
p610
assbag1
(g2
g3
Ntp611
Rp612
(dp613
g7
(dp614
g9
V1999-00 Fleer Focus Masterpiece Mania #80 Christian Laettner
p615
sg11
I300
sg12
VFleer Focus Masterpiece Mania
p616
sg14
(lp617
Vhttp://www.beckett.com/basketball/1999-00/fleer-focus-masterpiece-mania/80-christian-laettner-3202299
p618
asg17
g18
sg19
(lp619
Vhttp://img.beckett.com/images/items_stock/185226/3202210/3202299/front.jpg
p620
asg22
V#80
p621
sg24
V1999-00
p622
sg26
g27
sg28
(lp623
VChristian Laettner
p624
assbag1
(g2
g3
Ntp625
Rp626
(dp627
g7
(dp628
g9
V1999-00 Fleer Focus Masterpiece Mania #86 Grant Hill
p629
sg11
I300
sg12
VFleer Focus Masterpiece Mania
p630
sg14
(lp631
Vhttp://www.beckett.com/basketball/1999-00/fleer-focus-masterpiece-mania/86-grant-hill-3202305
p632
asg17
g18
sg19
(lp633
Vhttp://img.beckett.com/images/no-image.jpg
p634
asg22
V#86
p635
sg24
V1999-00
p636
sg26
g27
sg28
(lp637
VGrant Hill
p638
assbag1
(g2
g3
Ntp639
Rp640
(dp641
g7
(dp642
g9
V1999-00 Fleer Focus Masterpiece Mania #150 Jermaine Jackson
p643
sg11
I300
sg12
VFleer Focus Masterpiece Mania
p644
sg14
(lp645
Vhttp://www.beckett.com/basketball/1999-00/fleer-focus-masterpiece-mania/150-jermaine-jackson-3202369
p646
asg17
g18
sg19
(lp647
Vhttp://img.beckett.com/images/items_stock/185226/3202210/3202369/front.jpg
p648
asg22
V#150
p649
sg24
V1999-00
p650
sg26
g27
sg28
(lp651
VJermaine Jackson
p652
assbag1
(g2
g3
Ntp653
Rp654
(dp655
g7
(dp656
g9
V1999-00 Fleer Focus Masterpieces #5 Jerry Stackhouse
p657
sg11
I1
sg12
VFleer Focus Masterpieces
p658
sg14
(lp659
Vhttp://www.beckett.com/basketball/1999-00/fleer-focus-masterpieces/5-jerry-stackhouse-3202064
p660
asg17
g18
sg19
(lp661
Vhttp://img.beckett.com/images/no-image.jpg
p662
asg22
V#5
p663
sg24
V1999-00
p664
sg26
g27
sg28
(lp665
VJerry Stackhouse
p666
assbag1
(g2
g3
Ntp667
Rp668
(dp669
g7
(dp670
g9
V1999-00 Fleer Focus Masterpieces #8 Lindsey Hunter
p671
sg11
I1
sg12
VFleer Focus Masterpieces
p672
sg14
(lp673
Vhttp://www.beckett.com/basketball/1999-00/fleer-focus-masterpieces/8-lindsey-hunter-3202067
p674
asg17
g18
sg19
(lp675
Vhttp://img.beckett.com/images/no-image.jpg
p676
asg22
V#8
p677
sg24
V1999-00
p678
sg26
g27
sg28
(lp679
VLindsey Hunter
p680
assbag1
(g2
g3
Ntp681
Rp682
(dp683
g7
(dp684
g9
V1999-00 Fleer Focus Masterpieces #80 Christian Laettner
p685
sg11
I1
sg12
VFleer Focus Masterpieces
p686
sg14
(lp687
Vhttp://www.beckett.com/basketball/1999-00/fleer-focus-masterpieces/80-christian-laettner-3202139
p688
asg17
g18
sg19
(lp689
Vhttp://img.beckett.com/images/no-image.jpg
p690
asg22
V#80
p691
sg24
V1999-00
p692
sg26
g27
sg28
(lp693
VChristian Laettner
p694
assbag1
(g2
g3
Ntp695
Rp696
(dp697
g7
(dp698
g9
V1999-00 Fleer Focus Masterpieces #86 Grant Hill
p699
sg11
I1
sg12
VFleer Focus Masterpieces
p700
sg14
(lp701
Vhttp://www.beckett.com/basketball/1999-00/fleer-focus-masterpieces/86-grant-hill-3202145
p702
asg17
g18
sg19
(lp703
Vhttp://img.beckett.com/images/no-image.jpg
p704
asg22
V#86
p705
sg24
V1999-00
p706
sg26
g27
sg28
(lp707
VGrant Hill
p708
assbag1
(g2
g3
Ntp709
Rp710
(dp711
g7
(dp712
g9
V1999-00 Fleer Focus Masterpieces #150 Jermaine Jackson
p713
sg11
I1
sg12
VFleer Focus Masterpieces
p714
sg14
(lp715
Vhttp://www.beckett.com/basketball/1999-00/fleer-focus-masterpieces/150-jermaine-jackson-3202209
p716
asg17
g18
sg19
(lp717
Vhttp://img.beckett.com/images/no-image.jpg
p718
asg22
V#150
p719
sg24
V1999-00
p720
sg26
g27
sg28
(lp721
VJermaine Jackson
p722
assbag1
(g2
g3
Ntp723
Rp724
(dp725
g7
(dp726
g9
V1999-00 Fleer Force Forcefield #233 Jermaine Jackson
p727
sg11
I100
sg12
VFleer Force Forcefield
p728
sg14
(lp729
Vhttp://www.beckett.com/basketball/1999-00/fleer-force-forcefield/233-jermaine-jackson-3200555
p730
asg17
g18
sg19
(lp731
Vhttp://img.beckett.com/images/no-image.jpg
p732
asg22
V#233
p733
sg24
V1999-00
p734
sg26
g27
sg28
(lp735
VJermaine Jackson
p736
assbag1
(g2
g3
Ntp737
Rp738
(dp739
g7
(dp740
g9
V1999-00 Fleer Mystique Masterpiece #2 Grant Hill
p741
sg11
I1
sg12
VFleer Mystique Masterpiece
p742
sg14
(lp743
Vhttp://www.beckett.com/basketball/1999-00/fleer-mystique-masterpiece/2-grant-hill-3198598
p744
asg17
g18
sg19
(lp745
Vhttp://img.beckett.com/images/no-image.jpg
p746
asg22
V#2
p747
sg24
V1999-00
p748
sg26
g27
sg28
(lp749
VGrant Hill
p750
assbag1
(g2
g3
Ntp751
Rp752
(dp753
g7
(dp754
g9
V1999-00 Fleer Mystique Masterpiece #33 Lindsey Hunter
p755
sg11
I1
sg12
VFleer Mystique Masterpiece
p756
sg14
(lp757
Vhttp://www.beckett.com/basketball/1999-00/fleer-mystique-masterpiece/33-lindsey-hunter-3198629
p758
asg17
g18
sg19
(lp759
Vhttp://img.beckett.com/images/no-image.jpg
p760
asg22
V#33
p761
sg24
V1999-00
p762
sg26
g27
sg28
(lp763
VLindsey Hunter
p764
assbag1
(g2
g3
Ntp765
Rp766
(dp767
g7
(dp768
g9
V1999-00 Fleer Mystique Masterpiece #60 Loy Vaught
p769
sg11
I1
sg12
VFleer Mystique Masterpiece
p770
sg14
(lp771
Vhttp://www.beckett.com/basketball/1999-00/fleer-mystique-masterpiece/60-loy-vaught-3198656
p772
asg17
g18
sg19
(lp773
Vhttp://img.beckett.com/images/no-image.jpg
p774
asg22
V#60
p775
sg24
V1999-00
p776
sg26
g27
sg28
(lp777
VLoy Vaught
p778
assbag1
(g2
g3
Ntp779
Rp780
(dp781
g7
(dp782
g9
V1999-00 Fleer Mystique Masterpiece #81 Jerry Stackhouse
p783
sg11
I1
sg12
VFleer Mystique Masterpiece
p784
sg14
(lp785
Vhttp://www.beckett.com/basketball/1999-00/fleer-mystique-masterpiece/81-jerry-stackhouse-3198677
p786
asg17
g18
sg19
(lp787
Vhttp://img.beckett.com/images/no-image.jpg
p788
asg22
V#81
p789
sg24
V1999-00
p790
sg26
g27
sg28
(lp791
VJerry Stackhouse
p792
assbag1
(g2
g3
Ntp793
Rp794
(dp795
g7
(dp796
g9
V1999-00 Fleer Mystique Masterpiece #136 Jermaine Jackson
p797
sg11
I1
sg12
VFleer Mystique Masterpiece
p798
sg14
(lp799
Vhttp://www.beckett.com/basketball/1999-00/fleer-mystique-masterpiece/136-jermaine-jackson-3198732
p800
asg17
g18
sg19
(lp801
Vhttp://img.beckett.com/images/no-image.jpg
p802
asg22
V#136
p803
sg24
V1999-00
p804
sg26
g27
sg28
(lp805
VJermaine Jackson
p806
assbag1
(g2
g3
Ntp807
Rp808
(dp809
g7
(dp810
g9
V1999-00 Fleer Mystique Masterpiece #147 Grant Hill STAR
p811
sg11
I1
sg12
VFleer Mystique Masterpiece
p812
sg14
(lp813
Vhttp://www.beckett.com/basketball/1999-00/fleer-mystique-masterpiece/147-grant-hill-star-3198743
p814
asg17
g18
sg19
(lp815
Vhttp://img.beckett.com/images/no-image.jpg
p816
asg22
V#147
p817
sg24
V1999-00
p818
sg72
VSTAR
p819
sg26
g27
sg28
(lp820
VGrant Hill
p821
assbag1
(g2
g3
Ntp822
Rp823
(dp824
g7
(dp825
g9
V1999-00 Hoops Starting Five #32 Lindsey Hunter
p826
sg11
I5
sg12
VHoops Starting Five
p827
sg14
(lp828
Vhttp://www.beckett.com/basketball/1999-00/hoops-starting-five/32-lindsey-hunter-3199094
p829
asg17
g18
sg19
(lp830
Vhttp://img.beckett.com/images/no-image.jpg
p831
asg22
V#32
p832
sg24
V1999-00
p833
sg26
g27
sg28
(lp834
VLindsey Hunter
p835
assbag1
(g2
g3
Ntp836
Rp837
(dp838
g7
(dp839
g9
V1999-00 Hoops Starting Five #53 Jerry Stackhouse
p840
sg11
I5
sg12
VHoops Starting Five
p841
sg14
(lp842
Vhttp://www.beckett.com/basketball/1999-00/hoops-starting-five/53-jerry-stackhouse-3199115
p843
asg17
g18
sg19
(lp844
Vhttp://img.beckett.com/images/no-image.jpg
p845
asg22
V#53
p846
sg24
V1999-00
p847
sg26
g27
sg28
(lp848
VJerry Stackhouse
p849
assbag1
(g2
g3
Ntp850
Rp851
(dp852
g7
(dp853
g9
V1999-00 Hoops Starting Five #60 Grant Hill
p854
sg11
I5
sg12
VHoops Starting Five
p855
sg14
(lp856
Vhttp://www.beckett.com/basketball/1999-00/hoops-starting-five/60-grant-hill-3199122
p857
asg17
g18
sg19
(lp858
Vhttp://img.beckett.com/images/no-image.jpg
p859
asg22
V#60
p860
sg24
V1999-00
p861
sg26
g27
sg28
(lp862
VGrant Hill
p863
assbag1
(g2
g3
Ntp864
Rp865
(dp866
g7
(dp867
g9
V1999-00 Hoops Starting Five #103 Korleone Young
p868
sg11
I5
sg12
VHoops Starting Five
p869
sg14
(lp870
Vhttp://www.beckett.com/basketball/1999-00/hoops-starting-five/103-korleone-young-3199165
p871
asg17
g18
sg19
(lp872
Vhttp://img.beckett.com/images/no-image.jpg
p873
asg22
V#103
p874
sg24
V1999-00
p875
sg26
g27
sg28
(lp876
VKorleone Young
p877
assbag1
(g2
g3
Ntp878
Rp879
(dp880
g7
(dp881
g9
V1999-00 Hoops Starting Five #119 Eric Montross
p882
sg11
I5
sg12
VHoops Starting Five
p883
sg14
(lp884
Vhttp://www.beckett.com/basketball/1999-00/hoops-starting-five/119-eric-montross-3199181
p885
asg17
g18
sg19
(lp886
Vhttp://img.beckett.com/images/no-image.jpg
p887
asg22
V#119
p888
sg24
V1999-00
p889
sg26
g27
sg28
(lp890
VEric Montross
p891
assbag1
(g2
g3
Ntp892
Rp893
(dp894
g7
(dp895
g9
V1999-00 Hoops Starting Five #148 Bison Dele
p896
sg11
I5
sg12
VHoops Starting Five
p897
sg14
(lp898
Vhttp://www.beckett.com/basketball/1999-00/hoops-starting-five/148-bison-dele-3199210
p899
asg17
g18
sg19
(lp900
Vhttp://img.beckett.com/images/no-image.jpg
p901
asg22
V#148
p902
sg24
V1999-00
p903
sg26
g27
sg28
(lp904
VBison Dele
p905
assbag1
(g2
g3
Ntp906
Rp907
(dp908
g7
(dp909
g9
V1999-00 SkyBox APEX Xtra #24 Lindsey Hunter
p910
sg11
I50
sg12
VSkyBox APEX Xtra
p911
sg14
(lp912
Vhttp://www.beckett.com/basketball/1999-00/skybox-apex-xtra/24-lindsey-hunter-3198158
p913
asg17
g18
sg19
(lp914
Vhttp://img.beckett.com/images/no-image.jpg
p915
asg22
V#24
p916
sg24
V1999-00
p917
sg26
g27
sg28
(lp918
VLindsey Hunter
p919
assbag1
(g2
g3
Ntp920
Rp921
(dp922
g7
(dp923
g9
V1999-00 SkyBox APEX Xtra #34 Christian Laettner
p924
sg11
I50
sg12
VSkyBox APEX Xtra
p925
sg14
(lp926
Vhttp://www.beckett.com/basketball/1999-00/skybox-apex-xtra/34-christian-laettner-3198168
p927
asg17
g18
sg19
(lp928
Vhttp://img.beckett.com/images/no-image.jpg
p929
asg22
V#34
p930
sg24
V1999-00
p931
sg26
g27
sg28
(lp932
VChristian Laettner
p933
assbag1
(g2
g3
Ntp934
Rp935
(dp936
g7
(dp937
g9
V1999-00 SkyBox APEX Xtra #40 Bison Dele
p938
sg11
I50
sg12
VSkyBox APEX Xtra
p939
sg14
(lp940
Vhttp://www.beckett.com/basketball/1999-00/skybox-apex-xtra/40-bison-dele-3198174
p941
asg17
g18
sg19
(lp942
Vhttp://img.beckett.com/images/no-image.jpg
p943
asg22
V#40
p944
sg24
V1999-00
p945
sg26
g27
sg28
(lp946
VBison Dele
p947
assbag1
(g2
g3
Ntp948
Rp949
(dp950
g7
(dp951
g9
V1999-00 SkyBox APEX Xtra #43 Grant Hill
p952
sg11
I50
sg12
VSkyBox APEX Xtra
p953
sg14
(lp954
Vhttp://www.beckett.com/basketball/1999-00/skybox-apex-xtra/43-grant-hill-3198177
p955
asg17
g18
sg19
(lp956
Vhttp://img.beckett.com/images/no-image.jpg
p957
asg22
V#43
p958
sg24
V1999-00
p959
sg26
g27
sg28
(lp960
VGrant Hill
p961
assbag1
(g2
g3
Ntp962
Rp963
(dp964
g7
(dp965
g9
V1999-00 SkyBox APEX Xtra #132 Jerry Stackhouse
p966
sg11
I50
sg12
VSkyBox APEX Xtra
p967
sg14
(lp968
Vhttp://www.beckett.com/basketball/1999-00/skybox-apex-xtra/132-jerry-stackhouse-3198266
p969
asg17
g18
sg19
(lp970
Vhttp://img.beckett.com/images/no-image.jpg
p971
asg22
V#132
p972
sg24
V1999-00
p973
sg26
g27
sg28
(lp974
VJerry Stackhouse
p975
assbag1
(g2
g3
Ntp976
Rp977
(dp978
g7
(dp979
g9
V1999-00 SkyBox APEX Xtreme #24 Lindsey Hunter
p980
sg11
I1
sg12
VSkyBox APEX Xtreme
p981
sg14
(lp982
Vhttp://www.beckett.com/basketball/1999-00/skybox-apex-xtreme/24-lindsey-hunter-3196500
p983
asg17
g18
sg19
(lp984
Vhttp://img.beckett.com/images/no-image.jpg
p985
asg22
V#24
p986
sg24
V1999-00
p987
sg26
g27
sg28
(lp988
VLindsey Hunter
p989
assbag1
(g2
g3
Ntp990
Rp991
(dp992
g7
(dp993
g9
V1999-00 SkyBox APEX Xtreme #34 Christian Laettner
p994
sg11
I1
sg12
VSkyBox APEX Xtreme
p995
sg14
(lp996
Vhttp://www.beckett.com/basketball/1999-00/skybox-apex-xtreme/34-christian-laettner-3196510
p997
asg17
g18
sg19
(lp998
Vhttp://img.beckett.com/images/no-image.jpg
p999
asg22
V#34
p1000
sg24
V1999-00
p1001
sg26
g27
sg28
(lp1002
VChristian Laettner
p1003
assbag1
(g2
g3
Ntp1004
Rp1005
(dp1006
g7
(dp1007
g9
V1999-00 SkyBox APEX Xtreme #40 Bison Dele
p1008
sg11
I1
sg12
VSkyBox APEX Xtreme
p1009
sg14
(lp1010
Vhttp://www.beckett.com/basketball/1999-00/skybox-apex-xtreme/40-bison-dele-3196516
p1011
asg17
g18
sg19
(lp1012
Vhttp://img.beckett.com/images/no-image.jpg
p1013
asg22
V#40
p1014
sg24
V1999-00
p1015
sg26
g27
sg28
(lp1016
VBison Dele
p1017
assbag1
(g2
g3
Ntp1018
Rp1019
(dp1020
g7
(dp1021
g9
V1999-00 SkyBox APEX Xtreme #43 Grant Hill
p1022
sg11
I1
sg12
VSkyBox APEX Xtreme
p1023
sg14
(lp1024
Vhttp://www.beckett.com/basketball/1999-00/skybox-apex-xtreme/43-grant-hill-3196519
p1025
asg17
g18
sg19
(lp1026
Vhttp://img.beckett.com/images/no-image.jpg
p1027
asg22
V#43
p1028
sg24
V1999-00
p1029
sg26
g27
sg28
(lp1030
VGrant Hill
p1031
assbag1
(g2
g3
Ntp1032
Rp1033
(dp1034
g7
(dp1035
g9
V1999-00 SkyBox APEX Xtreme #132 Jerry Stackhouse
p1036
sg11
I1
sg12
VSkyBox APEX Xtreme
p1037
sg14
(lp1038
Vhttp://www.beckett.com/basketball/1999-00/skybox-apex-xtreme/132-jerry-stackhouse-3196608
p1039
asg17
g18
sg19
(lp1040
Vhttp://img.beckett.com/images/no-image.jpg
p1041
asg22
V#132
p1042
sg24
V1999-00
p1043
sg26
g27
sg28
(lp1044
VJerry Stackhouse
p1045
assbag1
(g2
g3
Ntp1046
Rp1047
(dp1048
g7
(dp1049
g9
V1999-00 SkyBox Premium Star Rubies #33 Lindsey Hunter
p1050
sg11
I45
sg12
VSkyBox Premium Star Rubies
p1051
sg14
(lp1052
Vhttp://www.beckett.com/basketball/1999-00/skybox-premium-star-rubies/33-lindsey-hunter-3195611
p1053
asg17
g18
sg19
(lp1054
Vhttp://img.beckett.com/images/no-image.jpg
p1055
asg22
V#33
p1056
sg24
V1999-00
p1057
sg26
g27
sg28
(lp1058
VLindsey Hunter
p1059
assbag1
(g2
g3
Ntp1060
Rp1061
(dp1062
g7
(dp1063
g9
V1999-00 SkyBox Premium Star Rubies #35 Grant Hill
p1064
sg11
I45
sg12
VSkyBox Premium Star Rubies
p1065
sg14
(lp1066
Vhttp://www.beckett.com/basketball/1999-00/skybox-premium-star-rubies/35-grant-hill-3195613
p1067
asg17
g18
sg19
(lp1068
Vhttp://img.beckett.com/images/no-image.jpg
p1069
asg22
V#35
p1070
sg24
V1999-00
p1071
sg26
g27
sg28
(lp1072
VGrant Hill
p1073
assbag1
(g2
g3
Ntp1074
Rp1075
(dp1076
g7
(dp1077
g9
V1999-00 SkyBox Premium Star Rubies #45 Christian Laettner
p1078
sg11
I45
sg12
VSkyBox Premium Star Rubies
p1079
sg14
(lp1080
Vhttp://www.beckett.com/basketball/1999-00/skybox-premium-star-rubies/45-christian-laettner-3195623
p1081
asg17
g18
sg19
(lp1082
Vhttp://img.beckett.com/images/no-image.jpg
p1083
asg22
V#45
p1084
sg24
V1999-00
p1085
sg26
g27
sg28
(lp1086
VChristian Laettner
p1087
assbag1
(g2
g3
Ntp1088
Rp1089
(dp1090
g7
(dp1091
g9
V1999-00 SkyBox Premium Star Rubies #49 Jerry Stackhouse
p1092
sg11
I45
sg12
VSkyBox Premium Star Rubies
p1093
sg14
(lp1094
Vhttp://www.beckett.com/basketball/1999-00/skybox-premium-star-rubies/49-jerry-stackhouse-3195627
p1095
asg17
g18
sg19
(lp1096
Vhttp://img.beckett.com/images/no-image.jpg
p1097
asg22
V#49
p1098
sg24
V1999-00
p1099
sg26
g27
sg28
(lp1100
VJerry Stackhouse
p1101
assbag1
(g2
g3
Ntp1102
Rp1103
(dp1104
g7
(dp1105
g9
V1999-00 SPx Radiance #19 Grant Hill
p1106
sg11
I100
sg12
VSPx Radiance
p1107
sg14
(lp1108
Vhttp://www.beckett.com/basketball/1999-00/spx-radiance/19-grant-hill-3193232
p1109
asg17
g18
sg19
(lp1110
Vhttp://img.beckett.com/images/no-image.jpg
p1111
asg22
V#19
p1112
sg24
V1999-00
p1113
sg26
g27
sg28
(lp1114
VGrant Hill
p1115
assbag1
(g2
g3
Ntp1116
Rp1117
(dp1118
g7
(dp1119
g9
V1999-00 SPx Radiance #20 Jerry Stackhouse
p1120
sg11
I100
sg12
VSPx Radiance
p1121
sg14
(lp1122
Vhttp://www.beckett.com/basketball/1999-00/spx-radiance/20-jerry-stackhouse-3193233
p1123
asg17
g18
sg19
(lp1124
Vhttp://img.beckett.com/images/no-image.jpg
p1125
asg22
V#20
p1126
sg24
V1999-00
p1127
sg26
g27
sg28
(lp1128
VJerry Stackhouse
p1129
assbag1
(g2
g3
Ntp1130
Rp1131
(dp1132
g7
(dp1133
g9
V1999-00 SPx Radiance #21 Bison Dele
p1134
sg11
I100
sg12
VSPx Radiance
p1135
sg14
(lp1136
Vhttp://www.beckett.com/basketball/1999-00/spx-radiance/21-bison-dele-3193234
p1137
asg17
g18
sg19
(lp1138
Vhttp://img.beckett.com/images/no-image.jpg
p1139
asg22
V#21
p1140
sg24
V1999-00
p1141
sg26
g27
sg28
(lp1142
VBison Dele
p1143
assbag1
(g2
g3
Ntp1144
Rp1145
(dp1146
g7
(dp1147
g9
V1999-00 SPx Radiance #22 Lindsey Hunter
p1148
sg11
I100
sg12
VSPx Radiance
p1149
sg14
(lp1150
Vhttp://www.beckett.com/basketball/1999-00/spx-radiance/22-lindsey-hunter-3193235
p1151
asg17
g18
sg19
(lp1152
Vhttp://img.beckett.com/images/no-image.jpg
p1153
asg22
V#22
p1154
sg24
V1999-00
p1155
sg26
g27
sg28
(lp1156
VLindsey Hunter
p1157
assbag1
(g2
g3
Ntp1158
Rp1159
(dp1160
g7
(dp1161
g9
V1999-00 SPx Spectrum #19 Grant Hill
p1162
sg11
I1
sg12
VSPx Spectrum
p1163
sg14
(lp1164
Vhttp://www.beckett.com/basketball/1999-00/spx-spectrum/19-grant-hill-3193357
p1165
asg17
g18
sg19
(lp1166
Vhttp://img.beckett.com/images/no-image.jpg
p1167
asg22
V#19
p1168
sg24
V1999-00
p1169
sg26
g27
sg28
(lp1170
VGrant Hill
p1171
assbag1
(g2
g3
Ntp1172
Rp1173
(dp1174
g7
(dp1175
g9
V1999-00 SPx Spectrum #20 Jerry Stackhouse
p1176
sg11
I1
sg12
VSPx Spectrum
p1177
sg14
(lp1178
Vhttp://www.beckett.com/basketball/1999-00/spx-spectrum/20-jerry-stackhouse-3193358
p1179
asg17
g18
sg19
(lp1180
Vhttp://img.beckett.com/images/no-image.jpg
p1181
asg22
V#20
p1182
sg24
V1999-00
p1183
sg26
g27
sg28
(lp1184
VJerry Stackhouse
p1185
assbag1
(g2
g3
Ntp1186
Rp1187
(dp1188
g7
(dp1189
g9
V1999-00 SPx Spectrum #21 Bison Dele
p1190
sg11
I1
sg12
VSPx Spectrum
p1191
sg14
(lp1192
Vhttp://www.beckett.com/basketball/1999-00/spx-spectrum/21-bison-dele-3193359
p1193
asg17
g18
sg19
(lp1194
Vhttp://img.beckett.com/images/no-image.jpg
p1195
asg22
V#21
p1196
sg24
V1999-00
p1197
sg26
g27
sg28
(lp1198
VBison Dele
p1199
assbag1
(g2
g3
Ntp1200
Rp1201
(dp1202
g7
(dp1203
g9
V1999-00 SPx Spectrum #22 Lindsey Hunter
p1204
sg11
I1
sg12
VSPx Spectrum
p1205
sg14
(lp1206
Vhttp://www.beckett.com/basketball/1999-00/spx-spectrum/22-lindsey-hunter-3193360
p1207
asg17
g18
sg19
(lp1208
Vhttp://img.beckett.com/images/no-image.jpg
p1209
asg22
V#22
p1210
sg24
V1999-00
p1211
sg26
g27
sg28
(lp1212
VLindsey Hunter
p1213
assbag1
(g2
g3
Ntp1214
Rp1215
(dp1216
g7
(dp1217
g9
V1999-00 Stadium Club First Day Issue #17 Christian Laettner
p1218
sg11
I150
sg12
VStadium Club First Day Issue
p1219
sg14
(lp1220
Vhttp://www.beckett.com/basketball/1999-00/stadium-club-first-day-issue/17-christian-laettner-3193851
p1221
asg17
g18
sg19
(lp1222
Vhttp://img.beckett.com/images/no-image.jpg
p1223
asg22
V#17
p1224
sg24
V1999-00
p1225
sg26
g27
sg28
(lp1226
VChristian Laettner
p1227
assbag1
(g2
g3
Ntp1228
Rp1229
(dp1230
g7
(dp1231
g9
V1999-00 Stadium Club First Day Issue #42 Jud Buechler
p1232
sg11
I150
sg12
VStadium Club First Day Issue
p1233
sg14
(lp1234
Vhttp://www.beckett.com/basketball/1999-00/stadium-club-first-day-issue/42-jud-buechler-3193876
p1235
asg17
g18
sg19
(lp1236
Vhttp://img.beckett.com/images/no-image.jpg
p1237
asg22
V#42
p1238
sg24
V1999-00
p1239
sg26
g27
sg28
(lp1240
VJud Buechler
p1241
assbag1
(g2
g3
Ntp1242
Rp1243
(dp1244
g7
(dp1245
g9
V1999-00 Stadium Club First Day Issue #51 Jerome Williams
p1246
sg11
I150
sg12
VStadium Club First Day Issue
p1247
sg14
(lp1248
Vhttp://www.beckett.com/basketball/1999-00/stadium-club-first-day-issue/51-jerome-williams-3193885
p1249
asg17
g18
sg19
(lp1250
Vhttp://img.beckett.com/images/no-image.jpg
p1251
asg22
V#51
p1252
sg24
V1999-00
p1253
sg26
g27
sg28
(lp1254
VJerome Williams
p1255
assbag1
(g2
g3
Ntp1256
Rp1257
(dp1258
g7
(dp1259
g9
V1999-00 Stadium Club First Day Issue #56 Grant Hill
p1260
sg11
I150
sg12
VStadium Club First Day Issue
p1261
sg14
(lp1262
Vhttp://www.beckett.com/basketball/1999-00/stadium-club-first-day-issue/56-grant-hill-3193890
p1263
asg17
g18
sg19
(lp1264
Vhttp://img.beckett.com/images/no-image.jpg
p1265
asg22
V#56
p1266
sg24
V1999-00
p1267
sg26
g27
sg28
(lp1268
VGrant Hill
p1269
assbag1
(g2
g3
Ntp1270
Rp1271
(dp1272
g7
(dp1273
g9
V1999-00 Stadium Club First Day Issue #75 Lindsey Hunter
p1274
sg11
I150
sg12
VStadium Club First Day Issue
p1275
sg14
(lp1276
Vhttp://www.beckett.com/basketball/1999-00/stadium-club-first-day-issue/75-lindsey-hunter-3193909
p1277
asg17
g18
sg19
(lp1278
Vhttp://img.beckett.com/images/no-image.jpg
p1279
asg22
V#75
p1280
sg24
V1999-00
p1281
sg26
g27
sg28
(lp1282
VLindsey Hunter
p1283
assbag1
(g2
g3
Ntp1284
Rp1285
(dp1286
g7
(dp1287
g9
V1999-00 Stadium Club First Day Issue #122 Jerry Stackhouse
p1288
sg11
I150
sg12
VStadium Club First Day Issue
p1289
sg14
(lp1290
Vhttp://www.beckett.com/basketball/1999-00/stadium-club-first-day-issue/122-jerry-stackhouse-3193956
p1291
asg17
g18
sg19
(lp1292
Vhttp://img.beckett.com/images/no-image.jpg
p1293
asg22
V#122
p1294
sg24
V1999-00
p1295
sg26
g27
sg28
(lp1296
VJerry Stackhouse
p1297
assbag1
(g2
g3
Ntp1298
Rp1299
(dp1300
g7
(dp1301
g9
V1999-00 Stadium Club One of a Kind #17 Christian Laettner
p1302
sg11
I150
sg12
VStadium Club One of a Kind
p1303
sg14
(lp1304
Vhttp://www.beckett.com/basketball/1999-00/stadium-club-one-of-a-kind/17-christian-laettner-3194063
p1305
asg17
g18
sg19
(lp1306
Vhttp://img.beckett.com/images/items_stock/185226/3194036/3194063/front.jpg
p1307
asg22
V#17
p1308
sg24
V1999-00
p1309
sg26
g27
sg28
(lp1310
VChristian Laettner
p1311
assbag1
(g2
g3
Ntp1312
Rp1313
(dp1314
g7
(dp1315
g9
V1999-00 Stadium Club One of a Kind #42 Jud Buechler
p1316
sg11
I150
sg12
VStadium Club One of a Kind
p1317
sg14
(lp1318
Vhttp://www.beckett.com/basketball/1999-00/stadium-club-one-of-a-kind/42-jud-buechler-3194088
p1319
asg17
g18
sg19
(lp1320
Vhttp://img.beckett.com/images/items_stock/185226/3194036/3194088/front.jpg
p1321
asg22
V#42
p1322
sg24
V1999-00
p1323
sg26
g27
sg28
(lp1324
VJud Buechler
p1325
assbag1
(g2
g3
Ntp1326
Rp1327
(dp1328
g7
(dp1329
g9
V1999-00 Stadium Club One of a Kind #51 Jerome Williams
p1330
sg11
I150
sg12
VStadium Club One of a Kind
p1331
sg14
(lp1332
Vhttp://www.beckett.com/basketball/1999-00/stadium-club-one-of-a-kind/51-jerome-williams-3194097
p1333
asg17
g18
sg19
(lp1334
Vhttp://img.beckett.com/images/items_stock/185226/3194036/3194097/front.jpg
p1335
asg22
V#51
p1336
sg24
V1999-00
p1337
sg26
g27
sg28
(lp1338
VJerome Williams
p1339
assbag1
(g2
g3
Ntp1340
Rp1341
(dp1342
g7
(dp1343
g9
V1999-00 Stadium Club One of a Kind #56 Grant Hill
p1344
sg11
I150
sg12
VStadium Club One of a Kind
p1345
sg14
(lp1346
Vhttp://www.beckett.com/basketball/1999-00/stadium-club-one-of-a-kind/56-grant-hill-3194102
p1347
asg17
g18
sg19
(lp1348
Vhttp://img.beckett.com/images/no-image.jpg
p1349
asg22
V#56
p1350
sg24
V1999-00
p1351
sg26
g27
sg28
(lp1352
VGrant Hill
p1353
assbag1
(g2
g3
Ntp1354
Rp1355
(dp1356
g7
(dp1357
g9
V1999-00 Stadium Club One of a Kind #75 Lindsey Hunter
p1358
sg11
I150
sg12
VStadium Club One of a Kind
p1359
sg14
(lp1360
Vhttp://www.beckett.com/basketball/1999-00/stadium-club-one-of-a-kind/75-lindsey-hunter-3194121
p1361
asg17
g18
sg19
(lp1362
Vhttp://img.beckett.com/images/no-image.jpg
p1363
asg22
V#75
p1364
sg24
V1999-00
p1365
sg26
g27
sg28
(lp1366
VLindsey Hunter
p1367
assbag1
(g2
g3
Ntp1368
Rp1369
(dp1370
g7
(dp1371
g9
V1999-00 Stadium Club One of a Kind #122 Jerry Stackhouse
p1372
sg11
I150
sg12
VStadium Club One of a Kind
p1373
sg14
(lp1374
Vhttp://www.beckett.com/basketball/1999-00/stadium-club-one-of-a-kind/122-jerry-stackhouse-3194168
p1375
asg17
g18
sg19
(lp1376
Vhttp://img.beckett.com/images/no-image.jpg
p1377
asg22
V#122
p1378
sg24
V1999-00
p1379
sg26
g27
sg28
(lp1380
VJerry Stackhouse
p1381
assbag1
(g2
g3
Ntp1382
Rp1383
(dp1384
g7
(dp1385
g9
V1999-00 Stadium Club Printing Plates #17A Christian Laettner Black
p1386
sg11
I1
sg12
VStadium Club Printing Plates
p1387
sg14
(lp1388
Vhttp://www.beckett.com/basketball/1999-00/stadium-club-printing-plates/17a-christian-laettner-black-3194318
p1389
asg17
g18
sg19
(lp1390
Vhttp://img.beckett.com/images/no-image.jpg
p1391
asg22
V#17A
p1392
sg24
V1999-00
p1393
sg26
g27
sg28
(lp1394
VChristian Laettner
p1395
assbag1
(g2
g3
Ntp1396
Rp1397
(dp1398
g7
(dp1399
g9
V1999-00 Stadium Club Printing Plates #17B Christian Laettner Cyan
p1400
sg11
I1
sg12
VStadium Club Printing Plates
p1401
sg14
(lp1402
Vhttp://www.beckett.com/basketball/1999-00/stadium-club-printing-plates/17b-christian-laettner-cyan-3194319
p1403
asg17
g18
sg19
(lp1404
Vhttp://img.beckett.com/images/no-image.jpg
p1405
asg22
V#17B
p1406
sg24
V1999-00
p1407
sg26
g27
sg28
(lp1408
g1395
assbag1
(g2
g3
Ntp1409
Rp1410
(dp1411
g7
(dp1412
g9
V1999-00 Stadium Club Printing Plates #17C Christian Laettner Magenta
p1413
sg11
I1
sg12
VStadium Club Printing Plates
p1414
sg14
(lp1415
Vhttp://www.beckett.com/basketball/1999-00/stadium-club-printing-plates/17c-christian-laettner-magenta-3194320
p1416
asg17
g18
sg19
(lp1417
Vhttp://img.beckett.com/images/no-image.jpg
p1418
asg22
V#17C
p1419
sg24
V1999-00
p1420
sg26
g27
sg28
(lp1421
g1395
assbag1
(g2
g3
Ntp1422
Rp1423
(dp1424
g7
(dp1425
g9
V1999-00 Stadium Club Printing Plates #17D Christian Laettner Yellow
p1426
sg11
I1
sg12
VStadium Club Printing Plates
p1427
sg14
(lp1428
Vhttp://www.beckett.com/basketball/1999-00/stadium-club-printing-plates/17d-christian-laettner-yellow-3194321
p1429
asg17
g18
sg19
(lp1430
Vhttp://img.beckett.com/images/no-image.jpg
p1431
asg22
V#17D
p1432
sg24
V1999-00
p1433
sg26
g27
sg28
(lp1434
g1395
assbag1
(g2
g3
Ntp1435
Rp1436
(dp1437
g7
(dp1438
g9
V1999-00 Stadium Club Printing Plates #42A Jud Buechler Black
p1439
sg11
I1
sg12
VStadium Club Printing Plates
p1440
sg14
(lp1441
Vhttp://www.beckett.com/basketball/1999-00/stadium-club-printing-plates/42a-jud-buechler-black-3194418
p1442
asg17
g18
sg19
(lp1443
Vhttp://img.beckett.com/images/no-image.jpg
p1444
asg22
V#42A
p1445
sg24
V1999-00
p1446
sg26
g27
sg28
(lp1447
VJud Buechler
p1448
assbag1
(g2
g3
Ntp1449
Rp1450
(dp1451
g7
(dp1452
g9
V1999-00 Stadium Club Printing Plates #42B Jud Buechler Cyan
p1453
sg11
I1
sg12
VStadium Club Printing Plates
p1454
sg14
(lp1455
Vhttp://www.beckett.com/basketball/1999-00/stadium-club-printing-plates/42b-jud-buechler-cyan-3194419
p1456
asg17
g18
sg19
(lp1457
Vhttp://img.beckett.com/images/no-image.jpg
p1458
asg22
V#42B
p1459
sg24
V1999-00
p1460
sg26
g27
sg28
(lp1461
g1448
assbag1
(g2
g3
Ntp1462
Rp1463
(dp1464
g7
(dp1465
g9
V1999-00 Stadium Club Printing Plates #42C Jud Buechler Magenta
p1466
sg11
I1
sg12
VStadium Club Printing Plates
p1467
sg14
(lp1468
Vhttp://www.beckett.com/basketball/1999-00/stadium-club-printing-plates/42c-jud-buechler-magenta-3194420
p1469
asg17
g18
sg19
(lp1470
Vhttp://img.beckett.com/images/no-image.jpg
p1471
asg22
V#42C
p1472
sg24
V1999-00
p1473
sg26
g27
sg28
(lp1474
g1448
assbag1
(g2
g3
Ntp1475
Rp1476
(dp1477
g7
(dp1478
g9
V1999-00 Stadium Club Printing Plates #42D Jud Buechler Yellow
p1479
sg11
I1
sg12
VStadium Club Printing Plates
p1480
sg14
(lp1481
Vhttp://www.beckett.com/basketball/1999-00/stadium-club-printing-plates/42d-jud-buechler-yellow-3194421
p1482
asg17
g18
sg19
(lp1483
Vhttp://img.beckett.com/images/no-image.jpg
p1484
asg22
V#42D
p1485
sg24
V1999-00
p1486
sg26
g27
sg28
(lp1487
g1448
assbag1
(g2
g3
Ntp1488
Rp1489
(dp1490
g7
(dp1491
g9
V1999-00 Stadium Club Printing Plates #51A Jerome Williams Black
p1492
sg11
I1
sg12
VStadium Club Printing Plates
p1493
sg14
(lp1494
Vhttp://www.beckett.com/basketball/1999-00/stadium-club-printing-plates/51a-jerome-williams-black-3194454
p1495
asg17
g18
sg19
(lp1496
Vhttp://img.beckett.com/images/no-image.jpg
p1497
asg22
V#51A
p1498
sg24
V1999-00
p1499
sg26
g27
sg28
(lp1500
VJerome Williams
p1501
assbag1
(g2
g3
Ntp1502
Rp1503
(dp1504
g7
(dp1505
g9
V1999-00 Stadium Club Printing Plates #51B Jerome Williams Cyan
p1506
sg11
I1
sg12
VStadium Club Printing Plates
p1507
sg14
(lp1508
Vhttp://www.beckett.com/basketball/1999-00/stadium-club-printing-plates/51b-jerome-williams-cyan-3194455
p1509
asg17
g18
sg19
(lp1510
Vhttp://img.beckett.com/images/no-image.jpg
p1511
asg22
V#51B
p1512
sg24
V1999-00
p1513
sg26
g27
sg28
(lp1514
g1501
assbag1
(g2
g3
Ntp1515
Rp1516
(dp1517
g7
(dp1518
g9
V1999-00 Stadium Club Printing Plates #51C Jerome Williams Magenta
p1519
sg11
I1
sg12
VStadium Club Printing Plates
p1520
sg14
(lp1521
Vhttp://www.beckett.com/basketball/1999-00/stadium-club-printing-plates/51c-jerome-williams-magenta-3194456
p1522
asg17
g18
sg19
(lp1523
Vhttp://img.beckett.com/images/no-image.jpg
p1524
asg22
V#51C
p1525
sg24
V1999-00
p1526
sg26
g27
sg28
(lp1527
g1501
assbag1
(g2
g3
Ntp1528
Rp1529
(dp1530
g7
(dp1531
g9
V1999-00 Stadium Club Printing Plates #51D Jerome Williams Yellow
p1532
sg11
I1
sg12
VStadium Club Printing Plates
p1533
sg14
(lp1534
Vhttp://www.beckett.com/basketball/1999-00/stadium-club-printing-plates/51d-jerome-williams-yellow-3194457
p1535
asg17
g18
sg19
(lp1536
Vhttp://img.beckett.com/images/no-image.jpg
p1537
asg22
V#51D
p1538
sg24
V1999-00
p1539
sg26
g27
sg28
(lp1540
g1501
assbag1
(g2
g3
Ntp1541
Rp1542
(dp1543
g7
(dp1544
g9
V1999-00 Stadium Club Printing Plates #56A Grant Hill Black
p1545
sg11
I1
sg12
VStadium Club Printing Plates
p1546
sg14
(lp1547
Vhttp://www.beckett.com/basketball/1999-00/stadium-club-printing-plates/56a-grant-hill-black-3194474
p1548
asg17
g18
sg19
(lp1549
Vhttp://img.beckett.com/images/no-image.jpg
p1550
asg22
V#56A
p1551
sg24
V1999-00
p1552
sg26
g27
sg28
(lp1553
VGrant Hill
p1554
assbag1
(g2
g3
Ntp1555
Rp1556
(dp1557
g7
(dp1558
g9
V1999-00 Stadium Club Printing Plates #56B Grant Hill Cyan
p1559
sg11
I1
sg12
VStadium Club Printing Plates
p1560
sg14
(lp1561
Vhttp://www.beckett.com/basketball/1999-00/stadium-club-printing-plates/56b-grant-hill-cyan-3194475
p1562
asg17
g18
sg19
(lp1563
Vhttp://img.beckett.com/images/no-image.jpg
p1564
asg22
V#56B
p1565
sg24
V1999-00
p1566
sg26
g27
sg28
(lp1567
g1554
assbag1
(g2
g3
Ntp1568
Rp1569
(dp1570
g7
(dp1571
g9
V1999-00 Stadium Club Printing Plates #56C Grant Hill Magenta
p1572
sg11
I1
sg12
VStadium Club Printing Plates
p1573
sg14
(lp1574
Vhttp://www.beckett.com/basketball/1999-00/stadium-club-printing-plates/56c-grant-hill-magenta-3194476
p1575
asg17
g18
sg19
(lp1576
Vhttp://img.beckett.com/images/no-image.jpg
p1577
asg22
V#56C
p1578
sg24
V1999-00
p1579
sg26
g27
sg28
(lp1580
g1554
assbag1
(g2
g3
Ntp1581
Rp1582
(dp1583
g7
(dp1584
g9
V1999-00 Stadium Club Printing Plates #56D Grant Hill Yellow
p1585
sg11
I1
sg12
VStadium Club Printing Plates
p1586
sg14
(lp1587
Vhttp://www.beckett.com/basketball/1999-00/stadium-club-printing-plates/56d-grant-hill-yellow-3194477
p1588
asg17
g18
sg19
(lp1589
Vhttp://img.beckett.com/images/no-image.jpg
p1590
asg22
V#56D
p1591
sg24
V1999-00
p1592
sg26
g27
sg28
(lp1593
g1554
assbag1
(g2
g3
Ntp1594
Rp1595
(dp1596
g7
(dp1597
g9
V1999-00 Stadium Club Printing Plates #75A Lindsey Hunter Black
p1598
sg11
I1
sg12
VStadium Club Printing Plates
p1599
sg14
(lp1600
Vhttp://www.beckett.com/basketball/1999-00/stadium-club-printing-plates/75a-lindsey-hunter-black-3194550
p1601
asg17
g18
sg19
(lp1602
Vhttp://img.beckett.com/images/no-image.jpg
p1603
asg22
V#75A
p1604
sg24
V1999-00
p1605
sg26
g27
sg28
(lp1606
VLindsey Hunter
p1607
assbag1
(g2
g3
Ntp1608
Rp1609
(dp1610
g7
(dp1611
g9
V1999-00 Stadium Club Printing Plates #75B Lindsey Hunter Cyan
p1612
sg11
I1
sg12
VStadium Club Printing Plates
p1613
sg14
(lp1614
Vhttp://www.beckett.com/basketball/1999-00/stadium-club-printing-plates/75b-lindsey-hunter-cyan-3194551
p1615
asg17
g18
sg19
(lp1616
Vhttp://img.beckett.com/images/no-image.jpg
p1617
asg22
V#75B
p1618
sg24
V1999-00
p1619
sg26
g27
sg28
(lp1620
g1607
assbag1
(g2
g3
Ntp1621
Rp1622
(dp1623
g7
(dp1624
g9
V1999-00 Stadium Club Printing Plates #75C Lindsey Hunter Magenta
p1625
sg11
I1
sg12
VStadium Club Printing Plates
p1626
sg14
(lp1627
Vhttp://www.beckett.com/basketball/1999-00/stadium-club-printing-plates/75c-lindsey-hunter-magenta-3194552
p1628
asg17
g18
sg19
(lp1629
Vhttp://img.beckett.com/images/no-image.jpg
p1630
asg22
V#75C
p1631
sg24
V1999-00
p1632
sg26
g27
sg28
(lp1633
g1607
assbag1
(g2
g3
Ntp1634
Rp1635
(dp1636
g7
(dp1637
g9
V1999-00 Stadium Club Printing Plates #75D Lindsey Hunter Yellow
p1638
sg11
I1
sg12
VStadium Club Printing Plates
p1639
sg14
(lp1640
Vhttp://www.beckett.com/basketball/1999-00/stadium-club-printing-plates/75d-lindsey-hunter-yellow-3194553
p1641
asg17
g18
sg19
(lp1642
Vhttp://img.beckett.com/images/no-image.jpg
p1643
asg22
V#75D
p1644
sg24
V1999-00
p1645
sg26
g27
sg28
(lp1646
g1607
assbag1
(g2
g3
Ntp1647
Rp1648
(dp1649
g7
(dp1650
g9
V1999-00 Stadium Club Printing Plates #122A Jerry Stackhouse Black
p1651
sg11
I1
sg12
VStadium Club Printing Plates
p1652
sg14
(lp1653
Vhttp://www.beckett.com/basketball/1999-00/stadium-club-printing-plates/122a-jerry-stackhouse-black-3194738
p1654
asg17
g18
sg19
(lp1655
Vhttp://img.beckett.com/images/no-image.jpg
p1656
asg22
V#122A
p1657
sg24
V1999-00
p1658
sg26
g27
sg28
(lp1659
VJerry Stackhouse
p1660
assbag1
(g2
g3
Ntp1661
Rp1662
(dp1663
g7
(dp1664
g9
V1999-00 Stadium Club Printing Plates #122B Jerry Stackhouse Cyan
p1665
sg11
I1
sg12
VStadium Club Printing Plates
p1666
sg14
(lp1667
Vhttp://www.beckett.com/basketball/1999-00/stadium-club-printing-plates/122b-jerry-stackhouse-cyan-3194739
p1668
asg17
g18
sg19
(lp1669
Vhttp://img.beckett.com/images/no-image.jpg
p1670
asg22
V#122B
p1671
sg24
V1999-00
p1672
sg26
g27
sg28
(lp1673
g1660
assbag1
(g2
g3
Ntp1674
Rp1675
(dp1676
g7
(dp1677
g9
V1999-00 Stadium Club Printing Plates #122C Jerry Stackhouse Magenta
p1678
sg11
I1
sg12
VStadium Club Printing Plates
p1679
sg14
(lp1680
Vhttp://www.beckett.com/basketball/1999-00/stadium-club-printing-plates/122c-jerry-stackhouse-magenta-3194740
p1681
asg17
g18
sg19
(lp1682
Vhttp://img.beckett.com/images/no-image.jpg
p1683
asg22
V#122C
p1684
sg24
V1999-00
p1685
sg26
g27
sg28
(lp1686
g1660
assbag1
(g2
g3
Ntp1687
Rp1688
(dp1689
g7
(dp1690
g9
V1999-00 Stadium Club Printing Plates #122D Jerry Stackhouse Yellow
p1691
sg11
I1
sg12
VStadium Club Printing Plates
p1692
sg14
(lp1693
Vhttp://www.beckett.com/basketball/1999-00/stadium-club-printing-plates/122d-jerry-stackhouse-yellow-3194741
p1694
asg17
g18
sg19
(lp1695
Vhttp://img.beckett.com/images/no-image.jpg
p1696
asg22
V#122D
p1697
sg24
V1999-00
p1698
sg26
g27
sg28
(lp1699
g1660
assbag1
(g2
g3
Ntp1700
Rp1701
(dp1702
g7
(dp1703
g9
V1999-00 Stadium Club Chrome First Day Issue #13 Christian Laettner
p1704
sg11
I100
sg12
VStadium Club Chrome First Day Issue
p1705
sg14
(lp1706
Vhttp://www.beckett.com/basketball/1999-00/stadium-club-chrome-first-day-issue/13-christian-laettner-3192413
p1707
asg17
g18
sg19
(lp1708
Vhttp://img.beckett.com/images/no-image.jpg
p1709
asg22
V#13
p1710
sg24
V1999-00
p1711
sg26
g27
sg28
(lp1712
VChristian Laettner
p1713
assbag1
(g2
g3
Ntp1714
Rp1715
(dp1716
g7
(dp1717
g9
V1999-00 Stadium Club Chrome First Day Issue #37 Jerome Williams
p1718
sg11
I100
sg12
VStadium Club Chrome First Day Issue
p1719
sg14
(lp1720
Vhttp://www.beckett.com/basketball/1999-00/stadium-club-chrome-first-day-issue/37-jerome-williams-3192437
p1721
asg17
g18
sg19
(lp1722
Vhttp://img.beckett.com/images/items_stock/185226/3192391/3192437/front.jpg
p1723
asg22
V#37
p1724
sg24
V1999-00
p1725
sg26
g27
sg28
(lp1726
VJerome Williams
p1727
assbag1
(g2
g3
Ntp1728
Rp1729
(dp1730
g7
(dp1731
g9
V1999-00 Stadium Club Chrome First Day Issue #40 Grant Hill
p1732
sg11
I100
sg12
VStadium Club Chrome First Day Issue
p1733
sg14
(lp1734
Vhttp://www.beckett.com/basketball/1999-00/stadium-club-chrome-first-day-issue/40-grant-hill-3192440
p1735
asg17
g18
sg19
(lp1736
Vhttp://img.beckett.com/images/no-image.jpg
p1737
asg22
V#40
p1738
sg24
V1999-00
p1739
sg26
g27
sg28
(lp1740
VGrant Hill
p1741
assbag1
(g2
g3
Ntp1742
Rp1743
(dp1744
g7
(dp1745
g9
V1999-00 Stadium Club Chrome First Day Issue #54 Lindsey Hunter
p1746
sg11
I100
sg12
VStadium Club Chrome First Day Issue
p1747
sg14
(lp1748
Vhttp://www.beckett.com/basketball/1999-00/stadium-club-chrome-first-day-issue/54-lindsey-hunter-3192454
p1749
asg17
g18
sg19
(lp1750
Vhttp://img.beckett.com/images/no-image.jpg
p1751
asg22
V#54
p1752
sg24
V1999-00
p1753
sg26
g27
sg28
(lp1754
VLindsey Hunter
p1755
assbag1
(g2
g3
Ntp1756
Rp1757
(dp1758
g7
(dp1759
g9
V1999-00 Stadium Club Chrome First Day Issue #91 Jerry Stackhouse
p1760
sg11
I100
sg12
VStadium Club Chrome First Day Issue
p1761
sg14
(lp1762
Vhttp://www.beckett.com/basketball/1999-00/stadium-club-chrome-first-day-issue/91-jerry-stackhouse-3192491
p1763
asg17
g18
sg19
(lp1764
Vhttp://img.beckett.com/images/no-image.jpg
p1765
asg22
V#91
p1766
sg24
V1999-00
p1767
sg26
g27
sg28
(lp1768
VJerry Stackhouse
p1769
assbag1
(g2
g3
Ntp1770
Rp1771
(dp1772
g7
(dp1773
g9
V1999-00 Stadium Club Chrome First Day Issue Refractors #13 Christian Laettner
p1774
sg11
I25
sg12
VStadium Club Chrome First Day Issue Refractors
p1775
sg14
(lp1776
Vhttp://www.beckett.com/basketball/1999-00/stadium-club-chrome-first-day-issue-refractors/13-christian-laettner-3192573
p1777
asg17
g18
sg19
(lp1778
Vhttp://img.beckett.com/images/no-image.jpg
p1779
asg22
V#13
p1780
sg24
V1999-00
p1781
sg26
g27
sg28
(lp1782
VChristian Laettner
p1783
assbag1
(g2
g3
Ntp1784
Rp1785
(dp1786
g7
(dp1787
g9
V1999-00 Stadium Club Chrome First Day Issue Refractors #37 Jerome Williams
p1788
sg11
I25
sg12
VStadium Club Chrome First Day Issue Refractors
p1789
sg14
(lp1790
Vhttp://www.beckett.com/basketball/1999-00/stadium-club-chrome-first-day-issue-refractors/37-jerome-williams-3192597
p1791
asg17
g18
sg19
(lp1792
Vhttp://img.beckett.com/images/no-image.jpg
p1793
asg22
V#37
p1794
sg24
V1999-00
p1795
sg26
g27
sg28
(lp1796
VJerome Williams
p1797
assbag1
(g2
g3
Ntp1798
Rp1799
(dp1800
g7
(dp1801
g9
V1999-00 Stadium Club Chrome First Day Issue Refractors #40 Grant Hill
p1802
sg11
I25
sg12
VStadium Club Chrome First Day Issue Refractors
p1803
sg14
(lp1804
Vhttp://www.beckett.com/basketball/1999-00/stadium-club-chrome-first-day-issue-refractors/40-grant-hill-3192600
p1805
asg17
g18
sg19
(lp1806
Vhttp://img.beckett.com/images/no-image.jpg
p1807
asg22
V#40
p1808
sg24
V1999-00
p1809
sg26
g27
sg28
(lp1810
VGrant Hill
p1811
assbag1
(g2
g3
Ntp1812
Rp1813
(dp1814
g7
(dp1815
g9
V1999-00 Stadium Club Chrome First Day Issue Refractors #54 Lindsey Hunter
p1816
sg11
I25
sg12
VStadium Club Chrome First Day Issue Refractors
p1817
sg14
(lp1818
Vhttp://www.beckett.com/basketball/1999-00/stadium-club-chrome-first-day-issue-refractors/54-lindsey-hunter-3192614
p1819
asg17
g18
sg19
(lp1820
Vhttp://img.beckett.com/images/no-image.jpg
p1821
asg22
V#54
p1822
sg24
V1999-00
p1823
sg26
g27
sg28
(lp1824
VLindsey Hunter
p1825
assbag1
(g2
g3
Ntp1826
Rp1827
(dp1828
g7
(dp1829
g9
V1999-00 Stadium Club Chrome First Day Issue Refractors #91 Jerry Stackhouse
p1830
sg11
I25
sg12
VStadium Club Chrome First Day Issue Refractors
p1831
sg14
(lp1832
Vhttp://www.beckett.com/basketball/1999-00/stadium-club-chrome-first-day-issue-refractors/91-jerry-stackhouse-3192651
p1833
asg17
g18
sg19
(lp1834
Vhttp://img.beckett.com/images/no-image.jpg
p1835
asg22
V#91
p1836
sg24
V1999-00
p1837
sg26
g27
sg28
(lp1838
VJerry Stackhouse
p1839
assbag1
(g2
g3
Ntp1840
Rp1841
(dp1842
g7
(dp1843
g9
V1999-00 Topps Gallery Player's Private Issue #5 Jerry Stackhouse
p1844
sg11
I250
sg12
VTopps Gallery Player's Private Issue
p1845
sg14
(lp1846
Vhttp://www.beckett.com/basketball/1999-00/topps-gallery-players-private-issue/5-jerry-stackhouse-3190799
p1847
asg17
g18
sg19
(lp1848
Vhttp://img.beckett.com/images/no-image.jpg
p1849
asg22
V#5
p1850
sg24
V1999-00
p1851
sg26
g27
sg28
(lp1852
VJerry Stackhouse
p1853
assbag1
(g2
g3
Ntp1854
Rp1855
(dp1856
g7
(dp1857
g9
V1999-00 Topps Gallery Player's Private Issue #32 Christian Laettner
p1858
sg11
I250
sg12
VTopps Gallery Player's Private Issue
p1859
sg14
(lp1860
Vhttp://www.beckett.com/basketball/1999-00/topps-gallery-players-private-issue/32-christian-laettner-3190826
p1861
asg17
g18
sg19
(lp1862
Vhttp://img.beckett.com/images/no-image.jpg
p1863
asg22
V#32
p1864
sg24
V1999-00
p1865
sg26
g27
sg28
(lp1866
VChristian Laettner
p1867
assbag1
(g2
g3
Ntp1868
Rp1869
(dp1870
g7
(dp1871
g9
V1999-00 Topps Gallery Player's Private Issue #90 Grant Hill
p1872
sg11
I250
sg12
VTopps Gallery Player's Private Issue
p1873
sg14
(lp1874
Vhttp://www.beckett.com/basketball/1999-00/topps-gallery-players-private-issue/90-grant-hill-3190884
p1875
asg17
g18
sg19
(lp1876
Vhttp://img.beckett.com/images/no-image.jpg
p1877
asg22
V#90
p1878
sg24
V1999-00
p1879
sg26
g27
sg28
(lp1880
VGrant Hill
p1881
assbag1
(g2
g3
Ntp1882
Rp1883
(dp1884
g7
(dp1885
g9
V1999-00 Topps Gallery Player's Private Issue #107 Grant Hill MAS
p1886
sg11
I250
sg12
VTopps Gallery Player's Private Issue
p1887
sg14
(lp1888
Vhttp://www.beckett.com/basketball/1999-00/topps-gallery-players-private-issue/107-grant-hill-mas-3190901
p1889
asg17
g18
sg19
(lp1890
Vhttp://img.beckett.com/images/items_stock/185226/3190784/3190901/front.jpg
p1891
asg22
V#107
p1892
sg24
V1999-00
p1893
sg72
VMAS
p1894
sg26
g27
sg28
(lp1895
VGrant Hill
p1896
assbag1
(g2
g3
Ntp1897
Rp1898
(dp1899
g7
(dp1900
g9
V1999-00 Topps Gold Label Class 1 One to One #24 Lindsey Hunter
p1901
sg11
I1
sg12
VTopps Gold Label Class 1 One to One
p1902
sg14
(lp1903
Vhttp://www.beckett.com/basketball/1999-00/topps-gold-label-class-1-one-to-one/24-lindsey-hunter-3188742
p1904
asg17
g18
sg19
(lp1905
Vhttp://img.beckett.com/images/no-image.jpg
p1906
asg22
V#24
p1907
sg24
V1999-00
p1908
sg26
g27
sg28
(lp1909
VLindsey Hunter
p1910
assbag1
(g2
g3
Ntp1911
Rp1912
(dp1913
g7
(dp1914
g9
V1999-00 Topps Gold Label Class 1 One to One #38 Grant Hill
p1915
sg11
I1
sg12
VTopps Gold Label Class 1 One to One
p1916
sg14
(lp1917
Vhttp://www.beckett.com/basketball/1999-00/topps-gold-label-class-1-one-to-one/38-grant-hill-3188756
p1918
asg17
g18
sg19
(lp1919
Vhttp://img.beckett.com/images/no-image.jpg
p1920
asg22
V#38
p1921
sg24
V1999-00
p1922
sg26
g27
sg28
(lp1923
VGrant Hill
p1924
assbag1
(g2
g3
Ntp1925
Rp1926
(dp1927
g7
(dp1928
g9
V1999-00 Topps Gold Label Class 1 One to One #71 Jerry Stackhouse
p1929
sg11
I1
sg12
VTopps Gold Label Class 1 One to One
p1930
sg14
(lp1931
Vhttp://www.beckett.com/basketball/1999-00/topps-gold-label-class-1-one-to-one/71-jerry-stackhouse-3188789
p1932
asg17
g18
sg19
(lp1933
Vhttp://img.beckett.com/images/no-image.jpg
p1934
asg22
V#71
p1935
sg24
V1999-00
p1936
sg26
g27
sg28
(lp1937
VJerry Stackhouse
p1938
assbag1
(g2
g3
Ntp1939
Rp1940
(dp1941
g7
(dp1942
g9
V1999-00 Topps Gold Label Class 1 Red Label #24 Lindsey Hunter
p1943
sg11
I100
sg12
VTopps Gold Label Class 1 Red Label
p1944
sg14
(lp1945
Vhttp://www.beckett.com/basketball/1999-00/topps-gold-label-class-1-red-label/24-lindsey-hunter-3188852
p1946
asg17
g18
sg19
(lp1947
Vhttp://img.beckett.com/images/no-image.jpg
p1948
asg22
V#24
p1949
sg24
V1999-00
p1950
sg26
g27
sg28
(lp1951
VLindsey Hunter
p1952
assbag1
(g2
g3
Ntp1953
Rp1954
(dp1955
g7
(dp1956
g9
V1999-00 Topps Gold Label Class 1 Red Label #38 Grant Hill
p1957
sg11
I100
sg12
VTopps Gold Label Class 1 Red Label
p1958
sg14
(lp1959
Vhttp://www.beckett.com/basketball/1999-00/topps-gold-label-class-1-red-label/38-grant-hill-3188866
p1960
asg17
g18
sg19
(lp1961
Vhttp://img.beckett.com/images/no-image.jpg
p1962
asg22
V#38
p1963
sg24
V1999-00
p1964
sg26
g27
sg28
(lp1965
VGrant Hill
p1966
assbag1
(g2
g3
Ntp1967
Rp1968
(dp1969
g7
(dp1970
g9
V1999-00 Topps Gold Label Class 1 Red Label #71 Jerry Stackhouse
p1971
sg11
I100
sg12
VTopps Gold Label Class 1 Red Label
p1972
sg14
(lp1973
Vhttp://www.beckett.com/basketball/1999-00/topps-gold-label-class-1-red-label/71-jerry-stackhouse-3188899
p1974
asg17
g18
sg19
(lp1975
Vhttp://img.beckett.com/images/no-image.jpg
p1976
asg22
V#71
p1977
sg24
V1999-00
p1978
sg26
g27
sg28
(lp1979
VJerry Stackhouse
p1980
assbag1
(g2
g3
Ntp1981
Rp1982
(dp1983
g7
(dp1984
g9
V1999-00 Topps Gold Label Class 2 One to One #24 Lindsey Hunter
p1985
sg11
I1
sg12
VTopps Gold Label Class 2 One to One
p1986
sg14
(lp1987
Vhttp://www.beckett.com/basketball/1999-00/topps-gold-label-class-2-one-to-one/24-lindsey-hunter-3189188
p1988
asg17
g18
sg19
(lp1989
Vhttp://img.beckett.com/images/no-image.jpg
p1990
asg22
V#24
p1991
sg24
V1999-00
p1992
sg26
g27
sg28
(lp1993
VLindsey Hunter
p1994
assbag1
(g2
g3
Ntp1995
Rp1996
(dp1997
g7
(dp1998
g9
V1999-00 Topps Gold Label Class 2 One to One #38 Grant Hill
p1999
sg11
I1
sg12
VTopps Gold Label Class 2 One to One
p2000
sg14
(lp2001
Vhttp://www.beckett.com/basketball/1999-00/topps-gold-label-class-2-one-to-one/38-grant-hill-3189202
p2002
asg17
g18
sg19
(lp2003
Vhttp://img.beckett.com/images/no-image.jpg
p2004
asg22
V#38
p2005
sg24
V1999-00
p2006
sg26
g27
sg28
(lp2007
VGrant Hill
p2008
assbag1
(g2
g3
Ntp2009
Rp2010
(dp2011
g7
(dp2012
g9
V1999-00 Topps Gold Label Class 2 One to One #71 Jerry Stackhouse
p2013
sg11
I1
sg12
VTopps Gold Label Class 2 One to One
p2014
sg14
(lp2015
Vhttp://www.beckett.com/basketball/1999-00/topps-gold-label-class-2-one-to-one/71-jerry-stackhouse-3189235
p2016
asg17
g18
sg19
(lp2017
Vhttp://img.beckett.com/images/no-image.jpg
p2018
asg22
V#71
p2019
sg24
V1999-00
p2020
sg26
g27
sg28
(lp2021
VJerry Stackhouse
p2022
assbag1
(g2
g3
Ntp2023
Rp2024
(dp2025
g7
(dp2026
g9
V1999-00 Topps Gold Label Class 2 Red Label #24 Lindsey Hunter
p2027
sg11
I50
sg12
VTopps Gold Label Class 2 Red Label
p2028
sg14
(lp2029
Vhttp://www.beckett.com/basketball/1999-00/topps-gold-label-class-2-red-label/24-lindsey-hunter-3189298
p2030
asg17
g18
sg19
(lp2031
Vhttp://img.beckett.com/images/no-image.jpg
p2032
asg22
V#24
p2033
sg24
V1999-00
p2034
sg26
g27
sg28
(lp2035
VLindsey Hunter
p2036
assbag1
(g2
g3
Ntp2037
Rp2038
(dp2039
g7
(dp2040
g9
V1999-00 Topps Gold Label Class 2 Red Label #38 Grant Hill
p2041
sg11
I50
sg12
VTopps Gold Label Class 2 Red Label
p2042
sg14
(lp2043
Vhttp://www.beckett.com/basketball/1999-00/topps-gold-label-class-2-red-label/38-grant-hill-3189312
p2044
asg17
g18
sg19
(lp2045
Vhttp://img.beckett.com/images/no-image.jpg
p2046
asg22
V#38
p2047
sg24
V1999-00
p2048
sg26
g27
sg28
(lp2049
VGrant Hill
p2050
assbag1
(g2
g3
Ntp2051
Rp2052
(dp2053
g7
(dp2054
g9
V1999-00 Topps Gold Label Class 2 Red Label #71 Jerry Stackhouse
p2055
sg11
I50
sg12
VTopps Gold Label Class 2 Red Label
p2056
sg14
(lp2057
Vhttp://www.beckett.com/basketball/1999-00/topps-gold-label-class-2-red-label/71-jerry-stackhouse-3189345
p2058
asg17
g18
sg19
(lp2059
Vhttp://img.beckett.com/images/no-image.jpg
p2060
asg22
V#71
p2061
sg24
V1999-00
p2062
sg26
g27
sg28
(lp2063
VJerry Stackhouse
p2064
assbag1
(g2
g3
Ntp2065
Rp2066
(dp2067
g7
(dp2068
g9
V1999-00 Topps Gold Label Class 3 One to One #24 Lindsey Hunter
p2069
sg11
I1
sg12
VTopps Gold Label Class 3 One to One
p2070
sg14
(lp2071
Vhttp://www.beckett.com/basketball/1999-00/topps-gold-label-class-3-one-to-one/24-lindsey-hunter-3189634
p2072
asg17
g18
sg19
(lp2073
Vhttp://img.beckett.com/images/no-image.jpg
p2074
asg22
V#24
p2075
sg24
V1999-00
p2076
sg26
g27
sg28
(lp2077
VLindsey Hunter
p2078
assbag1
(g2
g3
Ntp2079
Rp2080
(dp2081
g7
(dp2082
g9
V1999-00 Topps Gold Label Class 3 One to One #38 Grant Hill
p2083
sg11
I1
sg12
VTopps Gold Label Class 3 One to One
p2084
sg14
(lp2085
Vhttp://www.beckett.com/basketball/1999-00/topps-gold-label-class-3-one-to-one/38-grant-hill-3189648
p2086
asg17
g18
sg19
(lp2087
Vhttp://img.beckett.com/images/no-image.jpg
p2088
asg22
V#38
p2089
sg24
V1999-00
p2090
sg26
g27
sg28
(lp2091
VGrant Hill
p2092
assbag1
(g2
g3
Ntp2093
Rp2094
(dp2095
g7
(dp2096
g9
V1999-00 Topps Gold Label Class 3 One to One #71 Jerry Stackhouse
p2097
sg11
I1
sg12
VTopps Gold Label Class 3 One to One
p2098
sg14
(lp2099
Vhttp://www.beckett.com/basketball/1999-00/topps-gold-label-class-3-one-to-one/71-jerry-stackhouse-3189681
p2100
asg17
g18
sg19
(lp2101
Vhttp://img.beckett.com/images/no-image.jpg
p2102
asg22
V#71
p2103
sg24
V1999-00
p2104
sg26
g27
sg28
(lp2105
VJerry Stackhouse
p2106
assbag1
(g2
g3
Ntp2107
Rp2108
(dp2109
g7
(dp2110
g9
V1999-00 Topps Gold Label Class 3 Red Label #24 Lindsey Hunter
p2111
sg11
I25
sg12
VTopps Gold Label Class 3 Red Label
p2112
sg14
(lp2113
Vhttp://www.beckett.com/basketball/1999-00/topps-gold-label-class-3-red-label/24-lindsey-hunter-3187445
p2114
asg17
g18
sg19
(lp2115
Vhttp://img.beckett.com/images/no-image.jpg
p2116
asg22
V#24
p2117
sg24
V1999-00
p2118
sg26
g27
sg28
(lp2119
VLindsey Hunter
p2120
assbag1
(g2
g3
Ntp2121
Rp2122
(dp2123
g7
(dp2124
g9
V1999-00 Topps Gold Label Class 3 Red Label #38 Grant Hill
p2125
sg11
I25
sg12
VTopps Gold Label Class 3 Red Label
p2126
sg14
(lp2127
Vhttp://www.beckett.com/basketball/1999-00/topps-gold-label-class-3-red-label/38-grant-hill-3187459
p2128
asg17
g18
sg19
(lp2129
Vhttp://img.beckett.com/images/no-image.jpg
p2130
asg22
V#38
p2131
sg24
V1999-00
p2132
sg26
g27
sg28
(lp2133
VGrant Hill
p2134
assbag1
(g2
g3
Ntp2135
Rp2136
(dp2137
g7
(dp2138
g9
V1999-00 Topps Gold Label Class 3 Red Label #71 Jerry Stackhouse
p2139
sg11
I25
sg12
VTopps Gold Label Class 3 Red Label
p2140
sg14
(lp2141
Vhttp://www.beckett.com/basketball/1999-00/topps-gold-label-class-3-red-label/71-jerry-stackhouse-3187492
p2142
asg17
g18
sg19
(lp2143
Vhttp://img.beckett.com/images/no-image.jpg
p2144
asg22
V#71
p2145
sg24
V1999-00
p2146
sg26
g27
sg28
(lp2147
VJerry Stackhouse
p2148
assbag1
(g2
g3
Ntp2149
Rp2150
(dp2151
g7
(dp2152
g9
V1999-00 Ultimate Victory 1 of 1 #22 Grant Hill
p2153
sg11
I1
sg12
VUltimate Victory 1 of 1
p2154
sg14
(lp2155
Vhttp://www.beckett.com/basketball/1999-00/ultimate-victory-1-of-1/22-grant-hill-3180386
p2156
asg17
g18
sg19
(lp2157
Vhttp://img.beckett.com/images/no-image.jpg
p2158
asg22
V#22
p2159
sg24
V1999-00
p2160
sg26
g27
sg28
(lp2161
VGrant Hill
p2162
assbag1
(g2
g3
Ntp2163
Rp2164
(dp2165
g7
(dp2166
g9
V1999-00 Ultimate Victory 1 of 1 #23 Lindsey Hunter
p2167
sg11
I1
sg12
VUltimate Victory 1 of 1
p2168
sg14
(lp2169
Vhttp://www.beckett.com/basketball/1999-00/ultimate-victory-1-of-1/23-lindsey-hunter-3180387
p2170
asg17
g18
sg19
(lp2171
Vhttp://img.beckett.com/images/no-image.jpg
p2172
asg22
V#23
p2173
sg24
V1999-00
p2174
sg26
g27
sg28
(lp2175
VLindsey Hunter
p2176
assbag1
(g2
g3
Ntp2177
Rp2178
(dp2179
g7
(dp2180
g9
V1999-00 Ultimate Victory 1 of 1 #24 Jerry Stackhouse
p2181
sg11
I1
sg12
VUltimate Victory 1 of 1
p2182
sg14
(lp2183
Vhttp://www.beckett.com/basketball/1999-00/ultimate-victory-1-of-1/24-jerry-stackhouse-3180388
p2184
asg17
g18
sg19
(lp2185
Vhttp://img.beckett.com/images/no-image.jpg
p2186
asg22
V#24
p2187
sg24
V1999-00
p2188
sg26
g27
sg28
(lp2189
VJerry Stackhouse
p2190
assbag1
(g2
g3
Ntp2191
Rp2192
(dp2193
g7
(dp2194
g9
V1999-00 Ultimate Victory Parallel 100 #22 Grant Hill
p2195
sg11
I100
sg12
VUltimate Victory Parallel 100
p2196
sg14
(lp2197
Vhttp://www.beckett.com/basketball/1999-00/ultimate-victory-parallel-100/22-grant-hill-3180708
p2198
asg17
g18
sg19
(lp2199
Vhttp://img.beckett.com/images/no-image.jpg
p2200
asg22
V#22
p2201
sg24
V1999-00
p2202
sg26
g27
sg28
(lp2203
VGrant Hill
p2204
assbag1
(g2
g3
Ntp2205
Rp2206
(dp2207
g7
(dp2208
g9
V1999-00 Ultimate Victory Parallel 100 #23 Lindsey Hunter
p2209
sg11
I100
sg12
VUltimate Victory Parallel 100
p2210
sg14
(lp2211
Vhttp://www.beckett.com/basketball/1999-00/ultimate-victory-parallel-100/23-lindsey-hunter-3180709
p2212
asg17
g18
sg19
(lp2213
Vhttp://img.beckett.com/images/no-image.jpg
p2214
asg22
V#23
p2215
sg24
V1999-00
p2216
sg26
g27
sg28
(lp2217
VLindsey Hunter
p2218
assbag1
(g2
g3
Ntp2219
Rp2220
(dp2221
g7
(dp2222
g9
V1999-00 Ultimate Victory Parallel 100 #24 Jerry Stackhouse
p2223
sg11
I100
sg12
VUltimate Victory Parallel 100
p2224
sg14
(lp2225
Vhttp://www.beckett.com/basketball/1999-00/ultimate-victory-parallel-100/24-jerry-stackhouse-3180710
p2226
asg17
g18
sg19
(lp2227
Vhttp://img.beckett.com/images/no-image.jpg
p2228
asg22
V#24
p2229
sg24
V1999-00
p2230
sg26
g27
sg28
(lp2231
VJerry Stackhouse
p2232
assbag1
(g2
g3
Ntp2233
Rp2234
(dp2235
g7
(dp2236
g9
V1999-00 Ultra Masterpieces #30 Grant Hill
p2237
sg11
I1
sg12
VUltra Masterpieces
p2238
sg14
(lp2239
Vhttp://www.beckett.com/basketball/1999-00/ultra-masterpieces/30-grant-hill-3206021
p2240
asg17
g18
sg19
(lp2241
Vhttp://img.beckett.com/images/no-image.jpg
p2242
asg22
V#30
p2243
sg24
V1999-00
p2244
sg26
g27
sg28
(lp2245
VGrant Hill
p2246
assbag1
(g2
g3
Ntp2247
Rp2248
(dp2249
g7
(dp2250
g9
V1999-00 Ultra Masterpieces #38 Christian Laettner
p2251
sg11
I1
sg12
VUltra Masterpieces
p2252
sg14
(lp2253
Vhttp://www.beckett.com/basketball/1999-00/ultra-masterpieces/38-christian-laettner-3206029
p2254
asg17
g18
sg19
(lp2255
Vhttp://img.beckett.com/images/no-image.jpg
p2256
asg22
V#38
p2257
sg24
V1999-00
p2258
sg26
g27
sg28
(lp2259
VChristian Laettner
p2260
assbag1
(g2
g3
Ntp2261
Rp2262
(dp2263
g7
(dp2264
g9
V1999-00 Ultra Masterpieces #78 Jerry Stackhouse
p2265
sg11
I1
sg12
VUltra Masterpieces
p2266
sg14
(lp2267
Vhttp://www.beckett.com/basketball/1999-00/ultra-masterpieces/78-jerry-stackhouse-3206069
p2268
asg17
g18
sg19
(lp2269
Vhttp://img.beckett.com/images/no-image.jpg
p2270
asg22
V#78
p2271
sg24
V1999-00
p2272
sg26
g27
sg28
(lp2273
VJerry Stackhouse
p2274
assbag1
(g2
g3
Ntp2275
Rp2276
(dp2277
g7
(dp2278
g9
V1999-00 Ultra Masterpieces #81 Lindsey Hunter
p2279
sg11
I1
sg12
VUltra Masterpieces
p2280
sg14
(lp2281
Vhttp://www.beckett.com/basketball/1999-00/ultra-masterpieces/81-lindsey-hunter-3206072
p2282
asg17
g18
sg19
(lp2283
Vhttp://img.beckett.com/images/no-image.jpg
p2284
asg22
V#81
p2285
sg24
V1999-00
p2286
sg26
g27
sg28
(lp2287
VLindsey Hunter
p2288
assbag1
(g2
g3
Ntp2289
Rp2290
(dp2291
g7
(dp2292
g9
V1999-00 Ultra Masterpieces #92 Bison Dele
p2293
sg11
I1
sg12
VUltra Masterpieces
p2294
sg14
(lp2295
Vhttp://www.beckett.com/basketball/1999-00/ultra-masterpieces/92-bison-dele-3206083
p2296
asg17
g18
sg19
(lp2297
Vhttp://img.beckett.com/images/no-image.jpg
p2298
asg22
V#92
p2299
sg24
V1999-00
p2300
sg26
g27
sg28
(lp2301
VBison Dele
p2302
assbag1
(g2
g3
Ntp2303
Rp2304
(dp2305
g7
(dp2306
g9
V1999-00 Ultra Platinum Medallion #30 Grant Hill
p2307
sg11
I50
sg12
VUltra Platinum Medallion
p2308
sg14
(lp2309
Vhttp://www.beckett.com/basketball/1999-00/ultra-platinum-medallion/30-grant-hill-3185836
p2310
asg17
g18
sg19
(lp2311
Vhttp://img.beckett.com/images/no-image.jpg
p2312
asg22
V#30
p2313
sg24
V1999-00
p2314
sg26
g27
sg28
(lp2315
VGrant Hill
p2316
assbag1
(g2
g3
Ntp2317
Rp2318
(dp2319
g7
(dp2320
g9
V1999-00 Ultra Platinum Medallion #38 Christian Laettner
p2321
sg11
I50
sg12
VUltra Platinum Medallion
p2322
sg14
(lp2323
Vhttp://www.beckett.com/basketball/1999-00/ultra-platinum-medallion/38-christian-laettner-3185844
p2324
asg17
g18
sg19
(lp2325
Vhttp://img.beckett.com/images/no-image.jpg
p2326
asg22
V#38
p2327
sg24
V1999-00
p2328
sg26
g27
sg28
(lp2329
VChristian Laettner
p2330
assbag1
(g2
g3
Ntp2331
Rp2332
(dp2333
g7
(dp2334
g9
V1999-00 Ultra Platinum Medallion #78 Jerry Stackhouse
p2335
sg11
I50
sg12
VUltra Platinum Medallion
p2336
sg14
(lp2337
Vhttp://www.beckett.com/basketball/1999-00/ultra-platinum-medallion/78-jerry-stackhouse-3185884
p2338
asg17
g18
sg19
(lp2339
Vhttp://img.beckett.com/images/no-image.jpg
p2340
asg22
V#78
p2341
sg24
V1999-00
p2342
sg26
g27
sg28
(lp2343
VJerry Stackhouse
p2344
assbag1
(g2
g3
Ntp2345
Rp2346
(dp2347
g7
(dp2348
g9
V1999-00 Ultra Platinum Medallion #81 Lindsey Hunter
p2349
sg11
I50
sg12
VUltra Platinum Medallion
p2350
sg14
(lp2351
Vhttp://www.beckett.com/basketball/1999-00/ultra-platinum-medallion/81-lindsey-hunter-3185887
p2352
asg17
g18
sg19
(lp2353
Vhttp://img.beckett.com/images/items_stock/185226/3185794/3185887/front.jpg
p2354
asg22
V#81
p2355
sg24
V1999-00
p2356
sg26
g27
sg28
(lp2357
VLindsey Hunter
p2358
assbag1
(g2
g3
Ntp2359
Rp2360
(dp2361
g7
(dp2362
g9
V1999-00 Ultra Platinum Medallion #92 Bison Dele
p2363
sg11
I50
sg12
VUltra Platinum Medallion
p2364
sg14
(lp2365
Vhttp://www.beckett.com/basketball/1999-00/ultra-platinum-medallion/92-bison-dele-3185898
p2366
asg17
g18
sg19
(lp2367
Vhttp://img.beckett.com/images/no-image.jpg
p2368
asg22
V#92
p2369
sg24
V1999-00
p2370
sg26
g27
sg28
(lp2371
VBison Dele
p2372
assbag1
(g2
g3
Ntp2373
Rp2374
(dp2375
g7
(dp2376
g9
V1999-00 Upper Deck Bronze #35 Grant Hill
p2377
sg11
I100
sg12
VUpper Deck Bronze
p2378
sg14
(lp2379
Vhttp://www.beckett.com/basketball/1999-00/upper-deck-bronze/35-grant-hill-3186562
p2380
asg17
g18
sg19
(lp2381
Vhttp://img.beckett.com/images/no-image.jpg
p2382
asg22
V#35
p2383
sg24
V1999-00
p2384
sg26
g27
sg28
(lp2385
VGrant Hill
p2386
assbag1
(g2
g3
Ntp2387
Rp2388
(dp2389
g7
(dp2390
g9
V1999-00 Upper Deck Bronze #36 Lindsey Hunter
p2391
sg11
I100
sg12
VUpper Deck Bronze
p2392
sg14
(lp2393
Vhttp://www.beckett.com/basketball/1999-00/upper-deck-bronze/36-lindsey-hunter-3186563
p2394
asg17
g18
sg19
(lp2395
Vhttp://img.beckett.com/images/no-image.jpg
p2396
asg22
V#36
p2397
sg24
V1999-00
p2398
sg26
g27
sg28
(lp2399
VLindsey Hunter
p2400
assbag1
(g2
g3
Ntp2401
Rp2402
(dp2403
g7
(dp2404
g9
V1999-00 Upper Deck Bronze #37 Bison Dele
p2405
sg11
I100
sg12
VUpper Deck Bronze
p2406
sg14
(lp2407
Vhttp://www.beckett.com/basketball/1999-00/upper-deck-bronze/37-bison-dele-3186564
p2408
asg17
g18
sg19
(lp2409
Vhttp://img.beckett.com/images/items_stock/185226/3186514/3186564/front.jpg
p2410
asg22
V#37
p2411
sg24
V1999-00
p2412
sg26
g27
sg28
(lp2413
VBison Dele
p2414
assbag1
(g2
g3
Ntp2415
Rp2416
(dp2417
g7
(dp2418
g9
V1999-00 Upper Deck Bronze #38 Jerry Stackhouse
p2419
sg11
I100
sg12
VUpper Deck Bronze
p2420
sg14
(lp2421
Vhttp://www.beckett.com/basketball/1999-00/upper-deck-bronze/38-jerry-stackhouse-3186565
p2422
asg17
g18
sg19
(lp2423
Vhttp://img.beckett.com/images/no-image.jpg
p2424
asg22
V#38
p2425
sg24
V1999-00
p2426
sg26
g27
sg28
(lp2427
VJerry Stackhouse
p2428
assbag1
(g2
g3
Ntp2429
Rp2430
(dp2431
g7
(dp2432
g9
V1999-00 Upper Deck Bronze #214 Terry Mills
p2433
sg11
I100
sg12
VUpper Deck Bronze
p2434
sg14
(lp2435
Vhttp://www.beckett.com/basketball/1999-00/upper-deck-bronze/214-terry-mills-3186741
p2436
asg17
g18
sg19
(lp2437
Vhttp://img.beckett.com/images/items_stock/185226/3186514/3186741/front.jpg
p2438
asg22
V#214
p2439
sg24
V1999-00
p2440
sg26
g27
sg28
(lp2441
VTerry Mills
p2442
assbag1
(g2
g3
Ntp2443
Rp2444
(dp2445
g7
(dp2446
g9
V1999-00 Upper Deck Bronze #215 Michael Curry
p2447
sg11
I100
sg12
VUpper Deck Bronze
p2448
sg14
(lp2449
Vhttp://www.beckett.com/basketball/1999-00/upper-deck-bronze/215-michael-curry-3186742
p2450
asg17
g18
sg19
(lp2451
Vhttp://img.beckett.com/images/items_stock/185226/3186514/3186742/front.jpg
p2452
asg22
V#215
p2453
sg24
V1999-00
p2454
sg26
g27
sg28
(lp2455
VMichael Curry
p2456
assbag1
(g2
g3
Ntp2457
Rp2458
(dp2459
g7
(dp2460
g9
V1999-00 Upper Deck Bronze #216 Christian Laettner
p2461
sg11
I100
sg12
VUpper Deck Bronze
p2462
sg14
(lp2463
Vhttp://www.beckett.com/basketball/1999-00/upper-deck-bronze/216-christian-laettner-3186743
p2464
asg17
g18
sg19
(lp2465
Vhttp://img.beckett.com/images/no-image.jpg
p2466
asg22
V#216
p2467
sg24
V1999-00
p2468
sg26
g27
sg28
(lp2469
VChristian Laettner
p2470
assbag1
(g2
g3
Ntp2471
Rp2472
(dp2473
g7
(dp2474
g9
V1999-00 Upper Deck Bronze #217 Jerome Williams
p2475
sg11
I100
sg12
VUpper Deck Bronze
p2476
sg14
(lp2477
Vhttp://www.beckett.com/basketball/1999-00/upper-deck-bronze/217-jerome-williams-3186744
p2478
asg17
g18
sg19
(lp2479
Vhttp://img.beckett.com/images/items_stock/185226/3186514/3186744/front.jpg
p2480
asg22
V#217
p2481
sg24
V1999-00
p2482
sg26
g27
sg28
(lp2483
VJerome Williams
p2484
assbag1
(g2
g3
Ntp2485
Rp2486
(dp2487
g7
(dp2488
g9
V1999-00 Upper Deck Bronze #218 Loy Vaught
p2489
sg11
I100
sg12
VUpper Deck Bronze
p2490
sg14
(lp2491
Vhttp://www.beckett.com/basketball/1999-00/upper-deck-bronze/218-loy-vaught-3186745
p2492
asg17
g18
sg19
(lp2493
Vhttp://img.beckett.com/images/items_stock/185226/3186514/3186745/front.jpg
p2494
asg22
V#218
p2495
sg24
V1999-00
p2496
sg26
g27
sg28
(lp2497
VLoy Vaught
p2498
assbag1
(g2
g3
Ntp2499
Rp2500
(dp2501
g7
(dp2502
g9
V1999-00 Upper Deck Bronze #219 Jud Buechler
p2503
sg11
I100
sg12
VUpper Deck Bronze
p2504
sg14
(lp2505
Vhttp://www.beckett.com/basketball/1999-00/upper-deck-bronze/219-jud-buechler-3186746
p2506
asg17
g18
sg19
(lp2507
Vhttp://img.beckett.com/images/no-image.jpg
p2508
asg22
V#219
p2509
sg24
V1999-00
p2510
sg26
g27
sg28
(lp2511
VJud Buechler
p2512
assbag1
(g2
g3
Ntp2513
Rp2514
(dp2515
g7
(dp2516
g9
V1999-00 Upper Deck Bronze #350 Jermaine Jackson
p2517
sg11
I100
sg12
VUpper Deck Bronze
p2518
sg14
(lp2519
Vhttp://www.beckett.com/basketball/1999-00/upper-deck-bronze/350-jermaine-jackson-3186877
p2520
asg17
g18
sg19
(lp2521
Vhttp://img.beckett.com/images/items_stock/185226/3186514/3186877/front.jpg
p2522
asg22
V#350
p2523
sg24
V1999-00
p2524
sg26
g27
sg28
(lp2525
VJermaine Jackson
p2526
assbag1
(g2
g3
Ntp2527
Rp2528
(dp2529
g7
(dp2530
g9
V1999-00 Upper Deck Gold #35 Grant Hill
p2531
sg11
I1
sg12
VUpper Deck Gold
p2532
sg14
(lp2533
Vhttp://www.beckett.com/basketball/1999-00/upper-deck-gold/35-grant-hill-3186927
p2534
asg17
g18
sg19
(lp2535
Vhttp://img.beckett.com/images/no-image.jpg
p2536
asg22
V#35
p2537
sg24
V1999-00
p2538
sg26
g27
sg28
(lp2539
VGrant Hill
p2540
assbag1
(g2
g3
Ntp2541
Rp2542
(dp2543
g7
(dp2544
g9
V1999-00 Upper Deck Gold #36 Lindsey Hunter
p2545
sg11
I1
sg12
VUpper Deck Gold
p2546
sg14
(lp2547
Vhttp://www.beckett.com/basketball/1999-00/upper-deck-gold/36-lindsey-hunter-3186928
p2548
asg17
g18
sg19
(lp2549
Vhttp://img.beckett.com/images/no-image.jpg
p2550
asg22
V#36
p2551
sg24
V1999-00
p2552
sg26
g27
sg28
(lp2553
VLindsey Hunter
p2554
assbag1
(g2
g3
Ntp2555
Rp2556
(dp2557
g7
(dp2558
g9
V1999-00 Upper Deck Gold #37 Bison Dele
p2559
sg11
I1
sg12
VUpper Deck Gold
p2560
sg14
(lp2561
Vhttp://www.beckett.com/basketball/1999-00/upper-deck-gold/37-bison-dele-3186929
p2562
asg17
g18
sg19
(lp2563
Vhttp://img.beckett.com/images/no-image.jpg
p2564
asg22
V#37
p2565
sg24
V1999-00
p2566
sg26
g27
sg28
(lp2567
VBison Dele
p2568
assbag1
(g2
g3
Ntp2569
Rp2570
(dp2571
g7
(dp2572
g9
V1999-00 Upper Deck Gold #38 Jerry Stackhouse
p2573
sg11
I1
sg12
VUpper Deck Gold
p2574
sg14
(lp2575
Vhttp://www.beckett.com/basketball/1999-00/upper-deck-gold/38-jerry-stackhouse-3186930
p2576
asg17
g18
sg19
(lp2577
Vhttp://img.beckett.com/images/no-image.jpg
p2578
asg22
V#38
p2579
sg24
V1999-00
p2580
sg26
g27
sg28
(lp2581
VJerry Stackhouse
p2582
assbag1
(g2
g3
Ntp2583
Rp2584
(dp2585
g7
(dp2586
g9
V1999-00 Upper Deck Gold #214 Terry Mills
p2587
sg11
I1
sg12
VUpper Deck Gold
p2588
sg14
(lp2589
Vhttp://www.beckett.com/basketball/1999-00/upper-deck-gold/214-terry-mills-3187106
p2590
asg17
g18
sg19
(lp2591
Vhttp://img.beckett.com/images/no-image.jpg
p2592
asg22
V#214
p2593
sg24
V1999-00
p2594
sg26
g27
sg28
(lp2595
VTerry Mills
p2596
assbag1
(g2
g3
Ntp2597
Rp2598
(dp2599
g7
(dp2600
g9
V1999-00 Upper Deck Gold #215 Michael Curry
p2601
sg11
I1
sg12
VUpper Deck Gold
p2602
sg14
(lp2603
Vhttp://www.beckett.com/basketball/1999-00/upper-deck-gold/215-michael-curry-3187107
p2604
asg17
g18
sg19
(lp2605
Vhttp://img.beckett.com/images/no-image.jpg
p2606
asg22
V#215
p2607
sg24
V1999-00
p2608
sg26
g27
sg28
(lp2609
VMichael Curry
p2610
assbag1
(g2
g3
Ntp2611
Rp2612
(dp2613
g7
(dp2614
g9
V1999-00 Upper Deck Gold #216 Christian Laettner
p2615
sg11
I1
sg12
VUpper Deck Gold
p2616
sg14
(lp2617
Vhttp://www.beckett.com/basketball/1999-00/upper-deck-gold/216-christian-laettner-3187108
p2618
asg17
g18
sg19
(lp2619
Vhttp://img.beckett.com/images/no-image.jpg
p2620
asg22
V#216
p2621
sg24
V1999-00
p2622
sg26
g27
sg28
(lp2623
VChristian Laettner
p2624
assbag1
(g2
g3
Ntp2625
Rp2626
(dp2627
g7
(dp2628
g9
V1999-00 Upper Deck Gold #217 Jerome Williams
p2629
sg11
I1
sg12
VUpper Deck Gold
p2630
sg14
(lp2631
Vhttp://www.beckett.com/basketball/1999-00/upper-deck-gold/217-jerome-williams-3187109
p2632
asg17
g18
sg19
(lp2633
Vhttp://img.beckett.com/images/no-image.jpg
p2634
asg22
V#217
p2635
sg24
V1999-00
p2636
sg26
g27
sg28
(lp2637
VJerome Williams
p2638
assbag1
(g2
g3
Ntp2639
Rp2640
(dp2641
g7
(dp2642
g9
V1999-00 Upper Deck Gold #218 Loy Vaught
p2643
sg11
I1
sg12
VUpper Deck Gold
p2644
sg14
(lp2645
Vhttp://www.beckett.com/basketball/1999-00/upper-deck-gold/218-loy-vaught-3187110
p2646
asg17
g18
sg19
(lp2647
Vhttp://img.beckett.com/images/no-image.jpg
p2648
asg22
V#218
p2649
sg24
V1999-00
p2650
sg26
g27
sg28
(lp2651
VLoy Vaught
p2652
assbag1
(g2
g3
Ntp2653
Rp2654
(dp2655
g7
(dp2656
g9
V1999-00 Upper Deck Gold #219 Jud Buechler
p2657
sg11
I1
sg12
VUpper Deck Gold
p2658
sg14
(lp2659
Vhttp://www.beckett.com/basketball/1999-00/upper-deck-gold/219-jud-buechler-3187111
p2660
asg17
g18
sg19
(lp2661
Vhttp://img.beckett.com/images/no-image.jpg
p2662
asg22
V#219
p2663
sg24
V1999-00
p2664
sg26
g27
sg28
(lp2665
VJud Buechler
p2666
assbag1
(g2
g3
Ntp2667
Rp2668
(dp2669
g7
(dp2670
g9
V1999-00 Upper Deck Gold #350 Jermaine Jackson
p2671
sg11
I1
sg12
VUpper Deck Gold
p2672
sg14
(lp2673
Vhttp://www.beckett.com/basketball/1999-00/upper-deck-gold/350-jermaine-jackson-3187242
p2674
asg17
g18
sg19
(lp2675
Vhttp://img.beckett.com/images/no-image.jpg
p2676
asg22
V#350
p2677
sg24
V1999-00
p2678
sg26
g27
sg28
(lp2679
VJermaine Jackson
p2680
assbag1
(g2
g3
Ntp2681
Rp2682
(dp2683
g7
(dp2684
g9
V1999-00 Upper Deck Hardcourt Baseline Grooves Gold #15 Grant Hill
p2685
sg11
I1
sg12
VUpper Deck Hardcourt Baseline Grooves Gold
p2686
sg14
(lp2687
Vhttp://www.beckett.com/basketball/1999-00/upper-deck-hardcourt-baseline-grooves-gold/15-grant-hill-3183855
p2688
asg17
g18
sg19
(lp2689
Vhttp://img.beckett.com/images/no-image.jpg
p2690
asg22
V#15
p2691
sg24
V1999-00
p2692
sg26
g27
sg28
(lp2693
VGrant Hill
p2694
assbag1
(g2
g3
Ntp2695
Rp2696
(dp2697
g7
(dp2698
g9
V1999-00 Upper Deck Hardcourt Baseline Grooves Gold #16 Jerry Stackhouse
p2699
sg11
I1
sg12
VUpper Deck Hardcourt Baseline Grooves Gold
p2700
sg14
(lp2701
Vhttp://www.beckett.com/basketball/1999-00/upper-deck-hardcourt-baseline-grooves-gold/16-jerry-stackhouse-3183856
p2702
asg17
g18
sg19
(lp2703
Vhttp://img.beckett.com/images/no-image.jpg
p2704
asg22
V#16
p2705
sg24
V1999-00
p2706
sg26
g27
sg28
(lp2707
VJerry Stackhouse
p2708
assbag1
(g2
g3
Ntp2709
Rp2710
(dp2711
g7
(dp2712
g9
V1999-00 Upper Deck Hardcourt Baseline Grooves Rainbow #15 Grant Hill
p2713
sg11
I500
sg12
VUpper Deck Hardcourt Baseline Grooves Rainbow
p2714
sg14
(lp2715
Vhttp://www.beckett.com/basketball/1999-00/upper-deck-hardcourt-baseline-grooves-rainbow/15-grant-hill-3183762
p2716
asg17
g18
sg19
(lp2717
Vhttp://img.beckett.com/images/no-image.jpg
p2718
asg22
V#15
p2719
sg24
V1999-00
p2720
sg26
g27
sg28
(lp2721
VGrant Hill
p2722
assbag1
(g2
g3
Ntp2723
Rp2724
(dp2725
g7
(dp2726
g9
V1999-00 Upper Deck Hardcourt Baseline Grooves Rainbow #16 Jerry Stackhouse
p2727
sg11
I500
sg12
VUpper Deck Hardcourt Baseline Grooves Rainbow
p2728
sg14
(lp2729
Vhttp://www.beckett.com/basketball/1999-00/upper-deck-hardcourt-baseline-grooves-rainbow/16-jerry-stackhouse-3183763
p2730
asg17
g18
sg19
(lp2731
Vhttp://img.beckett.com/images/items_stock/185226/3183740/3183763/front.jpg
p2732
asg22
V#16
p2733
sg24
V1999-00
p2734
sg26
g27
sg28
(lp2735
VJerry Stackhouse
p2736
assbag1
(g2
g3
Ntp2737
Rp2738
(dp2739
g7
(dp2740
g9
V1999-00 Upper Deck Hardcourt Baseline Grooves Silver #15 Grant Hill
p2741
sg11
I50
sg12
VUpper Deck Hardcourt Baseline Grooves Silver
p2742
sg14
(lp2743
Vhttp://www.beckett.com/basketball/1999-00/upper-deck-hardcourt-baseline-grooves-silver/15-grant-hill-3183955
p2744
asg17
g18
sg19
(lp2745
Vhttp://img.beckett.com/images/no-image.jpg
p2746
asg22
V#15
p2747
sg24
V1999-00
p2748
sg26
g27
sg28
(lp2749
VGrant Hill
p2750
assbag1
(g2
g3
Ntp2751
Rp2752
(dp2753
g7
(dp2754
g9
V1999-00 Upper Deck Hardcourt Baseline Grooves Silver #16 Jerry Stackhouse
p2755
sg11
I50
sg12
VUpper Deck Hardcourt Baseline Grooves Silver
p2756
sg14
(lp2757
Vhttp://www.beckett.com/basketball/1999-00/upper-deck-hardcourt-baseline-grooves-silver/16-jerry-stackhouse-3183956
p2758
asg17
g18
sg19
(lp2759
Vhttp://img.beckett.com/images/no-image.jpg
p2760
asg22
V#16
p2761
sg24
V1999-00
p2762
sg26
g27
sg28
(lp2763
VJerry Stackhouse
p2764
assbag1
(g2
g3
Ntp2765
Rp2766
(dp2767
g7
(dp2768
g9
V1999-00 Upper Deck MVP Gold Script #43 Grant Hill
p2769
sg11
I100
sg12
VUpper Deck MVP Gold Script
p2770
sg14
(lp2771
Vhttp://www.beckett.com/basketball/1999-00/upper-deck-mvp-gold-script/43-grant-hill-3182676
p2772
asg17
g18
sg19
(lp2773
Vhttp://img.beckett.com/images/items_stock/185226/3182624/3182676/front.jpg
p2774
asg22
V#43
p2775
sg24
V1999-00
p2776
sg26
g27
sg28
(lp2777
VGrant Hill
p2778
assbag1
(g2
g3
Ntp2779
Rp2780
(dp2781
g7
(dp2782
g9
V1999-00 Upper Deck MVP Gold Script #44 Bison Dele
p2783
sg11
I100
sg12
VUpper Deck MVP Gold Script
p2784
sg14
(lp2785
Vhttp://www.beckett.com/basketball/1999-00/upper-deck-mvp-gold-script/44-bison-dele-3182677
p2786
asg17
g18
sg19
(lp2787
Vhttp://img.beckett.com/images/no-image.jpg
p2788
asg22
V#44
p2789
sg24
V1999-00
p2790
sg26
g27
sg28
(lp2791
VBison Dele
p2792
assbag1
(g2
g3
Ntp2793
Rp2794
(dp2795
g7
(dp2796
g9
V1999-00 Upper Deck MVP Gold Script #45 Lindsey Hunter
p2797
sg11
I100
sg12
VUpper Deck MVP Gold Script
p2798
sg14
(lp2799
Vhttp://www.beckett.com/basketball/1999-00/upper-deck-mvp-gold-script/45-lindsey-hunter-3182678
p2800
asg17
g18
sg19
(lp2801
Vhttp://img.beckett.com/images/items_stock/185226/3182624/3182678/front.jpg
p2802
asg22
V#45
p2803
sg24
V1999-00
p2804
sg26
g27
sg28
(lp2805
VLindsey Hunter
p2806
assbag1
(g2
g3
Ntp2807
Rp2808
(dp2809
g7
(dp2810
g9
V1999-00 Upper Deck MVP Gold Script #46 Jerry Stackhouse
p2811
sg11
I100
sg12
VUpper Deck MVP Gold Script
p2812
sg14
(lp2813
Vhttp://www.beckett.com/basketball/1999-00/upper-deck-mvp-gold-script/46-jerry-stackhouse-3182679
p2814
asg17
g18
sg19
(lp2815
Vhttp://img.beckett.com/images/no-image.jpg
p2816
asg22
V#46
p2817
sg24
V1999-00
p2818
sg26
g27
sg28
(lp2819
VJerry Stackhouse
p2820
assbag1
(g2
g3
Ntp2821
Rp2822
(dp2823
g7
(dp2824
g9
V1999-00 Upper Deck MVP Gold Script #47 Don Reid
p2825
sg11
I100
sg12
VUpper Deck MVP Gold Script
p2826
sg14
(lp2827
Vhttp://www.beckett.com/basketball/1999-00/upper-deck-mvp-gold-script/47-don-reid-3182680
p2828
asg17
g18
sg19
(lp2829
Vhttp://img.beckett.com/images/no-image.jpg
p2830
asg22
V#47
p2831
sg24
V1999-00
p2832
sg26
g27
sg28
(lp2833
VDon Reid
p2834
assbag1
(g2
g3
Ntp2835
Rp2836
(dp2837
g7
(dp2838
g9
V1999-00 Upper Deck MVP Gold Script #48 Christian Laettner
p2839
sg11
I100
sg12
VUpper Deck MVP Gold Script
p2840
sg14
(lp2841
Vhttp://www.beckett.com/basketball/1999-00/upper-deck-mvp-gold-script/48-christian-laettner-3182681
p2842
asg17
g18
sg19
(lp2843
Vhttp://img.beckett.com/images/no-image.jpg
p2844
asg22
V#48
p2845
sg24
V1999-00
p2846
sg26
g27
sg28
(lp2847
VChristian Laettner
p2848
assbag1
(g2
g3
Ntp2849
Rp2850
(dp2851
g7
(dp2852
g9
V1999-00 Upper Deck MVP Super Script #43 Grant Hill
p2853
sg11
I25
sg12
VUpper Deck MVP Super Script
p2854
sg14
(lp2855
Vhttp://www.beckett.com/basketball/1999-00/upper-deck-mvp-super-script/43-grant-hill-3182906
p2856
asg17
g18
sg19
(lp2857
Vhttp://img.beckett.com/images/no-image.jpg
p2858
asg22
V#43
p2859
sg24
V1999-00
p2860
sg26
g27
sg28
(lp2861
VGrant Hill
p2862
assbag1
(g2
g3
Ntp2863
Rp2864
(dp2865
g7
(dp2866
g9
V1999-00 Upper Deck MVP Super Script #44 Bison Dele
p2867
sg11
I25
sg12
VUpper Deck MVP Super Script
p2868
sg14
(lp2869
Vhttp://www.beckett.com/basketball/1999-00/upper-deck-mvp-super-script/44-bison-dele-3182907
p2870
asg17
g18
sg19
(lp2871
Vhttp://img.beckett.com/images/no-image.jpg
p2872
asg22
V#44
p2873
sg24
V1999-00
p2874
sg26
g27
sg28
(lp2875
VBison Dele
p2876
assbag1
(g2
g3
Ntp2877
Rp2878
(dp2879
g7
(dp2880
g9
V1999-00 Upper Deck MVP Super Script #45 Lindsey Hunter
p2881
sg11
I25
sg12
VUpper Deck MVP Super Script
p2882
sg14
(lp2883
Vhttp://www.beckett.com/basketball/1999-00/upper-deck-mvp-super-script/45-lindsey-hunter-3182908
p2884
asg17
g18
sg19
(lp2885
Vhttp://img.beckett.com/images/no-image.jpg
p2886
asg22
V#45
p2887
sg24
V1999-00
p2888
sg26
g27
sg28
(lp2889
VLindsey Hunter
p2890
assbag1
(g2
g3
Ntp2891
Rp2892
(dp2893
g7
(dp2894
g9
V1999-00 Upper Deck MVP Super Script #46 Jerry Stackhouse
p2895
sg11
I25
sg12
VUpper Deck MVP Super Script
p2896
sg14
(lp2897
Vhttp://www.beckett.com/basketball/1999-00/upper-deck-mvp-super-script/46-jerry-stackhouse-3182909
p2898
asg17
g18
sg19
(lp2899
Vhttp://img.beckett.com/images/no-image.jpg
p2900
asg22
V#46
p2901
sg24
V1999-00
p2902
sg26
g27
sg28
(lp2903
VJerry Stackhouse
p2904
assbag1
(g2
g3
Ntp2905
Rp2906
(dp2907
g7
(dp2908
g9
V1999-00 Upper Deck MVP Super Script #47 Don Reid
p2909
sg11
I25
sg12
VUpper Deck MVP Super Script
p2910
sg14
(lp2911
Vhttp://www.beckett.com/basketball/1999-00/upper-deck-mvp-super-script/47-don-reid-3182910
p2912
asg17
g18
sg19
(lp2913
Vhttp://img.beckett.com/images/no-image.jpg
p2914
asg22
V#47
p2915
sg24
V1999-00
p2916
sg26
g27
sg28
(lp2917
VDon Reid
p2918
assbag1
(g2
g3
Ntp2919
Rp2920
(dp2921
g7
(dp2922
g9
V1999-00 Upper Deck MVP Super Script #48 Christian Laettner
p2923
sg11
I25
sg12
VUpper Deck MVP Super Script
p2924
sg14
(lp2925
Vhttp://www.beckett.com/basketball/1999-00/upper-deck-mvp-super-script/48-christian-laettner-3182911
p2926
asg17
g18
sg19
(lp2927
Vhttp://img.beckett.com/images/no-image.jpg
p2928
asg22
V#48
p2929
sg24
V1999-00
p2930
sg26
g27
sg28
(lp2931
VChristian Laettner
p2932
assbag1
(g2
g3
Ntp2933
Rp2934
(dp2935
g7
(dp2936
g9
V1999-00 Upper Deck Ovation Standing Ovation #15 Grant Hill
p2937
sg11
I50
sg12
VUpper Deck Ovation Standing Ovation
p2938
sg14
(lp2939
Vhttp://www.beckett.com/basketball/1999-00/upper-deck-ovation-standing-ovation/15-grant-hill-3181148
p2940
asg17
g18
sg19
(lp2941
Vhttp://img.beckett.com/images/no-image.jpg
p2942
asg22
V#15
p2943
sg24
V1999-00
p2944
sg26
g27
sg28
(lp2945
VGrant Hill
p2946
assbag1
(g2
g3
Ntp2947
Rp2948
(dp2949
g7
(dp2950
g9
V1999-00 Upper Deck Ovation Standing Ovation #16 Jerry Stackhouse
p2951
sg11
I50
sg12
VUpper Deck Ovation Standing Ovation
p2952
sg14
(lp2953
Vhttp://www.beckett.com/basketball/1999-00/upper-deck-ovation-standing-ovation/16-jerry-stackhouse-3181149
p2954
asg17
g18
sg19
(lp2955
Vhttp://img.beckett.com/images/no-image.jpg
p2956
asg22
V#16
p2957
sg24
V1999-00
p2958
sg26
g27
sg28
(lp2959
VJerry Stackhouse
p2960
assbag1
(g2
g3
Ntp2961
Rp2962
(dp2963
g7
(dp2964
g9
V1999-00 Upper Deck Retro Gold #18 Grant Hill
p2965
sg11
I250
sg12
VUpper Deck Retro Gold
p2966
sg14
(lp2967
Vhttp://www.beckett.com/basketball/1999-00/upper-deck-retro-gold/18-grant-hill-3181525
p2968
asg17
g18
sg19
(lp2969
Vhttp://img.beckett.com/images/no-image.jpg
p2970
asg22
V#18
p2971
sg24
V1999-00
p2972
sg26
g27
sg28
(lp2973
VGrant Hill
p2974
assbag1
(g2
g3
Ntp2975
Rp2976
(dp2977
g7
(dp2978
g9
V1999-00 Upper Deck Retro Gold #46 Dave Bing
p2979
sg11
I250
sg12
VUpper Deck Retro Gold
p2980
sg14
(lp2981
Vhttp://www.beckett.com/basketball/1999-00/upper-deck-retro-gold/46-dave-bing-3181553
p2982
asg17
g18
sg19
(lp2983
Vhttp://img.beckett.com/images/items_stock/185226/3181499/3181553/front.jpg
p2984
asg22
V#46
p2985
sg24
V1999-00
p2986
sg26
g27
sg28
(lp2987
VDave Bing
p2988
assbag1
(g2
g3
Ntp2989
Rp2990
(dp2991
g7
(dp2992
g9
V1999-00 Upper Deck Retro Gold #61 Jerry Stackhouse
p2993
sg11
I250
sg12
VUpper Deck Retro Gold
p2994
sg14
(lp2995
Vhttp://www.beckett.com/basketball/1999-00/upper-deck-retro-gold/61-jerry-stackhouse-3181568
p2996
asg17
g18
sg19
(lp2997
Vhttp://img.beckett.com/images/no-image.jpg
p2998
asg22
V#61
p2999
sg24
V1999-00
p3000
sg26
g27
sg28
(lp3001
VJerry Stackhouse
p3002
assbag1
(g2
g3
Ntp3003
Rp3004
(dp3005
g7
(dp3006
g9
V1999-00 Upper Deck Retro Platinum #18 Grant Hill
p3007
sg11
I1
sg12
VUpper Deck Retro Platinum
p3008
sg14
(lp3009
Vhttp://www.beckett.com/basketball/1999-00/upper-deck-retro-platinum/18-grant-hill-3181640
p3010
asg17
g18
sg19
(lp3011
Vhttp://img.beckett.com/images/no-image.jpg
p3012
asg22
V#18
p3013
sg24
V1999-00
p3014
sg26
g27
sg28
(lp3015
VGrant Hill
p3016
assbag1
(g2
g3
Ntp3017
Rp3018
(dp3019
g7
(dp3020
g9
V1999-00 Upper Deck Retro Platinum #46 Dave Bing
p3021
sg11
I1
sg12
VUpper Deck Retro Platinum
p3022
sg14
(lp3023
Vhttp://www.beckett.com/basketball/1999-00/upper-deck-retro-platinum/46-dave-bing-3181668
p3024
asg17
g18
sg19
(lp3025
Vhttp://img.beckett.com/images/no-image.jpg
p3026
asg22
V#46
p3027
sg24
V1999-00
p3028
sg26
g27
sg28
(lp3029
VDave Bing
p3030
assbag1
(g2
g3
Ntp3031
Rp3032
(dp3033
g7
(dp3034
g9
V1999-00 Upper Deck Retro Platinum #61 Jerry Stackhouse
p3035
sg11
I1
sg12
VUpper Deck Retro Platinum
p3036
sg14
(lp3037
Vhttp://www.beckett.com/basketball/1999-00/upper-deck-retro-platinum/61-jerry-stackhouse-3181683
p3038
asg17
g18
sg19
(lp3039
Vhttp://img.beckett.com/images/no-image.jpg
p3040
asg22
V#61
p3041
sg24
V1999-00
p3042
sg26
g27
sg28
(lp3043
VJerry Stackhouse
p3044
assbag1
(g2
g3
Ntp3045
Rp3046
(dp3047
g7
(dp3048
g9
V1999-00 Finest Team Finest Blue #TF9 Grant Hill
p3049
sg11
I1500
sg12
VFinest Team Finest Blue
p3050
sg14
(lp3051
Vhttp://www.beckett.com/basketball/1999-00/finest-team-finest-blue/tf9-grant-hill-3202606
p3052
asg17
g18
sg19
(lp3053
Vhttp://img.beckett.com/images/items_stock/185226/3202568/3202606/front.jpg
p3054
asg22
V#TF9
p3055
sg24
V1999-00
p3056
sg26
g27
sg28
(lp3057
VGrant Hill
p3058
assbag1
(g2
g3
Ntp3059
Rp3060
(dp3061
g7
(dp3062
g9
V1999-00 Fleer Game Breakers #7 Grant Hill
p3063
sg11
I100
sg12
VFleer Game Breakers
p3064
sg14
(lp3065
Vhttp://www.beckett.com/basketball/1999-00/fleer-game-breakers/7-grant-hill-3201766
p3066
asg17
g18
sg19
(lp3067
Vhttp://img.beckett.com/images/no-image.jpg
p3068
asg22
V#7
p3069
sg24
V1999-00
p3070
sg26
g27
sg28
(lp3071
VGrant Hill
p3072
assbag1
(g2
g3
Ntp3073
Rp3074
(dp3075
g7
(dp3076
g9
V1999-00 Fleer Mystique Raise the Roof #RR1 Grant Hill
p3077
sg11
I100
sg12
VFleer Mystique Raise the Roof
p3078
sg14
(lp3079
Vhttp://www.beckett.com/basketball/1999-00/fleer-mystique-raise-the-roof/rr1-grant-hill-3198834
p3080
asg17
g18
sg19
(lp3081
Vhttp://img.beckett.com/images/no-image.jpg
p3082
asg22
V#RR1
p3083
sg24
V1999-00
p3084
sg26
g27
sg28
(lp3085
VGrant Hill
p3086
assbag1
(g2
g3
Ntp3087
Rp3088
(dp3089
g7
(dp3090
g9
V1999-00 Hoops Pure Players #PP4 Grant Hill
p3091
sg11
I500
sg12
VHoops Pure Players
p3092
sg14
(lp3093
Vhttp://www.beckett.com/basketball/1999-00/hoops-pure-players/pp4-grant-hill-3199319
p3094
asg17
g18
sg19
(lp3095
Vhttp://img.beckett.com/images/no-image.jpg
p3096
asg22
V#PP4
p3097
sg24
V1999-00
p3098
sg26
g27
sg28
(lp3099
VGrant Hill
p3100
assbag1
(g2
g3
Ntp3101
Rp3102
(dp3103
g7
(dp3104
g9
V1999-00 SkyBox Premium Club Vertical #9 Grant Hill
p3105
sg11
I100
sg12
VSkyBox Premium Club Vertical
p3106
sg14
(lp3107
Vhttp://www.beckett.com/basketball/1999-00/skybox-premium-club-vertical/9-grant-hill-3196016
p3108
asg17
g18
sg19
(lp3109
Vhttp://img.beckett.com/images/no-image.jpg
p3110
asg22
V#9
p3111
sg24
V1999-00
p3112
sg26
g27
sg28
(lp3113
VGrant Hill
p3114
assbag1
(g2
g3
Ntp3115
Rp3116
(dp3117
g7
(dp3118
g9
V1999-00 SkyBox Premium Genuine Coverage #4 Grant Hill/370
p3119
sg11
I370
sg12
VSkyBox Premium Genuine Coverage
p3120
sg14
(lp3121
Vhttp://www.beckett.com/basketball/1999-00/skybox-premium-genuine-coverage/4-grant-hill370-3196027
p3122
asg17
g18
sS'memorabilia'
p3123
I1
sg19
(lp3124
Vhttp://img.beckett.com/images/no-image.jpg
p3125
asg22
V#4
p3126
sg24
V1999-00
p3127
sg26
g27
sg28
(lp3128
VGrant Hill
p3129
assbag1
(g2
g3
Ntp3130
Rp3131
(dp3132
g7
(dp3133
g9
V1999-00 Ultra Millennium Men #9 Grant Hill
p3134
sg11
I100
sg12
VUltra Millennium Men
p3135
sg14
(lp3136
Vhttp://www.beckett.com/basketball/1999-00/ultra-millennium-men/9-grant-hill-3186091
p3137
asg17
g18
sg19
(lp3138
Vhttp://img.beckett.com/images/no-image.jpg
p3139
asg22
V#9
p3140
sg24
V1999-00
p3141
sg26
g27
sg28
(lp3142
VGrant Hill
p3143
assbag1
(g2
g3
Ntp3144
Rp3145
(dp3146
g7
(dp3147
g9
V1999-00 Upper Deck Game Jerseys Patch Super #GH Grant Hill 1
p3148
sg11
I25
sg12
VUpper Deck Game Jerseys Patch Super
p3149
sg14
(lp3150
Vhttp://www.beckett.com/basketball/1999-00/upper-deck-game-jerseys-patch-super/gh-grant-hill-1-3185130
p3151
asg17
g18
sg3123
I1
sg19
(lp3152
Vhttp://img.beckett.com/images/no-image.jpg
p3153
asg22
V#GH
p3154
sg24
V1999-00
p3155
sg26
g27
sg28
(lp3156
VGrant Hill
p3157
assbag1
(g2
g3
Ntp3158
Rp3159
(dp3160
g7
(dp3161
g9
V1999-00 Upper Deck Game Jerseys Patch Super #GH Grant Hill 2
p3162
sg11
I25
sg12
VUpper Deck Game Jerseys Patch Super
p3163
sg14
(lp3164
Vhttp://www.beckett.com/basketball/1999-00/upper-deck-game-jerseys-patch-super/gh-grant-hill-2-3185131
p3165
asg17
g18
sg3123
I1
sg19
(lp3166
Vhttp://img.beckett.com/images/no-image.jpg
p3167
asg22
V#GH
p3168
sg24
V1999-00
p3169
sg26
g27
sg28
(lp3170
VGrant Hill
p3171
assbag1
(g2
g3
Ntp3172
Rp3173
(dp3174
g7
(dp3175
g9
V1999-00 E-X Essential Credentials Future #20 Grant Hill/41
p3176
sg11
I41
sg12
VE-X Essential Credentials Future
p3177
sg14
(lp3178
Vhttp://www.beckett.com/basketball/1999-00/e-x-essential-credentials-future/20-grant-hill41-3205181
p3179
asg17
g18
sg19
(lp3180
Vhttp://img.beckett.com/images/no-image.jpg
p3181
asg22
V#20
p3182
sg24
V1999-00
p3183
sg26
g27
sg28
(lp3184
VGrant Hill
p3185
assbag1
(g2
g3
Ntp3186
Rp3187
(dp3188
g7
(dp3189
g9
V1999-00 E-X Essential Credentials Future #48 Lindsey Hunter/13
p3190
sg11
I13
sg12
VE-X Essential Credentials Future
p3191
sg14
(lp3192
Vhttp://www.beckett.com/basketball/1999-00/e-x-essential-credentials-future/48-lindsey-hunter13-3205209
p3193
asg17
g18
sg19
(lp3194
Vhttp://img.beckett.com/images/no-image.jpg
p3195
asg22
V#48
p3196
sg24
V1999-00
p3197
sg26
g27
sg28
(lp3198
VLindsey Hunter
p3199
assbag1
(g2
g3
Ntp3200
Rp3201
(dp3202
g7
(dp3203
g9
V1999-00 E-X Essential Credentials Future #51 Jerry Stackhouse/10
p3204
sg11
I10
sg12
VE-X Essential Credentials Future
p3205
sg14
(lp3206
Vhttp://www.beckett.com/basketball/1999-00/e-x-essential-credentials-future/51-jerry-stackhouse10-3205212
p3207
asg17
g18
sg19
(lp3208
Vhttp://img.beckett.com/images/no-image.jpg
p3209
asg22
V#51
p3210
sg24
V1999-00
p3211
sg26
g27
sg28
(lp3212
VJerry Stackhouse
p3213
assbag1
(g2
g3
Ntp3214
Rp3215
(dp3216
g7
(dp3217
g9
V1999-00 E-X Essential Credentials Now #20 Grant Hill/20
p3218
sg11
I20
sg12
VE-X Essential Credentials Now
p3219
sg14
(lp3220
Vhttp://www.beckett.com/basketball/1999-00/e-x-essential-credentials-now/20-grant-hill20-3205278
p3221
asg17
g18
sg19
(lp3222
Vhttp://img.beckett.com/images/no-image.jpg
p3223
asg22
V#20
p3224
sg24
V1999-00
p3225
sg26
g27
sg28
(lp3226
VGrant Hill
p3227
assbag1
(g2
g3
Ntp3228
Rp3229
(dp3230
g7
(dp3231
g9
V1999-00 E-X Essential Credentials Now #48 Lindsey Hunter/48
p3232
sg11
I48
sg12
VE-X Essential Credentials Now
p3233
sg14
(lp3234
Vhttp://www.beckett.com/basketball/1999-00/e-x-essential-credentials-now/48-lindsey-hunter48-3205306
p3235
asg17
g18
sg19
(lp3236
Vhttp://img.beckett.com/images/items_stock/185226/3205252/3205306/front.jpg
p3237
asg22
V#48
p3238
sg24
V1999-00
p3239
sg26
g27
sg28
(lp3240
VLindsey Hunter
p3241
assbag1
(g2
g3
Ntp3242
Rp3243
(dp3244
g7
(dp3245
g9
V1999-00 E-X Essential Credentials Now #51 Jerry Stackhouse/51
p3246
sg11
I51
sg12
VE-X Essential Credentials Now
p3247
sg14
(lp3248
Vhttp://www.beckett.com/basketball/1999-00/e-x-essential-credentials-now/51-jerry-stackhouse51-3205309
p3249
asg17
g18
sg19
(lp3250
Vhttp://img.beckett.com/images/no-image.jpg
p3251
asg22
V#51
p3252
sg24
V1999-00
p3253
sg26
g27
sg28
(lp3254
VJerry Stackhouse
p3255
assbag1
(g2
g3
Ntp3256
Rp3257
(dp3258
g7
(dp3259
g9
V1999-00 E-X E-Xceptional Green #XC6 Grant Hill
p3260
sg11
I500
sg12
VE-X E-Xceptional Green
p3261
sg14
(lp3262
Vhttp://www.beckett.com/basketball/1999-00/e-x-e-xceptional-green/xc6-grant-hill-3203225
p3263
asg17
g18
sg19
(lp3264
Vhttp://img.beckett.com/images/no-image.jpg
p3265
asg22
V#XC6
p3266
sg24
V1999-00
p3267
sg26
g27
sg28
(lp3268
VGrant Hill
p3269
assbag1
(g2
g3
Ntp3270
Rp3271
(dp3272
g7
(dp3273
g9
V1999-00 E-X E-Xceptional Blue #XC6 Grant Hill
p3274
sg11
I250
sg12
VE-X E-Xceptional Blue
p3275
sg14
(lp3276
Vhttp://www.beckett.com/basketball/1999-00/e-x-e-xceptional-blue/xc6-grant-hill-3205394
p3277
asg17
g18
sg19
(lp3278
Vhttp://img.beckett.com/images/no-image.jpg
p3279
asg22
V#XC6
p3280
sg24
V1999-00
p3281
sg26
g27
sg28
(lp3282
VGrant Hill
p3283
assbag1
(g2
g3
Ntp3284
Rp3285
(dp3286
g7
(dp3287
g9
V1999-00 Finest Team Finest Blue Refractors #TF9 Grant Hill
p3288
sg11
I150
sg12
VFinest Team Finest Blue Refractors
p3289
sg14
(lp3290
Vhttp://www.beckett.com/basketball/1999-00/finest-team-finest-blue-refractors/tf9-grant-hill-3202637
p3291
asg17
g18
sg19
(lp3292
Vhttp://img.beckett.com/images/no-image.jpg
p3293
asg22
V#TF9
p3294
sg24
V1999-00
p3295
sg26
g27
sg28
(lp3296
VGrant Hill
p3297
assbag1
(g2
g3
Ntp3298
Rp3299
(dp3300
g7
(dp3301
g9
V1999-00 Finest Team Finest Gold #TF9 Grant Hill
p3302
sg11
I250
sg12
VFinest Team Finest Gold
p3303
sg14
(lp3304
Vhttp://www.beckett.com/basketball/1999-00/finest-team-finest-gold/tf9-grant-hill-3202668
p3305
asg17
g18
sg19
(lp3306
Vhttp://img.beckett.com/images/no-image.jpg
p3307
asg22
V#TF9
p3308
sg24
V1999-00
p3309
sg26
g27
sg28
(lp3310
VGrant Hill
p3311
assbag1
(g2
g3
Ntp3312
Rp3313
(dp3314
g7
(dp3315
g9
V1999-00 Finest Team Finest Gold Refractors #TF9 Grant Hill
p3316
sg11
I25
sg12
VFinest Team Finest Gold Refractors
p3317
sg14
(lp3318
Vhttp://www.beckett.com/basketball/1999-00/finest-team-finest-gold-refractors/tf9-grant-hill-3202699
p3319
asg17
g18
sg19
(lp3320
Vhttp://img.beckett.com/images/no-image.jpg
p3321
asg22
V#TF9
p3322
sg24
V1999-00
p3323
sg26
g27
sg28
(lp3324
VGrant Hill
p3325
assbag1
(g2
g3
Ntp3326
Rp3327
(dp3328
g7
(dp3329
g9
V1999-00 Finest Team Finest Red #TF9 Grant Hill
p3330
sg11
I500
sg12
VFinest Team Finest Red
p3331
sg14
(lp3332
Vhttp://www.beckett.com/basketball/1999-00/finest-team-finest-red/tf9-grant-hill-3202730
p3333
asg17
g18
sg19
(lp3334
Vhttp://img.beckett.com/images/no-image.jpg
p3335
asg22
V#TF9
p3336
sg24
V1999-00
p3337
sg26
g27
sg28
(lp3338
VGrant Hill
p3339
assbag1
(g2
g3
Ntp3340
Rp3341
(dp3342
g7
(dp3343
g9
V1999-00 Finest Team Finest Red Refractors #TF9 Grant Hill
p3344
sg11
I50
sg12
VFinest Team Finest Red Refractors
p3345
sg14
(lp3346
Vhttp://www.beckett.com/basketball/1999-00/finest-team-finest-red-refractors/tf9-grant-hill-3202761
p3347
asg17
g18
sg19
(lp3348
Vhttp://img.beckett.com/images/no-image.jpg
p3349
asg22
V#TF9
p3350
sg24
V1999-00
p3351
sg26
g27
sg28
(lp3352
VGrant Hill
p3353
assbag1
(g2
g3
Ntp3354
Rp3355
(dp3356
g7
(dp3357
g9
V1999-00 Fleer Focus Soar Subjects Vivid #SS5 Grant Hill
p3358
sg11
I50
sg12
VFleer Focus Soar Subjects Vivid
p3359
sg14
(lp3360
Vhttp://www.beckett.com/basketball/1999-00/fleer-focus-soar-subjects-vivid/ss5-grant-hill-3200051
p3361
asg17
g18
sg19
(lp3362
Vhttp://img.beckett.com/images/no-image.jpg
p3363
asg22
V#SS5
p3364
sg24
V1999-00
p3365
sg26
g27
sg28
(lp3366
VGrant Hill
p3367
assbag1
(g2
g3
Ntp3368
Rp3369
(dp3370
g7
(dp3371
g9
V1999-00 Hoops Build Your Own Card Redemptions #4a Grant Hill/Ball F/Body B
p3372
sg11
I250
sg12
VHoops Build Your Own Card Redemptions
p3373
sg14
(lp3374
Vhttp://www.beckett.com/basketball/1999-00/hoops-build-your-own-card-redemptions/4a-grant-hillball-fbody-b-8642307
p3375
asg17
g18
sg19
(lp3376
Vhttp://img.beckett.com/images/no-image.jpg
p3377
asg22
V#4a
p3378
sg24
V1999-00
p3379
sg26
g27
sg28
(lp3380
VGrant Hill
p3381
aVBall
p3382
aVBody
p3383
assbag1
(g2
g3
Ntp3384
Rp3385
(dp3386
g7
(dp3387
g9
V1999-00 Hoops Build Your Own Card Redemptions #4b Grant Hill/Ball F/Head B
p3388
sg11
I250
sg12
VHoops Build Your Own Card Redemptions
p3389
sg14
(lp3390
Vhttp://www.beckett.com/basketball/1999-00/hoops-build-your-own-card-redemptions/4b-grant-hillball-fhead-b-8642308
p3391
asg17
g18
sg19
(lp3392
Vhttp://img.beckett.com/images/no-image.jpg
p3393
asg22
V#4b
p3394
sg24
V1999-00
p3395
sg26
g27
sg28
(lp3396
VGrant Hill
p3397
aVBall
p3398
aVHead
p3399
assbag1
(g2
g3
Ntp3400
Rp3401
(dp3402
g7
(dp3403
g9
V1999-00 Hoops Build Your Own Card Redemptions #4c Grant Hill/Ball F/Horizonal B
p3404
sg11
I250
sg12
VHoops Build Your Own Card Redemptions
p3405
sg14
(lp3406
Vhttp://www.beckett.com/basketball/1999-00/hoops-build-your-own-card-redemptions/4c-grant-hillball-fhorizonal-b-8642309
p3407
asg17
g18
sg19
(lp3408
Vhttp://img.beckett.com/images/no-image.jpg
p3409
asg22
V#4c
p3410
sg24
V1999-00
p3411
sg26
g27
sg28
(lp3412
VGrant Hill
p3413
aVBall
p3414
aVHorizonal
p3415
assbag1
(g2
g3
Ntp3416
Rp3417
(dp3418
g7
(dp3419
g9
V1999-00 Hoops Build Your Own Card Redemptions #4d Grant Hill/No Ball F/Body B
p3420
sg11
I250
sg12
VHoops Build Your Own Card Redemptions
p3421
sg14
(lp3422
Vhttp://www.beckett.com/basketball/1999-00/hoops-build-your-own-card-redemptions/4d-grant-hillno-ball-fbody-b-8642310
p3423
asg17
g18
sg19
(lp3424
Vhttp://img.beckett.com/images/no-image.jpg
p3425
asg22
V#4d
p3426
sg24
V1999-00
p3427
sg26
g27
sg28
(lp3428
VGrant Hill
p3429
aVBall
p3430
aVBody
p3431
assbag1
(g2
g3
Ntp3432
Rp3433
(dp3434
g7
(dp3435
g9
V1999-00 Hoops Build Your Own Card Redemptions #4e Grant Hill/No Ball F/Head B
p3436
sg11
I250
sg12
VHoops Build Your Own Card Redemptions
p3437
sg14
(lp3438
Vhttp://www.beckett.com/basketball/1999-00/hoops-build-your-own-card-redemptions/4e-grant-hillno-ball-fhead-b-8642311
p3439
asg17
g18
sg19
(lp3440
Vhttp://img.beckett.com/images/no-image.jpg
p3441
asg22
V#4e
p3442
sg24
V1999-00
p3443
sg26
g27
sg28
(lp3444
VGrant Hill
p3445
ag3430
aVHead
p3446
assbag1
(g2
g3
Ntp3447
Rp3448
(dp3449
g7
(dp3450
g9
V1999-00 Hoops Build Your Own Card Redemptions #4f Grant Hill/No Ball F/Horizontal B
p3451
sg11
I250
sg12
VHoops Build Your Own Card Redemptions
p3452
sg14
(lp3453
Vhttp://www.beckett.com/basketball/1999-00/hoops-build-your-own-card-redemptions/4f-grant-hillno-ball-fhorizontal-b-8642312
p3454
asg17
g18
sg19
(lp3455
Vhttp://img.beckett.com/images/no-image.jpg
p3456
asg22
V#4f
p3457
sg24
V1999-00
p3458
sg26
g27
sg28
(lp3459
VGrant Hill
p3460
ag3430
aVHorizonal
p3461
assbag1
(g2
g3
Ntp3462
Rp3463
(dp3464
g7
(dp3465
g9
V1999-00 Hoops Build Your Own Card Redemptions #4g Grant Hill/Shoot F/Body B
p3466
sg11
I250
sg12
VHoops Build Your Own Card Redemptions
p3467
sg14
(lp3468
Vhttp://www.beckett.com/basketball/1999-00/hoops-build-your-own-card-redemptions/4g-grant-hillshoot-fbody-b-8642313
p3469
asg17
g18
sg19
(lp3470
Vhttp://img.beckett.com/images/no-image.jpg
p3471
asg22
V#4g
p3472
sg24
V1999-00
p3473
sg26
g27
sg28
(lp3474
VGrant Hill
p3475
aVShoot
p3476
aVBody
p3477
assbag1
(g2
g3
Ntp3478
Rp3479
(dp3480
g7
(dp3481
g9
V1999-00 Hoops Build Your Own Card Redemptions #4h Grant Hill/Shoot F/Head B
p3482
sg11
I250
sg12
VHoops Build Your Own Card Redemptions
p3483
sg14
(lp3484
Vhttp://www.beckett.com/basketball/1999-00/hoops-build-your-own-card-redemptions/4h-grant-hillshoot-fhead-b-8642314
p3485
asg17
g18
sg19
(lp3486
Vhttp://img.beckett.com/images/no-image.jpg
p3487
asg22
V#4h
p3488
sg24
V1999-00
p3489
sg26
g27
sg28
(lp3490
VGrant Hill
p3491
aVShoot
p3492
aVHead
p3493
assbag1
(g2
g3
Ntp3494
Rp3495
(dp3496
g7
(dp3497
g9
V1999-00 Hoops Build Your Own Card Redemptions #4i Grant Hill/Shoot F/Horizontal B
p3498
sg11
I250
sg12
VHoops Build Your Own Card Redemptions
p3499
sg14
(lp3500
Vhttp://www.beckett.com/basketball/1999-00/hoops-build-your-own-card-redemptions/4i-grant-hillshoot-fhorizontal-b-8642315
p3501
asg17
g18
sg19
(lp3502
Vhttp://img.beckett.com/images/no-image.jpg
p3503
asg22
V#4i
p3504
sg24
V1999-00
p3505
sg26
g27
sg28
(lp3506
VGrant Hill
p3507
aVShoot
p3508
ag3461
assbag1
(g2
g3
Ntp3509
Rp3510
(dp3511
g7
(dp3512
g9
V1999-00 Hoops Pure Players 100% #PP4 Grant Hill
p3513
sg11
I100
sg12
VHoops Pure Players 100%
p3514
sg14
(lp3515
Vhttp://www.beckett.com/basketball/1999-00/hoops-pure-players-100/pp4-grant-hill-3199337
p3516
asg17
g18
sg19
(lp3517
Vhttp://img.beckett.com/images/no-image.jpg
p3518
asg22
V#PP4
p3519
sg24
V1999-00
p3520
sg26
g27
sg28
(lp3521
VGrant Hill
p3522
assbag1
(g2
g3
Ntp3523
Rp3524
(dp3525
g7
(dp3526
g9
V1999-00 Hoops Decade Draft Day Dominance Parallel #DD6 Grant Hill
p3527
sg11
I1989
sg12
VHoops Decade Draft Day Dominance Parallel
p3528
sg14
(lp3529
Vhttp://www.beckett.com/basketball/1999-00/hoops-decade-draft-day-dominance-parallel/dd6-grant-hill-3197306
p3530
asg17
g18
sg19
(lp3531
Vhttp://img.beckett.com/images/no-image.jpg
p3532
asg22
V#DD6
p3533
sg24
V1999-00
p3534
sg26
g27
sg28
(lp3535
VGrant Hill
p3536
assbag1
(g2
g3
Ntp3537
Rp3538
(dp3539
g7
(dp3540
g9
V1999-00 Hoops Decade Up Tempo Parallel #UT13 Grant Hill
p3541
sg11
I1989
sg12
VHoops Decade Up Tempo Parallel
p3542
sg14
(lp3543
Vhttp://www.beckett.com/basketball/1999-00/hoops-decade-up-tempo-parallel/ut13-grant-hill-3197464
p3544
asg17
g18
sg19
(lp3545
Vhttp://img.beckett.com/images/items_stock/185226/3197444/3197464/front.jpg
p3546
asg22
V#UT13
p3547
sg24
V1999-00
p3548
sg26
g27
sg28
(lp3549
VGrant Hill
p3550
assbag1
(g2
g3
Ntp3551
Rp3552
(dp3553
g7
(dp3554
g9
V1999-00 SkyBox Dominion Sky's the Limit Warp Tek #3 Grant Hill
p3555
sg11
I25
sg12
VSkyBox Dominion Sky's the Limit Warp Tek
p3556
sg14
(lp3557
Vhttp://www.beckett.com/basketball/1999-00/skybox-dominion-skys-the-limit-warp-tek/3-grant-hill-3197259
p3558
asg17
g18
sg19
(lp3559
Vhttp://img.beckett.com/images/no-image.jpg
p3560
asg22
V#3
p3561
sg24
V1999-00
p3562
sg26
g27
sg28
(lp3563
VGrant Hill
p3564
assbag1
(g2
g3
Ntp3565
Rp3566
(dp3567
g7
(dp3568
g9
V1999-00 SkyBox Premium Autographics Blue #15 Jud Buechler
p3569
sg11
I50
sg12
VSkyBox Premium Autographics Blue
p3570
sg14
(lp3571
Vhttp://www.beckett.com/basketball/1999-00/skybox-premium-autographics-blue/15-jud-buechler-3195879
p3572
asg17
g18
sg19
(lp3573
Vhttp://img.beckett.com/images/no-image.jpg
p3574
asg22
V#15
p3575
sS'autograph'
p3576
I1
sg24
V1999-00
p3577
sg26
g27
sg28
(lp3578
VJud Buechler
p3579
assbag1
(g2
g3
Ntp3580
Rp3581
(dp3582
g7
(dp3583
g9
V1999-00 SkyBox Premium Autographics Blue #99 Jerry Stackhouse
p3584
sg11
I50
sg12
VSkyBox Premium Autographics Blue
p3585
sg14
(lp3586
Vhttp://www.beckett.com/basketball/1999-00/skybox-premium-autographics-blue/99-jerry-stackhouse-3195963
p3587
asg17
g18
sg19
(lp3588
Vhttp://img.beckett.com/images/no-image.jpg
p3589
asg22
V#99
p3590
sg3576
I1
sg24
V1999-00
p3591
sg26
g27
sg28
(lp3592
VJerry Stackhouse
p3593
assbag1
(g2
g3
Ntp3594
Rp3595
(dp3596
g7
(dp3597
g9
V1999-00 SkyBox Premium Autographics Blue #112 Jerome Williams
p3598
sg11
I50
sg12
VSkyBox Premium Autographics Blue
p3599
sg14
(lp3600
Vhttp://www.beckett.com/basketball/1999-00/skybox-premium-autographics-blue/112-jerome-williams-3195976
p3601
asg17
g18
sg19
(lp3602
Vhttp://img.beckett.com/images/no-image.jpg
p3603
asg22
V#112
p3604
sg3576
I1
sg24
V1999-00
p3605
sg26
g27
sg28
(lp3606
VJerome Williams
p3607
assbag1
(g2
g3
Ntp3608
Rp3609
(dp3610
g7
(dp3611
g9
V1999-00 SkyBox Premium Good Stuff Parallel #7 Grant Hill
p3612
sg11
I99
sg12
VSkyBox Premium Good Stuff Parallel
p3613
sg14
(lp3614
Vhttp://www.beckett.com/basketball/1999-00/skybox-premium-good-stuff-parallel/7-grant-hill-3196065
p3615
asg17
g18
sg19
(lp3616
Vhttp://img.beckett.com/images/no-image.jpg
p3617
asg22
V#7
p3618
sg24
V1999-00
p3619
sg26
g27
sg28
(lp3620
VGrant Hill
p3621
assbag1
(g2
g3
Ntp3622
Rp3623
(dp3624
g7
(dp3625
g9
V1999-00 SP Authentic Sign of the Times Gold #JS Jerry Stackhouse
p3626
sg11
I25
sg12
VSP Authentic Sign of the Times Gold
p3627
sg14
(lp3628
Vhttp://www.beckett.com/basketball/1999-00/sp-authentic-sign-of-the-times-gold/js-jerry-stackhouse-3193021
p3629
asg17
g18
sg19
(lp3630
Vhttp://img.beckett.com/images/no-image.jpg
p3631
asg22
V#JS
p3632
sg3576
I1
sg24
V1999-00
p3633
sg26
g27
sg28
(lp3634
VJerry Stackhouse
p3635
assbag1
(g2
g3
Ntp3636
Rp3637
(dp3638
g7
(dp3639
g9
V1999-00 Stadium Club Never Compromise Game-View #NCG12 Grant Hill
p3640
sg11
I100
sg12
VStadium Club Never Compromise Game-View
p3641
sg14
(lp3642
Vhttp://www.beckett.com/basketball/1999-00/stadium-club-never-compromise-game-view/ncg12-grant-hill-3192146
p3643
asg17
g18
sg19
(lp3644
Vhttp://img.beckett.com/images/no-image.jpg
p3645
asg22
V#NCG12
p3646
sg24
V1999-00
p3647
sg26
g27
sg28
(lp3648
VGrant Hill
p3649
assbag1
(g2
g3
Ntp3650
Rp3651
(dp3652
g7
(dp3653
g9
V1999-00 Topps Gold Label Prime Gold One to One #PG11 Grant Hill
p3654
sg11
I1
sg12
VTopps Gold Label Prime Gold One to One
p3655
sg14
(lp3656
Vhttp://www.beckett.com/basketball/1999-00/topps-gold-label-prime-gold-one-to-one/pg11-grant-hill-3187678
p3657
asg17
g18
sg19
(lp3658
Vhttp://img.beckett.com/images/no-image.jpg
p3659
asg22
V#PG11
p3660
sg24
V1999-00
p3661
sg26
g27
sg28
(lp3662
VGrant Hill
p3663
assbag1
(g2
g3
Ntp3664
Rp3665
(dp3666
g7
(dp3667
g9
V1999-00 Topps Gold Label Prime Gold Red Label #PG11 Grant Hill
p3668
sg11
I25
sg12
VTopps Gold Label Prime Gold Red Label
p3669
sg14
(lp3670
Vhttp://www.beckett.com/basketball/1999-00/topps-gold-label-prime-gold-red-label/pg11-grant-hill-3187697
p3671
asg17
g18
sg19
(lp3672
Vhttp://img.beckett.com/images/no-image.jpg
p3673
asg22
V#PG11
p3674
sg24
V1999-00
p3675
sg26
g27
sg28
(lp3676
VGrant Hill
p3677
assbag1
(g2
g3
Ntp3678
Rp3679
(dp3680
g7
(dp3681
g9
V1999-00 Upper Deck BioGraphics Level 1 #B13 Jerry Stackhouse
p3682
sg11
I100
sg12
VUpper Deck BioGraphics Level 1
p3683
sg14
(lp3684
Vhttp://www.beckett.com/basketball/1999-00/upper-deck-biographics-level-1/b13-jerry-stackhouse-3187319
p3685
asg17
g18
sg19
(lp3686
Vhttp://img.beckett.com/images/no-image.jpg
p3687
asg22
V#B13
p3688
sg24
V1999-00
p3689
sg26
g27
sg28
(lp3690
VJerry Stackhouse
p3691
assbag1
(g2
g3
Ntp3692
Rp3693
(dp3694
g7
(dp3695
g9
V1999-00 Upper Deck BioGraphics Level 2 #B13 Jerry Stackhouse
p3696
sg11
I25
sg12
VUpper Deck BioGraphics Level 2
p3697
sg14
(lp3698
Vhttp://www.beckett.com/basketball/1999-00/upper-deck-biographics-level-2/b13-jerry-stackhouse-3187357
p3699
asg17
g18
sg19
(lp3700
Vhttp://img.beckett.com/images/no-image.jpg
p3701
asg22
V#B13
p3702
sg24
V1999-00
p3703
sg26
g27
sg28
(lp3704
VJerry Stackhouse
p3705
assbag1
(g2
g3
Ntp3706
Rp3707
(dp3708
g7
(dp3709
g9
V1999-00 Upper Deck High Definition Level 1 #HD17 Grant Hill
p3710
sg11
I100
sg12
VUpper Deck High Definition Level 1
p3711
sg14
(lp3712
Vhttp://www.beckett.com/basketball/1999-00/upper-deck-high-definition-level-1/hd17-grant-hill-3185206
p3713
asg17
g18
sg19
(lp3714
Vhttp://img.beckett.com/images/items_stock/185226/3185182/3185206/front.jpg
p3715
asg22
V#HD17
p3716
sg24
V1999-00
p3717
sg26
g27
sg28
(lp3718
VGrant Hill
p3719
assbag1
(g2
g3
Ntp3720
Rp3721
(dp3722
g7
(dp3723
g9
V1999-00 Upper Deck High Definition Level 2 #HD17 Grant Hill
p3724
sg11
I25
sg12
VUpper Deck High Definition Level 2
p3725
sg14
(lp3726
Vhttp://www.beckett.com/basketball/1999-00/upper-deck-high-definition-level-2/hd17-grant-hill-3185234
p3727
asg17
g18
sg19
(lp3728
Vhttp://img.beckett.com/images/no-image.jpg
p3729
asg22
V#HD17
p3730
sg24
V1999-00
p3731
sg26
g27
sg28
(lp3732
VGrant Hill
p3733
assbag1
(g2
g3
Ntp3734
Rp3735
(dp3736
g7
(dp3737
g9
V1999-00 Upper Deck History Class Level 1 #HC11 Dave Bing
p3738
sg11
I100
sg12
VUpper Deck History Class Level 1
p3739
sg14
(lp3740
Vhttp://www.beckett.com/basketball/1999-00/upper-deck-history-class-level-1/hc11-dave-bing-3185286
p3741
asg17
g18
sg19
(lp3742
Vhttp://img.beckett.com/images/no-image.jpg
p3743
asg22
V#HC11
p3744
sg24
V1999-00
p3745
sg26
g27
sg28
(lp3746
VDave Bing
p3747
assbag1
(g2
g3
Ntp3748
Rp3749
(dp3750
g7
(dp3751
g9
V1999-00 Upper Deck History Class Level 1 #HC13 Bob Lanier
p3752
sg11
I100
sg12
VUpper Deck History Class Level 1
p3753
sg14
(lp3754
Vhttp://www.beckett.com/basketball/1999-00/upper-deck-history-class-level-1/hc13-bob-lanier-3185288
p3755
asg17
g18
sg19
(lp3756
Vhttp://img.beckett.com/images/items_stock/185226/3185268/3185288/front.jpg
p3757
asg22
V#HC13
p3758
sg24
V1999-00
p3759
sg26
g27
sg28
(lp3760
VBob Lanier
p3761
assbag1
(g2
g3
Ntp3762
Rp3763
(dp3764
g7
(dp3765
g9
V1999-00 Upper Deck History Class Level 2 #HC13 Bob Lanier
p3766
sg11
I25
sg12
VUpper Deck History Class Level 2
p3767
sg14
(lp3768
Vhttp://www.beckett.com/basketball/1999-00/upper-deck-history-class-level-2/hc13-bob-lanier-3185316
p3769
asg17
g18
sg19
(lp3770
Vhttp://img.beckett.com/images/no-image.jpg
p3771
asg22
V#HC13
p3772
sg24
V1999-00
p3773
sg26
g27
sg28
(lp3774
VBob Lanier
p3775
assbag1
(g2
g3
Ntp3776
Rp3777
(dp3778
g7
(dp3779
g9
V1999-00 Upper Deck Jamboree Level 1 #J13 Grant Hill
p3780
sg11
I100
sg12
VUpper Deck Jamboree Level 1
p3781
sg14
(lp3782
Vhttp://www.beckett.com/basketball/1999-00/upper-deck-jamboree-level-1/j13-grant-hill-3185373
p3783
asg17
g18
sg19
(lp3784
Vhttp://img.beckett.com/images/no-image.jpg
p3785
asg22
V#J13
p3786
sg24
V1999-00
p3787
sg26
g27
sg28
(lp3788
VGrant Hill
p3789
assbag1
(g2
g3
Ntp3790
Rp3791
(dp3792
g7
(dp3793
g9
V1999-00 Upper Deck Jamboree Level 2 #J13 Grant Hill
p3794
sg11
I25
sg12
VUpper Deck Jamboree Level 2
p3795
sg14
(lp3796
Vhttp://www.beckett.com/basketball/1999-00/upper-deck-jamboree-level-2/j13-grant-hill-3185396
p3797
asg17
g18
sg19
(lp3798
Vhttp://img.beckett.com/images/no-image.jpg
p3799
asg22
V#J13
p3800
sg24
V1999-00
p3801
sg26
g27
sg28
(lp3802
VGrant Hill
p3803
assbag1
(g2
g3
Ntp3804
Rp3805
(dp3806
g7
(dp3807
g9
V1999-00 Upper Deck Now Showing Level 1 #NS8 Grant Hill
p3808
sg11
I100
sg12
VUpper Deck Now Showing Level 1
p3809
sg14
(lp3810
Vhttp://www.beckett.com/basketball/1999-00/upper-deck-now-showing-level-1/ns8-grant-hill-3184277
p3811
asg17
g18
sg19
(lp3812
Vhttp://img.beckett.com/images/no-image.jpg
p3813
asg22
V#NS8
p3814
sg24
V1999-00
p3815
sg26
g27
sg28
(lp3816
VGrant Hill
p3817
assbag1
(g2
g3
Ntp3818
Rp3819
(dp3820
g7
(dp3821
g9
V1999-00 Upper Deck Now Showing Level 2 #NS8 Grant Hill
p3822
sg11
I25
sg12
VUpper Deck Now Showing Level 2
p3823
sg14
(lp3824
Vhttp://www.beckett.com/basketball/1999-00/upper-deck-now-showing-level-2/ns8-grant-hill-3184315
p3825
asg17
g18
sg19
(lp3826
Vhttp://img.beckett.com/images/no-image.jpg
p3827
asg22
V#NS8
p3828
sg24
V1999-00
p3829
sg26
g27
sg28
(lp3830
VGrant Hill
p3831
assbag1
(g2
g3
Ntp3832
Rp3833
(dp3834
g7
(dp3835
g9
V1999-00 Upper Deck Star Surge Level 1 #S7 Grant Hill
p3836
sg11
I100
sg12
VUpper Deck Star Surge Level 1
p3837
sg14
(lp3838
Vhttp://www.beckett.com/basketball/1999-00/upper-deck-star-surge-level-1/s7-grant-hill-3184478
p3839
asg17
g18
sg19
(lp3840
Vhttp://img.beckett.com/images/items_stock/185226/3184464/3184478/front.jpg
p3841
asg22
V#S7
p3842
sg24
V1999-00
p3843
sg26
g27
sg28
(lp3844
VGrant Hill
p3845
assbag1
(g2
g3
Ntp3846
Rp3847
(dp3848
g7
(dp3849
g9
V1999-00 Upper Deck Star Surge Level 2 #S7 Grant Hill
p3850
sg11
I25
sg12
VUpper Deck Star Surge Level 2
p3851
sg14
(lp3852
Vhttp://www.beckett.com/basketball/1999-00/upper-deck-star-surge-level-2/s7-grant-hill-3184501
p3853
asg17
g18
sg19
(lp3854
Vhttp://img.beckett.com/images/no-image.jpg
p3855
asg22
V#S7
p3856
sg24
V1999-00
p3857
sg26
g27
sg28
(lp3858
VGrant Hill
p3859
assbag1
(g2
g3
Ntp3860
Rp3861
(dp3862
g7
(dp3863
g9
V1999-00 Upper Deck Wild! Level 1 #W6 Grant Hill
p3864
sg11
I100
sg12
VUpper Deck Wild! Level 1
p3865
sg14
(lp3866
Vhttp://www.beckett.com/basketball/1999-00/upper-deck-wild-level-1/w6-grant-hill-3184557
p3867
asg17
g18
sg19
(lp3868
Vhttp://img.beckett.com/images/no-image.jpg
p3869
asg22
V#W6
p3870
sg24
V1999-00
p3871
sg26
g27
sg28
(lp3872
VGrant Hill
p3873
assbag1
(g2
g3
Ntp3874
Rp3875
(dp3876
g7
(dp3877
g9
V1999-00 Upper Deck Wild! Level 2 #W6 Grant Hill
p3878
sg11
I25
sg12
VUpper Deck Wild! Level 2
p3879
sg14
(lp3880
Vhttp://www.beckett.com/basketball/1999-00/upper-deck-wild-level-2/w6-grant-hill-3184584
p3881
asg17
g18
sg19
(lp3882
Vhttp://img.beckett.com/images/no-image.jpg
p3883
asg22
V#W6
p3884
sg24
V1999-00
p3885
sg26
g27
sg28
(lp3886
VGrant Hill
p3887
assbag1
(g2
g3
Ntp3888
Rp3889
(dp3890
g7
(dp3891
g9
V1999-00 Upper Deck Retro Old School/New School Parallel #S30 Grant Hill
p3892
sg11
I500
sg12
VUpper Deck Retro Old School/New School Parallel
p3893
sg14
(lp3894
Vhttp://www.beckett.com/basketball/1999-00/upper-deck-retro-old-schoolnew-school-parallel/s30-grant-hill-3180195
p3895
asg17
g18
sg19
(lp3896
Vhttp://img.beckett.com/images/no-image.jpg
p3897
asg22
V#S30
p3898
sg24
V1999-00
p3899
sg26
g27
sg28
(lp3900
VGrant Hill
p3901
assba.