(lp0
Naccopy_reg
_reconstructor
p1
(ctutorial.items
BeckettItem
p2
c__builtin__
object
p3
Ntp4
Rp5
(dp6
S'_values'
p7
(dp8
S'originalItemDescription'
p9
V1999 Upper Deck Century Legends Century Collection #3 Wilt Chamberlain
p10
sS'serialNumber'
p11
I100
sS'setName'
p12
VUpper Deck Century Legends Century Collection
p13
sS'beckettLink'
p14
(lp15
Vhttp://www.beckett.com/basketball/1999/upper-deck-century-legends-century-collection/3-wilt-chamberlain-3175433
p16
asS'team'
p17
S'Los Angeles Lakers'
p18
sS'imageLink'
p19
(lp20
Vhttp://img.beckett.com/images/no-image.jpg
p21
asS'cardNumber'
p22
V#3
p23
sS'year'
p24
V1999
p25
sS'sport'
p26
S'Basketball'
p27
sS'playerNames'
p28
(lp29
VWilt Chamberlain
p30
assbag1
(g2
g3
Ntp31
Rp32
(dp33
g7
(dp34
g9
V1999 Upper Deck Century Legends Century Collection #9 Elgin Baylor
p35
sg11
I100
sg12
VUpper Deck Century Legends Century Collection
p36
sg14
(lp37
Vhttp://www.beckett.com/basketball/1999/upper-deck-century-legends-century-collection/9-elgin-baylor-3175439
p38
asg17
g18
sg19
(lp39
Vhttp://img.beckett.com/images/no-image.jpg
p40
asg22
V#9
p41
sg24
V1999
p42
sg26
g27
sg28
(lp43
VElgin Baylor
p44
assbag1
(g2
g3
Ntp45
Rp46
(dp47
g7
(dp48
g9
V1999 Upper Deck Century Legends Century Collection #10 Kareem Abdul-Jabbar
p49
sg11
I100
sg12
VUpper Deck Century Legends Century Collection
p50
sg14
(lp51
Vhttp://www.beckett.com/basketball/1999/upper-deck-century-legends-century-collection/10-kareem-abdul-jabbar-3175440
p52
asg17
g18
sg19
(lp53
Vhttp://img.beckett.com/images/no-image.jpg
p54
asg22
V#10
p55
sg24
V1999
p56
sg26
g27
sg28
(lp57
VKareem Abdul-Jabbar
p58
assbag1
(g2
g3
Ntp59
Rp60
(dp61
g7
(dp62
g9
V1999 Upper Deck Century Legends Century Collection #11 Jerry West
p63
sg11
I100
sg12
VUpper Deck Century Legends Century Collection
p64
sg14
(lp65
Vhttp://www.beckett.com/basketball/1999/upper-deck-century-legends-century-collection/11-jerry-west-3175441
p66
asg17
g18
sg19
(lp67
Vhttp://img.beckett.com/images/no-image.jpg
p68
asg22
V#11
p69
sg24
V1999
p70
sg26
g27
sg28
(lp71
VJerry West
p72
assbag1
(g2
g3
Ntp73
Rp74
(dp75
g7
(dp76
g9
V1999 Upper Deck Century Legends Century Collection #41 James Worthy
p77
sg11
I100
sg12
VUpper Deck Century Legends Century Collection
p78
sg14
(lp79
Vhttp://www.beckett.com/basketball/1999/upper-deck-century-legends-century-collection/41-james-worthy-3175471
p80
asg17
g18
sg19
(lp81
Vhttp://img.beckett.com/images/no-image.jpg
p82
asg22
V#41
p83
sg24
V1999
p84
sg26
g27
sg28
(lp85
VJames Worthy
p86
assbag1
(g2
g3
Ntp87
Rp88
(dp89
g7
(dp90
g9
V1999 Upper Deck Century Legends Century Collection #48 Shaquille O'Neal
p91
sg11
I100
sg12
VUpper Deck Century Legends Century Collection
p92
sg14
(lp93
Vhttp://www.beckett.com/basketball/1999/upper-deck-century-legends-century-collection/48-shaquille-oneal-3175478
p94
asg17
g18
sg19
(lp95
Vhttp://img.beckett.com/images/no-image.jpg
p96
asg22
V#48
p97
sg24
V1999
p98
sg26
g27
sg28
(lp99
VShaquille O'Neal
p100
assbag1
(g2
g3
Ntp101
Rp102
(dp103
g7
(dp104
g9
V1999 Upper Deck Century Legends Century Collection #51 Kobe Bryant
p105
sg11
I100
sg12
VUpper Deck Century Legends Century Collection
p106
sg14
(lp107
Vhttp://www.beckett.com/basketball/1999/upper-deck-century-legends-century-collection/51-kobe-bryant-3175481
p108
asg17
g18
sg19
(lp109
Vhttp://img.beckett.com/images/no-image.jpg
p110
asg22
V#51
p111
sg24
V1999
p112
sg26
g27
sg28
(lp113
VKobe Bryant
p114
assbag1
(g2
g3
Ntp115
Rp116
(dp117
g7
(dp118
g9
V1999 Upper Deck Century Legends Century Collection #66 Shaquille O'Neal
p119
sg11
I100
sg12
VUpper Deck Century Legends Century Collection
p120
sg14
(lp121
Vhttp://www.beckett.com/basketball/1999/upper-deck-century-legends-century-collection/66-shaquille-oneal-3175496
p122
asg17
g18
sg19
(lp123
Vhttp://img.beckett.com/images/no-image.jpg
p124
asg22
V#66
p125
sg24
V1999
p126
sg26
g27
sg28
(lp127
VShaquille O'Neal
p128
assbag1
(g2
g3
Ntp129
Rp130
(dp131
g7
(dp132
g9
V1999 Upper Deck Century Legends Jerseys of the Century #KAA Kareem Abdul-Jabbar AU/33
p133
sg11
I33
sg12
VUpper Deck Century Legends Jerseys of the Century
p134
sg14
(lp135
Vhttp://www.beckett.com/basketball/1999/upper-deck-century-legends-jerseys-of-the-century/kaa-kareem-abdul-jabbar-au33-3175677
p136
asg17
g18
sS'memorabilia'
p137
I1
sg19
(lp138
Vhttp://img.beckett.com/images/no-image.jpg
p139
asg22
V#KAA
p140
sS'autograph'
p141
I1
sg24
V1999
p142
sg26
g27
sg28
(lp143
VKareem Abdul-Jabbar
p144
assbag1
(g2
g3
Ntp145
Rp146
(dp147
g7
(dp148
g9
V1999 SAGE Autographs #A9 Kobe Bryant/114
p149
sg11
I114
sg12
VSAGE Autographs
p150
sg14
(lp151
Vhttp://www.beckett.com/basketball/1999/sage-autographs/a9-kobe-bryant114-3177162
p152
asg17
g18
sg19
(lp153
Vhttp://img.beckett.com/images/no-image.jpg
p154
asg22
V#A9
p155
sg141
I1
sg24
V1999
p156
sg26
g27
sg28
(lp157
VKobe Bryant
p158
assbag1
(g2
g3
Ntp159
Rp160
(dp161
g7
(dp162
g9
V1999 SAGE Autographs Bonus White #A6 Kobe Bryant/10
p163
sg11
I10
sg12
VSAGE Autographs Bonus White
p164
sg14
(lp165
Vhttp://www.beckett.com/basketball/1999/sage-autographs-bonus-white/a6-kobe-bryant10-3177212
p166
asg17
g18
sg19
(lp167
Vhttp://img.beckett.com/images/no-image.jpg
p168
asg22
V#A6
p169
sg141
I1
sg24
V1999
p170
sg26
g27
sg28
(lp171
VKobe Bryant
p172
assbag1
(g2
g3
Ntp173
Rp174
(dp175
g7
(dp176
g9
V1999 SAGE Autographs Bronze #A9 Kobe Bryant/80
p177
sg11
I80
sg12
VSAGE Autographs Bronze
p178
sg14
(lp179
Vhttp://www.beckett.com/basketball/1999/sage-autographs-bronze/a9-kobe-bryant80-3177251
p180
asg17
g18
sg19
(lp181
Vhttp://img.beckett.com/images/no-image.jpg
p182
asg22
V#A9
p183
sg141
I1
sg24
V1999
p184
sg26
g27
sg28
(lp185
VKobe Bryant
p186
assbag1
(g2
g3
Ntp187
Rp188
(dp189
g7
(dp190
g9
V1999 SAGE Autographs Gold #A9 Kobe Bryant/25
p191
sg11
I25
sg12
VSAGE Autographs Gold
p192
sg14
(lp193
Vhttp://www.beckett.com/basketball/1999/sage-autographs-gold/a9-kobe-bryant25-3177368
p194
asg17
g18
sg19
(lp195
Vhttp://img.beckett.com/images/no-image.jpg
p196
asg22
V#A9
p197
sg141
I1
sg24
V1999
p198
sg26
g27
sg28
(lp199
VKobe Bryant
p200
assbag1
(g2
g3
Ntp201
Rp202
(dp203
g7
(dp204
g9
V1999 SAGE Autographs Master Edition #A9 Kobe Bryant
p205
sg11
I1
sg12
VSAGE Autographs Master Edition
p206
sg14
(lp207
Vhttp://www.beckett.com/basketball/1999/sage-autographs-master-edition/a9-kobe-bryant-3178708
p208
asg17
g18
sg19
(lp209
Vhttp://img.beckett.com/images/no-image.jpg
p210
asg22
V#A9
p211
sg141
I1
sg24
V1999
p212
sg26
g27
sg28
(lp213
VKobe Bryant
p214
assbag1
(g2
g3
Ntp215
Rp216
(dp217
g7
(dp218
g9
V1999 SAGE Autographs Platinum #A9 Kobe Bryant/10
p219
sg11
I10
sg12
VSAGE Autographs Platinum
p220
sg14
(lp221
Vhttp://www.beckett.com/basketball/1999/sage-autographs-platinum/a9-kobe-bryant10-3178651
p222
asg17
g18
sg19
(lp223
Vhttp://img.beckett.com/images/no-image.jpg
p224
asg22
V#A9
p225
sg141
I1
sg24
V1999
p226
sg26
g27
sg28
(lp227
VKobe Bryant
p228
assbag1
(g2
g3
Ntp229
Rp230
(dp231
g7
(dp232
g9
V1999 SAGE Autographs Silver #A9 Kobe Bryant/50
p233
sg11
I50
sg12
VSAGE Autographs Silver
p234
sg14
(lp235
Vhttp://www.beckett.com/basketball/1999/sage-autographs-silver/a9-kobe-bryant50-3177309
p236
asg17
g18
sg19
(lp237
Vhttp://img.beckett.com/images/no-image.jpg
p238
asg22
V#A9
p239
sg141
I1
sg24
V1999
p240
sg26
g27
sg28
(lp241
VKobe Bryant
p242
assbag1
(g2
g3
Ntp243
Rp244
(dp245
g7
(dp246
g9
V1999-00 E-X Essential Credentials Future #25 Kobe Bryant/36
p247
sg11
I36
sg12
VE-X Essential Credentials Future
p248
sg14
(lp249
Vhttp://www.beckett.com/basketball/1999-00/e-x-essential-credentials-future/25-kobe-bryant36-3205186
p250
asg17
g18
sg19
(lp251
Vhttp://img.beckett.com/images/no-image.jpg
p252
asg22
V#25
p253
sg24
V1999-00
p254
sg26
g27
sg28
(lp255
VKobe Bryant
p256
assbag1
(g2
g3
Ntp257
Rp258
(dp259
g7
(dp260
g9
V1999-00 E-X #85 Devean George RC
p261
sg11
I3499
sg12
VE-X
p262
sg14
(lp263
Vhttp://www.beckett.com/basketball/1999-00/e-x/85-devean-george-rc-3205146
p264
asg17
g18
sS'rookieCard'
p265
I1
sg19
(lp266
Vhttp://img.beckett.com/images/no-image.jpg
p267
asg22
V#85
p268
sg24
V1999-00
p269
sg26
g27
sg28
(lp270
VDevean George
p271
assbag1
(g2
g3
Ntp272
Rp273
(dp274
g7
(dp275
g9
V1999-00 Flair Showcase #117 Devean George RC
p276
sg11
I2000
sg12
VFlair Showcase
p277
sg14
(lp278
Vhttp://www.beckett.com/basketball/1999-00/flair-showcase/117-devean-george-rc-3202901
p279
asg17
g18
sg265
I1
sg19
(lp280
Vhttp://img.beckett.com/images/no-image.jpg
p281
asg22
V#117
p282
sg24
V1999-00
p283
sg26
g27
sg28
(lp284
VDevean George
p285
assbag1
(g2
g3
Ntp286
Rp287
(dp288
g7
(dp289
g9
V1999-00 Fleer Focus #110 Devean George RC
p290
sg11
I3000
sg12
VFleer Focus
p291
sg14
(lp292
Vhttp://www.beckett.com/basketball/1999-00/fleer-focus/110-devean-george-rc-3201973
p293
asg17
g18
sg265
I1
sg19
(lp294
Vhttp://img.beckett.com/images/no-image.jpg
p295
asg22
V#110
p296
sg24
V1999-00
p297
sg26
g27
sg28
(lp298
VDevean George
p299
assbag1
(g2
g3
Ntp300
Rp301
(dp302
g7
(dp303
g9
V1999-00 Fleer Focus #110A Devean George SP
p304
sg11
I999
sg12
VFleer Focus
p305
sg14
(lp306
Vhttp://www.beckett.com/basketball/1999-00/fleer-focus/110a-devean-george-sp-3201974
p307
asg17
g18
sg19
(lp308
Vhttp://img.beckett.com/images/no-image.jpg
p309
asg22
V#110A
p310
sg24
V1999-00
p311
sS'subsetName'
p312
VSP
p313
sg26
g27
sg28
(lp314
VDevean George
p315
assbag1
(g2
g3
Ntp316
Rp317
(dp318
g7
(dp319
g9
V1999-00 Fleer Focus #128 John Celestand RC
p320
sg11
I3000
sg12
VFleer Focus
p321
sg14
(lp322
Vhttp://www.beckett.com/basketball/1999-00/fleer-focus/128-john-celestand-rc-3202009
p323
asg17
g18
sg265
I1
sg19
(lp324
Vhttp://img.beckett.com/images/no-image.jpg
p325
asg22
V#128
p326
sg24
V1999-00
p327
sg26
g27
sg28
(lp328
VJohn Celestand
p329
assbag1
(g2
g3
Ntp330
Rp331
(dp332
g7
(dp333
g9
V1999-00 Fleer Focus #128A John Celestand SP
p334
sg11
I999
sg12
VFleer Focus
p335
sg14
(lp336
Vhttp://www.beckett.com/basketball/1999-00/fleer-focus/128a-john-celestand-sp-3202010
p337
asg17
g18
sg19
(lp338
Vhttp://img.beckett.com/images/no-image.jpg
p339
asg22
V#128A
p340
sg24
V1999-00
p341
sg312
VSP
p342
sg26
g27
sg28
(lp343
VJohn Celestand
p344
assbag1
(g2
g3
Ntp345
Rp346
(dp347
g7
(dp348
g9
V1999-00 Fleer Force #224 Devean George RC
p349
sg11
I1600
sg12
VFleer Force
p350
sg14
(lp351
Vhttp://www.beckett.com/basketball/1999-00/fleer-force/224-devean-george-rc-3200298
p352
asg17
g18
sg265
I1
sg19
(lp353
Vhttp://img.beckett.com/images/items_stock/185226/3200062/3200298/front.jpg
p354
asg22
V#224
p355
sg24
V1999-00
p356
sg26
g27
sg28
(lp357
VDevean George
p358
assbag1
(g2
g3
Ntp359
Rp360
(dp361
g7
(dp362
g9
V1999-00 Fleer Force #228 John Celestand RC
p363
sg11
I1600
sg12
VFleer Force
p364
sg14
(lp365
Vhttp://www.beckett.com/basketball/1999-00/fleer-force/228-john-celestand-rc-3200302
p366
asg17
g18
sg265
I1
sg19
(lp367
Vhttp://img.beckett.com/images/items_stock/185226/3200062/3200302/front.jpg
p368
asg22
V#228
p369
sg24
V1999-00
p370
sg26
g27
sg28
(lp371
VJohn Celestand
p372
assbag1
(g2
g3
Ntp373
Rp374
(dp375
g7
(dp376
g9
V1999-00 Fleer Mystique #116 Devean George RC
p377
sg11
I2999
sg12
VFleer Mystique
p378
sg14
(lp379
Vhttp://www.beckett.com/basketball/1999-00/fleer-mystique/116-devean-george-rc-3198450
p380
asg17
g18
sg265
I1
sg19
(lp381
Vhttp://img.beckett.com/images/items_stock/185226/3198320/3198450/front.jpg
p382
asg22
V#116
p383
sg24
V1999-00
p384
sg26
g27
sg28
(lp385
VDevean George
p386
assbag1
(g2
g3
Ntp387
Rp388
(dp389
g7
(dp390
g9
V1999-00 Fleer Mystique #141 Kobe Bryant STAR
p391
sg11
I2500
sg12
VFleer Mystique
p392
sg14
(lp393
Vhttp://www.beckett.com/basketball/1999-00/fleer-mystique/141-kobe-bryant-star-3198475
p394
asg17
g18
sg19
(lp395
Vhttp://img.beckett.com/images/items_stock/185226/3198320/3198475/front.jpg
p396
asg22
V#141
p397
sg24
V1999-00
p398
sg312
VSTAR
p399
sg26
g27
sg28
(lp400
VKobe Bryant
p401
assbag1
(g2
g3
Ntp402
Rp403
(dp404
g7
(dp405
g9
V1999-00 Fleer Mystique #150 Shaquille O'Neal STAR
p406
sg11
I2500
sg12
VFleer Mystique
p407
sg14
(lp408
Vhttp://www.beckett.com/basketball/1999-00/fleer-mystique/150-shaquille-oneal-star-3198484
p409
asg17
g18
sg19
(lp410
Vhttp://img.beckett.com/images/items_stock/185226/3198320/3198484/front.jpg
p411
asg22
V#150
p412
sg24
V1999-00
p413
sg312
VSTAR
p414
sg26
g27
sg28
(lp415
VShaquille O'Neal
p416
assbag1
(g2
g3
Ntp417
Rp418
(dp419
g7
(dp420
g9
V1999-00 SP Authentic #110 Devean George RC
p421
sg11
I1500
sg12
VSP Authentic
p422
sg14
(lp423
Vhttp://www.beckett.com/basketball/1999-00/sp-authentic/110-devean-george-rc-3196255
p424
asg17
g18
sg265
I1
sg19
(lp425
Vhttp://img.beckett.com/images/no-image.jpg
p426
asg22
V#110
p427
sg24
V1999-00
p428
sg26
g27
sg28
(lp429
VDevean George
p430
assbag1
(g2
g3
Ntp431
Rp432
(dp433
g7
(dp434
g9
V1999-00 SP Authentic #134 John Celestand RC
p435
sg11
I1500
sg12
VSP Authentic
p436
sg14
(lp437
Vhttp://www.beckett.com/basketball/1999-00/sp-authentic/134-john-celestand-rc-3196279
p438
asg17
g18
sg265
I1
sg19
(lp439
Vhttp://img.beckett.com/images/no-image.jpg
p440
asg22
V#134
p441
sg24
V1999-00
p442
sg26
g27
sg28
(lp443
VJohn Celestand
p444
assbag1
(g2
g3
Ntp445
Rp446
(dp447
g7
(dp448
g9
V1999-00 SPx #110 Devean George AU/2500 RC
p449
sg11
I2500
sg12
VSPx
p450
sg14
(lp451
Vhttp://www.beckett.com/basketball/1999-00/spx/110-devean-george-au2500-rc-3193190
p452
asg17
g18
sg265
I1
sg19
(lp453
Vhttp://img.beckett.com/images/items_stock/185226/3193067/3193190/front.jpg
p454
asg22
V#110
p455
sg141
I1
sg24
V1999-00
p456
sg26
g27
sg28
(lp457
VDevean George
p458
assbag1
(g2
g3
Ntp459
Rp460
(dp461
g7
(dp462
g9
V1999-00 UD Ionix #82 Devean George RC
p463
sg11
I3500
sg12
VUD Ionix
p464
sg14
(lp465
Vhttp://www.beckett.com/basketball/1999-00/ud-ionix/82-devean-george-rc-3188012
p466
asg17
g18
sg265
I1
sg19
(lp467
Vhttp://img.beckett.com/images/items_stock/185226/3187919/3188012/front.jpg
p468
asg22
V#82
p469
sg24
V1999-00
p470
sg26
g27
sg28
(lp471
VDevean George
p472
assbag1
(g2
g3
Ntp473
Rp474
(dp475
g7
(dp476
g9
V1999-00 Upper Deck Encore #112 Devean George RC
p477
sg11
I1999
sg12
VUpper Deck Encore
p478
sg14
(lp479
Vhttp://www.beckett.com/basketball/1999-00/upper-deck-encore/112-devean-george-rc-3184721
p480
asg17
g18
sg265
I1
sg19
(lp481
Vhttp://img.beckett.com/images/items_stock/185226/3184598/3184721/front.jpg
p482
asg22
V#112
p483
sg24
V1999-00
p484
sg26
g27
sg28
(lp485
VDevean George
p486
assbag1
(g2
g3
Ntp487
Rp488
(dp489
g7
(dp490
g9
V1999-00 Upper Deck Gold Reserve #262 Devean George RC
p491
sg11
I3500
sg12
VUpper Deck Gold Reserve
p492
sg14
(lp493
Vhttp://www.beckett.com/basketball/1999-00/upper-deck-gold-reserve/262-devean-george-rc-3183566
p494
asg17
g18
sg265
I1
sg19
(lp495
Vhttp://img.beckett.com/images/items_stock/185226/3183293/3183566/front.jpg
p496
asg22
V#262
p497
sg24
V1999-00
p498
sg26
g27
sg28
(lp499
VDevean George
p500
assbag1
(g2
g3
Ntp501
Rp502
(dp503
g7
(dp504
g9
V1999-00 Upper Deck Hardcourt #GF6 Wilt Chamberlain Floor/100
p505
sg11
I100
sg12
VUpper Deck Hardcourt
p506
sg14
(lp507
Vhttp://www.beckett.com/basketball/1999-00/upper-deck-hardcourt/gf6-wilt-chamberlain-floor100-3183739
p508
asg17
g18
sg137
I1
sg19
(lp509
Vhttp://img.beckett.com/images/no-image.jpg
p510
asg22
V#GF6
p511
sg24
V1999-00
p512
sg26
g27
sg28
(lp513
VWilt Chamberlain
p514
assbag1
(g2
g3
Ntp515
Rp516
(dp517
g7
(dp518
g9
V1999-00 Black Diamond Final Cut #37 Shaquille O'Neal
p519
sg11
I100
sg12
VBlack Diamond Final Cut
p520
sg14
(lp521
Vhttp://www.beckett.com/basketball/1999-00/black-diamond-final-cut/37-shaquille-oneal-3205711
p522
asg17
g18
sg19
(lp523
Vhttp://img.beckett.com/images/no-image.jpg
p524
asg22
V#37
p525
sg24
V1999-00
p526
sg26
g27
sg28
(lp527
VShaquille O'Neal
p528
assbag1
(g2
g3
Ntp529
Rp530
(dp531
g7
(dp532
g9
V1999-00 Black Diamond Final Cut #38 Kobe Bryant
p533
sg11
I100
sg12
VBlack Diamond Final Cut
p534
sg14
(lp535
Vhttp://www.beckett.com/basketball/1999-00/black-diamond-final-cut/38-kobe-bryant-3205712
p536
asg17
g18
sg19
(lp537
Vhttp://img.beckett.com/images/no-image.jpg
p538
asg22
V#38
p539
sg24
V1999-00
p540
sg26
g27
sg28
(lp541
VKobe Bryant
p542
assbag1
(g2
g3
Ntp543
Rp544
(dp545
g7
(dp546
g9
V1999-00 Black Diamond Final Cut #39 Glen Rice
p547
sg11
I100
sg12
VBlack Diamond Final Cut
p548
sg14
(lp549
Vhttp://www.beckett.com/basketball/1999-00/black-diamond-final-cut/39-glen-rice-3205713
p550
asg17
g18
sg19
(lp551
Vhttp://img.beckett.com/images/no-image.jpg
p552
asg22
V#39
p553
sg24
V1999-00
p554
sg26
g27
sg28
(lp555
VGlen Rice
p556
assbag1
(g2
g3
Ntp557
Rp558
(dp559
g7
(dp560
g9
V1999-00 Black Diamond Final Cut #112 Devean George
p561
sg11
I50
sg12
VBlack Diamond Final Cut
p562
sg14
(lp563
Vhttp://www.beckett.com/basketball/1999-00/black-diamond-final-cut/112-devean-george-3205786
p564
asg17
g18
sg19
(lp565
Vhttp://img.beckett.com/images/no-image.jpg
p566
asg22
V#112
p567
sg24
V1999-00
p568
sg26
g27
sg28
(lp569
VDevean George
p570
assbag1
(g2
g3
Ntp571
Rp572
(dp573
g7
(dp574
g9
V1999-00 Bowman's Best Atomic Refractors #17 Shaquille O'Neal
p575
sg11
I100
sg12
VBowman's Best Atomic Refractors
p576
sg14
(lp577
Vhttp://www.beckett.com/basketball/1999-00/bowmans-best-atomic-refractors/17-shaquille-oneal-3204804
p578
asg17
g18
sg19
(lp579
Vhttp://img.beckett.com/images/no-image.jpg
p580
asg22
V#17
p581
sg24
V1999-00
p582
sg26
g27
sg28
(lp583
VShaquille O'Neal
p584
assbag1
(g2
g3
Ntp585
Rp586
(dp587
g7
(dp588
g9
V1999-00 Bowman's Best Atomic Refractors #39 Glen Rice
p589
sg11
I100
sg12
VBowman's Best Atomic Refractors
p590
sg14
(lp591
Vhttp://www.beckett.com/basketball/1999-00/bowmans-best-atomic-refractors/39-glen-rice-3204826
p592
asg17
g18
sg19
(lp593
Vhttp://img.beckett.com/images/no-image.jpg
p594
asg22
V#39
p595
sg24
V1999-00
p596
sg26
g27
sg28
(lp597
VGlen Rice
p598
assbag1
(g2
g3
Ntp599
Rp600
(dp601
g7
(dp602
g9
V1999-00 Bowman's Best Atomic Refractors #43 Ron Harper
p603
sg11
I100
sg12
VBowman's Best Atomic Refractors
p604
sg14
(lp605
Vhttp://www.beckett.com/basketball/1999-00/bowmans-best-atomic-refractors/43-ron-harper-3204830
p606
asg17
g18
sg19
(lp607
Vhttp://img.beckett.com/images/no-image.jpg
p608
asg22
V#43
p609
sg24
V1999-00
p610
sg26
g27
sg28
(lp611
VRon Harper
p612
assbag1
(g2
g3
Ntp613
Rp614
(dp615
g7
(dp616
g9
V1999-00 Bowman's Best Atomic Refractors #58 Kobe Bryant
p617
sg11
I100
sg12
VBowman's Best Atomic Refractors
p618
sg14
(lp619
Vhttp://www.beckett.com/basketball/1999-00/bowmans-best-atomic-refractors/58-kobe-bryant-3204845
p620
asg17
g18
sg19
(lp621
Vhttp://img.beckett.com/images/no-image.jpg
p622
asg22
V#58
p623
sg24
V1999-00
p624
sg26
g27
sg28
(lp625
VKobe Bryant
p626
assbag1
(g2
g3
Ntp627
Rp628
(dp629
g7
(dp630
g9
V1999-00 Bowman's Best Atomic Refractors #95 Kobe Bryant BP
p631
sg11
I100
sg12
VBowman's Best Atomic Refractors
p632
sg14
(lp633
Vhttp://www.beckett.com/basketball/1999-00/bowmans-best-atomic-refractors/95-kobe-bryant-bp-3204882
p634
asg17
g18
sg19
(lp635
Vhttp://img.beckett.com/images/no-image.jpg
p636
asg22
V#95
p637
sg24
V1999-00
p638
sg312
VBP
p639
sg26
g27
sg28
(lp640
VKobe Bryant
p641
assbag1
(g2
g3
Ntp642
Rp643
(dp644
g7
(dp645
g9
V1999-00 Bowman's Best Atomic Refractors #123 Devean George
p646
sg11
I100
sg12
VBowman's Best Atomic Refractors
p647
sg14
(lp648
Vhttp://www.beckett.com/basketball/1999-00/bowmans-best-atomic-refractors/123-devean-george-3204910
p649
asg17
g18
sg19
(lp650
Vhttp://img.beckett.com/images/no-image.jpg
p651
asg22
V#123
p652
sg24
V1999-00
p653
sg26
g27
sg28
(lp654
VDevean George
p655
assbag1
(g2
g3
Ntp656
Rp657
(dp658
g7
(dp659
g9
V1999-00 Bowman's Best Atomic Refractors #131 John Celestand
p660
sg11
I100
sg12
VBowman's Best Atomic Refractors
p661
sg14
(lp662
Vhttp://www.beckett.com/basketball/1999-00/bowmans-best-atomic-refractors/131-john-celestand-3204918
p663
asg17
g18
sg19
(lp664
Vhttp://img.beckett.com/images/no-image.jpg
p665
asg22
V#131
p666
sg24
V1999-00
p667
sg26
g27
sg28
(lp668
VJohn Celestand
p669
assbag1
(g2
g3
Ntp670
Rp671
(dp672
g7
(dp673
g9
V1999-00 Bowman's Best Refractors #17 Shaquille O'Neal
p674
sg11
I400
sg12
VBowman's Best Refractors
p675
sg14
(lp676
Vhttp://www.beckett.com/basketball/1999-00/bowmans-best-refractors/17-shaquille-oneal-3204662
p677
asg17
g18
sg19
(lp678
Vhttp://img.beckett.com/images/items_stock/185226/3204637/3204662/front.jpg
p679
asg22
V#17
p680
sg24
V1999-00
p681
sg26
g27
sg28
(lp682
VShaquille O'Neal
p683
assbag1
(g2
g3
Ntp684
Rp685
(dp686
g7
(dp687
g9
V1999-00 Bowman's Best Refractors #39 Glen Rice
p688
sg11
I400
sg12
VBowman's Best Refractors
p689
sg14
(lp690
Vhttp://www.beckett.com/basketball/1999-00/bowmans-best-refractors/39-glen-rice-3204684
p691
asg17
g18
sg19
(lp692
Vhttp://img.beckett.com/images/items_stock/185226/3204637/3204684/front.jpg
p693
asg22
V#39
p694
sg24
V1999-00
p695
sg26
g27
sg28
(lp696
VGlen Rice
p697
assbag1
(g2
g3
Ntp698
Rp699
(dp700
g7
(dp701
g9
V1999-00 Bowman's Best Refractors #43 Ron Harper
p702
sg11
I400
sg12
VBowman's Best Refractors
p703
sg14
(lp704
Vhttp://www.beckett.com/basketball/1999-00/bowmans-best-refractors/43-ron-harper-3204688
p705
asg17
g18
sg19
(lp706
Vhttp://img.beckett.com/images/items_stock/185226/3204637/3204688/front_old.jpg
p707
asg22
V#43
p708
sg24
V1999-00
p709
sg26
g27
sg28
(lp710
VRon Harper
p711
assbag1
(g2
g3
Ntp712
Rp713
(dp714
g7
(dp715
g9
V1999-00 Bowman's Best Refractors #58 Kobe Bryant
p716
sg11
I400
sg12
VBowman's Best Refractors
p717
sg14
(lp718
Vhttp://www.beckett.com/basketball/1999-00/bowmans-best-refractors/58-kobe-bryant-3204703
p719
asg17
g18
sg19
(lp720
Vhttp://img.beckett.com/images/no-image.jpg
p721
asg22
V#58
p722
sg24
V1999-00
p723
sg26
g27
sg28
(lp724
VKobe Bryant
p725
assbag1
(g2
g3
Ntp726
Rp727
(dp728
g7
(dp729
g9
V1999-00 Bowman's Best Refractors #95 Kobe Bryant BP
p730
sg11
I400
sg12
VBowman's Best Refractors
p731
sg14
(lp732
Vhttp://www.beckett.com/basketball/1999-00/bowmans-best-refractors/95-kobe-bryant-bp-3204740
p733
asg17
g18
sg19
(lp734
Vhttp://img.beckett.com/images/no-image.jpg
p735
asg22
V#95
p736
sg24
V1999-00
p737
sg312
VBP
p738
sg26
g27
sg28
(lp739
VKobe Bryant
p740
assbag1
(g2
g3
Ntp741
Rp742
(dp743
g7
(dp744
g9
V1999-00 Bowman's Best Refractors #123 Devean George
p745
sg11
I400
sg12
VBowman's Best Refractors
p746
sg14
(lp747
Vhttp://www.beckett.com/basketball/1999-00/bowmans-best-refractors/123-devean-george-3204768
p748
asg17
g18
sg19
(lp749
Vhttp://img.beckett.com/images/items_stock/185226/3204637/3204768/front.jpg
p750
asg22
V#123
p751
sg24
V1999-00
p752
sg26
g27
sg28
(lp753
VDevean George
p754
assbag1
(g2
g3
Ntp755
Rp756
(dp757
g7
(dp758
g9
V1999-00 Bowman's Best Refractors #131 John Celestand
p759
sg11
I400
sg12
VBowman's Best Refractors
p760
sg14
(lp761
Vhttp://www.beckett.com/basketball/1999-00/bowmans-best-refractors/131-john-celestand-3204776
p762
asg17
g18
sg19
(lp763
Vhttp://img.beckett.com/images/items_stock/185226/3204637/3204776/front.jpg
p764
asg22
V#131
p765
sg24
V1999-00
p766
sg26
g27
sg28
(lp767
VJohn Celestand
p768
assbag1
(g2
g3
Ntp769
Rp770
(dp771
g7
(dp772
g9
V1999-00 Finest Refractors Gold #36 Glen Rice
p773
sg11
I100
sg12
VFinest Refractors Gold
p774
sg14
(lp775
Vhttp://www.beckett.com/basketball/1999-00/finest-refractors-gold/36-glen-rice-3203948
p776
asg17
g18
sg19
(lp777
Vhttp://img.beckett.com/images/no-image.jpg
p778
asg22
V#36
p779
sg24
V1999-00
p780
sg26
g27
sg28
(lp781
VGlen Rice
p782
assbag1
(g2
g3
Ntp783
Rp784
(dp785
g7
(dp786
g9
V1999-00 Finest Refractors Gold #64 Kobe Bryant
p787
sg11
I100
sg12
VFinest Refractors Gold
p788
sg14
(lp789
Vhttp://www.beckett.com/basketball/1999-00/finest-refractors-gold/64-kobe-bryant-3203976
p790
asg17
g18
sg19
(lp791
Vhttp://img.beckett.com/images/no-image.jpg
p792
asg22
V#64
p793
sg24
V1999-00
p794
sg26
g27
sg28
(lp795
VKobe Bryant
p796
assbag1
(g2
g3
Ntp797
Rp798
(dp799
g7
(dp800
g9
V1999-00 Finest Refractors Gold #99 J.R. Reid
p801
sg11
I100
sg12
VFinest Refractors Gold
p802
sg14
(lp803
Vhttp://www.beckett.com/basketball/1999-00/finest-refractors-gold/99-jr-reid-3204011
p804
asg17
g18
sg19
(lp805
Vhttp://img.beckett.com/images/no-image.jpg
p806
asg22
V#99
p807
sg24
V1999-00
p808
sg26
g27
sg28
(lp809
VJ.R. Reid
p810
assbag1
(g2
g3
Ntp811
Rp812
(dp813
g7
(dp814
g9
V1999-00 Finest Refractors Gold #106 Shaquille O'Neal GEM
p815
sg11
I100
sg12
VFinest Refractors Gold
p816
sg14
(lp817
Vhttp://www.beckett.com/basketball/1999-00/finest-refractors-gold/106-shaquille-oneal-gem-3204018
p818
asg17
g18
sg19
(lp819
Vhttp://img.beckett.com/images/no-image.jpg
p820
asg22
V#106
p821
sg24
V1999-00
p822
sg312
VGEM
p823
sg26
g27
sg28
(lp824
VShaquille O'Neal
p825
assbag1
(g2
g3
Ntp826
Rp827
(dp828
g7
(dp829
g9
V1999-00 Finest Refractors Gold #123 Devean George
p830
sg11
I100
sg12
VFinest Refractors Gold
p831
sg14
(lp832
Vhttp://www.beckett.com/basketball/1999-00/finest-refractors-gold/123-devean-george-3204035
p833
asg17
g18
sg19
(lp834
Vhttp://img.beckett.com/images/no-image.jpg
p835
asg22
V#123
p836
sg24
V1999-00
p837
sg26
g27
sg28
(lp838
VDevean George
p839
assbag1
(g2
g3
Ntp840
Rp841
(dp842
g7
(dp843
g9
V1999-00 Finest Refractors Gold #128 Kobe Bryant SEN
p844
sg11
I100
sg12
VFinest Refractors Gold
p845
sg14
(lp846
Vhttp://www.beckett.com/basketball/1999-00/finest-refractors-gold/128-kobe-bryant-sen-3204040
p847
asg17
g18
sg19
(lp848
Vhttp://img.beckett.com/images/no-image.jpg
p849
asg22
V#128
p850
sg24
V1999-00
p851
sg312
VSEN
p852
sg26
g27
sg28
(lp853
VKobe Bryant
p854
assbag1
(g2
g3
Ntp855
Rp856
(dp857
g7
(dp858
g9
V1999-00 Finest Refractors Gold #186 Shaquille O'Neal
p859
sg11
I100
sg12
VFinest Refractors Gold
p860
sg14
(lp861
Vhttp://www.beckett.com/basketball/1999-00/finest-refractors-gold/186-shaquille-oneal-3204098
p862
asg17
g18
sg19
(lp863
Vhttp://img.beckett.com/images/no-image.jpg
p864
asg22
V#186
p865
sg24
V1999-00
p866
sg26
g27
sg28
(lp867
VShaquille O'Neal
p868
assbag1
(g2
g3
Ntp869
Rp870
(dp871
g7
(dp872
g9
V1999-00 Finest Refractors Gold #206 Derek Fisher
p873
sg11
I100
sg12
VFinest Refractors Gold
p874
sg14
(lp875
Vhttp://www.beckett.com/basketball/1999-00/finest-refractors-gold/206-derek-fisher-3204118
p876
asg17
g18
sg19
(lp877
Vhttp://img.beckett.com/images/no-image.jpg
p878
asg22
V#206
p879
sg24
V1999-00
p880
sg26
g27
sg28
(lp881
VDerek Fisher
p882
assbag1
(g2
g3
Ntp883
Rp884
(dp885
g7
(dp886
g9
V1999-00 Finest Refractors Gold #213 Rick Fox
p887
sg11
I100
sg12
VFinest Refractors Gold
p888
sg14
(lp889
Vhttp://www.beckett.com/basketball/1999-00/finest-refractors-gold/213-rick-fox-3204125
p890
asg17
g18
sg19
(lp891
Vhttp://img.beckett.com/images/items_stock/185226/3203898/3204125/front.jpg
p892
asg22
V#213
p893
sg24
V1999-00
p894
sg26
g27
sg28
(lp895
VRick Fox
p896
assbag1
(g2
g3
Ntp897
Rp898
(dp899
g7
(dp900
g9
V1999-00 Finest Refractors Gold #243 Shaquille O'Neal EDGE
p901
sg11
I100
sg12
VFinest Refractors Gold
p902
sg14
(lp903
Vhttp://www.beckett.com/basketball/1999-00/finest-refractors-gold/243-shaquille-oneal-edge-3204155
p904
asg17
g18
sg19
(lp905
Vhttp://img.beckett.com/images/no-image.jpg
p906
asg22
V#243
p907
sg24
V1999-00
p908
sg312
VEDGE
p909
sg26
g27
sg28
(lp910
VShaquille O'Neal
p911
assbag1
(g2
g3
Ntp912
Rp913
(dp914
g7
(dp915
g9
V1999-00 Flair Showcase Legacy Collection #7 Shaquille O'Neal
p916
sg11
I20
sg12
VFlair Showcase Legacy Collection
p917
sg14
(lp918
Vhttp://www.beckett.com/basketball/1999-00/flair-showcase-legacy-collection/7-shaquille-oneal-3202931
p919
asg17
g18
sg19
(lp920
Vhttp://img.beckett.com/images/no-image.jpg
p921
asg22
V#7
p922
sg24
V1999-00
p923
sg26
g27
sg28
(lp924
VShaquille O'Neal
p925
assbag1
(g2
g3
Ntp926
Rp927
(dp928
g7
(dp929
g9
V1999-00 Flair Showcase Legacy Collection #50 Kobe Bryant
p930
sg11
I20
sg12
VFlair Showcase Legacy Collection
p931
sg14
(lp932
Vhttp://www.beckett.com/basketball/1999-00/flair-showcase-legacy-collection/50-kobe-bryant-3202974
p933
asg17
g18
sg19
(lp934
Vhttp://img.beckett.com/images/no-image.jpg
p935
asg22
V#50
p936
sg24
V1999-00
p937
sg26
g27
sg28
(lp938
VKobe Bryant
p939
assbag1
(g2
g3
Ntp940
Rp941
(dp942
g7
(dp943
g9
V1999-00 Flair Showcase Legacy Collection #68 Glen Rice
p944
sg11
I20
sg12
VFlair Showcase Legacy Collection
p945
sg14
(lp946
Vhttp://www.beckett.com/basketball/1999-00/flair-showcase-legacy-collection/68-glen-rice-3202992
p947
asg17
g18
sg19
(lp948
Vhttp://img.beckett.com/images/no-image.jpg
p949
asg22
V#68
p950
sg24
V1999-00
p951
sg26
g27
sg28
(lp952
VGlen Rice
p953
assbag1
(g2
g3
Ntp954
Rp955
(dp956
g7
(dp957
g9
V1999-00 Flair Showcase Legacy Collection #117 Devean George
p958
sg11
I20
sg12
VFlair Showcase Legacy Collection
p959
sg14
(lp960
Vhttp://www.beckett.com/basketball/1999-00/flair-showcase-legacy-collection/117-devean-george-3203041
p961
asg17
g18
sg19
(lp962
Vhttp://img.beckett.com/images/no-image.jpg
p963
asg22
V#117
p964
sg24
V1999-00
p965
sg26
g27
sg28
(lp966
VDevean George
p967
assbag1
(g2
g3
Ntp968
Rp969
(dp970
g7
(dp971
g9
V1999-00 Flair Showcase Masterpiece #7 Shaquille O'Neal
p972
sg11
I1
sg12
VFlair Showcase Masterpiece
p973
sg14
(lp974
Vhttp://www.beckett.com/basketball/1999-00/flair-showcase-masterpiece/7-shaquille-oneal-3203066
p975
asg17
g18
sg19
(lp976
Vhttp://img.beckett.com/images/no-image.jpg
p977
asg22
V#7
p978
sg24
V1999-00
p979
sg26
g27
sg28
(lp980
VShaquille O'Neal
p981
assbag1
(g2
g3
Ntp982
Rp983
(dp984
g7
(dp985
g9
V1999-00 Flair Showcase Masterpiece #50 Kobe Bryant
p986
sg11
I1
sg12
VFlair Showcase Masterpiece
p987
sg14
(lp988
Vhttp://www.beckett.com/basketball/1999-00/flair-showcase-masterpiece/50-kobe-bryant-3203109
p989
asg17
g18
sg19
(lp990
Vhttp://img.beckett.com/images/no-image.jpg
p991
asg22
V#50
p992
sg24
V1999-00
p993
sg26
g27
sg28
(lp994
VKobe Bryant
p995
assbag1
(g2
g3
Ntp996
Rp997
(dp998
g7
(dp999
g9
V1999-00 Flair Showcase Masterpiece #68 Glen Rice
p1000
sg11
I1
sg12
VFlair Showcase Masterpiece
p1001
sg14
(lp1002
Vhttp://www.beckett.com/basketball/1999-00/flair-showcase-masterpiece/68-glen-rice-3203127
p1003
asg17
g18
sg19
(lp1004
Vhttp://img.beckett.com/images/no-image.jpg
p1005
asg22
V#68
p1006
sg24
V1999-00
p1007
sg26
g27
sg28
(lp1008
VGlen Rice
p1009
assbag1
(g2
g3
Ntp1010
Rp1011
(dp1012
g7
(dp1013
g9
V1999-00 Flair Showcase Masterpiece #117 Devean George
p1014
sg11
I1
sg12
VFlair Showcase Masterpiece
p1015
sg14
(lp1016
Vhttp://www.beckett.com/basketball/1999-00/flair-showcase-masterpiece/117-devean-george-3203176
p1017
asg17
g18
sg19
(lp1018
Vhttp://img.beckett.com/images/no-image.jpg
p1019
asg22
V#117
p1020
sg24
V1999-00
p1021
sg26
g27
sg28
(lp1022
VDevean George
p1023
assbag1
(g2
g3
Ntp1024
Rp1025
(dp1026
g7
(dp1027
g9
V1999-00 Fleer Supreme Court Collection #2 Kobe Bryant
p1028
sg11
I20
sg12
VFleer Supreme Court Collection
p1029
sg14
(lp1030
Vhttp://www.beckett.com/basketball/1999-00/fleer-supreme-court-collection/2-kobe-bryant-3201508
p1031
asg17
g18
sg19
(lp1032
Vhttp://img.beckett.com/images/no-image.jpg
p1033
asg22
V#2
p1034
sg24
V1999-00
p1035
sg26
g27
sg28
(lp1036
VKobe Bryant
p1037
assbag1
(g2
g3
Ntp1038
Rp1039
(dp1040
g7
(dp1041
g9
V1999-00 Fleer Supreme Court Collection #21 Rick Fox
p1042
sg11
I20
sg12
VFleer Supreme Court Collection
p1043
sg14
(lp1044
Vhttp://www.beckett.com/basketball/1999-00/fleer-supreme-court-collection/21-rick-fox-3201527
p1045
asg17
g18
sg19
(lp1046
Vhttp://img.beckett.com/images/no-image.jpg
p1047
asg22
V#21
p1048
sg24
V1999-00
p1049
sg26
g27
sg28
(lp1050
VRick Fox
p1051
assbag1
(g2
g3
Ntp1052
Rp1053
(dp1054
g7
(dp1055
g9
V1999-00 Fleer Supreme Court Collection #51 Shaquille O'Neal
p1056
sg11
I20
sg12
VFleer Supreme Court Collection
p1057
sg14
(lp1058
Vhttp://www.beckett.com/basketball/1999-00/fleer-supreme-court-collection/51-shaquille-oneal-3201557
p1059
asg17
g18
sg19
(lp1060
Vhttp://img.beckett.com/images/no-image.jpg
p1061
asg22
V#51
p1062
sg24
V1999-00
p1063
sg26
g27
sg28
(lp1064
VShaquille O'Neal
p1065
assbag1
(g2
g3
Ntp1066
Rp1067
(dp1068
g7
(dp1069
g9
V1999-00 Fleer Supreme Court Collection #111 J.R. Reid
p1070
sg11
I20
sg12
VFleer Supreme Court Collection
p1071
sg14
(lp1072
Vhttp://www.beckett.com/basketball/1999-00/fleer-supreme-court-collection/111-jr-reid-3201617
p1073
asg17
g18
sg19
(lp1074
Vhttp://img.beckett.com/images/items_stock/185226/3201498/3201617/front.jpg
p1075
asg22
V#111
p1076
sg24
V1999-00
p1077
sg26
g27
sg28
(lp1078
VJ.R. Reid
p1079
assbag1
(g2
g3
Ntp1080
Rp1081
(dp1082
g7
(dp1083
g9
V1999-00 Fleer Supreme Court Collection #135 Ron Harper
p1084
sg11
I20
sg12
VFleer Supreme Court Collection
p1085
sg14
(lp1086
Vhttp://www.beckett.com/basketball/1999-00/fleer-supreme-court-collection/135-ron-harper-3201641
p1087
asg17
g18
sg19
(lp1088
Vhttp://img.beckett.com/images/no-image.jpg
p1089
asg22
V#135
p1090
sg24
V1999-00
p1091
sg26
g27
sg28
(lp1092
VRon Harper
p1093
assbag1
(g2
g3
Ntp1094
Rp1095
(dp1096
g7
(dp1097
g9
V1999-00 Fleer Supreme Court Collection #140 Glen Rice
p1098
sg11
I20
sg12
VFleer Supreme Court Collection
p1099
sg14
(lp1100
Vhttp://www.beckett.com/basketball/1999-00/fleer-supreme-court-collection/140-glen-rice-3201646
p1101
asg17
g18
sg19
(lp1102
Vhttp://img.beckett.com/images/no-image.jpg
p1103
asg22
V#140
p1104
sg24
V1999-00
p1105
sg26
g27
sg28
(lp1106
VGlen Rice
p1107
assbag1
(g2
g3
Ntp1108
Rp1109
(dp1110
g7
(dp1111
g9
V1999-00 Fleer Supreme Court Collection #169 Tyronn Lue
p1112
sg11
I20
sg12
VFleer Supreme Court Collection
p1113
sg14
(lp1114
Vhttp://www.beckett.com/basketball/1999-00/fleer-supreme-court-collection/169-tyronn-lue-3201675
p1115
asg17
g18
sg19
(lp1116
Vhttp://img.beckett.com/images/no-image.jpg
p1117
asg22
V#169
p1118
sg24
V1999-00
p1119
sg26
g27
sg28
(lp1120
VTyronn Lue
p1121
assbag1
(g2
g3
Ntp1122
Rp1123
(dp1124
g7
(dp1125
g9
V1999-00 Fleer Focus Masterpiece Mania #62 Kobe Bryant
p1126
sg11
I300
sg12
VFleer Focus Masterpiece Mania
p1127
sg14
(lp1128
Vhttp://www.beckett.com/basketball/1999-00/fleer-focus-masterpiece-mania/62-kobe-bryant-3202281
p1129
asg17
g18
sg19
(lp1130
Vhttp://img.beckett.com/images/no-image.jpg
p1131
asg22
V#62
p1132
sg24
V1999-00
p1133
sg26
g27
sg28
(lp1134
VKobe Bryant
p1135
assbag1
(g2
g3
Ntp1136
Rp1137
(dp1138
g7
(dp1139
g9
V1999-00 Fleer Focus Masterpiece Mania #72 Shaquille O'Neal
p1140
sg11
I300
sg12
VFleer Focus Masterpiece Mania
p1141
sg14
(lp1142
Vhttp://www.beckett.com/basketball/1999-00/fleer-focus-masterpiece-mania/72-shaquille-oneal-3202291
p1143
asg17
g18
sg19
(lp1144
Vhttp://img.beckett.com/images/items_stock/185226/3202210/3202291/front.jpg
p1145
asg22
V#72
p1146
sg24
V1999-00
p1147
sg26
g27
sg28
(lp1148
VShaquille O'Neal
p1149
assbag1
(g2
g3
Ntp1150
Rp1151
(dp1152
g7
(dp1153
g9
V1999-00 Fleer Focus Masterpiece Mania #90 Glen Rice
p1154
sg11
I300
sg12
VFleer Focus Masterpiece Mania
p1155
sg14
(lp1156
Vhttp://www.beckett.com/basketball/1999-00/fleer-focus-masterpiece-mania/90-glen-rice-3202309
p1157
asg17
g18
sg19
(lp1158
Vhttp://img.beckett.com/images/items_stock/185226/3202210/3202309/front.jpg
p1159
asg22
V#90
p1160
sg24
V1999-00
p1161
sg26
g27
sg28
(lp1162
VGlen Rice
p1163
assbag1
(g2
g3
Ntp1164
Rp1165
(dp1166
g7
(dp1167
g9
V1999-00 Fleer Focus Masterpiece Mania #110 Devean George
p1168
sg11
I300
sg12
VFleer Focus Masterpiece Mania
p1169
sg14
(lp1170
Vhttp://www.beckett.com/basketball/1999-00/fleer-focus-masterpiece-mania/110-devean-george-3202329
p1171
asg17
g18
sg19
(lp1172
Vhttp://img.beckett.com/images/items_stock/185226/3202210/3202329/front.jpg
p1173
asg22
V#110
p1174
sg24
V1999-00
p1175
sg26
g27
sg28
(lp1176
VDevean George
p1177
assbag1
(g2
g3
Ntp1178
Rp1179
(dp1180
g7
(dp1181
g9
V1999-00 Fleer Focus Masterpiece Mania #128 John Celestand
p1182
sg11
I300
sg12
VFleer Focus Masterpiece Mania
p1183
sg14
(lp1184
Vhttp://www.beckett.com/basketball/1999-00/fleer-focus-masterpiece-mania/128-john-celestand-3202347
p1185
asg17
g18
sg19
(lp1186
Vhttp://img.beckett.com/images/items_stock/185226/3202210/3202347/front.jpg
p1187
asg22
V#128
p1188
sg24
V1999-00
p1189
sg26
g27
sg28
(lp1190
VJohn Celestand
p1191
assbag1
(g2
g3
Ntp1192
Rp1193
(dp1194
g7
(dp1195
g9
V1999-00 Fleer Focus Masterpieces #62 Kobe Bryant
p1196
sg11
I1
sg12
VFleer Focus Masterpieces
p1197
sg14
(lp1198
Vhttp://www.beckett.com/basketball/1999-00/fleer-focus-masterpieces/62-kobe-bryant-3202121
p1199
asg17
g18
sg19
(lp1200
Vhttp://img.beckett.com/images/no-image.jpg
p1201
asg22
V#62
p1202
sg24
V1999-00
p1203
sg26
g27
sg28
(lp1204
VKobe Bryant
p1205
assbag1
(g2
g3
Ntp1206
Rp1207
(dp1208
g7
(dp1209
g9
V1999-00 Fleer Focus Masterpieces #72 Shaquille O'Neal
p1210
sg11
I1
sg12
VFleer Focus Masterpieces
p1211
sg14
(lp1212
Vhttp://www.beckett.com/basketball/1999-00/fleer-focus-masterpieces/72-shaquille-oneal-3202131
p1213
asg17
g18
sg19
(lp1214
Vhttp://img.beckett.com/images/no-image.jpg
p1215
asg22
V#72
p1216
sg24
V1999-00
p1217
sg26
g27
sg28
(lp1218
VShaquille O'Neal
p1219
assbag1
(g2
g3
Ntp1220
Rp1221
(dp1222
g7
(dp1223
g9
V1999-00 Fleer Focus Masterpieces #90 Glen Rice
p1224
sg11
I1
sg12
VFleer Focus Masterpieces
p1225
sg14
(lp1226
Vhttp://www.beckett.com/basketball/1999-00/fleer-focus-masterpieces/90-glen-rice-3202149
p1227
asg17
g18
sg19
(lp1228
Vhttp://img.beckett.com/images/no-image.jpg
p1229
asg22
V#90
p1230
sg24
V1999-00
p1231
sg26
g27
sg28
(lp1232
VGlen Rice
p1233
assbag1
(g2
g3
Ntp1234
Rp1235
(dp1236
g7
(dp1237
g9
V1999-00 Fleer Focus Masterpieces #110 Devean George
p1238
sg11
I1
sg12
VFleer Focus Masterpieces
p1239
sg14
(lp1240
Vhttp://www.beckett.com/basketball/1999-00/fleer-focus-masterpieces/110-devean-george-3202169
p1241
asg17
g18
sg19
(lp1242
Vhttp://img.beckett.com/images/no-image.jpg
p1243
asg22
V#110
p1244
sg24
V1999-00
p1245
sg26
g27
sg28
(lp1246
VDevean George
p1247
assbag1
(g2
g3
Ntp1248
Rp1249
(dp1250
g7
(dp1251
g9
V1999-00 Fleer Focus Masterpieces #128 John Celestand
p1252
sg11
I1
sg12
VFleer Focus Masterpieces
p1253
sg14
(lp1254
Vhttp://www.beckett.com/basketball/1999-00/fleer-focus-masterpieces/128-john-celestand-3202187
p1255
asg17
g18
sg19
(lp1256
Vhttp://img.beckett.com/images/no-image.jpg
p1257
asg22
V#128
p1258
sg24
V1999-00
p1259
sg26
g27
sg28
(lp1260
VJohn Celestand
p1261
assbag1
(g2
g3
Ntp1262
Rp1263
(dp1264
g7
(dp1265
g9
V1999-00 Fleer Force Forcefield #224 Devean George
p1266
sg11
I100
sg12
VFleer Force Forcefield
p1267
sg14
(lp1268
Vhttp://www.beckett.com/basketball/1999-00/fleer-force-forcefield/224-devean-george-3200546
p1269
asg17
g18
sg19
(lp1270
Vhttp://img.beckett.com/images/no-image.jpg
p1271
asg22
V#224
p1272
sg24
V1999-00
p1273
sg26
g27
sg28
(lp1274
VDevean George
p1275
assbag1
(g2
g3
Ntp1276
Rp1277
(dp1278
g7
(dp1279
g9
V1999-00 Fleer Force Forcefield #228 John Celestand
p1280
sg11
I100
sg12
VFleer Force Forcefield
p1281
sg14
(lp1282
Vhttp://www.beckett.com/basketball/1999-00/fleer-force-forcefield/228-john-celestand-3200550
p1283
asg17
g18
sg19
(lp1284
Vhttp://img.beckett.com/images/no-image.jpg
p1285
asg22
V#228
p1286
sg24
V1999-00
p1287
sg26
g27
sg28
(lp1288
VJohn Celestand
p1289
assbag1
(g2
g3
Ntp1290
Rp1291
(dp1292
g7
(dp1293
g9
V1999-00 Fleer Mystique Masterpiece #22 Shaquille O'Neal
p1294
sg11
I1
sg12
VFleer Mystique Masterpiece
p1295
sg14
(lp1296
Vhttp://www.beckett.com/basketball/1999-00/fleer-mystique-masterpiece/22-shaquille-oneal-3198618
p1297
asg17
g18
sg19
(lp1298
Vhttp://img.beckett.com/images/no-image.jpg
p1299
asg22
V#22
p1300
sg24
V1999-00
p1301
sg26
g27
sg28
(lp1302
VShaquille O'Neal
p1303
assbag1
(g2
g3
Ntp1304
Rp1305
(dp1306
g7
(dp1307
g9
V1999-00 Fleer Mystique Masterpiece #61 Kobe Bryant
p1308
sg11
I1
sg12
VFleer Mystique Masterpiece
p1309
sg14
(lp1310
Vhttp://www.beckett.com/basketball/1999-00/fleer-mystique-masterpiece/61-kobe-bryant-3198657
p1311
asg17
g18
sg19
(lp1312
Vhttp://img.beckett.com/images/no-image.jpg
p1313
asg22
V#61
p1314
sg24
V1999-00
p1315
sg26
g27
sg28
(lp1316
VKobe Bryant
p1317
assbag1
(g2
g3
Ntp1318
Rp1319
(dp1320
g7
(dp1321
g9
V1999-00 Fleer Mystique Masterpiece #63 Derek Fisher
p1322
sg11
I1
sg12
VFleer Mystique Masterpiece
p1323
sg14
(lp1324
Vhttp://www.beckett.com/basketball/1999-00/fleer-mystique-masterpiece/63-derek-fisher-3198659
p1325
asg17
g18
sg19
(lp1326
Vhttp://img.beckett.com/images/no-image.jpg
p1327
asg22
V#63
p1328
sg24
V1999-00
p1329
sg26
g27
sg28
(lp1330
VDerek Fisher
p1331
assbag1
(g2
g3
Ntp1332
Rp1333
(dp1334
g7
(dp1335
g9
V1999-00 Fleer Mystique Masterpiece #69 Glen Rice
p1336
sg11
I1
sg12
VFleer Mystique Masterpiece
p1337
sg14
(lp1338
Vhttp://www.beckett.com/basketball/1999-00/fleer-mystique-masterpiece/69-glen-rice-3198665
p1339
asg17
g18
sg19
(lp1340
Vhttp://img.beckett.com/images/no-image.jpg
p1341
asg22
V#69
p1342
sg24
V1999-00
p1343
sg26
g27
sg28
(lp1344
VGlen Rice
p1345
assbag1
(g2
g3
Ntp1346
Rp1347
(dp1348
g7
(dp1349
g9
V1999-00 Fleer Mystique Masterpiece #116 Devean George
p1350
sg11
I1
sg12
VFleer Mystique Masterpiece
p1351
sg14
(lp1352
Vhttp://www.beckett.com/basketball/1999-00/fleer-mystique-masterpiece/116-devean-george-3198712
p1353
asg17
g18
sg19
(lp1354
Vhttp://img.beckett.com/images/no-image.jpg
p1355
asg22
V#116
p1356
sg24
V1999-00
p1357
sg26
g27
sg28
(lp1358
VDevean George
p1359
assbag1
(g2
g3
Ntp1360
Rp1361
(dp1362
g7
(dp1363
g9
V1999-00 Fleer Mystique Masterpiece #141 Kobe Bryant STAR
p1364
sg11
I1
sg12
VFleer Mystique Masterpiece
p1365
sg14
(lp1366
Vhttp://www.beckett.com/basketball/1999-00/fleer-mystique-masterpiece/141-kobe-bryant-star-3198737
p1367
asg17
g18
sg19
(lp1368
Vhttp://img.beckett.com/images/no-image.jpg
p1369
asg22
V#141
p1370
sg24
V1999-00
p1371
sg312
VSTAR
p1372
sg26
g27
sg28
(lp1373
VKobe Bryant
p1374
assbag1
(g2
g3
Ntp1375
Rp1376
(dp1377
g7
(dp1378
g9
V1999-00 Fleer Mystique Masterpiece #150 Shaquille O'Neal STAR
p1379
sg11
I1
sg12
VFleer Mystique Masterpiece
p1380
sg14
(lp1381
Vhttp://www.beckett.com/basketball/1999-00/fleer-mystique-masterpiece/150-shaquille-oneal-star-3198746
p1382
asg17
g18
sg19
(lp1383
Vhttp://img.beckett.com/images/no-image.jpg
p1384
asg22
V#150
p1385
sg24
V1999-00
p1386
sg312
VSTAR
p1387
sg26
g27
sg28
(lp1388
VShaquille O'Neal
p1389
assbag1
(g2
g3
Ntp1390
Rp1391
(dp1392
g7
(dp1393
g9
V1999-00 Hoops Starting Five #7 Tyronn Lue
p1394
sg11
I5
sg12
VHoops Starting Five
p1395
sg14
(lp1396
Vhttp://www.beckett.com/basketball/1999-00/hoops-starting-five/7-tyronn-lue-3199069
p1397
asg17
g18
sg19
(lp1398
Vhttp://img.beckett.com/images/no-image.jpg
p1399
asg22
V#7
p1400
sg24
V1999-00
p1401
sg26
g27
sg28
(lp1402
VTyronn Lue
p1403
assbag1
(g2
g3
Ntp1404
Rp1405
(dp1406
g7
(dp1407
g9
V1999-00 Hoops Starting Five #17 Shaquille O'Neal
p1408
sg11
I5
sg12
VHoops Starting Five
p1409
sg14
(lp1410
Vhttp://www.beckett.com/basketball/1999-00/hoops-starting-five/17-shaquille-oneal-3199079
p1411
asg17
g18
sg19
(lp1412
Vhttp://img.beckett.com/images/no-image.jpg
p1413
asg22
V#17
p1414
sg24
V1999-00
p1415
sg26
g27
sg28
(lp1416
VShaquille O'Neal
p1417
assbag1
(g2
g3
Ntp1418
Rp1419
(dp1420
g7
(dp1421
g9
V1999-00 Hoops Starting Five #27 Kobe Bryant
p1422
sg11
I5
sg12
VHoops Starting Five
p1423
sg14
(lp1424
Vhttp://www.beckett.com/basketball/1999-00/hoops-starting-five/27-kobe-bryant-3199089
p1425
asg17
g18
sg19
(lp1426
Vhttp://img.beckett.com/images/no-image.jpg
p1427
asg22
V#27
p1428
sg24
V1999-00
p1429
sg26
g27
sg28
(lp1430
VKobe Bryant
p1431
assbag1
(g2
g3
Ntp1432
Rp1433
(dp1434
g7
(dp1435
g9
V1999-00 Hoops Starting Five #69 Glen Rice
p1436
sg11
I5
sg12
VHoops Starting Five
p1437
sg14
(lp1438
Vhttp://www.beckett.com/basketball/1999-00/hoops-starting-five/69-glen-rice-3199131
p1439
asg17
g18
sg19
(lp1440
Vhttp://img.beckett.com/images/no-image.jpg
p1441
asg22
V#69
p1442
sg24
V1999-00
p1443
sg26
g27
sg28
(lp1444
VGlen Rice
p1445
assbag1
(g2
g3
Ntp1446
Rp1447
(dp1448
g7
(dp1449
g9
V1999-00 Hoops Starting Five #83 Sam Jacobson
p1450
sg11
I5
sg12
VHoops Starting Five
p1451
sg14
(lp1452
Vhttp://www.beckett.com/basketball/1999-00/hoops-starting-five/83-sam-jacobson-3199145
p1453
asg17
g18
sg19
(lp1454
Vhttp://img.beckett.com/images/no-image.jpg
p1455
asg22
V#83
p1456
sg24
V1999-00
p1457
sg26
g27
sg28
(lp1458
VSam Jacobson
p1459
assbag1
(g2
g3
Ntp1460
Rp1461
(dp1462
g7
(dp1463
g9
V1999-00 Hoops Starting Five #170 John Celestand
p1464
sg11
I5
sg12
VHoops Starting Five
p1465
sg14
(lp1466
Vhttp://www.beckett.com/basketball/1999-00/hoops-starting-five/170-john-celestand-3199232
p1467
asg17
g18
sg19
(lp1468
Vhttp://img.beckett.com/images/no-image.jpg
p1469
asg22
V#170
p1470
sg24
V1999-00
p1471
sg26
g27
sg28
(lp1472
VJohn Celestand
p1473
assbag1
(g2
g3
Ntp1474
Rp1475
(dp1476
g7
(dp1477
g9
V1999-00 SkyBox APEX Xtra #4 Kobe Bryant
p1478
sg11
I50
sg12
VSkyBox APEX Xtra
p1479
sg14
(lp1480
Vhttp://www.beckett.com/basketball/1999-00/skybox-apex-xtra/4-kobe-bryant-3198138
p1481
asg17
g18
sg19
(lp1482
Vhttp://img.beckett.com/images/no-image.jpg
p1483
asg22
V#4
p1484
sg24
V1999-00
p1485
sg26
g27
sg28
(lp1486
VKobe Bryant
p1487
assbag1
(g2
g3
Ntp1488
Rp1489
(dp1490
g7
(dp1491
g9
V1999-00 SkyBox APEX Xtra #19 Shaquille O'Neal
p1492
sg11
I50
sg12
VSkyBox APEX Xtra
p1493
sg14
(lp1494
Vhttp://www.beckett.com/basketball/1999-00/skybox-apex-xtra/19-shaquille-oneal-3198153
p1495
asg17
g18
sg19
(lp1496
Vhttp://img.beckett.com/images/no-image.jpg
p1497
asg22
V#19
p1498
sg24
V1999-00
p1499
sg26
g27
sg28
(lp1500
VShaquille O'Neal
p1501
assbag1
(g2
g3
Ntp1502
Rp1503
(dp1504
g7
(dp1505
g9
V1999-00 SkyBox APEX Xtra #28 Glen Rice
p1506
sg11
I50
sg12
VSkyBox APEX Xtra
p1507
sg14
(lp1508
Vhttp://www.beckett.com/basketball/1999-00/skybox-apex-xtra/28-glen-rice-3198162
p1509
asg17
g18
sg19
(lp1510
Vhttp://img.beckett.com/images/no-image.jpg
p1511
asg22
V#28
p1512
sg24
V1999-00
p1513
sg26
g27
sg28
(lp1514
VGlen Rice
p1515
assbag1
(g2
g3
Ntp1516
Rp1517
(dp1518
g7
(dp1519
g9
V1999-00 SkyBox APEX Xtra #66 Rick Fox
p1520
sg11
I50
sg12
VSkyBox APEX Xtra
p1521
sg14
(lp1522
Vhttp://www.beckett.com/basketball/1999-00/skybox-apex-xtra/66-rick-fox-3198200
p1523
asg17
g18
sg19
(lp1524
Vhttp://img.beckett.com/images/no-image.jpg
p1525
asg22
V#66
p1526
sg24
V1999-00
p1527
sg26
g27
sg28
(lp1528
VRick Fox
p1529
assbag1
(g2
g3
Ntp1530
Rp1531
(dp1532
g7
(dp1533
g9
V1999-00 SkyBox APEX Xtra #138 Derek Fisher
p1534
sg11
I50
sg12
VSkyBox APEX Xtra
p1535
sg14
(lp1536
Vhttp://www.beckett.com/basketball/1999-00/skybox-apex-xtra/138-derek-fisher-3198272
p1537
asg17
g18
sg19
(lp1538
Vhttp://img.beckett.com/images/no-image.jpg
p1539
asg22
V#138
p1540
sg24
V1999-00
p1541
sg26
g27
sg28
(lp1542
VDerek Fisher
p1543
assbag1
(g2
g3
Ntp1544
Rp1545
(dp1546
g7
(dp1547
g9
V1999-00 SkyBox APEX Xtreme #4 Kobe Bryant
p1548
sg11
I1
sg12
VSkyBox APEX Xtreme
p1549
sg14
(lp1550
Vhttp://www.beckett.com/basketball/1999-00/skybox-apex-xtreme/4-kobe-bryant-3196480
p1551
asg17
g18
sg19
(lp1552
Vhttp://img.beckett.com/images/no-image.jpg
p1553
asg22
V#4
p1554
sg24
V1999-00
p1555
sg26
g27
sg28
(lp1556
VKobe Bryant
p1557
assbag1
(g2
g3
Ntp1558
Rp1559
(dp1560
g7
(dp1561
g9
V1999-00 SkyBox APEX Xtreme #19 Shaquille O'Neal
p1562
sg11
I1
sg12
VSkyBox APEX Xtreme
p1563
sg14
(lp1564
Vhttp://www.beckett.com/basketball/1999-00/skybox-apex-xtreme/19-shaquille-oneal-3196495
p1565
asg17
g18
sg19
(lp1566
Vhttp://img.beckett.com/images/no-image.jpg
p1567
asg22
V#19
p1568
sg24
V1999-00
p1569
sg26
g27
sg28
(lp1570
VShaquille O'Neal
p1571
assbag1
(g2
g3
Ntp1572
Rp1573
(dp1574
g7
(dp1575
g9
V1999-00 SkyBox APEX Xtreme #28 Glen Rice
p1576
sg11
I1
sg12
VSkyBox APEX Xtreme
p1577
sg14
(lp1578
Vhttp://www.beckett.com/basketball/1999-00/skybox-apex-xtreme/28-glen-rice-3196504
p1579
asg17
g18
sg19
(lp1580
Vhttp://img.beckett.com/images/no-image.jpg
p1581
asg22
V#28
p1582
sg24
V1999-00
p1583
sg26
g27
sg28
(lp1584
VGlen Rice
p1585
assbag1
(g2
g3
Ntp1586
Rp1587
(dp1588
g7
(dp1589
g9
V1999-00 SkyBox APEX Xtreme #66 Rick Fox
p1590
sg11
I1
sg12
VSkyBox APEX Xtreme
p1591
sg14
(lp1592
Vhttp://www.beckett.com/basketball/1999-00/skybox-apex-xtreme/66-rick-fox-3196542
p1593
asg17
g18
sg19
(lp1594
Vhttp://img.beckett.com/images/no-image.jpg
p1595
asg22
V#66
p1596
sg24
V1999-00
p1597
sg26
g27
sg28
(lp1598
VRick Fox
p1599
assbag1
(g2
g3
Ntp1600
Rp1601
(dp1602
g7
(dp1603
g9
V1999-00 SkyBox APEX Xtreme #138 Derek Fisher
p1604
sg11
I1
sg12
VSkyBox APEX Xtreme
p1605
sg14
(lp1606
Vhttp://www.beckett.com/basketball/1999-00/skybox-apex-xtreme/138-derek-fisher-3196614
p1607
asg17
g18
sg19
(lp1608
Vhttp://img.beckett.com/images/no-image.jpg
p1609
asg22
V#138
p1610
sg24
V1999-00
p1611
sg26
g27
sg28
(lp1612
VDerek Fisher
p1613
assbag1
(g2
g3
Ntp1614
Rp1615
(dp1616
g7
(dp1617
g9
V1999-00 SkyBox Premium Star Rubies #50 Kobe Bryant
p1618
sg11
I45
sg12
VSkyBox Premium Star Rubies
p1619
sg14
(lp1620
Vhttp://www.beckett.com/basketball/1999-00/skybox-premium-star-rubies/50-kobe-bryant-3195628
p1621
asg17
g18
sg19
(lp1622
Vhttp://img.beckett.com/images/no-image.jpg
p1623
asg22
V#50
p1624
sg24
V1999-00
p1625
sg26
g27
sg28
(lp1626
VKobe Bryant
p1627
assbag1
(g2
g3
Ntp1628
Rp1629
(dp1630
g7
(dp1631
g9
V1999-00 SkyBox Premium Star Rubies #55 Shaquille O'Neal
p1632
sg11
I45
sg12
VSkyBox Premium Star Rubies
p1633
sg14
(lp1634
Vhttp://www.beckett.com/basketball/1999-00/skybox-premium-star-rubies/55-shaquille-oneal-3195633
p1635
asg17
g18
sg19
(lp1636
Vhttp://img.beckett.com/images/no-image.jpg
p1637
asg22
V#55
p1638
sg24
V1999-00
p1639
sg26
g27
sg28
(lp1640
VShaquille O'Neal
p1641
assbag1
(g2
g3
Ntp1642
Rp1643
(dp1644
g7
(dp1645
g9
V1999-00 SkyBox Premium Star Rubies #62 Glen Rice
p1646
sg11
I45
sg12
VSkyBox Premium Star Rubies
p1647
sg14
(lp1648
Vhttp://www.beckett.com/basketball/1999-00/skybox-premium-star-rubies/62-glen-rice-3195640
p1649
asg17
g18
sg19
(lp1650
Vhttp://img.beckett.com/images/no-image.jpg
p1651
asg22
V#62
p1652
sg24
V1999-00
p1653
sg26
g27
sg28
(lp1654
VGlen Rice
p1655
assbag1
(g2
g3
Ntp1656
Rp1657
(dp1658
g7
(dp1659
g9
V1999-00 SkyBox Premium Star Rubies #123 Devean George
p1660
sg11
I45
sg12
VSkyBox Premium Star Rubies
p1661
sg14
(lp1662
Vhttp://www.beckett.com/basketball/1999-00/skybox-premium-star-rubies/123-devean-george-3195723
p1663
asg17
g18
sg19
(lp1664
Vhttp://img.beckett.com/images/no-image.jpg
p1665
asg22
V#123
p1666
sg24
V1999-00
p1667
sg26
g27
sg28
(lp1668
VDevean George
p1669
assbag1
(g2
g3
Ntp1670
Rp1671
(dp1672
g7
(dp1673
g9
V1999-00 SkyBox Premium Star Rubies #123A Devean George SP
p1674
sg11
I25
sg12
VSkyBox Premium Star Rubies
p1675
sg14
(lp1676
Vhttp://www.beckett.com/basketball/1999-00/skybox-premium-star-rubies/123a-devean-george-sp-3195724
p1677
asg17
g18
sg19
(lp1678
Vhttp://img.beckett.com/images/no-image.jpg
p1679
asg22
V#123A
p1680
sg24
V1999-00
p1681
sg312
VSP
p1682
sg26
g27
sg28
(lp1683
VDevean George
p1684
assbag1
(g2
g3
Ntp1685
Rp1686
(dp1687
g7
(dp1688
g9
V1999-00 SPx Radiance #36 Shaquille O'Neal
p1689
sg11
I100
sg12
VSPx Radiance
p1690
sg14
(lp1691
Vhttp://www.beckett.com/basketball/1999-00/spx-radiance/36-shaquille-oneal-3193249
p1692
asg17
g18
sg19
(lp1693
Vhttp://img.beckett.com/images/no-image.jpg
p1694
asg22
V#36
p1695
sg24
V1999-00
p1696
sg26
g27
sg28
(lp1697
VShaquille O'Neal
p1698
assbag1
(g2
g3
Ntp1699
Rp1700
(dp1701
g7
(dp1702
g9
V1999-00 SPx Radiance #37 Kobe Bryant
p1703
sg11
I100
sg12
VSPx Radiance
p1704
sg14
(lp1705
Vhttp://www.beckett.com/basketball/1999-00/spx-radiance/37-kobe-bryant-3193250
p1706
asg17
g18
sg19
(lp1707
Vhttp://img.beckett.com/images/no-image.jpg
p1708
asg22
V#37
p1709
sg24
V1999-00
p1710
sg26
g27
sg28
(lp1711
VKobe Bryant
p1712
assbag1
(g2
g3
Ntp1713
Rp1714
(dp1715
g7
(dp1716
g9
V1999-00 SPx Radiance #38 Glen Rice
p1717
sg11
I100
sg12
VSPx Radiance
p1718
sg14
(lp1719
Vhttp://www.beckett.com/basketball/1999-00/spx-radiance/38-glen-rice-3193251
p1720
asg17
g18
sg19
(lp1721
Vhttp://img.beckett.com/images/no-image.jpg
p1722
asg22
V#38
p1723
sg24
V1999-00
p1724
sg26
g27
sg28
(lp1725
VGlen Rice
p1726
assbag1
(g2
g3
Ntp1727
Rp1728
(dp1729
g7
(dp1730
g9
V1999-00 SPx Radiance #110 Devean George
p1731
sg11
I100
sg12
VSPx Radiance
p1732
sg14
(lp1733
Vhttp://www.beckett.com/basketball/1999-00/spx-radiance/110-devean-george-3193323
p1734
asg17
g18
sg19
(lp1735
Vhttp://img.beckett.com/images/no-image.jpg
p1736
asg22
V#110
p1737
sg24
V1999-00
p1738
sg26
g27
sg28
(lp1739
VDevean George
p1740
assbag1
(g2
g3
Ntp1741
Rp1742
(dp1743
g7
(dp1744
g9
V1999-00 SPx Spectrum #36 Shaquille O'Neal
p1745
sg11
I1
sg12
VSPx Spectrum
p1746
sg14
(lp1747
Vhttp://www.beckett.com/basketball/1999-00/spx-spectrum/36-shaquille-oneal-3193374
p1748
asg17
g18
sg19
(lp1749
Vhttp://img.beckett.com/images/no-image.jpg
p1750
asg22
V#36
p1751
sg24
V1999-00
p1752
sg26
g27
sg28
(lp1753
VShaquille O'Neal
p1754
assbag1
(g2
g3
Ntp1755
Rp1756
(dp1757
g7
(dp1758
g9
V1999-00 SPx Spectrum #37 Kobe Bryant
p1759
sg11
I1
sg12
VSPx Spectrum
p1760
sg14
(lp1761
Vhttp://www.beckett.com/basketball/1999-00/spx-spectrum/37-kobe-bryant-3193375
p1762
asg17
g18
sg19
(lp1763
Vhttp://img.beckett.com/images/no-image.jpg
p1764
asg22
V#37
p1765
sg24
V1999-00
p1766
sg26
g27
sg28
(lp1767
VKobe Bryant
p1768
assbag1
(g2
g3
Ntp1769
Rp1770
(dp1771
g7
(dp1772
g9
V1999-00 SPx Spectrum #38 Glen Rice
p1773
sg11
I1
sg12
VSPx Spectrum
p1774
sg14
(lp1775
Vhttp://www.beckett.com/basketball/1999-00/spx-spectrum/38-glen-rice-3193376
p1776
asg17
g18
sg19
(lp1777
Vhttp://img.beckett.com/images/no-image.jpg
p1778
asg22
V#38
p1779
sg24
V1999-00
p1780
sg26
g27
sg28
(lp1781
VGlen Rice
p1782
assbag1
(g2
g3
Ntp1783
Rp1784
(dp1785
g7
(dp1786
g9
V1999-00 SPx Spectrum #110 Devean George
p1787
sg11
I1
sg12
VSPx Spectrum
p1788
sg14
(lp1789
Vhttp://www.beckett.com/basketball/1999-00/spx-spectrum/110-devean-george-3193448
p1790
asg17
g18
sg19
(lp1791
Vhttp://img.beckett.com/images/no-image.jpg
p1792
asg22
V#110
p1793
sg24
V1999-00
p1794
sg26
g27
sg28
(lp1795
VDevean George
p1796
assbag1
(g2
g3
Ntp1797
Rp1798
(dp1799
g7
(dp1800
g9
V1999-00 Stadium Club First Day Issue #36 Shaquille O'Neal
p1801
sg11
I150
sg12
VStadium Club First Day Issue
p1802
sg14
(lp1803
Vhttp://www.beckett.com/basketball/1999-00/stadium-club-first-day-issue/36-shaquille-oneal-3193870
p1804
asg17
g18
sg19
(lp1805
Vhttp://img.beckett.com/images/items_stock/185226/3193824/3193870/front.jpg
p1806
asg22
V#36
p1807
sg24
V1999-00
p1808
sg26
g27
sg28
(lp1809
VShaquille O'Neal
p1810
assbag1
(g2
g3
Ntp1811
Rp1812
(dp1813
g7
(dp1814
g9
V1999-00 Stadium Club First Day Issue #48 Rick Fox
p1815
sg11
I150
sg12
VStadium Club First Day Issue
p1816
sg14
(lp1817
Vhttp://www.beckett.com/basketball/1999-00/stadium-club-first-day-issue/48-rick-fox-3193882
p1818
asg17
g18
sg19
(lp1819
Vhttp://img.beckett.com/images/no-image.jpg
p1820
asg22
V#48
p1821
sg24
V1999-00
p1822
sg26
g27
sg28
(lp1823
VRick Fox
p1824
assbag1
(g2
g3
Ntp1825
Rp1826
(dp1827
g7
(dp1828
g9
V1999-00 Stadium Club First Day Issue #101 Glen Rice
p1829
sg11
I150
sg12
VStadium Club First Day Issue
p1830
sg14
(lp1831
Vhttp://www.beckett.com/basketball/1999-00/stadium-club-first-day-issue/101-glen-rice-3193935
p1832
asg17
g18
sg19
(lp1833
Vhttp://img.beckett.com/images/no-image.jpg
p1834
asg22
V#101
p1835
sg24
V1999-00
p1836
sg26
g27
sg28
(lp1837
VGlen Rice
p1838
assbag1
(g2
g3
Ntp1839
Rp1840
(dp1841
g7
(dp1842
g9
V1999-00 Stadium Club First Day Issue #117 Kobe Bryant
p1843
sg11
I150
sg12
VStadium Club First Day Issue
p1844
sg14
(lp1845
Vhttp://www.beckett.com/basketball/1999-00/stadium-club-first-day-issue/117-kobe-bryant-3193951
p1846
asg17
g18
sg19
(lp1847
Vhttp://img.beckett.com/images/no-image.jpg
p1848
asg22
V#117
p1849
sg24
V1999-00
p1850
sg26
g27
sg28
(lp1851
VKobe Bryant
p1852
assbag1
(g2
g3
Ntp1853
Rp1854
(dp1855
g7
(dp1856
g9
V1999-00 Stadium Club First Day Issue #123 Derek Fisher
p1857
sg11
I150
sg12
VStadium Club First Day Issue
p1858
sg14
(lp1859
Vhttp://www.beckett.com/basketball/1999-00/stadium-club-first-day-issue/123-derek-fisher-3193957
p1860
asg17
g18
sg19
(lp1861
Vhttp://img.beckett.com/images/no-image.jpg
p1862
asg22
V#123
p1863
sg24
V1999-00
p1864
sg26
g27
sg28
(lp1865
VDerek Fisher
p1866
assbag1
(g2
g3
Ntp1867
Rp1868
(dp1869
g7
(dp1870
g9
V1999-00 Stadium Club First Day Issue #198 Devean George
p1871
sg11
I150
sg12
VStadium Club First Day Issue
p1872
sg14
(lp1873
Vhttp://www.beckett.com/basketball/1999-00/stadium-club-first-day-issue/198-devean-george-3194032
p1874
asg17
g18
sg19
(lp1875
Vhttp://img.beckett.com/images/no-image.jpg
p1876
asg22
V#198
p1877
sg24
V1999-00
p1878
sg26
g27
sg28
(lp1879
VDevean George
p1880
assbag1
(g2
g3
Ntp1881
Rp1882
(dp1883
g7
(dp1884
g9
V1999-00 Stadium Club One of a Kind #36 Shaquille O'Neal
p1885
sg11
I150
sg12
VStadium Club One of a Kind
p1886
sg14
(lp1887
Vhttp://www.beckett.com/basketball/1999-00/stadium-club-one-of-a-kind/36-shaquille-oneal-3194082
p1888
asg17
g18
sg19
(lp1889
Vhttp://img.beckett.com/images/items_stock/185226/3194036/3194082/front.jpg
p1890
asg22
V#36
p1891
sg24
V1999-00
p1892
sg26
g27
sg28
(lp1893
VShaquille O'Neal
p1894
assbag1
(g2
g3
Ntp1895
Rp1896
(dp1897
g7
(dp1898
g9
V1999-00 Stadium Club One of a Kind #48 Rick Fox
p1899
sg11
I150
sg12
VStadium Club One of a Kind
p1900
sg14
(lp1901
Vhttp://www.beckett.com/basketball/1999-00/stadium-club-one-of-a-kind/48-rick-fox-3194094
p1902
asg17
g18
sg19
(lp1903
Vhttp://img.beckett.com/images/no-image.jpg
p1904
asg22
V#48
p1905
sg24
V1999-00
p1906
sg26
g27
sg28
(lp1907
VRick Fox
p1908
assbag1
(g2
g3
Ntp1909
Rp1910
(dp1911
g7
(dp1912
g9
V1999-00 Stadium Club One of a Kind #101 Glen Rice
p1913
sg11
I150
sg12
VStadium Club One of a Kind
p1914
sg14
(lp1915
Vhttp://www.beckett.com/basketball/1999-00/stadium-club-one-of-a-kind/101-glen-rice-3194147
p1916
asg17
g18
sg19
(lp1917
Vhttp://img.beckett.com/images/no-image.jpg
p1918
asg22
V#101
p1919
sg24
V1999-00
p1920
sg26
g27
sg28
(lp1921
VGlen Rice
p1922
assbag1
(g2
g3
Ntp1923
Rp1924
(dp1925
g7
(dp1926
g9
V1999-00 Stadium Club One of a Kind #117 Kobe Bryant
p1927
sg11
I150
sg12
VStadium Club One of a Kind
p1928
sg14
(lp1929
Vhttp://www.beckett.com/basketball/1999-00/stadium-club-one-of-a-kind/117-kobe-bryant-3194163
p1930
asg17
g18
sg19
(lp1931
Vhttp://img.beckett.com/images/no-image.jpg
p1932
asg22
V#117
p1933
sg24
V1999-00
p1934
sg26
g27
sg28
(lp1935
VKobe Bryant
p1936
assbag1
(g2
g3
Ntp1937
Rp1938
(dp1939
g7
(dp1940
g9
V1999-00 Stadium Club One of a Kind #123 Derek Fisher
p1941
sg11
I150
sg12
VStadium Club One of a Kind
p1942
sg14
(lp1943
Vhttp://www.beckett.com/basketball/1999-00/stadium-club-one-of-a-kind/123-derek-fisher-3194169
p1944
asg17
g18
sg19
(lp1945
Vhttp://img.beckett.com/images/no-image.jpg
p1946
asg22
V#123
p1947
sg24
V1999-00
p1948
sg26
g27
sg28
(lp1949
VDerek Fisher
p1950
assbag1
(g2
g3
Ntp1951
Rp1952
(dp1953
g7
(dp1954
g9
V1999-00 Stadium Club One of a Kind #198 Devean George
p1955
sg11
I150
sg12
VStadium Club One of a Kind
p1956
sg14
(lp1957
Vhttp://www.beckett.com/basketball/1999-00/stadium-club-one-of-a-kind/198-devean-george-3194244
p1958
asg17
g18
sg19
(lp1959
Vhttp://img.beckett.com/images/no-image.jpg
p1960
asg22
V#198
p1961
sg24
V1999-00
p1962
sg26
g27
sg28
(lp1963
VDevean George
p1964
assbag1
(g2
g3
Ntp1965
Rp1966
(dp1967
g7
(dp1968
g9
V1999-00 Stadium Club Printing Plates #36A Shaquille O'Neal Black
p1969
sg11
I1
sg12
VStadium Club Printing Plates
p1970
sg14
(lp1971
Vhttp://www.beckett.com/basketball/1999-00/stadium-club-printing-plates/36a-shaquille-oneal-black-3194394
p1972
asg17
g18
sg19
(lp1973
Vhttp://img.beckett.com/images/no-image.jpg
p1974
asg22
V#36A
p1975
sg24
V1999-00
p1976
sg26
g27
sg28
(lp1977
VShaquille O'Neal
p1978
assbag1
(g2
g3
Ntp1979
Rp1980
(dp1981
g7
(dp1982
g9
V1999-00 Stadium Club Printing Plates #36B Shaquille O'Neal Cyan
p1983
sg11
I1
sg12
VStadium Club Printing Plates
p1984
sg14
(lp1985
Vhttp://www.beckett.com/basketball/1999-00/stadium-club-printing-plates/36b-shaquille-oneal-cyan-3194395
p1986
asg17
g18
sg19
(lp1987
Vhttp://img.beckett.com/images/no-image.jpg
p1988
asg22
V#36B
p1989
sg24
V1999-00
p1990
sg26
g27
sg28
(lp1991
g1978
assbag1
(g2
g3
Ntp1992
Rp1993
(dp1994
g7
(dp1995
g9
V1999-00 Stadium Club Printing Plates #36C Shaquille O'Neal Magenta
p1996
sg11
I1
sg12
VStadium Club Printing Plates
p1997
sg14
(lp1998
Vhttp://www.beckett.com/basketball/1999-00/stadium-club-printing-plates/36c-shaquille-oneal-magenta-3194396
p1999
asg17
g18
sg19
(lp2000
Vhttp://img.beckett.com/images/no-image.jpg
p2001
asg22
V#36C
p2002
sg24
V1999-00
p2003
sg26
g27
sg28
(lp2004
g1978
assbag1
(g2
g3
Ntp2005
Rp2006
(dp2007
g7
(dp2008
g9
V1999-00 Stadium Club Printing Plates #36D Shaquille O'Neal Yellow
p2009
sg11
I1
sg12
VStadium Club Printing Plates
p2010
sg14
(lp2011
Vhttp://www.beckett.com/basketball/1999-00/stadium-club-printing-plates/36d-shaquille-oneal-yellow-3194397
p2012
asg17
g18
sg19
(lp2013
Vhttp://img.beckett.com/images/no-image.jpg
p2014
asg22
V#36D
p2015
sg24
V1999-00
p2016
sg26
g27
sg28
(lp2017
g1978
assbag1
(g2
g3
Ntp2018
Rp2019
(dp2020
g7
(dp2021
g9
V1999-00 Stadium Club Printing Plates #48A Rick Fox Black
p2022
sg11
I1
sg12
VStadium Club Printing Plates
p2023
sg14
(lp2024
Vhttp://www.beckett.com/basketball/1999-00/stadium-club-printing-plates/48a-rick-fox-black-3194442
p2025
asg17
g18
sg19
(lp2026
Vhttp://img.beckett.com/images/no-image.jpg
p2027
asg22
V#48A
p2028
sg24
V1999-00
p2029
sg26
g27
sg28
(lp2030
VRick Fox
p2031
assbag1
(g2
g3
Ntp2032
Rp2033
(dp2034
g7
(dp2035
g9
V1999-00 Stadium Club Printing Plates #48B Rick Fox Cyan
p2036
sg11
I1
sg12
VStadium Club Printing Plates
p2037
sg14
(lp2038
Vhttp://www.beckett.com/basketball/1999-00/stadium-club-printing-plates/48b-rick-fox-cyan-3194443
p2039
asg17
g18
sg19
(lp2040
Vhttp://img.beckett.com/images/no-image.jpg
p2041
asg22
V#48B
p2042
sg24
V1999-00
p2043
sg26
g27
sg28
(lp2044
g2031
assbag1
(g2
g3
Ntp2045
Rp2046
(dp2047
g7
(dp2048
g9
V1999-00 Stadium Club Printing Plates #48C Rick Fox Magenta
p2049
sg11
I1
sg12
VStadium Club Printing Plates
p2050
sg14
(lp2051
Vhttp://www.beckett.com/basketball/1999-00/stadium-club-printing-plates/48c-rick-fox-magenta-3194444
p2052
asg17
g18
sg19
(lp2053
Vhttp://img.beckett.com/images/no-image.jpg
p2054
asg22
V#48C
p2055
sg24
V1999-00
p2056
sg26
g27
sg28
(lp2057
g2031
assbag1
(g2
g3
Ntp2058
Rp2059
(dp2060
g7
(dp2061
g9
V1999-00 Stadium Club Printing Plates #48D Rick Fox Yellow
p2062
sg11
I1
sg12
VStadium Club Printing Plates
p2063
sg14
(lp2064
Vhttp://www.beckett.com/basketball/1999-00/stadium-club-printing-plates/48d-rick-fox-yellow-3194445
p2065
asg17
g18
sg19
(lp2066
Vhttp://img.beckett.com/images/no-image.jpg
p2067
asg22
V#48D
p2068
sg24
V1999-00
p2069
sg26
g27
sg28
(lp2070
g2031
assbag1
(g2
g3
Ntp2071
Rp2072
(dp2073
g7
(dp2074
g9
V1999-00 Stadium Club Printing Plates #101A Glen Rice Black
p2075
sg11
I1
sg12
VStadium Club Printing Plates
p2076
sg14
(lp2077
Vhttp://www.beckett.com/basketball/1999-00/stadium-club-printing-plates/101a-glen-rice-black-3194654
p2078
asg17
g18
sg19
(lp2079
Vhttp://img.beckett.com/images/no-image.jpg
p2080
asg22
V#101A
p2081
sg24
V1999-00
p2082
sg26
g27
sg28
(lp2083
VGlen Rice
p2084
assbag1
(g2
g3
Ntp2085
Rp2086
(dp2087
g7
(dp2088
g9
V1999-00 Stadium Club Printing Plates #101B Glen Rice Cyan
p2089
sg11
I1
sg12
VStadium Club Printing Plates
p2090
sg14
(lp2091
Vhttp://www.beckett.com/basketball/1999-00/stadium-club-printing-plates/101b-glen-rice-cyan-3194655
p2092
asg17
g18
sg19
(lp2093
Vhttp://img.beckett.com/images/no-image.jpg
p2094
asg22
V#101B
p2095
sg24
V1999-00
p2096
sg26
g27
sg28
(lp2097
g2084
assbag1
(g2
g3
Ntp2098
Rp2099
(dp2100
g7
(dp2101
g9
V1999-00 Stadium Club Printing Plates #101C Glen Rice Magenta
p2102
sg11
I1
sg12
VStadium Club Printing Plates
p2103
sg14
(lp2104
Vhttp://www.beckett.com/basketball/1999-00/stadium-club-printing-plates/101c-glen-rice-magenta-3194656
p2105
asg17
g18
sg19
(lp2106
Vhttp://img.beckett.com/images/no-image.jpg
p2107
asg22
V#101C
p2108
sg24
V1999-00
p2109
sg26
g27
sg28
(lp2110
g2084
assbag1
(g2
g3
Ntp2111
Rp2112
(dp2113
g7
(dp2114
g9
V1999-00 Stadium Club Printing Plates #101D Glen Rice Yellow
p2115
sg11
I1
sg12
VStadium Club Printing Plates
p2116
sg14
(lp2117
Vhttp://www.beckett.com/basketball/1999-00/stadium-club-printing-plates/101d-glen-rice-yellow-3194657
p2118
asg17
g18
sg19
(lp2119
Vhttp://img.beckett.com/images/no-image.jpg
p2120
asg22
V#101D
p2121
sg24
V1999-00
p2122
sg26
g27
sg28
(lp2123
g2084
assbag1
(g2
g3
Ntp2124
Rp2125
(dp2126
g7
(dp2127
g9
V1999-00 Stadium Club Printing Plates #117A Kobe Bryant Black
p2128
sg11
I1
sg12
VStadium Club Printing Plates
p2129
sg14
(lp2130
Vhttp://www.beckett.com/basketball/1999-00/stadium-club-printing-plates/117a-kobe-bryant-black-3194718
p2131
asg17
g18
sg19
(lp2132
Vhttp://img.beckett.com/images/no-image.jpg
p2133
asg22
V#117A
p2134
sg24
V1999-00
p2135
sg26
g27
sg28
(lp2136
VKobe Bryant
p2137
assbag1
(g2
g3
Ntp2138
Rp2139
(dp2140
g7
(dp2141
g9
V1999-00 Stadium Club Printing Plates #117B Kobe Bryant Cyan
p2142
sg11
I1
sg12
VStadium Club Printing Plates
p2143
sg14
(lp2144
Vhttp://www.beckett.com/basketball/1999-00/stadium-club-printing-plates/117b-kobe-bryant-cyan-3194719
p2145
asg17
g18
sg19
(lp2146
Vhttp://img.beckett.com/images/no-image.jpg
p2147
asg22
V#117B
p2148
sg24
V1999-00
p2149
sg26
g27
sg28
(lp2150
g2137
assbag1
(g2
g3
Ntp2151
Rp2152
(dp2153
g7
(dp2154
g9
V1999-00 Stadium Club Printing Plates #117C Kobe Bryant Magenta
p2155
sg11
I1
sg12
VStadium Club Printing Plates
p2156
sg14
(lp2157
Vhttp://www.beckett.com/basketball/1999-00/stadium-club-printing-plates/117c-kobe-bryant-magenta-3194720
p2158
asg17
g18
sg19
(lp2159
Vhttp://img.beckett.com/images/no-image.jpg
p2160
asg22
V#117C
p2161
sg24
V1999-00
p2162
sg26
g27
sg28
(lp2163
g2137
assbag1
(g2
g3
Ntp2164
Rp2165
(dp2166
g7
(dp2167
g9
V1999-00 Stadium Club Printing Plates #117D Kobe Bryant Yellow
p2168
sg11
I1
sg12
VStadium Club Printing Plates
p2169
sg14
(lp2170
Vhttp://www.beckett.com/basketball/1999-00/stadium-club-printing-plates/117d-kobe-bryant-yellow-3194721
p2171
asg17
g18
sg19
(lp2172
Vhttp://img.beckett.com/images/no-image.jpg
p2173
asg22
V#117D
p2174
sg24
V1999-00
p2175
sg26
g27
sg28
(lp2176
g2137
assbag1
(g2
g3
Ntp2177
Rp2178
(dp2179
g7
(dp2180
g9
V1999-00 Stadium Club Printing Plates #123A Derek Fisher Black
p2181
sg11
I1
sg12
VStadium Club Printing Plates
p2182
sg14
(lp2183
Vhttp://www.beckett.com/basketball/1999-00/stadium-club-printing-plates/123a-derek-fisher-black-3194742
p2184
asg17
g18
sg19
(lp2185
Vhttp://img.beckett.com/images/no-image.jpg
p2186
asg22
V#123A
p2187
sg24
V1999-00
p2188
sg26
g27
sg28
(lp2189
VDerek Fisher
p2190
assbag1
(g2
g3
Ntp2191
Rp2192
(dp2193
g7
(dp2194
g9
V1999-00 Stadium Club Printing Plates #123B Derek Fisher Cyan
p2195
sg11
I1
sg12
VStadium Club Printing Plates
p2196
sg14
(lp2197
Vhttp://www.beckett.com/basketball/1999-00/stadium-club-printing-plates/123b-derek-fisher-cyan-3194743
p2198
asg17
g18
sg19
(lp2199
Vhttp://img.beckett.com/images/no-image.jpg
p2200
asg22
V#123B
p2201
sg24
V1999-00
p2202
sg26
g27
sg28
(lp2203
g2190
assbag1
(g2
g3
Ntp2204
Rp2205
(dp2206
g7
(dp2207
g9
V1999-00 Stadium Club Printing Plates #123C Derek Fisher Magenta
p2208
sg11
I1
sg12
VStadium Club Printing Plates
p2209
sg14
(lp2210
Vhttp://www.beckett.com/basketball/1999-00/stadium-club-printing-plates/123c-derek-fisher-magenta-3194744
p2211
asg17
g18
sg19
(lp2212
Vhttp://img.beckett.com/images/no-image.jpg
p2213
asg22
V#123C
p2214
sg24
V1999-00
p2215
sg26
g27
sg28
(lp2216
g2190
assbag1
(g2
g3
Ntp2217
Rp2218
(dp2219
g7
(dp2220
g9
V1999-00 Stadium Club Printing Plates #123D Derek Fisher Yellow
p2221
sg11
I1
sg12
VStadium Club Printing Plates
p2222
sg14
(lp2223
Vhttp://www.beckett.com/basketball/1999-00/stadium-club-printing-plates/123d-derek-fisher-yellow-3194745
p2224
asg17
g18
sg19
(lp2225
Vhttp://img.beckett.com/images/no-image.jpg
p2226
asg22
V#123D
p2227
sg24
V1999-00
p2228
sg26
g27
sg28
(lp2229
g2190
assbag1
(g2
g3
Ntp2230
Rp2231
(dp2232
g7
(dp2233
g9
V1999-00 Stadium Club Printing Plates #198A Devean George Black
p2234
sg11
I1
sg12
VStadium Club Printing Plates
p2235
sg14
(lp2236
Vhttp://www.beckett.com/basketball/1999-00/stadium-club-printing-plates/198a-devean-george-black-3195042
p2237
asg17
g18
sg19
(lp2238
Vhttp://img.beckett.com/images/no-image.jpg
p2239
asg22
V#198A
p2240
sg24
V1999-00
p2241
sg26
g27
sg28
(lp2242
VDevean George
p2243
assbag1
(g2
g3
Ntp2244
Rp2245
(dp2246
g7
(dp2247
g9
V1999-00 Stadium Club Printing Plates #198B Devean George Cyan
p2248
sg11
I1
sg12
VStadium Club Printing Plates
p2249
sg14
(lp2250
Vhttp://www.beckett.com/basketball/1999-00/stadium-club-printing-plates/198b-devean-george-cyan-3195043
p2251
asg17
g18
sg19
(lp2252
Vhttp://img.beckett.com/images/no-image.jpg
p2253
asg22
V#198B
p2254
sg24
V1999-00
p2255
sg26
g27
sg28
(lp2256
g2243
assbag1
(g2
g3
Ntp2257
Rp2258
(dp2259
g7
(dp2260
g9
V1999-00 Stadium Club Printing Plates #198C Devean George Magenta
p2261
sg11
I1
sg12
VStadium Club Printing Plates
p2262
sg14
(lp2263
Vhttp://www.beckett.com/basketball/1999-00/stadium-club-printing-plates/198c-devean-george-magenta-3195044
p2264
asg17
g18
sg19
(lp2265
Vhttp://img.beckett.com/images/no-image.jpg
p2266
asg22
V#198C
p2267
sg24
V1999-00
p2268
sg26
g27
sg28
(lp2269
g2243
assbag1
(g2
g3
Ntp2270
Rp2271
(dp2272
g7
(dp2273
g9
V1999-00 Stadium Club Printing Plates #198D Devean George Yellow
p2274
sg11
I1
sg12
VStadium Club Printing Plates
p2275
sg14
(lp2276
Vhttp://www.beckett.com/basketball/1999-00/stadium-club-printing-plates/198d-devean-george-yellow-3195045
p2277
asg17
g18
sg19
(lp2278
Vhttp://img.beckett.com/images/no-image.jpg
p2279
asg22
V#198D
p2280
sg24
V1999-00
p2281
sg26
g27
sg28
(lp2282
g2243
assbag1
(g2
g3
Ntp2283
Rp2284
(dp2285
g7
(dp2286
g9
V1999-00 Stadium Club Chrome First Day Issue #26 Shaquille O'Neal
p2287
sg11
I100
sg12
VStadium Club Chrome First Day Issue
p2288
sg14
(lp2289
Vhttp://www.beckett.com/basketball/1999-00/stadium-club-chrome-first-day-issue/26-shaquille-oneal-3192426
p2290
asg17
g18
sg19
(lp2291
Vhttp://img.beckett.com/images/no-image.jpg
p2292
asg22
V#26
p2293
sg24
V1999-00
p2294
sg26
g27
sg28
(lp2295
VShaquille O'Neal
p2296
assbag1
(g2
g3
Ntp2297
Rp2298
(dp2299
g7
(dp2300
g9
V1999-00 Stadium Club Chrome First Day Issue #73 Glen Rice
p2301
sg11
I100
sg12
VStadium Club Chrome First Day Issue
p2302
sg14
(lp2303
Vhttp://www.beckett.com/basketball/1999-00/stadium-club-chrome-first-day-issue/73-glen-rice-3192473
p2304
asg17
g18
sg19
(lp2305
Vhttp://img.beckett.com/images/no-image.jpg
p2306
asg22
V#73
p2307
sg24
V1999-00
p2308
sg26
g27
sg28
(lp2309
VGlen Rice
p2310
assbag1
(g2
g3
Ntp2311
Rp2312
(dp2313
g7
(dp2314
g9
V1999-00 Stadium Club Chrome First Day Issue #87 Kobe Bryant
p2315
sg11
I100
sg12
VStadium Club Chrome First Day Issue
p2316
sg14
(lp2317
Vhttp://www.beckett.com/basketball/1999-00/stadium-club-chrome-first-day-issue/87-kobe-bryant-3192487
p2318
asg17
g18
sg19
(lp2319
Vhttp://img.beckett.com/images/no-image.jpg
p2320
asg22
V#87
p2321
sg24
V1999-00
p2322
sg26
g27
sg28
(lp2323
VKobe Bryant
p2324
assbag1
(g2
g3
Ntp2325
Rp2326
(dp2327
g7
(dp2328
g9
V1999-00 Stadium Club Chrome First Day Issue #92 Derek Fisher
p2329
sg11
I100
sg12
VStadium Club Chrome First Day Issue
p2330
sg14
(lp2331
Vhttp://www.beckett.com/basketball/1999-00/stadium-club-chrome-first-day-issue/92-derek-fisher-3192492
p2332
asg17
g18
sg19
(lp2333
Vhttp://img.beckett.com/images/items_stock/185226/3192391/3192492/front.jpg
p2334
asg22
V#92
p2335
sg24
V1999-00
p2336
sg26
g27
sg28
(lp2337
VDerek Fisher
p2338
assbag1
(g2
g3
Ntp2339
Rp2340
(dp2341
g7
(dp2342
g9
V1999-00 Stadium Club Chrome First Day Issue Refractors #26 Shaquille O'Neal
p2343
sg11
I25
sg12
VStadium Club Chrome First Day Issue Refractors
p2344
sg14
(lp2345
Vhttp://www.beckett.com/basketball/1999-00/stadium-club-chrome-first-day-issue-refractors/26-shaquille-oneal-3192586
p2346
asg17
g18
sg19
(lp2347
Vhttp://img.beckett.com/images/no-image.jpg
p2348
asg22
V#26
p2349
sg24
V1999-00
p2350
sg26
g27
sg28
(lp2351
VShaquille O'Neal
p2352
assbag1
(g2
g3
Ntp2353
Rp2354
(dp2355
g7
(dp2356
g9
V1999-00 Stadium Club Chrome First Day Issue Refractors #73 Glen Rice
p2357
sg11
I25
sg12
VStadium Club Chrome First Day Issue Refractors
p2358
sg14
(lp2359
Vhttp://www.beckett.com/basketball/1999-00/stadium-club-chrome-first-day-issue-refractors/73-glen-rice-3192633
p2360
asg17
g18
sg19
(lp2361
Vhttp://img.beckett.com/images/no-image.jpg
p2362
asg22
V#73
p2363
sg24
V1999-00
p2364
sg26
g27
sg28
(lp2365
VGlen Rice
p2366
assbag1
(g2
g3
Ntp2367
Rp2368
(dp2369
g7
(dp2370
g9
V1999-00 Stadium Club Chrome First Day Issue Refractors #87 Kobe Bryant
p2371
sg11
I25
sg12
VStadium Club Chrome First Day Issue Refractors
p2372
sg14
(lp2373
Vhttp://www.beckett.com/basketball/1999-00/stadium-club-chrome-first-day-issue-refractors/87-kobe-bryant-3192647
p2374
asg17
g18
sg19
(lp2375
Vhttp://img.beckett.com/images/no-image.jpg
p2376
asg22
V#87
p2377
sg24
V1999-00
p2378
sg26
g27
sg28
(lp2379
VKobe Bryant
p2380
assbag1
(g2
g3
Ntp2381
Rp2382
(dp2383
g7
(dp2384
g9
V1999-00 Stadium Club Chrome First Day Issue Refractors #92 Derek Fisher
p2385
sg11
I25
sg12
VStadium Club Chrome First Day Issue Refractors
p2386
sg14
(lp2387
Vhttp://www.beckett.com/basketball/1999-00/stadium-club-chrome-first-day-issue-refractors/92-derek-fisher-3192652
p2388
asg17
g18
sg19
(lp2389
Vhttp://img.beckett.com/images/no-image.jpg
p2390
asg22
V#92
p2391
sg24
V1999-00
p2392
sg26
g27
sg28
(lp2393
VDerek Fisher
p2394
assbag1
(g2
g3
Ntp2395
Rp2396
(dp2397
g7
(dp2398
g9
V1999-00 Topps Gallery Player's Private Issue #40 Shaquille O'Neal
p2399
sg11
I250
sg12
VTopps Gallery Player's Private Issue
p2400
sg14
(lp2401
Vhttp://www.beckett.com/basketball/1999-00/topps-gallery-players-private-issue/40-shaquille-oneal-3190834
p2402
asg17
g18
sg19
(lp2403
Vhttp://img.beckett.com/images/items_stock/185226/3190784/3190834/front.jpg
p2404
asg22
V#40
p2405
sg24
V1999-00
p2406
sg26
g27
sg28
(lp2407
VShaquille O'Neal
p2408
assbag1
(g2
g3
Ntp2409
Rp2410
(dp2411
g7
(dp2412
g9
V1999-00 Topps Gallery Player's Private Issue #70 Kobe Bryant
p2413
sg11
I250
sg12
VTopps Gallery Player's Private Issue
p2414
sg14
(lp2415
Vhttp://www.beckett.com/basketball/1999-00/topps-gallery-players-private-issue/70-kobe-bryant-3190864
p2416
asg17
g18
sg19
(lp2417
Vhttp://img.beckett.com/images/no-image.jpg
p2418
asg22
V#70
p2419
sg24
V1999-00
p2420
sg26
g27
sg28
(lp2421
VKobe Bryant
p2422
assbag1
(g2
g3
Ntp2423
Rp2424
(dp2425
g7
(dp2426
g9
V1999-00 Topps Gallery Player's Private Issue #98 Glen Rice
p2427
sg11
I250
sg12
VTopps Gallery Player's Private Issue
p2428
sg14
(lp2429
Vhttp://www.beckett.com/basketball/1999-00/topps-gallery-players-private-issue/98-glen-rice-3190892
p2430
asg17
g18
sg19
(lp2431
Vhttp://img.beckett.com/images/no-image.jpg
p2432
asg22
V#98
p2433
sg24
V1999-00
p2434
sg26
g27
sg28
(lp2435
VGlen Rice
p2436
assbag1
(g2
g3
Ntp2437
Rp2438
(dp2439
g7
(dp2440
g9
V1999-00 Topps Gallery Player's Private Issue #105 Shaquille O'Neal MAS
p2441
sg11
I250
sg12
VTopps Gallery Player's Private Issue
p2442
sg14
(lp2443
Vhttp://www.beckett.com/basketball/1999-00/topps-gallery-players-private-issue/105-shaquille-oneal-mas-3190899
p2444
asg17
g18
sg19
(lp2445
Vhttp://img.beckett.com/images/items_stock/185226/3190784/3190899/front.jpg
p2446
asg22
V#105
p2447
sg24
V1999-00
p2448
sg312
VMAS
p2449
sg26
g27
sg28
(lp2450
VShaquille O'Neal
p2451
assbag1
(g2
g3
Ntp2452
Rp2453
(dp2454
g7
(dp2455
g9
V1999-00 Topps Gallery Player's Private Issue #115 Kobe Bryant ART
p2456
sg11
I250
sg12
VTopps Gallery Player's Private Issue
p2457
sg14
(lp2458
Vhttp://www.beckett.com/basketball/1999-00/topps-gallery-players-private-issue/115-kobe-bryant-art-3190909
p2459
asg17
g18
sg19
(lp2460
Vhttp://img.beckett.com/images/no-image.jpg
p2461
asg22
V#115
p2462
sg24
V1999-00
p2463
sg312
VART
p2464
sg26
g27
sg28
(lp2465
VKobe Bryant
p2466
assbag1
(g2
g3
Ntp2467
Rp2468
(dp2469
g7
(dp2470
g9
V1999-00 Topps Gallery Player's Private Issue #148 Devean George
p2471
sg11
I250
sg12
VTopps Gallery Player's Private Issue
p2472
sg14
(lp2473
Vhttp://www.beckett.com/basketball/1999-00/topps-gallery-players-private-issue/148-devean-george-3190942
p2474
asg17
g18
sg19
(lp2475
Vhttp://img.beckett.com/images/no-image.jpg
p2476
asg22
V#148
p2477
sg24
V1999-00
p2478
sg26
g27
sg28
(lp2479
VDevean George
p2480
assbag1
(g2
g3
Ntp2481
Rp2482
(dp2483
g7
(dp2484
g9
V1999-00 Topps Gallery Printing Plates Black #70 Kobe Bryant
p2485
sg11
I1
sg12
VTopps Gallery Printing Plates Black
p2486
sg14
(lp2487
Vhttp://www.beckett.com/basketball/1999-00/topps-gallery-printing-plates-black/70-kobe-bryant-3188263
p2488
asg17
g18
sg19
(lp2489
Vhttp://img.beckett.com/images/no-image.jpg
p2490
asg22
V#70
p2491
sg24
V1999-00
p2492
sg26
g27
sg28
(lp2493
VKobe Bryant
p2494
assbag1
(g2
g3
Ntp2495
Rp2496
(dp2497
g7
(dp2498
g9
V1999-00 Topps Gallery Printing Plates Black #115 Kobe Bryant
p2499
sg11
I1
sg12
VTopps Gallery Printing Plates Black
p2500
sg14
(lp2501
Vhttp://www.beckett.com/basketball/1999-00/topps-gallery-printing-plates-black/115-kobe-bryant-3188308
p2502
asg17
g18
sg19
(lp2503
Vhttp://img.beckett.com/images/no-image.jpg
p2504
asg22
V#115
p2505
sg24
V1999-00
p2506
sg26
g27
sg28
(lp2507
VKobe Bryant
p2508
assbag1
(g2
g3
Ntp2509
Rp2510
(dp2511
g7
(dp2512
g9
V1999-00 Topps Gold Label Class 1 One to One #22 Kobe Bryant
p2513
sg11
I1
sg12
VTopps Gold Label Class 1 One to One
p2514
sg14
(lp2515
Vhttp://www.beckett.com/basketball/1999-00/topps-gold-label-class-1-one-to-one/22-kobe-bryant-3188740
p2516
asg17
g18
sg19
(lp2517
Vhttp://img.beckett.com/images/no-image.jpg
p2518
asg22
V#22
p2519
sg24
V1999-00
p2520
sg26
g27
sg28
(lp2521
VKobe Bryant
p2522
assbag1
(g2
g3
Ntp2523
Rp2524
(dp2525
g7
(dp2526
g9
V1999-00 Topps Gold Label Class 1 One to One #62 Shaquille O'Neal
p2527
sg11
I1
sg12
VTopps Gold Label Class 1 One to One
p2528
sg14
(lp2529
Vhttp://www.beckett.com/basketball/1999-00/topps-gold-label-class-1-one-to-one/62-shaquille-oneal-3188780
p2530
asg17
g18
sg19
(lp2531
Vhttp://img.beckett.com/images/no-image.jpg
p2532
asg22
V#62
p2533
sg24
V1999-00
p2534
sg26
g27
sg28
(lp2535
VShaquille O'Neal
p2536
assbag1
(g2
g3
Ntp2537
Rp2538
(dp2539
g7
(dp2540
g9
V1999-00 Topps Gold Label Class 1 One to One #73 Glen Rice
p2541
sg11
I1
sg12
VTopps Gold Label Class 1 One to One
p2542
sg14
(lp2543
Vhttp://www.beckett.com/basketball/1999-00/topps-gold-label-class-1-one-to-one/73-glen-rice-3188791
p2544
asg17
g18
sg19
(lp2545
Vhttp://img.beckett.com/images/no-image.jpg
p2546
asg22
V#73
p2547
sg24
V1999-00
p2548
sg26
g27
sg28
(lp2549
VGlen Rice
p2550
assbag1
(g2
g3
Ntp2551
Rp2552
(dp2553
g7
(dp2554
g9
V1999-00 Topps Gold Label Class 1 Red Label #22 Kobe Bryant
p2555
sg11
I100
sg12
VTopps Gold Label Class 1 Red Label
p2556
sg14
(lp2557
Vhttp://www.beckett.com/basketball/1999-00/topps-gold-label-class-1-red-label/22-kobe-bryant-3188850
p2558
asg17
g18
sg19
(lp2559
Vhttp://img.beckett.com/images/no-image.jpg
p2560
asg22
V#22
p2561
sg24
V1999-00
p2562
sg26
g27
sg28
(lp2563
VKobe Bryant
p2564
assbag1
(g2
g3
Ntp2565
Rp2566
(dp2567
g7
(dp2568
g9
V1999-00 Topps Gold Label Class 1 Red Label #62 Shaquille O'Neal
p2569
sg11
I100
sg12
VTopps Gold Label Class 1 Red Label
p2570
sg14
(lp2571
Vhttp://www.beckett.com/basketball/1999-00/topps-gold-label-class-1-red-label/62-shaquille-oneal-3188890
p2572
asg17
g18
sg19
(lp2573
Vhttp://img.beckett.com/images/no-image.jpg
p2574
asg22
V#62
p2575
sg24
V1999-00
p2576
sg26
g27
sg28
(lp2577
VShaquille O'Neal
p2578
assbag1
(g2
g3
Ntp2579
Rp2580
(dp2581
g7
(dp2582
g9
V1999-00 Topps Gold Label Class 1 Red Label #73 Glen Rice
p2583
sg11
I100
sg12
VTopps Gold Label Class 1 Red Label
p2584
sg14
(lp2585
Vhttp://www.beckett.com/basketball/1999-00/topps-gold-label-class-1-red-label/73-glen-rice-3188901
p2586
asg17
g18
sg19
(lp2587
Vhttp://img.beckett.com/images/no-image.jpg
p2588
asg22
V#73
p2589
sg24
V1999-00
p2590
sg26
g27
sg28
(lp2591
VGlen Rice
p2592
assbag1
(g2
g3
Ntp2593
Rp2594
(dp2595
g7
(dp2596
g9
V1999-00 Topps Gold Label Class 2 One to One #22 Kobe Bryant
p2597
sg11
I1
sg12
VTopps Gold Label Class 2 One to One
p2598
sg14
(lp2599
Vhttp://www.beckett.com/basketball/1999-00/topps-gold-label-class-2-one-to-one/22-kobe-bryant-3189186
p2600
asg17
g18
sg19
(lp2601
Vhttp://img.beckett.com/images/no-image.jpg
p2602
asg22
V#22
p2603
sg24
V1999-00
p2604
sg26
g27
sg28
(lp2605
VKobe Bryant
p2606
assbag1
(g2
g3
Ntp2607
Rp2608
(dp2609
g7
(dp2610
g9
V1999-00 Topps Gold Label Class 2 One to One #62 Shaquille O'Neal
p2611
sg11
I1
sg12
VTopps Gold Label Class 2 One to One
p2612
sg14
(lp2613
Vhttp://www.beckett.com/basketball/1999-00/topps-gold-label-class-2-one-to-one/62-shaquille-oneal-3189226
p2614
asg17
g18
sg19
(lp2615
Vhttp://img.beckett.com/images/no-image.jpg
p2616
asg22
V#62
p2617
sg24
V1999-00
p2618
sg26
g27
sg28
(lp2619
VShaquille O'Neal
p2620
assbag1
(g2
g3
Ntp2621
Rp2622
(dp2623
g7
(dp2624
g9
V1999-00 Topps Gold Label Class 2 One to One #73 Glen Rice
p2625
sg11
I1
sg12
VTopps Gold Label Class 2 One to One
p2626
sg14
(lp2627
Vhttp://www.beckett.com/basketball/1999-00/topps-gold-label-class-2-one-to-one/73-glen-rice-3189237
p2628
asg17
g18
sg19
(lp2629
Vhttp://img.beckett.com/images/no-image.jpg
p2630
asg22
V#73
p2631
sg24
V1999-00
p2632
sg26
g27
sg28
(lp2633
VGlen Rice
p2634
assbag1
(g2
g3
Ntp2635
Rp2636
(dp2637
g7
(dp2638
g9
V1999-00 Topps Gold Label Class 2 Red Label #22 Kobe Bryant
p2639
sg11
I50
sg12
VTopps Gold Label Class 2 Red Label
p2640
sg14
(lp2641
Vhttp://www.beckett.com/basketball/1999-00/topps-gold-label-class-2-red-label/22-kobe-bryant-3189296
p2642
asg17
g18
sg19
(lp2643
Vhttp://img.beckett.com/images/no-image.jpg
p2644
asg22
V#22
p2645
sg24
V1999-00
p2646
sg26
g27
sg28
(lp2647
VKobe Bryant
p2648
assbag1
(g2
g3
Ntp2649
Rp2650
(dp2651
g7
(dp2652
g9
V1999-00 Topps Gold Label Class 2 Red Label #62 Shaquille O'Neal
p2653
sg11
I50
sg12
VTopps Gold Label Class 2 Red Label
p2654
sg14
(lp2655
Vhttp://www.beckett.com/basketball/1999-00/topps-gold-label-class-2-red-label/62-shaquille-oneal-3189336
p2656
asg17
g18
sg19
(lp2657
Vhttp://img.beckett.com/images/no-image.jpg
p2658
asg22
V#62
p2659
sg24
V1999-00
p2660
sg26
g27
sg28
(lp2661
VShaquille O'Neal
p2662
assbag1
(g2
g3
Ntp2663
Rp2664
(dp2665
g7
(dp2666
g9
V1999-00 Topps Gold Label Class 2 Red Label #73 Glen Rice
p2667
sg11
I50
sg12
VTopps Gold Label Class 2 Red Label
p2668
sg14
(lp2669
Vhttp://www.beckett.com/basketball/1999-00/topps-gold-label-class-2-red-label/73-glen-rice-3189347
p2670
asg17
g18
sg19
(lp2671
Vhttp://img.beckett.com/images/no-image.jpg
p2672
asg22
V#73
p2673
sg24
V1999-00
p2674
sg26
g27
sg28
(lp2675
VGlen Rice
p2676
assbag1
(g2
g3
Ntp2677
Rp2678
(dp2679
g7
(dp2680
g9
V1999-00 Topps Gold Label Class 3 One to One #22 Kobe Bryant
p2681
sg11
I1
sg12
VTopps Gold Label Class 3 One to One
p2682
sg14
(lp2683
Vhttp://www.beckett.com/basketball/1999-00/topps-gold-label-class-3-one-to-one/22-kobe-bryant-3189632
p2684
asg17
g18
sg19
(lp2685
Vhttp://img.beckett.com/images/no-image.jpg
p2686
asg22
V#22
p2687
sg24
V1999-00
p2688
sg26
g27
sg28
(lp2689
VKobe Bryant
p2690
assbag1
(g2
g3
Ntp2691
Rp2692
(dp2693
g7
(dp2694
g9
V1999-00 Topps Gold Label Class 3 One to One #62 Shaquille O'Neal
p2695
sg11
I1
sg12
VTopps Gold Label Class 3 One to One
p2696
sg14
(lp2697
Vhttp://www.beckett.com/basketball/1999-00/topps-gold-label-class-3-one-to-one/62-shaquille-oneal-3189672
p2698
asg17
g18
sg19
(lp2699
Vhttp://img.beckett.com/images/no-image.jpg
p2700
asg22
V#62
p2701
sg24
V1999-00
p2702
sg26
g27
sg28
(lp2703
VShaquille O'Neal
p2704
assbag1
(g2
g3
Ntp2705
Rp2706
(dp2707
g7
(dp2708
g9
V1999-00 Topps Gold Label Class 3 One to One #73 Glen Rice
p2709
sg11
I1
sg12
VTopps Gold Label Class 3 One to One
p2710
sg14
(lp2711
Vhttp://www.beckett.com/basketball/1999-00/topps-gold-label-class-3-one-to-one/73-glen-rice-3189683
p2712
asg17
g18
sg19
(lp2713
Vhttp://img.beckett.com/images/no-image.jpg
p2714
asg22
V#73
p2715
sg24
V1999-00
p2716
sg26
g27
sg28
(lp2717
VGlen Rice
p2718
assbag1
(g2
g3
Ntp2719
Rp2720
(dp2721
g7
(dp2722
g9
V1999-00 Topps Gold Label Class 3 Red Label #22 Kobe Bryant
p2723
sg11
I25
sg12
VTopps Gold Label Class 3 Red Label
p2724
sg14
(lp2725
Vhttp://www.beckett.com/basketball/1999-00/topps-gold-label-class-3-red-label/22-kobe-bryant-3187443
p2726
asg17
g18
sg19
(lp2727
Vhttp://img.beckett.com/images/no-image.jpg
p2728
asg22
V#22
p2729
sg24
V1999-00
p2730
sg26
g27
sg28
(lp2731
VKobe Bryant
p2732
assbag1
(g2
g3
Ntp2733
Rp2734
(dp2735
g7
(dp2736
g9
V1999-00 Topps Gold Label Class 3 Red Label #62 Shaquille O'Neal
p2737
sg11
I25
sg12
VTopps Gold Label Class 3 Red Label
p2738
sg14
(lp2739
Vhttp://www.beckett.com/basketball/1999-00/topps-gold-label-class-3-red-label/62-shaquille-oneal-3187483
p2740
asg17
g18
sg19
(lp2741
Vhttp://img.beckett.com/images/no-image.jpg
p2742
asg22
V#62
p2743
sg24
V1999-00
p2744
sg26
g27
sg28
(lp2745
VShaquille O'Neal
p2746
assbag1
(g2
g3
Ntp2747
Rp2748
(dp2749
g7
(dp2750
g9
V1999-00 Topps Gold Label Class 3 Red Label #73 Glen Rice
p2751
sg11
I25
sg12
VTopps Gold Label Class 3 Red Label
p2752
sg14
(lp2753
Vhttp://www.beckett.com/basketball/1999-00/topps-gold-label-class-3-red-label/73-glen-rice-3187494
p2754
asg17
g18
sg19
(lp2755
Vhttp://img.beckett.com/images/no-image.jpg
p2756
asg22
V#73
p2757
sg24
V1999-00
p2758
sg26
g27
sg28
(lp2759
VGlen Rice
p2760
assbag1
(g2
g3
Ntp2761
Rp2762
(dp2763
g7
(dp2764
g9
V1999-00 UD Ionix Reciprocal #82 Devean George
p2765
sg11
I100
sg12
VUD Ionix Reciprocal
p2766
sg14
(lp2767
Vhttp://www.beckett.com/basketball/1999-00/ud-ionix-reciprocal/82-devean-george-3188113
p2768
asg17
g18
sg19
(lp2769
Vhttp://img.beckett.com/images/no-image.jpg
p2770
asg22
V#82
p2771
sg24
V1999-00
p2772
sg26
g27
sg28
(lp2773
VDevean George
p2774
assbag1
(g2
g3
Ntp2775
Rp2776
(dp2777
g7
(dp2778
g9
V1999-00 Ultimate Victory 1 of 1 #37 Kobe Bryant
p2779
sg11
I1
sg12
VUltimate Victory 1 of 1
p2780
sg14
(lp2781
Vhttp://www.beckett.com/basketball/1999-00/ultimate-victory-1-of-1/37-kobe-bryant-3180401
p2782
asg17
g18
sg19
(lp2783
Vhttp://img.beckett.com/images/no-image.jpg
p2784
asg22
V#37
p2785
sg24
V1999-00
p2786
sg26
g27
sg28
(lp2787
VKobe Bryant
p2788
assbag1
(g2
g3
Ntp2789
Rp2790
(dp2791
g7
(dp2792
g9
V1999-00 Ultimate Victory 1 of 1 #38 Shaquille O'Neal
p2793
sg11
I1
sg12
VUltimate Victory 1 of 1
p2794
sg14
(lp2795
Vhttp://www.beckett.com/basketball/1999-00/ultimate-victory-1-of-1/38-shaquille-oneal-3180402
p2796
asg17
g18
sg19
(lp2797
Vhttp://img.beckett.com/images/no-image.jpg
p2798
asg22
V#38
p2799
sg24
V1999-00
p2800
sg26
g27
sg28
(lp2801
VShaquille O'Neal
p2802
assbag1
(g2
g3
Ntp2803
Rp2804
(dp2805
g7
(dp2806
g9
V1999-00 Ultimate Victory 1 of 1 #39 Glen Rice
p2807
sg11
I1
sg12
VUltimate Victory 1 of 1
p2808
sg14
(lp2809
Vhttp://www.beckett.com/basketball/1999-00/ultimate-victory-1-of-1/39-glen-rice-3180403
p2810
asg17
g18
sg19
(lp2811
Vhttp://img.beckett.com/images/no-image.jpg
p2812
asg22
V#39
p2813
sg24
V1999-00
p2814
sg26
g27
sg28
(lp2815
VGlen Rice
p2816
assbag1
(g2
g3
Ntp2817
Rp2818
(dp2819
g7
(dp2820
g9
V1999-00 Ultimate Victory 1 of 1 #142 Devean George
p2821
sg11
I1
sg12
VUltimate Victory 1 of 1
p2822
sg14
(lp2823
Vhttp://www.beckett.com/basketball/1999-00/ultimate-victory-1-of-1/142-devean-george-3180506
p2824
asg17
g18
sg19
(lp2825
Vhttp://img.beckett.com/images/no-image.jpg
p2826
asg22
V#142
p2827
sg24
V1999-00
p2828
sg26
g27
sg28
(lp2829
VDevean George
p2830
assbag1
(g2
g3
Ntp2831
Rp2832
(dp2833
g7
(dp2834
g9
V1999-00 Ultimate Victory 1 of 1 #147 John Celestand
p2835
sg11
I1
sg12
VUltimate Victory 1 of 1
p2836
sg14
(lp2837
Vhttp://www.beckett.com/basketball/1999-00/ultimate-victory-1-of-1/147-john-celestand-3180511
p2838
asg17
g18
sg19
(lp2839
Vhttp://img.beckett.com/images/no-image.jpg
p2840
asg22
V#147
p2841
sg24
V1999-00
p2842
sg26
g27
sg28
(lp2843
VJohn Celestand
p2844
assbag1
(g2
g3
Ntp2845
Rp2846
(dp2847
g7
(dp2848
g9
V1999-00 Ultimate Victory Parallel 100 #37 Kobe Bryant
p2849
sg11
I100
sg12
VUltimate Victory Parallel 100
p2850
sg14
(lp2851
Vhttp://www.beckett.com/basketball/1999-00/ultimate-victory-parallel-100/37-kobe-bryant-3180723
p2852
asg17
g18
sg19
(lp2853
Vhttp://img.beckett.com/images/no-image.jpg
p2854
asg22
V#37
p2855
sg24
V1999-00
p2856
sg26
g27
sg28
(lp2857
VKobe Bryant
p2858
assbag1
(g2
g3
Ntp2859
Rp2860
(dp2861
g7
(dp2862
g9
V1999-00 Ultimate Victory Parallel 100 #38 Shaquille O'Neal
p2863
sg11
I100
sg12
VUltimate Victory Parallel 100
p2864
sg14
(lp2865
Vhttp://www.beckett.com/basketball/1999-00/ultimate-victory-parallel-100/38-shaquille-oneal-3180724
p2866
asg17
g18
sg19
(lp2867
Vhttp://img.beckett.com/images/no-image.jpg
p2868
asg22
V#38
p2869
sg24
V1999-00
p2870
sg26
g27
sg28
(lp2871
VShaquille O'Neal
p2872
assbag1
(g2
g3
Ntp2873
Rp2874
(dp2875
g7
(dp2876
g9
V1999-00 Ultimate Victory Parallel 100 #39 Glen Rice
p2877
sg11
I100
sg12
VUltimate Victory Parallel 100
p2878
sg14
(lp2879
Vhttp://www.beckett.com/basketball/1999-00/ultimate-victory-parallel-100/39-glen-rice-3180725
p2880
asg17
g18
sg19
(lp2881
Vhttp://img.beckett.com/images/no-image.jpg
p2882
asg22
V#39
p2883
sg24
V1999-00
p2884
sg26
g27
sg28
(lp2885
VGlen Rice
p2886
assbag1
(g2
g3
Ntp2887
Rp2888
(dp2889
g7
(dp2890
g9
V1999-00 Ultimate Victory Parallel 100 #142 Devean George
p2891
sg11
I100
sg12
VUltimate Victory Parallel 100
p2892
sg14
(lp2893
Vhttp://www.beckett.com/basketball/1999-00/ultimate-victory-parallel-100/142-devean-george-3180828
p2894
asg17
g18
sg19
(lp2895
Vhttp://img.beckett.com/images/no-image.jpg
p2896
asg22
V#142
p2897
sg24
V1999-00
p2898
sg26
g27
sg28
(lp2899
VDevean George
p2900
assbag1
(g2
g3
Ntp2901
Rp2902
(dp2903
g7
(dp2904
g9
V1999-00 Ultimate Victory Parallel 100 #147 John Celestand
p2905
sg11
I100
sg12
VUltimate Victory Parallel 100
p2906
sg14
(lp2907
Vhttp://www.beckett.com/basketball/1999-00/ultimate-victory-parallel-100/147-john-celestand-3180833
p2908
asg17
g18
sg19
(lp2909
Vhttp://img.beckett.com/images/no-image.jpg
p2910
asg22
V#147
p2911
sg24
V1999-00
p2912
sg26
g27
sg28
(lp2913
VJohn Celestand
p2914
assbag1
(g2
g3
Ntp2915
Rp2916
(dp2917
g7
(dp2918
g9
V1999-00 Ultra Masterpieces #40 Shaquille O'Neal
p2919
sg11
I1
sg12
VUltra Masterpieces
p2920
sg14
(lp2921
Vhttp://www.beckett.com/basketball/1999-00/ultra-masterpieces/40-shaquille-oneal-3206031
p2922
asg17
g18
sg19
(lp2923
Vhttp://img.beckett.com/images/no-image.jpg
p2924
asg22
V#40
p2925
sg24
V1999-00
p2926
sg26
g27
sg28
(lp2927
VShaquille O'Neal
p2928
assbag1
(g2
g3
Ntp2929
Rp2930
(dp2931
g7
(dp2932
g9
V1999-00 Ultra Masterpieces #50 Kobe Bryant
p2933
sg11
I1
sg12
VUltra Masterpieces
p2934
sg14
(lp2935
Vhttp://www.beckett.com/basketball/1999-00/ultra-masterpieces/50-kobe-bryant-3206041
p2936
asg17
g18
sg19
(lp2937
Vhttp://img.beckett.com/images/no-image.jpg
p2938
asg22
V#50
p2939
sg24
V1999-00
p2940
sg26
g27
sg28
(lp2941
VKobe Bryant
p2942
assbag1
(g2
g3
Ntp2943
Rp2944
(dp2945
g7
(dp2946
g9
V1999-00 Ultra Masterpieces #82 Tyronn Lue
p2947
sg11
I1
sg12
VUltra Masterpieces
p2948
sg14
(lp2949
Vhttp://www.beckett.com/basketball/1999-00/ultra-masterpieces/82-tyronn-lue-3206073
p2950
asg17
g18
sg19
(lp2951
Vhttp://img.beckett.com/images/no-image.jpg
p2952
asg22
V#82
p2953
sg24
V1999-00
p2954
sg26
g27
sg28
(lp2955
VTyronn Lue
p2956
assbag1
(g2
g3
Ntp2957
Rp2958
(dp2959
g7
(dp2960
g9
V1999-00 Ultra Masterpieces #95 Glen Rice
p2961
sg11
I1
sg12
VUltra Masterpieces
p2962
sg14
(lp2963
Vhttp://www.beckett.com/basketball/1999-00/ultra-masterpieces/95-glen-rice-3206086
p2964
asg17
g18
sg19
(lp2965
Vhttp://img.beckett.com/images/no-image.jpg
p2966
asg22
V#95
p2967
sg24
V1999-00
p2968
sg26
g27
sg28
(lp2969
VGlen Rice
p2970
assbag1
(g2
g3
Ntp2971
Rp2972
(dp2973
g7
(dp2974
g9
V1999-00 Ultra Masterpieces #148 Devean George
p2975
sg11
I1
sg12
VUltra Masterpieces
p2976
sg14
(lp2977
Vhttp://www.beckett.com/basketball/1999-00/ultra-masterpieces/148-devean-george-3206139
p2978
asg17
g18
sg19
(lp2979
Vhttp://img.beckett.com/images/no-image.jpg
p2980
asg22
V#148
p2981
sg24
V1999-00
p2982
sg26
g27
sg28
(lp2983
VDevean George
p2984
assbag1
(g2
g3
Ntp2985
Rp2986
(dp2987
g7
(dp2988
g9
V1999-00 Ultra Platinum Medallion #40 Shaquille O'Neal
p2989
sg11
I50
sg12
VUltra Platinum Medallion
p2990
sg14
(lp2991
Vhttp://www.beckett.com/basketball/1999-00/ultra-platinum-medallion/40-shaquille-oneal-3185846
p2992
asg17
g18
sg19
(lp2993
Vhttp://img.beckett.com/images/no-image.jpg
p2994
asg22
V#40
p2995
sg24
V1999-00
p2996
sg26
g27
sg28
(lp2997
VShaquille O'Neal
p2998
assbag1
(g2
g3
Ntp2999
Rp3000
(dp3001
g7
(dp3002
g9
V1999-00 Ultra Platinum Medallion #50 Kobe Bryant
p3003
sg11
I50
sg12
VUltra Platinum Medallion
p3004
sg14
(lp3005
Vhttp://www.beckett.com/basketball/1999-00/ultra-platinum-medallion/50-kobe-bryant-3185856
p3006
asg17
g18
sg19
(lp3007
Vhttp://img.beckett.com/images/no-image.jpg
p3008
asg22
V#50
p3009
sg24
V1999-00
p3010
sg26
g27
sg28
(lp3011
VKobe Bryant
p3012
assbag1
(g2
g3
Ntp3013
Rp3014
(dp3015
g7
(dp3016
g9
V1999-00 Ultra Platinum Medallion #82 Tyronn Lue
p3017
sg11
I50
sg12
VUltra Platinum Medallion
p3018
sg14
(lp3019
Vhttp://www.beckett.com/basketball/1999-00/ultra-platinum-medallion/82-tyronn-lue-3185888
p3020
asg17
g18
sg19
(lp3021
Vhttp://img.beckett.com/images/no-image.jpg
p3022
asg22
V#82
p3023
sg24
V1999-00
p3024
sg26
g27
sg28
(lp3025
VTyronn Lue
p3026
assbag1
(g2
g3
Ntp3027
Rp3028
(dp3029
g7
(dp3030
g9
V1999-00 Ultra Platinum Medallion #95 Glen Rice
p3031
sg11
I50
sg12
VUltra Platinum Medallion
p3032
sg14
(lp3033
Vhttp://www.beckett.com/basketball/1999-00/ultra-platinum-medallion/95-glen-rice-3185901
p3034
asg17
g18
sg19
(lp3035
Vhttp://img.beckett.com/images/no-image.jpg
p3036
asg22
V#95
p3037
sg24
V1999-00
p3038
sg26
g27
sg28
(lp3039
VGlen Rice
p3040
assbag1
(g2
g3
Ntp3041
Rp3042
(dp3043
g7
(dp3044
g9
V1999-00 Ultra Platinum Medallion #148 Devean George
p3045
sg11
I25
sg12
VUltra Platinum Medallion
p3046
sg14
(lp3047
Vhttp://www.beckett.com/basketball/1999-00/ultra-platinum-medallion/148-devean-george-3185954
p3048
asg17
g18
sg19
(lp3049
Vhttp://img.beckett.com/images/no-image.jpg
p3050
asg22
V#148
p3051
sg24
V1999-00
p3052
sg26
g27
sg28
(lp3053
VDevean George
p3054
assbag1
(g2
g3
Ntp3055
Rp3056
(dp3057
g7
(dp3058
g9
V1999-00 Upper Deck Bronze #58 Kobe Bryant
p3059
sg11
I100
sg12
VUpper Deck Bronze
p3060
sg14
(lp3061
Vhttp://www.beckett.com/basketball/1999-00/upper-deck-bronze/58-kobe-bryant-3186585
p3062
asg17
g18
sg19
(lp3063
Vhttp://img.beckett.com/images/no-image.jpg
p3064
asg22
V#58
p3065
sg24
V1999-00
p3066
sg26
g27
sg28
(lp3067
VKobe Bryant
p3068
assbag1
(g2
g3
Ntp3069
Rp3070
(dp3071
g7
(dp3072
g9
V1999-00 Upper Deck Bronze #59 Shaquille O'Neal
p3073
sg11
I100
sg12
VUpper Deck Bronze
p3074
sg14
(lp3075
Vhttp://www.beckett.com/basketball/1999-00/upper-deck-bronze/59-shaquille-oneal-3186586
p3076
asg17
g18
sg19
(lp3077
Vhttp://img.beckett.com/images/no-image.jpg
p3078
asg22
V#59
p3079
sg24
V1999-00
p3080
sg26
g27
sg28
(lp3081
VShaquille O'Neal
p3082
assbag1
(g2
g3
Ntp3083
Rp3084
(dp3085
g7
(dp3086
g9
V1999-00 Upper Deck Bronze #60 Glen Rice
p3087
sg11
I100
sg12
VUpper Deck Bronze
p3088
sg14
(lp3089
Vhttp://www.beckett.com/basketball/1999-00/upper-deck-bronze/60-glen-rice-3186587
p3090
asg17
g18
sg19
(lp3091
Vhttp://img.beckett.com/images/no-image.jpg
p3092
asg22
V#60
p3093
sg24
V1999-00
p3094
sg26
g27
sg28
(lp3095
VGlen Rice
p3096
assbag1
(g2
g3
Ntp3097
Rp3098
(dp3099
g7
(dp3100
g9
V1999-00 Upper Deck Bronze #178 Devean George
p3101
sg11
I100
sg12
VUpper Deck Bronze
p3102
sg14
(lp3103
Vhttp://www.beckett.com/basketball/1999-00/upper-deck-bronze/178-devean-george-3186705
p3104
asg17
g18
sg19
(lp3105
Vhttp://img.beckett.com/images/no-image.jpg
p3106
asg22
V#178
p3107
sg24
V1999-00
p3108
sg26
g27
sg28
(lp3109
VDevean George
p3110
assbag1
(g2
g3
Ntp3111
Rp3112
(dp3113
g7
(dp3114
g9
V1999-00 Upper Deck Bronze #238 Ron Harper
p3115
sg11
I100
sg12
VUpper Deck Bronze
p3116
sg14
(lp3117
Vhttp://www.beckett.com/basketball/1999-00/upper-deck-bronze/238-ron-harper-3186765
p3118
asg17
g18
sg19
(lp3119
Vhttp://img.beckett.com/images/no-image.jpg
p3120
asg22
V#238
p3121
sg24
V1999-00
p3122
sg26
g27
sg28
(lp3123
VRon Harper
p3124
assbag1
(g2
g3
Ntp3125
Rp3126
(dp3127
g7
(dp3128
g9
V1999-00 Upper Deck Bronze #239 Derek Fisher
p3129
sg11
I100
sg12
VUpper Deck Bronze
p3130
sg14
(lp3131
Vhttp://www.beckett.com/basketball/1999-00/upper-deck-bronze/239-derek-fisher-3186766
p3132
asg17
g18
sg19
(lp3133
Vhttp://img.beckett.com/images/items_stock/185226/3186514/3186766/front.jpg
p3134
asg22
V#239
p3135
sg24
V1999-00
p3136
sg26
g27
sg28
(lp3137
VDerek Fisher
p3138
assbag1
(g2
g3
Ntp3139
Rp3140
(dp3141
g7
(dp3142
g9
V1999-00 Upper Deck Bronze #240 Rick Fox
p3143
sg11
I100
sg12
VUpper Deck Bronze
p3144
sg14
(lp3145
Vhttp://www.beckett.com/basketball/1999-00/upper-deck-bronze/240-rick-fox-3186767
p3146
asg17
g18
sg19
(lp3147
Vhttp://img.beckett.com/images/items_stock/185226/3186514/3186767/front.jpg
p3148
asg22
V#240
p3149
sg24
V1999-00
p3150
sg26
g27
sg28
(lp3151
VRick Fox
p3152
assbag1
(g2
g3
Ntp3153
Rp3154
(dp3155
g7
(dp3156
g9
V1999-00 Upper Deck Bronze #247 J.R. Reid
p3157
sg11
I100
sg12
VUpper Deck Bronze
p3158
sg14
(lp3159
Vhttp://www.beckett.com/basketball/1999-00/upper-deck-bronze/247-jr-reid-3186774
p3160
asg17
g18
sg19
(lp3161
Vhttp://img.beckett.com/images/items_stock/185226/3186514/3186774/front.jpg
p3162
asg22
V#247
p3163
sg24
V1999-00
p3164
sg26
g27
sg28
(lp3165
VJ.R. Reid
p3166
assbag1
(g2
g3
Ntp3167
Rp3168
(dp3169
g7
(dp3170
g9
V1999-00 Upper Deck Bronze #337 Devean George
p3171
sg11
I100
sg12
VUpper Deck Bronze
p3172
sg14
(lp3173
Vhttp://www.beckett.com/basketball/1999-00/upper-deck-bronze/337-devean-george-3186864
p3174
asg17
g18
sg19
(lp3175
Vhttp://img.beckett.com/images/no-image.jpg
p3176
asg22
V#337
p3177
sg24
V1999-00
p3178
sg26
g27
sg28
(lp3179
VDevean George
p3180
assbag1
(g2
g3
Ntp3181
Rp3182
(dp3183
g7
(dp3184
g9
V1999-00 Upper Deck Bronze #342 John Celestand
p3185
sg11
I100
sg12
VUpper Deck Bronze
p3186
sg14
(lp3187
Vhttp://www.beckett.com/basketball/1999-00/upper-deck-bronze/342-john-celestand-3186869
p3188
asg17
g18
sg19
(lp3189
Vhttp://img.beckett.com/images/no-image.jpg
p3190
asg22
V#342
p3191
sg24
V1999-00
p3192
sg26
g27
sg28
(lp3193
VJohn Celestand
p3194
assbag1
(g2
g3
Ntp3195
Rp3196
(dp3197
g7
(dp3198
g9
V1999-00 Upper Deck Gold #58 Kobe Bryant
p3199
sg11
I1
sg12
VUpper Deck Gold
p3200
sg14
(lp3201
Vhttp://www.beckett.com/basketball/1999-00/upper-deck-gold/58-kobe-bryant-3186950
p3202
asg17
g18
sg19
(lp3203
Vhttp://img.beckett.com/images/no-image.jpg
p3204
asg22
V#58
p3205
sg24
V1999-00
p3206
sg26
g27
sg28
(lp3207
VKobe Bryant
p3208
assbag1
(g2
g3
Ntp3209
Rp3210
(dp3211
g7
(dp3212
g9
V1999-00 Upper Deck Gold #59 Shaquille O'Neal
p3213
sg11
I1
sg12
VUpper Deck Gold
p3214
sg14
(lp3215
Vhttp://www.beckett.com/basketball/1999-00/upper-deck-gold/59-shaquille-oneal-3186951
p3216
asg17
g18
sg19
(lp3217
Vhttp://img.beckett.com/images/no-image.jpg
p3218
asg22
V#59
p3219
sg24
V1999-00
p3220
sg26
g27
sg28
(lp3221
VShaquille O'Neal
p3222
assbag1
(g2
g3
Ntp3223
Rp3224
(dp3225
g7
(dp3226
g9
V1999-00 Upper Deck Gold #60 Glen Rice
p3227
sg11
I1
sg12
VUpper Deck Gold
p3228
sg14
(lp3229
Vhttp://www.beckett.com/basketball/1999-00/upper-deck-gold/60-glen-rice-3186952
p3230
asg17
g18
sg19
(lp3231
Vhttp://img.beckett.com/images/no-image.jpg
p3232
asg22
V#60
p3233
sg24
V1999-00
p3234
sg26
g27
sg28
(lp3235
VGlen Rice
p3236
assbag1
(g2
g3
Ntp3237
Rp3238
(dp3239
g7
(dp3240
g9
V1999-00 Upper Deck Gold #178 Devean George
p3241
sg11
I1
sg12
VUpper Deck Gold
p3242
sg14
(lp3243
Vhttp://www.beckett.com/basketball/1999-00/upper-deck-gold/178-devean-george-3187070
p3244
asg17
g18
sg19
(lp3245
Vhttp://img.beckett.com/images/no-image.jpg
p3246
asg22
V#178
p3247
sg24
V1999-00
p3248
sg26
g27
sg28
(lp3249
VDevean George
p3250
assbag1
(g2
g3
Ntp3251
Rp3252
(dp3253
g7
(dp3254
g9
V1999-00 Upper Deck Gold #238 Ron Harper
p3255
sg11
I1
sg12
VUpper Deck Gold
p3256
sg14
(lp3257
Vhttp://www.beckett.com/basketball/1999-00/upper-deck-gold/238-ron-harper-3187130
p3258
asg17
g18
sg19
(lp3259
Vhttp://img.beckett.com/images/no-image.jpg
p3260
asg22
V#238
p3261
sg24
V1999-00
p3262
sg26
g27
sg28
(lp3263
VRon Harper
p3264
assbag1
(g2
g3
Ntp3265
Rp3266
(dp3267
g7
(dp3268
g9
V1999-00 Upper Deck Gold #239 Derek Fisher
p3269
sg11
I1
sg12
VUpper Deck Gold
p3270
sg14
(lp3271
Vhttp://www.beckett.com/basketball/1999-00/upper-deck-gold/239-derek-fisher-3187131
p3272
asg17
g18
sg19
(lp3273
Vhttp://img.beckett.com/images/no-image.jpg
p3274
asg22
V#239
p3275
sg24
V1999-00
p3276
sg26
g27
sg28
(lp3277
VDerek Fisher
p3278
assbag1
(g2
g3
Ntp3279
Rp3280
(dp3281
g7
(dp3282
g9
V1999-00 Upper Deck Gold #240 Rick Fox
p3283
sg11
I1
sg12
VUpper Deck Gold
p3284
sg14
(lp3285
Vhttp://www.beckett.com/basketball/1999-00/upper-deck-gold/240-rick-fox-3187132
p3286
asg17
g18
sg19
(lp3287
Vhttp://img.beckett.com/images/no-image.jpg
p3288
asg22
V#240
p3289
sg24
V1999-00
p3290
sg26
g27
sg28
(lp3291
VRick Fox
p3292
assbag1
(g2
g3
Ntp3293
Rp3294
(dp3295
g7
(dp3296
g9
V1999-00 Upper Deck Gold #247 J.R. Reid
p3297
sg11
I1
sg12
VUpper Deck Gold
p3298
sg14
(lp3299
Vhttp://www.beckett.com/basketball/1999-00/upper-deck-gold/247-jr-reid-3187139
p3300
asg17
g18
sg19
(lp3301
Vhttp://img.beckett.com/images/no-image.jpg
p3302
asg22
V#247
p3303
sg24
V1999-00
p3304
sg26
g27
sg28
(lp3305
VJ.R. Reid
p3306
assbag1
(g2
g3
Ntp3307
Rp3308
(dp3309
g7
(dp3310
g9
V1999-00 Upper Deck Gold #337 Devean George
p3311
sg11
I1
sg12
VUpper Deck Gold
p3312
sg14
(lp3313
Vhttp://www.beckett.com/basketball/1999-00/upper-deck-gold/337-devean-george-3187229
p3314
asg17
g18
sg19
(lp3315
Vhttp://img.beckett.com/images/no-image.jpg
p3316
asg22
V#337
p3317
sg24
V1999-00
p3318
sg26
g27
sg28
(lp3319
VDevean George
p3320
assbag1
(g2
g3
Ntp3321
Rp3322
(dp3323
g7
(dp3324
g9
V1999-00 Upper Deck Gold #342 John Celestand
p3325
sg11
I1
sg12
VUpper Deck Gold
p3326
sg14
(lp3327
Vhttp://www.beckett.com/basketball/1999-00/upper-deck-gold/342-john-celestand-3187234
p3328
asg17
g18
sg19
(lp3329
Vhttp://img.beckett.com/images/no-image.jpg
p3330
asg22
V#342
p3331
sg24
V1999-00
p3332
sg26
g27
sg28
(lp3333
VJohn Celestand
p3334
assbag1
(g2
g3
Ntp3335
Rp3336
(dp3337
g7
(dp3338
g9
V1999-00 Upper Deck Hardcourt Baseline Grooves Gold #25 Shaquille O'Neal
p3339
sg11
I1
sg12
VUpper Deck Hardcourt Baseline Grooves Gold
p3340
sg14
(lp3341
Vhttp://www.beckett.com/basketball/1999-00/upper-deck-hardcourt-baseline-grooves-gold/25-shaquille-oneal-3183865
p3342
asg17
g18
sg19
(lp3343
Vhttp://img.beckett.com/images/no-image.jpg
p3344
asg22
V#25
p3345
sg24
V1999-00
p3346
sg26
g27
sg28
(lp3347
VShaquille O'Neal
p3348
assbag1
(g2
g3
Ntp3349
Rp3350
(dp3351
g7
(dp3352
g9
V1999-00 Upper Deck Hardcourt Baseline Grooves Gold #26 Kobe Bryant
p3353
sg11
I1
sg12
VUpper Deck Hardcourt Baseline Grooves Gold
p3354
sg14
(lp3355
Vhttp://www.beckett.com/basketball/1999-00/upper-deck-hardcourt-baseline-grooves-gold/26-kobe-bryant-3183866
p3356
asg17
g18
sg19
(lp3357
Vhttp://img.beckett.com/images/no-image.jpg
p3358
asg22
V#26
p3359
sg24
V1999-00
p3360
sg26
g27
sg28
(lp3361
VKobe Bryant
p3362
assbag1
(g2
g3
Ntp3363
Rp3364
(dp3365
g7
(dp3366
g9
V1999-00 Upper Deck Hardcourt Baseline Grooves Gold #80 Devean George
p3367
sg11
I1
sg12
VUpper Deck Hardcourt Baseline Grooves Gold
p3368
sg14
(lp3369
Vhttp://www.beckett.com/basketball/1999-00/upper-deck-hardcourt-baseline-grooves-gold/80-devean-george-3183920
p3370
asg17
g18
sg19
(lp3371
Vhttp://img.beckett.com/images/no-image.jpg
p3372
asg22
V#80
p3373
sg24
V1999-00
p3374
sg26
g27
sg28
(lp3375
VDevean George
p3376
assbag1
(g2
g3
Ntp3377
Rp3378
(dp3379
g7
(dp3380
g9
V1999-00 Upper Deck Hardcourt Baseline Grooves Rainbow #25 Shaquille O'Neal
p3381
sg11
I500
sg12
VUpper Deck Hardcourt Baseline Grooves Rainbow
p3382
sg14
(lp3383
Vhttp://www.beckett.com/basketball/1999-00/upper-deck-hardcourt-baseline-grooves-rainbow/25-shaquille-oneal-3183772
p3384
asg17
g18
sg19
(lp3385
Vhttp://img.beckett.com/images/no-image.jpg
p3386
asg22
V#25
p3387
sg24
V1999-00
p3388
sg26
g27
sg28
(lp3389
VShaquille O'Neal
p3390
assbag1
(g2
g3
Ntp3391
Rp3392
(dp3393
g7
(dp3394
g9
V1999-00 Upper Deck Hardcourt Baseline Grooves Rainbow #26 Kobe Bryant
p3395
sg11
I500
sg12
VUpper Deck Hardcourt Baseline Grooves Rainbow
p3396
sg14
(lp3397
Vhttp://www.beckett.com/basketball/1999-00/upper-deck-hardcourt-baseline-grooves-rainbow/26-kobe-bryant-3183773
p3398
asg17
g18
sg19
(lp3399
Vhttp://img.beckett.com/images/no-image.jpg
p3400
asg22
V#26
p3401
sg24
V1999-00
p3402
sg26
g27
sg28
(lp3403
VKobe Bryant
p3404
assbag1
(g2
g3
Ntp3405
Rp3406
(dp3407
g7
(dp3408
g9
V1999-00 Upper Deck Hardcourt Baseline Grooves Rainbow #80 Devean George
p3409
sg11
I500
sg12
VUpper Deck Hardcourt Baseline Grooves Rainbow
p3410
sg14
(lp3411
Vhttp://www.beckett.com/basketball/1999-00/upper-deck-hardcourt-baseline-grooves-rainbow/80-devean-george-3183827
p3412
asg17
g18
sg19
(lp3413
Vhttp://img.beckett.com/images/items_stock/185226/3183740/3183827/front.jpg
p3414
asg22
V#80
p3415
sg24
V1999-00
p3416
sg26
g27
sg28
(lp3417
VDevean George
p3418
assbag1
(g2
g3
Ntp3419
Rp3420
(dp3421
g7
(dp3422
g9
V1999-00 Upper Deck Hardcourt Baseline Grooves Silver #25 Shaquille O'Neal
p3423
sg11
I50
sg12
VUpper Deck Hardcourt Baseline Grooves Silver
p3424
sg14
(lp3425
Vhttp://www.beckett.com/basketball/1999-00/upper-deck-hardcourt-baseline-grooves-silver/25-shaquille-oneal-3183965
p3426
asg17
g18
sg19
(lp3427
Vhttp://img.beckett.com/images/no-image.jpg
p3428
asg22
V#25
p3429
sg24
V1999-00
p3430
sg26
g27
sg28
(lp3431
VShaquille O'Neal
p3432
assbag1
(g2
g3
Ntp3433
Rp3434
(dp3435
g7
(dp3436
g9
V1999-00 Upper Deck Hardcourt Baseline Grooves Silver #26 Kobe Bryant
p3437
sg11
I50
sg12
VUpper Deck Hardcourt Baseline Grooves Silver
p3438
sg14
(lp3439
Vhttp://www.beckett.com/basketball/1999-00/upper-deck-hardcourt-baseline-grooves-silver/26-kobe-bryant-3183966
p3440
asg17
g18
sg19
(lp3441
Vhttp://img.beckett.com/images/no-image.jpg
p3442
asg22
V#26
p3443
sg24
V1999-00
p3444
sg26
g27
sg28
(lp3445
VKobe Bryant
p3446
assbag1
(g2
g3
Ntp3447
Rp3448
(dp3449
g7
(dp3450
g9
V1999-00 Upper Deck Hardcourt Baseline Grooves Silver #80 Devean George
p3451
sg11
I50
sg12
VUpper Deck Hardcourt Baseline Grooves Silver
p3452
sg14
(lp3453
Vhttp://www.beckett.com/basketball/1999-00/upper-deck-hardcourt-baseline-grooves-silver/80-devean-george-3184020
p3454
asg17
g18
sg19
(lp3455
Vhttp://img.beckett.com/images/no-image.jpg
p3456
asg22
V#80
p3457
sg24
V1999-00
p3458
sg26
g27
sg28
(lp3459
VDevean George
p3460
assbag1
(g2
g3
Ntp3461
Rp3462
(dp3463
g7
(dp3464
g9
V1999-00 Upper Deck MVP Gold Script #21 Ron Harper
p3465
sg11
I100
sg12
VUpper Deck MVP Gold Script
p3466
sg14
(lp3467
Vhttp://www.beckett.com/basketball/1999-00/upper-deck-mvp-gold-script/21-ron-harper-3182654
p3468
asg17
g18
sg19
(lp3469
Vhttp://img.beckett.com/images/no-image.jpg
p3470
asg22
V#21
p3471
sg24
V1999-00
p3472
sg26
g27
sg28
(lp3473
VRon Harper
p3474
assbag1
(g2
g3
Ntp3475
Rp3476
(dp3477
g7
(dp3478
g9
V1999-00 Upper Deck MVP Gold Script #74 Kobe Bryant
p3479
sg11
I100
sg12
VUpper Deck MVP Gold Script
p3480
sg14
(lp3481
Vhttp://www.beckett.com/basketball/1999-00/upper-deck-mvp-gold-script/74-kobe-bryant-3182707
p3482
asg17
g18
sg19
(lp3483
Vhttp://img.beckett.com/images/no-image.jpg
p3484
asg22
V#74
p3485
sg24
V1999-00
p3486
sg26
g27
sg28
(lp3487
VKobe Bryant
p3488
assbag1
(g2
g3
Ntp3489
Rp3490
(dp3491
g7
(dp3492
g9
V1999-00 Upper Deck MVP Gold Script #75 Shaquille O'Neal
p3493
sg11
I100
sg12
VUpper Deck MVP Gold Script
p3494
sg14
(lp3495
Vhttp://www.beckett.com/basketball/1999-00/upper-deck-mvp-gold-script/75-shaquille-oneal-3182708
p3496
asg17
g18
sg19
(lp3497
Vhttp://img.beckett.com/images/no-image.jpg
p3498
asg22
V#75
p3499
sg24
V1999-00
p3500
sg26
g27
sg28
(lp3501
VShaquille O'Neal
p3502
assbag1
(g2
g3
Ntp3503
Rp3504
(dp3505
g7
(dp3506
g9
V1999-00 Upper Deck MVP Gold Script #77 Glen Rice
p3507
sg11
I100
sg12
VUpper Deck MVP Gold Script
p3508
sg14
(lp3509
Vhttp://www.beckett.com/basketball/1999-00/upper-deck-mvp-gold-script/77-glen-rice-3182710
p3510
asg17
g18
sg19
(lp3511
Vhttp://img.beckett.com/images/no-image.jpg
p3512
asg22
V#77
p3513
sg24
V1999-00
p3514
sg26
g27
sg28
(lp3515
VGlen Rice
p3516
assbag1
(g2
g3
Ntp3517
Rp3518
(dp3519
g7
(dp3520
g9
V1999-00 Upper Deck MVP Gold Script #78 J.R. Reid
p3521
sg11
I100
sg12
VUpper Deck MVP Gold Script
p3522
sg14
(lp3523
Vhttp://www.beckett.com/basketball/1999-00/upper-deck-mvp-gold-script/78-jr-reid-3182711
p3524
asg17
g18
sg19
(lp3525
Vhttp://img.beckett.com/images/no-image.jpg
p3526
asg22
V#78
p3527
sg24
V1999-00
p3528
sg26
g27
sg28
(lp3529
VJ.R. Reid
p3530
assbag1
(g2
g3
Ntp3531
Rp3532
(dp3533
g7
(dp3534
g9
V1999-00 Upper Deck MVP Gold Script #79 Rick Fox
p3535
sg11
I100
sg12
VUpper Deck MVP Gold Script
p3536
sg14
(lp3537
Vhttp://www.beckett.com/basketball/1999-00/upper-deck-mvp-gold-script/79-rick-fox-3182712
p3538
asg17
g18
sg19
(lp3539
Vhttp://img.beckett.com/images/no-image.jpg
p3540
asg22
V#79
p3541
sg24
V1999-00
p3542
sg26
g27
sg28
(lp3543
VRick Fox
p3544
assbag1
(g2
g3
Ntp3545
Rp3546
(dp3547
g7
(dp3548
g9
V1999-00 Upper Deck MVP Gold Script #80 Derek Fisher
p3549
sg11
I100
sg12
VUpper Deck MVP Gold Script
p3550
sg14
(lp3551
Vhttp://www.beckett.com/basketball/1999-00/upper-deck-mvp-gold-script/80-derek-fisher-3182713
p3552
asg17
g18
sg19
(lp3553
Vhttp://img.beckett.com/images/no-image.jpg
p3554
asg22
V#80
p3555
sg24
V1999-00
p3556
sg26
g27
sg28
(lp3557
VDerek Fisher
p3558
assbag1
(g2
g3
Ntp3559
Rp3560
(dp3561
g7
(dp3562
g9
V1999-00 Upper Deck MVP Super Script #21 Ron Harper
p3563
sg11
I25
sg12
VUpper Deck MVP Super Script
p3564
sg14
(lp3565
Vhttp://www.beckett.com/basketball/1999-00/upper-deck-mvp-super-script/21-ron-harper-3182884
p3566
asg17
g18
sg19
(lp3567
Vhttp://img.beckett.com/images/no-image.jpg
p3568
asg22
V#21
p3569
sg24
V1999-00
p3570
sg26
g27
sg28
(lp3571
VRon Harper
p3572
assbag1
(g2
g3
Ntp3573
Rp3574
(dp3575
g7
(dp3576
g9
V1999-00 Upper Deck MVP Super Script #74 Kobe Bryant
p3577
sg11
I25
sg12
VUpper Deck MVP Super Script
p3578
sg14
(lp3579
Vhttp://www.beckett.com/basketball/1999-00/upper-deck-mvp-super-script/74-kobe-bryant-3182937
p3580
asg17
g18
sg19
(lp3581
Vhttp://img.beckett.com/images/no-image.jpg
p3582
asg22
V#74
p3583
sg24
V1999-00
p3584
sg26
g27
sg28
(lp3585
VKobe Bryant
p3586
assbag1
(g2
g3
Ntp3587
Rp3588
(dp3589
g7
(dp3590
g9
V1999-00 Upper Deck MVP Super Script #75 Shaquille O'Neal
p3591
sg11
I25
sg12
VUpper Deck MVP Super Script
p3592
sg14
(lp3593
Vhttp://www.beckett.com/basketball/1999-00/upper-deck-mvp-super-script/75-shaquille-oneal-3182938
p3594
asg17
g18
sg19
(lp3595
Vhttp://img.beckett.com/images/no-image.jpg
p3596
asg22
V#75
p3597
sg24
V1999-00
p3598
sg26
g27
sg28
(lp3599
VShaquille O'Neal
p3600
assbag1
(g2
g3
Ntp3601
Rp3602
(dp3603
g7
(dp3604
g9
V1999-00 Upper Deck MVP Super Script #77 Glen Rice
p3605
sg11
I25
sg12
VUpper Deck MVP Super Script
p3606
sg14
(lp3607
Vhttp://www.beckett.com/basketball/1999-00/upper-deck-mvp-super-script/77-glen-rice-3182940
p3608
asg17
g18
sg19
(lp3609
Vhttp://img.beckett.com/images/no-image.jpg
p3610
asg22
V#77
p3611
sg24
V1999-00
p3612
sg26
g27
sg28
(lp3613
VGlen Rice
p3614
assbag1
(g2
g3
Ntp3615
Rp3616
(dp3617
g7
(dp3618
g9
V1999-00 Upper Deck MVP Super Script #78 J.R. Reid
p3619
sg11
I25
sg12
VUpper Deck MVP Super Script
p3620
sg14
(lp3621
Vhttp://www.beckett.com/basketball/1999-00/upper-deck-mvp-super-script/78-jr-reid-3182941
p3622
asg17
g18
sg19
(lp3623
Vhttp://img.beckett.com/images/no-image.jpg
p3624
asg22
V#78
p3625
sg24
V1999-00
p3626
sg26
g27
sg28
(lp3627
VJ.R. Reid
p3628
assbag1
(g2
g3
Ntp3629
Rp3630
(dp3631
g7
(dp3632
g9
V1999-00 Upper Deck MVP Super Script #79 Rick Fox
p3633
sg11
I25
sg12
VUpper Deck MVP Super Script
p3634
sg14
(lp3635
Vhttp://www.beckett.com/basketball/1999-00/upper-deck-mvp-super-script/79-rick-fox-3182942
p3636
asg17
g18
sg19
(lp3637
Vhttp://img.beckett.com/images/no-image.jpg
p3638
asg22
V#79
p3639
sg24
V1999-00
p3640
sg26
g27
sg28
(lp3641
VRick Fox
p3642
assbag1
(g2
g3
Ntp3643
Rp3644
(dp3645
g7
(dp3646
g9
V1999-00 Upper Deck MVP Super Script #80 Derek Fisher
p3647
sg11
I25
sg12
VUpper Deck MVP Super Script
p3648
sg14
(lp3649
Vhttp://www.beckett.com/basketball/1999-00/upper-deck-mvp-super-script/80-derek-fisher-3182943
p3650
asg17
g18
sg19
(lp3651
Vhttp://img.beckett.com/images/no-image.jpg
p3652
asg22
V#80
p3653
sg24
V1999-00
p3654
sg26
g27
sg28
(lp3655
VDerek Fisher
p3656
assbag1
(g2
g3
Ntp3657
Rp3658
(dp3659
g7
(dp3660
g9
V1999-00 Upper Deck Ovation Standing Ovation #26 Kobe Bryant
p3661
sg11
I50
sg12
VUpper Deck Ovation Standing Ovation
p3662
sg14
(lp3663
Vhttp://www.beckett.com/basketball/1999-00/upper-deck-ovation-standing-ovation/26-kobe-bryant-3181159
p3664
asg17
g18
sg19
(lp3665
Vhttp://img.beckett.com/images/no-image.jpg
p3666
asg22
V#26
p3667
sg24
V1999-00
p3668
sg26
g27
sg28
(lp3669
VKobe Bryant
p3670
assbag1
(g2
g3
Ntp3671
Rp3672
(dp3673
g7
(dp3674
g9
V1999-00 Upper Deck Ovation Standing Ovation #27 Shaquille O'Neal
p3675
sg11
I50
sg12
VUpper Deck Ovation Standing Ovation
p3676
sg14
(lp3677
Vhttp://www.beckett.com/basketball/1999-00/upper-deck-ovation-standing-ovation/27-shaquille-oneal-3181160
p3678
asg17
g18
sg19
(lp3679
Vhttp://img.beckett.com/images/no-image.jpg
p3680
asg22
V#27
p3681
sg24
V1999-00
p3682
sg26
g27
sg28
(lp3683
VShaquille O'Neal
p3684
assbag1
(g2
g3
Ntp3685
Rp3686
(dp3687
g7
(dp3688
g9
V1999-00 Upper Deck Ovation Standing Ovation #83 Devean George
p3689
sg11
I50
sg12
VUpper Deck Ovation Standing Ovation
p3690
sg14
(lp3691
Vhttp://www.beckett.com/basketball/1999-00/upper-deck-ovation-standing-ovation/83-devean-george-3181216
p3692
asg17
g18
sg19
(lp3693
Vhttp://img.beckett.com/images/no-image.jpg
p3694
asg22
V#83
p3695
sg24
V1999-00
p3696
sg26
g27
sg28
(lp3697
VDevean George
p3698
assbag1
(g2
g3
Ntp3699
Rp3700
(dp3701
g7
(dp3702
g9
V1999-00 Upper Deck Retro Gold #8 Kobe Bryant
p3703
sg11
I250
sg12
VUpper Deck Retro Gold
p3704
sg14
(lp3705
Vhttp://www.beckett.com/basketball/1999-00/upper-deck-retro-gold/8-kobe-bryant-3181515
p3706
asg17
g18
sg19
(lp3707
Vhttp://img.beckett.com/images/no-image.jpg
p3708
asg22
V#8
p3709
sg24
V1999-00
p3710
sg26
g27
sg28
(lp3711
VKobe Bryant
p3712
assbag1
(g2
g3
Ntp3713
Rp3714
(dp3715
g7
(dp3716
g9
V1999-00 Upper Deck Retro Gold #40 Kareem Abdul-Jabbar
p3717
sg11
I250
sg12
VUpper Deck Retro Gold
p3718
sg14
(lp3719
Vhttp://www.beckett.com/basketball/1999-00/upper-deck-retro-gold/40-kareem-abdul-jabbar-3181547
p3720
asg17
g18
sg19
(lp3721
Vhttp://img.beckett.com/images/items_stock/185226/3181499/3181547/front.jpg
p3722
asg22
V#40
p3723
sg24
V1999-00
p3724
sg26
g27
sg28
(lp3725
VKareem Abdul-Jabbar
p3726
assbag1
(g2
g3
Ntp3727
Rp3728
(dp3729
g7
(dp3730
g9
V1999-00 Upper Deck Retro Gold #55 Wilt Chamberlain
p3731
sg11
I250
sg12
VUpper Deck Retro Gold
p3732
sg14
(lp3733
Vhttp://www.beckett.com/basketball/1999-00/upper-deck-retro-gold/55-wilt-chamberlain-3181562
p3734
asg17
g18
sg19
(lp3735
Vhttp://img.beckett.com/images/no-image.jpg
p3736
asg22
V#55
p3737
sg24
V1999-00
p3738
sg26
g27
sg28
(lp3739
VWilt Chamberlain
p3740
assbag1
(g2
g3
Ntp3741
Rp3742
(dp3743
g7
(dp3744
g9
V1999-00 Upper Deck Retro Gold #72 Elgin Baylor
p3745
sg11
I250
sg12
VUpper Deck Retro Gold
p3746
sg14
(lp3747
Vhttp://www.beckett.com/basketball/1999-00/upper-deck-retro-gold/72-elgin-baylor-3181579
p3748
asg17
g18
sg19
(lp3749
Vhttp://img.beckett.com/images/items_stock/185226/3181499/3181579/front.jpg
p3750
asg22
V#72
p3751
sg24
V1999-00
p3752
sg26
g27
sg28
(lp3753
VElgin Baylor
p3754
assbag1
(g2
g3
Ntp3755
Rp3756
(dp3757
g7
(dp3758
g9
V1999-00 Upper Deck Retro Gold #75 Jerry West
p3759
sg11
I250
sg12
VUpper Deck Retro Gold
p3760
sg14
(lp3761
Vhttp://www.beckett.com/basketball/1999-00/upper-deck-retro-gold/75-jerry-west-3181582
p3762
asg17
g18
sg19
(lp3763
Vhttp://img.beckett.com/images/items_stock/185226/3181499/3181582/front.jpg
p3764
asg22
V#75
p3765
sg24
V1999-00
p3766
sg26
g27
sg28
(lp3767
VJerry West
p3768
assbag1
(g2
g3
Ntp3769
Rp3770
(dp3771
g7
(dp3772
g9
V1999-00 Upper Deck Retro Gold #78 Shaquille O'Neal
p3773
sg11
I250
sg12
VUpper Deck Retro Gold
p3774
sg14
(lp3775
Vhttp://www.beckett.com/basketball/1999-00/upper-deck-retro-gold/78-shaquille-oneal-3181585
p3776
asg17
g18
sg19
(lp3777
Vhttp://img.beckett.com/images/items_stock/185226/3181499/3181585/front.jpg
p3778
asg22
V#78
p3779
sg24
V1999-00
p3780
sg26
g27
sg28
(lp3781
VShaquille O'Neal
p3782
assbag1
(g2
g3
Ntp3783
Rp3784
(dp3785
g7
(dp3786
g9
V1999-00 Upper Deck Retro Gold #83 James Worthy
p3787
sg11
I250
sg12
VUpper Deck Retro Gold
p3788
sg14
(lp3789
Vhttp://www.beckett.com/basketball/1999-00/upper-deck-retro-gold/83-james-worthy-3181590
p3790
asg17
g18
sg19
(lp3791
Vhttp://img.beckett.com/images/no-image.jpg
p3792
asg22
V#83
p3793
sg24
V1999-00
p3794
sg26
g27
sg28
(lp3795
VJames Worthy
p3796
assbag1
(g2
g3
Ntp3797
Rp3798
(dp3799
g7
(dp3800
g9
V1999-00 Upper Deck Retro Platinum #8 Kobe Bryant
p3801
sg11
I1
sg12
VUpper Deck Retro Platinum
p3802
sg14
(lp3803
Vhttp://www.beckett.com/basketball/1999-00/upper-deck-retro-platinum/8-kobe-bryant-3181630
p3804
asg17
g18
sg19
(lp3805
Vhttp://img.beckett.com/images/no-image.jpg
p3806
asg22
V#8
p3807
sg24
V1999-00
p3808
sg26
g27
sg28
(lp3809
VKobe Bryant
p3810
assbag1
(g2
g3
Ntp3811
Rp3812
(dp3813
g7
(dp3814
g9
V1999-00 Upper Deck Retro Platinum #40 Kareem-Abdul-Jabbar
p3815
sg11
I1
sg12
VUpper Deck Retro Platinum
p3816
sg14
(lp3817
Vhttp://www.beckett.com/basketball/1999-00/upper-deck-retro-platinum/40-kareem-abdul-jabbar-3181662
p3818
asg17
g18
sg19
(lp3819
Vhttp://img.beckett.com/images/no-image.jpg
p3820
asg22
V#40
p3821
sg24
V1999-00
p3822
sg26
g27
sg28
(lp3823
VKareem Abdul-Jabbar
p3824
assbag1
(g2
g3
Ntp3825
Rp3826
(dp3827
g7
(dp3828
g9
V1999-00 Upper Deck Retro Platinum #55 Wilt Chamberlain
p3829
sg11
I1
sg12
VUpper Deck Retro Platinum
p3830
sg14
(lp3831
Vhttp://www.beckett.com/basketball/1999-00/upper-deck-retro-platinum/55-wilt-chamberlain-3181677
p3832
asg17
g18
sg19
(lp3833
Vhttp://img.beckett.com/images/no-image.jpg
p3834
asg22
V#55
p3835
sg24
V1999-00
p3836
sg26
g27
sg28
(lp3837
VWilt Chamberlain
p3838
assbag1
(g2
g3
Ntp3839
Rp3840
(dp3841
g7
(dp3842
g9
V1999-00 Upper Deck Retro Platinum #72 Elgin Baylor
p3843
sg11
I1
sg12
VUpper Deck Retro Platinum
p3844
sg14
(lp3845
Vhttp://www.beckett.com/basketball/1999-00/upper-deck-retro-platinum/72-elgin-baylor-3181694
p3846
asg17
g18
sg19
(lp3847
Vhttp://img.beckett.com/images/no-image.jpg
p3848
asg22
V#72
p3849
sg24
V1999-00
p3850
sg26
g27
sg28
(lp3851
VElgin Baylor
p3852
assbag1
(g2
g3
Ntp3853
Rp3854
(dp3855
g7
(dp3856
g9
V1999-00 Upper Deck Retro Platinum #75 Jerry West
p3857
sg11
I1
sg12
VUpper Deck Retro Platinum
p3858
sg14
(lp3859
Vhttp://www.beckett.com/basketball/1999-00/upper-deck-retro-platinum/75-jerry-west-3181697
p3860
asg17
g18
sg19
(lp3861
Vhttp://img.beckett.com/images/no-image.jpg
p3862
asg22
V#75
p3863
sg24
V1999-00
p3864
sg26
g27
sg28
(lp3865
VJerry West
p3866
assbag1
(g2
g3
Ntp3867
Rp3868
(dp3869
g7
(dp3870
g9
V1999-00 Upper Deck Retro Platinum #78 Shaquille O'Neal
p3871
sg11
I1
sg12
VUpper Deck Retro Platinum
p3872
sg14
(lp3873
Vhttp://www.beckett.com/basketball/1999-00/upper-deck-retro-platinum/78-shaquille-oneal-3181700
p3874
asg17
g18
sg19
(lp3875
Vhttp://img.beckett.com/images/no-image.jpg
p3876
asg22
V#78
p3877
sg24
V1999-00
p3878
sg26
g27
sg28
(lp3879
VShaquille O'Neal
p3880
assbag1
(g2
g3
Ntp3881
Rp3882
(dp3883
g7
(dp3884
g9
V1999-00 Upper Deck Retro Platinum #83 James Worthy
p3885
sg11
I1
sg12
VUpper Deck Retro Platinum
p3886
sg14
(lp3887
Vhttp://www.beckett.com/basketball/1999-00/upper-deck-retro-platinum/83-james-worthy-3181705
p3888
asg17
g18
sg19
(lp3889
Vhttp://img.beckett.com/images/no-image.jpg
p3890
asg22
V#83
p3891
sg24
V1999-00
p3892
sg26
g27
sg28
(lp3893
VJames Worthy
p3894
assbag1
(g2
g3
Ntp3895
Rp3896
(dp3897
g7
(dp3898
g9
V1999-00 Finest Dunk Masters #DM1 Kobe Bryant
p3899
sg11
I750
sg12
VFinest Dunk Masters
p3900
sg14
(lp3901
Vhttp://www.beckett.com/basketball/1999-00/finest-dunk-masters/dm1-kobe-bryant-3204375
p3902
asg17
g18
sg19
(lp3903
Vhttp://img.beckett.com/images/no-image.jpg
p3904
asg22
V#DM1
p3905
sg24
V1999-00
p3906
sg26
g27
sg28
(lp3907
VKobe Bryant
p3908
assbag1
(g2
g3
Ntp3909
Rp3910
(dp3911
g7
(dp3912
g9
V1999-00 Finest Dunk Masters #DM2 Shaquille O'Neal
p3913
sg11
I750
sg12
VFinest Dunk Masters
p3914
sg14
(lp3915
Vhttp://www.beckett.com/basketball/1999-00/finest-dunk-masters/dm2-shaquille-oneal-3204376
p3916
asg17
g18
sg19
(lp3917
Vhttp://img.beckett.com/images/no-image.jpg
p3918
asg22
V#DM2
p3919
sg24
V1999-00
p3920
sg26
g27
sg28
(lp3921
VShaquille O'Neal
p3922
assbag1
(g2
g3
Ntp3923
Rp3924
(dp3925
g7
(dp3926
g9
V1999-00 Finest Team Finest Blue #TF14 Shaquille O'Neal
p3927
sg11
I1500
sg12
VFinest Team Finest Blue
p3928
sg14
(lp3929
Vhttp://www.beckett.com/basketball/1999-00/finest-team-finest-blue/tf14-shaquille-oneal-3202611
p3930
asg17
g18
sg19
(lp3931
Vhttp://img.beckett.com/images/items_stock/185226/3202568/3202611/front.jpg
p3932
asg22
V#TF14
p3933
sg24
V1999-00
p3934
sg26
g27
sg28
(lp3935
VShaquille O'Neal
p3936
assbag1
(g2
g3
Ntp3937
Rp3938
(dp3939
g7
(dp3940
g9
V1999-00 Finest Team Finest Blue #TF18 Kobe Bryant
p3941
sg11
I1500
sg12
VFinest Team Finest Blue
p3942
sg14
(lp3943
Vhttp://www.beckett.com/basketball/1999-00/finest-team-finest-blue/tf18-kobe-bryant-3202615
p3944
asg17
g18
sg19
(lp3945
Vhttp://img.beckett.com/images/items_stock/185226/3202568/3202615/front.jpg
p3946
asg22
V#TF18
p3947
sg24
V1999-00
p3948
sg26
g27
sg28
(lp3949
VKobe Bryant
p3950
assbag1
(g2
g3
Ntp3951
Rp3952
(dp3953
g7
(dp3954
g9
V1999-00 Flair Showcase Rookie Showcase Firsts #17 Devean George
p3955
sg11
I500
sg12
VFlair Showcase Rookie Showcase Firsts
p3956
sg14
(lp3957
Vhttp://www.beckett.com/basketball/1999-00/flair-showcase-rookie-showcase-firsts/17-devean-george-3201019
p3958
asg17
g18
sg19
(lp3959
Vhttp://img.beckett.com/images/items_stock/185226/3200996/3201019/front.jpg
p3960
asg22
V#17
p3961
sg24
V1999-00
p3962
sg26
g27
sg28
(lp3963
VDevean George
p3964
assbag1
(g2
g3
Ntp3965
Rp3966
(dp3967
g7
(dp3968
g9
V1999-00 Fleer Game Breakers #2 Kobe Bryant
p3969
sg11
I100
sg12
VFleer Game Breakers
p3970
sg14
(lp3971
Vhttp://www.beckett.com/basketball/1999-00/fleer-game-breakers/2-kobe-bryant-3201761
p3972
asg17
g18
sg19
(lp3973
Vhttp://img.beckett.com/images/no-image.jpg
p3974
asg22
V#2
p3975
sg24
V1999-00
p3976
sg26
g27
sg28
(lp3977
VKobe Bryant
p3978
assbag1
(g2
g3
Ntp3979
Rp3980
(dp3981
g7
(dp3982
g9
V1999-00 Fleer Game Breakers #12 Shaquille O'Neal
p3983
sg11
I100
sg12
VFleer Game Breakers
p3984
sg14
(lp3985
Vhttp://www.beckett.com/basketball/1999-00/fleer-game-breakers/12-shaquille-oneal-3201771
p3986
asg17
g18
sg19
(lp3987
Vhttp://img.beckett.com/images/no-image.jpg
p3988
asg22
V#12
p3989
sg24
V1999-00
p3990
sg26
g27
sg28
(lp3991
VShaquille O'Neal
p3992
assbag1
(g2
g3
Ntp3993
Rp3994
(dp3995
g7
(dp3996
g9
V1999-00 Fleer Mystique Raise the Roof #RR4 Kobe Bryant
p3997
sg11
I100
sg12
VFleer Mystique Raise the Roof
p3998
sg14
(lp3999
Vhttp://www.beckett.com/basketball/1999-00/fleer-mystique-raise-the-roof/rr4-kobe-bryant-3198837
p4000
asg17
g18
sg19
(lp4001
Vhttp://img.beckett.com/images/no-image.jpg
p4002
asg22
V#RR4
p4003
sg24
V1999-00
p4004
sg26
g27
sg28
(lp4005
VKobe Bryant
p4006
assbag1
(g2
g3
Ntp4007
Rp4008
(dp4009
g7
(dp4010
g9
V1999-00 Fleer Mystique Raise the Roof #RR8 Shaquille O'Neal
p4011
sg11
I100
sg12
VFleer Mystique Raise the Roof
p4012
sg14
(lp4013
Vhttp://www.beckett.com/basketball/1999-00/fleer-mystique-raise-the-roof/rr8-shaquille-oneal-3198841
p4014
asg17
g18
sg19
(lp4015
Vhttp://img.beckett.com/images/no-image.jpg
p4016
asg22
V#RR8
p4017
sg24
V1999-00
p4018
sg26
g27
sg28
(lp4019
VShaquille O'Neal
p4020
assbag1
(g2
g3
Ntp4021
Rp4022
(dp4023
g7
(dp4024
g9
V1999-00 Hoops Pure Players #PP5 Kobe Bryant
p4025
sg11
I500
sg12
VHoops Pure Players
p4026
sg14
(lp4027
Vhttp://www.beckett.com/basketball/1999-00/hoops-pure-players/pp5-kobe-bryant-3199320
p4028
asg17
g18
sg19
(lp4029
Vhttp://img.beckett.com/images/no-image.jpg
p4030
asg22
V#PP5
p4031
sg24
V1999-00
p4032
sg26
g27
sg28
(lp4033
VKobe Bryant
p4034
assbag1
(g2
g3
Ntp4035
Rp4036
(dp4037
g7
(dp4038
g9
V1999-00 SkyBox Premium Club Vertical #3 Shaquille O'Neal
p4039
sg11
I100
sg12
VSkyBox Premium Club Vertical
p4040
sg14
(lp4041
Vhttp://www.beckett.com/basketball/1999-00/skybox-premium-club-vertical/3-shaquille-oneal-3196010
p4042
asg17
g18
sg19
(lp4043
Vhttp://img.beckett.com/images/no-image.jpg
p4044
asg22
V#3
p4045
sg24
V1999-00
p4046
sg26
g27
sg28
(lp4047
VShaquille O'Neal
p4048
assbag1
(g2
g3
Ntp4049
Rp4050
(dp4051
g7
(dp4052
g9
V1999-00 SkyBox Premium Club Vertical #5 Kobe Bryant
p4053
sg11
I100
sg12
VSkyBox Premium Club Vertical
p4054
sg14
(lp4055
Vhttp://www.beckett.com/basketball/1999-00/skybox-premium-club-vertical/5-kobe-bryant-3196012
p4056
asg17
g18
sg19
(lp4057
Vhttp://img.beckett.com/images/no-image.jpg
p4058
asg22
V#5
p4059
sg24
V1999-00
p4060
sg26
g27
sg28
(lp4061
VKobe Bryant
p4062
assbag1
(g2
g3
Ntp4063
Rp4064
(dp4065
g7
(dp4066
g9
V1999-00 SkyBox Premium Genuine Coverage #1 Kobe Bryant/340
p4067
sg11
I340
sg12
VSkyBox Premium Genuine Coverage
p4068
sg14
(lp4069
Vhttp://www.beckett.com/basketball/1999-00/skybox-premium-genuine-coverage/1-kobe-bryant340-3196024
p4070
asg17
g18
sg137
I1
sg19
(lp4071
Vhttp://img.beckett.com/images/no-image.jpg
p4072
asg22
V#1
p4073
sg24
V1999-00
p4074
sg26
g27
sg28
(lp4075
VKobe Bryant
p4076
assbag1
(g2
g3
Ntp4077
Rp4078
(dp4079
g7
(dp4080
g9
V1999-00 SP Authentic BuyBack #3 Kobe Bryant 96-7SP/8
p4081
sg11
I8
sg12
VSP Authentic BuyBack
p4082
sg14
(lp4083
Vhttp://www.beckett.com/basketball/1999-00/sp-authentic-buyback/3-kobe-bryant-96-7sp8-3196312
p4084
asg17
g18
sg19
(lp4085
Vhttp://img.beckett.com/images/no-image.jpg
p4086
asg22
V#3
p4087
sg141
I1
sg24
V1999-00
p4088
sg26
g27
sg28
(lp4089
VKobe Bryant
p4090
assbag1
(g2
g3
Ntp4091
Rp4092
(dp4093
g7
(dp4094
g9
V1999-00 SP Authentic BuyBack #4 Kobe Bryant 96-7SPHo/1
p4095
sg11
I1
sg12
VSP Authentic BuyBack
p4096
sg14
(lp4097
Vhttp://www.beckett.com/basketball/1999-00/sp-authentic-buyback/4-kobe-bryant-96-7spho1-3196314
p4098
asg17
g18
sg19
(lp4099
Vhttp://img.beckett.com/images/no-image.jpg
p4100
asg22
V#4
p4101
sg141
I1
sg24
V1999-00
p4102
sg26
g27
sg28
(lp4103
VKobe Bryant
p4104
assbag1
(g2
g3
Ntp4105
Rp4106
(dp4107
g7
(dp4108
g9
V1999-00 SP Authentic BuyBack #5 Kobe Bryant 97SPx/1
p4109
sg11
I1
sg12
VSP Authentic BuyBack
p4110
sg14
(lp4111
Vhttp://www.beckett.com/basketball/1999-00/sp-authentic-buyback/5-kobe-bryant-97spx1-3196315
p4112
asg17
g18
sg19
(lp4113
Vhttp://img.beckett.com/images/no-image.jpg
p4114
asg22
V#5
p4115
sg141
I1
sg24
V1999-00
p4116
sg26
g27
sg28
(lp4117
VKobe Bryant
p4118
assbag1
(g2
g3
Ntp4119
Rp4120
(dp4121
g7
(dp4122
g9
V1999-00 SP Authentic BuyBack #6 Kobe Bryant 97-8SPA/7
p4123
sg11
I7
sg12
VSP Authentic BuyBack
p4124
sg14
(lp4125
Vhttp://www.beckett.com/basketball/1999-00/sp-authentic-buyback/6-kobe-bryant-97-8spa7-3196316
p4126
asg17
g18
sg19
(lp4127
Vhttp://img.beckett.com/images/no-image.jpg
p4128
asg22
V#6
p4129
sg141
I1
sg24
V1999-00
p4130
sg26
g27
sg28
(lp4131
VKobe Bryant
p4132
assbag1
(g2
g3
Ntp4133
Rp4134
(dp4135
g7
(dp4136
g9
V1999-00 SP Authentic BuyBack #7 Kobe Bryant 97-8SPAPro/1
p4137
sg11
I1
sg12
VSP Authentic BuyBack
p4138
sg14
(lp4139
Vhttp://www.beckett.com/basketball/1999-00/sp-authentic-buyback/7-kobe-bryant-97-8spapro1-3196317
p4140
asg17
g18
sg19
(lp4141
Vhttp://img.beckett.com/images/no-image.jpg
p4142
asg22
V#7
p4143
sg141
I1
sg24
V1999-00
p4144
sg26
g27
sg28
(lp4145
VKobe Bryant
p4146
assbag1
(g2
g3
Ntp4147
Rp4148
(dp4149
g7
(dp4150
g9
V1999-00 SP Authentic BuyBack #8 Kobe Bryant 98-9SPA/132
p4151
sg11
I132
sg12
VSP Authentic BuyBack
p4152
sg14
(lp4153
Vhttp://www.beckett.com/basketball/1999-00/sp-authentic-buyback/8-kobe-bryant-98-9spa132-3196318
p4154
asg17
g18
sg19
(lp4155
Vhttp://img.beckett.com/images/no-image.jpg
p4156
asg22
V#8
p4157
sg141
I1
sg24
V1999-00
p4158
sg26
g27
sg28
(lp4159
VKobe Bryant
p4160
assbag1
(g2
g3
Ntp4161
Rp4162
(dp4163
g7
(dp4164
g9
V1999-00 Ultimate Victory Ultimate Fabrics #UF2 Wilt Chamberlain/100
p4165
sg11
I100
sg12
VUltimate Victory Ultimate Fabrics
p4166
sg14
(lp4167
Vhttp://www.beckett.com/basketball/1999-00/ultimate-victory-ultimate-fabrics/uf2-wilt-chamberlain100-3179528
p4168
asg17
g18
sg137
I1
sg19
(lp4169
Vhttp://img.beckett.com/images/no-image.jpg
p4170
asg22
V#UF2
p4171
sg24
V1999-00
p4172
sg26
g27
sg28
(lp4173
VWilt Chamberlain
p4174
assbag1
(g2
g3
Ntp4175
Rp4176
(dp4177
g7
(dp4178
g9
V1999-00 Ultimate Victory Ultimate Fabrics #UF3 Julius Erving/25/Kobe Bryant
p4179
sg11
I25
sg12
VUltimate Victory Ultimate Fabrics
p4180
sg14
(lp4181
Vhttp://www.beckett.com/basketball/1999-00/ultimate-victory-ultimate-fabrics/uf3-julius-erving25kobe-bryant-3179529
p4182
asg17
g18
sg137
I1
sg19
(lp4183
Vhttp://img.beckett.com/images/no-image.jpg
p4184
asg22
V#UF3
p4185
sg24
V1999-00
p4186
sg26
g27
sg28
(lp4187
VJulius Erving
p4188
aVKobe Bryant
p4189
assbag1
(g2
g3
Ntp4190
Rp4191
(dp4192
g7
(dp4193
g9
V1999-00 Ultra Millennium Men #4 Kobe Bryant
p4194
sg11
I100
sg12
VUltra Millennium Men
p4195
sg14
(lp4196
Vhttp://www.beckett.com/basketball/1999-00/ultra-millennium-men/4-kobe-bryant-3186086
p4197
asg17
g18
sg19
(lp4198
Vhttp://img.beckett.com/images/no-image.jpg
p4199
asg22
V#4
p4200
sg24
V1999-00
p4201
sg26
g27
sg28
(lp4202
VKobe Bryant
p4203
assbag1
(g2
g3
Ntp4204
Rp4205
(dp4206
g7
(dp4207
g9
V1999-00 Upper Deck Game Jerseys #GJ21A Kobe Bryant AU/8
p4208
sg11
I8
sg12
VUpper Deck Game Jerseys
p4209
sg14
(lp4210
Vhttp://www.beckett.com/basketball/1999-00/upper-deck-game-jerseys/gj21a-kobe-bryant-au8-3185000
p4211
asg17
g18
sg137
I1
sg19
(lp4212
Vhttp://img.beckett.com/images/no-image.jpg
p4213
asg22
V#GJ21A
p4214
sg141
I1
sg24
V1999-00
p4215
sg26
g27
sg28
(lp4216
VKobe Bryant
p4217
assbag1
(g2
g3
Ntp4218
Rp4219
(dp4220
g7
(dp4221
g9
V1999-00 Upper Deck Game Jerseys Patch Super #KB Kobe Bryant 1
p4222
sg11
I25
sg12
VUpper Deck Game Jerseys Patch Super
p4223
sg14
(lp4224
Vhttp://www.beckett.com/basketball/1999-00/upper-deck-game-jerseys-patch-super/kb-kobe-bryant-1-3185135
p4225
asg17
g18
sg137
I1
sg19
(lp4226
Vhttp://img.beckett.com/images/no-image.jpg
p4227
asg22
V#KB
p4228
sg24
V1999-00
p4229
sg26
g27
sg28
(lp4230
VKobe Bryant
p4231
assbag1
(g2
g3
Ntp4232
Rp4233
(dp4234
g7
(dp4235
g9
V1999-00 Upper Deck Game Jerseys Patch Super #KB Kobe Bryant 2
p4236
sg11
I25
sg12
VUpper Deck Game Jerseys Patch Super
p4237
sg14
(lp4238
Vhttp://www.beckett.com/basketball/1999-00/upper-deck-game-jerseys-patch-super/kb-kobe-bryant-2-3185136
p4239
asg17
g18
sg137
I1
sg19
(lp4240
Vhttp://img.beckett.com/images/no-image.jpg
p4241
asg22
V#KB
p4242
sg24
V1999-00
p4243
sg26
g27
sg28
(lp4244
VKobe Bryant
p4245
assbag1
(g2
g3
Ntp4246
Rp4247
(dp4248
g7
(dp4249
g9
V1999-00 Upper Deck Game Jerseys Patch Super #SO Shaquille O'Neal 1
p4250
sg11
I25
sg12
VUpper Deck Game Jerseys Patch Super
p4251
sg14
(lp4252
Vhttp://www.beckett.com/basketball/1999-00/upper-deck-game-jerseys-patch-super/so-shaquille-oneal-1-3185142
p4253
asg17
g18
sg137
I1
sg19
(lp4254
Vhttp://img.beckett.com/images/no-image.jpg
p4255
asg22
V#SO
p4256
sg24
V1999-00
p4257
sg26
g27
sg28
(lp4258
VShaquille O'Neal
p4259
assbag1
(g2
g3
Ntp4260
Rp4261
(dp4262
g7
(dp4263
g9
V1999-00 Upper Deck Game Jerseys Patch Super #SO Shaquille O'Neal 2
p4264
sg11
I25
sg12
VUpper Deck Game Jerseys Patch Super
p4265
sg14
(lp4266
Vhttp://www.beckett.com/basketball/1999-00/upper-deck-game-jerseys-patch-super/so-shaquille-oneal-2-3185143
p4267
asg17
g18
sg137
I1
sg19
(lp4268
Vhttp://img.beckett.com/images/no-image.jpg
p4269
asg22
V#SO
p4270
sg24
V1999-00
p4271
sg26
g27
sg28
(lp4272
VShaquille O'Neal
p4273
assbag1
(g2
g3
Ntp4274
Rp4275
(dp4276
g7
(dp4277
g9
V1999-00 Upper Deck Encore Game Jerseys #KBA Kobe Bryant AU/8
p4278
sg11
I8
sg12
VUpper Deck Encore Game Jerseys
p4279
sg14
(lp4280
Vhttp://www.beckett.com/basketball/1999-00/upper-deck-encore-game-jerseys/kba-kobe-bryant-au8-3183178
p4281
asg17
g18
sg137
I1
sg19
(lp4282
Vhttp://img.beckett.com/images/no-image.jpg
p4283
asg22
V#KBA
p4284
sg141
I1
sg24
V1999-00
p4285
sg26
g27
sg28
(lp4286
VKobe Bryant
p4287
assbag1
(g2
g3
Ntp4288
Rp4289
(dp4290
g7
(dp4291
g9
V1999-00 Black Diamond A Piece of History Triple #DG Devean George H
p4292
sg11
I25
sg12
VBlack Diamond A Piece of History Triple
p4293
sg14
(lp4294
Vhttp://www.beckett.com/basketball/1999-00/black-diamond-a-piece-of-history-triple/dg-devean-george-h-3205878
p4295
asg17
g18
sg137
I1
sg19
(lp4296
Vhttp://img.beckett.com/images/no-image.jpg
p4297
asg22
V#DG
p4298
sg24
V1999-00
p4299
sg26
g27
sg28
(lp4300
VDevean George
p4301
assbag1
(g2
g3
Ntp4302
Rp4303
(dp4304
g7
(dp4305
g9
V1999-00 Black Diamond A Piece of History Triple #SO Shaquille O'Neal H/R
p4306
sg11
I25
sg12
VBlack Diamond A Piece of History Triple
p4307
sg14
(lp4308
Vhttp://www.beckett.com/basketball/1999-00/black-diamond-a-piece-of-history-triple/so-shaquille-oneal-hr-3205894
p4309
asg17
g18
sg137
I1
sg19
(lp4310
Vhttp://img.beckett.com/images/no-image.jpg
p4311
asg22
V#SO
p4312
sg24
V1999-00
p4313
sg26
g27
sg28
(lp4314
VShaquille O'Neal
p4315
assbag1
(g2
g3
Ntp4316
Rp4317
(dp4318
g7
(dp4319
g9
V1999-00 E-X Essential Credentials Future #22 Shaquille O'Neal/39
p4320
sg11
I39
sg12
VE-X Essential Credentials Future
p4321
sg14
(lp4322
Vhttp://www.beckett.com/basketball/1999-00/e-x-essential-credentials-future/22-shaquille-oneal39-3205183
p4323
asg17
g18
sg19
(lp4324
Vhttp://img.beckett.com/images/no-image.jpg
p4325
asg22
V#22
p4326
sg24
V1999-00
p4327
sg26
g27
sg28
(lp4328
VShaquille O'Neal
p4329
assbag1
(g2
g3
Ntp4330
Rp4331
(dp4332
g7
(dp4333
g9
V1999-00 E-X Essential Credentials Future #85 Devean George/6
p4334
sg11
I6
sg12
VE-X Essential Credentials Future
p4335
sg14
(lp4336
Vhttp://www.beckett.com/basketball/1999-00/e-x-essential-credentials-future/85-devean-george6-3205246
p4337
asg17
g18
sg19
(lp4338
Vhttp://img.beckett.com/images/no-image.jpg
p4339
asg22
V#85
p4340
sg24
V1999-00
p4341
sg26
g27
sg28
(lp4342
VDevean George
p4343
assbag1
(g2
g3
Ntp4344
Rp4345
(dp4346
g7
(dp4347
g9
V1999-00 E-X Essential Credentials Now #22 Shaquille O'Neal/22
p4348
sg11
I22
sg12
VE-X Essential Credentials Now
p4349
sg14
(lp4350
Vhttp://www.beckett.com/basketball/1999-00/e-x-essential-credentials-now/22-shaquille-oneal22-3205280
p4351
asg17
g18
sg19
(lp4352
Vhttp://img.beckett.com/images/no-image.jpg
p4353
asg22
V#22
p4354
sg24
V1999-00
p4355
sg26
g27
sg28
(lp4356
VShaquille O'Neal
p4357
assbag1
(g2
g3
Ntp4358
Rp4359
(dp4360
g7
(dp4361
g9
V1999-00 E-X Essential Credentials Now #25 Kobe Bryant/25
p4362
sg11
I25
sg12
VE-X Essential Credentials Now
p4363
sg14
(lp4364
Vhttp://www.beckett.com/basketball/1999-00/e-x-essential-credentials-now/25-kobe-bryant25-3205283
p4365
asg17
g18
sg19
(lp4366
Vhttp://img.beckett.com/images/no-image.jpg
p4367
asg22
V#25
p4368
sg24
V1999-00
p4369
sg26
g27
sg28
(lp4370
VKobe Bryant
p4371
assbag1
(g2
g3
Ntp4372
Rp4373
(dp4374
g7
(dp4375
g9
V1999-00 E-X Essential Credentials Now #85 Devean George/25
p4376
sg11
I25
sg12
VE-X Essential Credentials Now
p4377
sg14
(lp4378
Vhttp://www.beckett.com/basketball/1999-00/e-x-essential-credentials-now/85-devean-george25-3205343
p4379
asg17
g18
sg19
(lp4380
Vhttp://img.beckett.com/images/no-image.jpg
p4381
asg22
V#85
p4382
sg24
V1999-00
p4383
sg26
g27
sg28
(lp4384
VDevean George
p4385
assbag1
(g2
g3
Ntp4386
Rp4387
(dp4388
g7
(dp4389
g9
V1999-00 E-X E-Xceptional Green #XC10 Kobe Bryant
p4390
sg11
I500
sg12
VE-X E-Xceptional Green
p4391
sg14
(lp4392
Vhttp://www.beckett.com/basketball/1999-00/e-x-e-xceptional-green/xc10-kobe-bryant-3203229
p4393
asg17
g18
sg19
(lp4394
Vhttp://img.beckett.com/images/no-image.jpg
p4395
asg22
V#XC10
p4396
sg24
V1999-00
p4397
sg26
g27
sg28
(lp4398
VKobe Bryant
p4399
assbag1
(g2
g3
Ntp4400
Rp4401
(dp4402
g7
(dp4403
g9
V1999-00 E-X E-Xceptional Green #XC12 Shaquille O'Neal
p4404
sg11
I500
sg12
VE-X E-Xceptional Green
p4405
sg14
(lp4406
Vhttp://www.beckett.com/basketball/1999-00/e-x-e-xceptional-green/xc12-shaquille-oneal-3203231
p4407
asg17
g18
sg19
(lp4408
Vhttp://img.beckett.com/images/no-image.jpg
p4409
asg22
V#XC12
p4410
sg24
V1999-00
p4411
sg26
g27
sg28
(lp4412
VShaquille O'Neal
p4413
assbag1
(g2
g3
Ntp4414
Rp4415
(dp4416
g7
(dp4417
g9
V1999-00 E-X E-Xceptional Blue #XC10 Kobe Bryant
p4418
sg11
I250
sg12
VE-X E-Xceptional Blue
p4419
sg14
(lp4420
Vhttp://www.beckett.com/basketball/1999-00/e-x-e-xceptional-blue/xc10-kobe-bryant-3205398
p4421
asg17
g18
sg19
(lp4422
Vhttp://img.beckett.com/images/no-image.jpg
p4423
asg22
V#XC10
p4424
sg24
V1999-00
p4425
sg26
g27
sg28
(lp4426
VKobe Bryant
p4427
assbag1
(g2
g3
Ntp4428
Rp4429
(dp4430
g7
(dp4431
g9
V1999-00 E-X E-Xceptional Blue #XC12 Shaquille O'Neal
p4432
sg11
I250
sg12
VE-X E-Xceptional Blue
p4433
sg14
(lp4434
Vhttp://www.beckett.com/basketball/1999-00/e-x-e-xceptional-blue/xc12-shaquille-oneal-3205400
p4435
asg17
g18
sg19
(lp4436
Vhttp://img.beckett.com/images/no-image.jpg
p4437
asg22
V#XC12
p4438
sg24
V1999-00
p4439
sg26
g27
sg28
(lp4440
VShaquille O'Neal
p4441
assbag1
(g2
g3
Ntp4442
Rp4443
(dp4444
g7
(dp4445
g9
V1999-00 Finest Dunk Masters Refractors #DM1 Kobe Bryant
p4446
sg11
I150
sg12
VFinest Dunk Masters Refractors
p4447
sg14
(lp4448
Vhttp://www.beckett.com/basketball/1999-00/finest-dunk-masters-refractors/dm1-kobe-bryant-3204398
p4449
asg17
g18
sg19
(lp4450
Vhttp://img.beckett.com/images/no-image.jpg
p4451
asg22
V#DM1
p4452
sg24
V1999-00
p4453
sg26
g27
sg28
(lp4454
VKobe Bryant
p4455
assbag1
(g2
g3
Ntp4456
Rp4457
(dp4458
g7
(dp4459
g9
V1999-00 Finest Dunk Masters Refractors #DM2 Shaquille O'Neal
p4460
sg11
I150
sg12
VFinest Dunk Masters Refractors
p4461
sg14
(lp4462
Vhttp://www.beckett.com/basketball/1999-00/finest-dunk-masters-refractors/dm2-shaquille-oneal-3204399
p4463
asg17
g18
sg19
(lp4464
Vhttp://img.beckett.com/images/no-image.jpg
p4465
asg22
V#DM2
p4466
sg24
V1999-00
p4467
sg26
g27
sg28
(lp4468
VShaquille O'Neal
p4469
assbag1
(g2
g3
Ntp4470
Rp4471
(dp4472
g7
(dp4473
g9
V1999-00 Finest Team Finest Blue Refractors #TF14 Shaquille O'Neal
p4474
sg11
I150
sg12
VFinest Team Finest Blue Refractors
p4475
sg14
(lp4476
Vhttp://www.beckett.com/basketball/1999-00/finest-team-finest-blue-refractors/tf14-shaquille-oneal-3202642
p4477
asg17
g18
sg19
(lp4478
Vhttp://img.beckett.com/images/no-image.jpg
p4479
asg22
V#TF14
p4480
sg24
V1999-00
p4481
sg26
g27
sg28
(lp4482
VShaquille O'Neal
p4483
assbag1
(g2
g3
Ntp4484
Rp4485
(dp4486
g7
(dp4487
g9
V1999-00 Finest Team Finest Blue Refractors #TF18 Kobe Bryant
p4488
sg11
I150
sg12
VFinest Team Finest Blue Refractors
p4489
sg14
(lp4490
Vhttp://www.beckett.com/basketball/1999-00/finest-team-finest-blue-refractors/tf18-kobe-bryant-3202646
p4491
asg17
g18
sg19
(lp4492
Vhttp://img.beckett.com/images/no-image.jpg
p4493
asg22
V#TF18
p4494
sg24
V1999-00
p4495
sg26
g27
sg28
(lp4496
VKobe Bryant
p4497
assbag1
(g2
g3
Ntp4498
Rp4499
(dp4500
g7
(dp4501
g9
V1999-00 Finest Team Finest Gold #TF14 Shaquille O'Neal
p4502
sg11
I250
sg12
VFinest Team Finest Gold
p4503
sg14
(lp4504
Vhttp://www.beckett.com/basketball/1999-00/finest-team-finest-gold/tf14-shaquille-oneal-3202673
p4505
asg17
g18
sg19
(lp4506
Vhttp://img.beckett.com/images/no-image.jpg
p4507
asg22
V#TF14
p4508
sg24
V1999-00
p4509
sg26
g27
sg28
(lp4510
VShaquille O'Neal
p4511
assbag1
(g2
g3
Ntp4512
Rp4513
(dp4514
g7
(dp4515
g9
V1999-00 Finest Team Finest Gold #TF18 Kobe Bryant
p4516
sg11
I250
sg12
VFinest Team Finest Gold
p4517
sg14
(lp4518
Vhttp://www.beckett.com/basketball/1999-00/finest-team-finest-gold/tf18-kobe-bryant-3202677
p4519
asg17
g18
sg19
(lp4520
Vhttp://img.beckett.com/images/no-image.jpg
p4521
asg22
V#TF18
p4522
sg24
V1999-00
p4523
sg26
g27
sg28
(lp4524
VKobe Bryant
p4525
assbag1
(g2
g3
Ntp4526
Rp4527
(dp4528
g7
(dp4529
g9
V1999-00 Finest Team Finest Gold Refractors #TF14 Shaquille O'Neal
p4530
sg11
I25
sg12
VFinest Team Finest Gold Refractors
p4531
sg14
(lp4532
Vhttp://www.beckett.com/basketball/1999-00/finest-team-finest-gold-refractors/tf14-shaquille-oneal-3202704
p4533
asg17
g18
sg19
(lp4534
Vhttp://img.beckett.com/images/no-image.jpg
p4535
asg22
V#TF14
p4536
sg24
V1999-00
p4537
sg26
g27
sg28
(lp4538
VShaquille O'Neal
p4539
assbag1
(g2
g3
Ntp4540
Rp4541
(dp4542
g7
(dp4543
g9
V1999-00 Finest Team Finest Gold Refractors #TF18 Kobe Bryant
p4544
sg11
I25
sg12
VFinest Team Finest Gold Refractors
p4545
sg14
(lp4546
Vhttp://www.beckett.com/basketball/1999-00/finest-team-finest-gold-refractors/tf18-kobe-bryant-3202708
p4547
asg17
g18
sg19
(lp4548
Vhttp://img.beckett.com/images/no-image.jpg
p4549
asg22
V#TF18
p4550
sg24
V1999-00
p4551
sg26
g27
sg28
(lp4552
VKobe Bryant
p4553
assbag1
(g2
g3
Ntp4554
Rp4555
(dp4556
g7
(dp4557
g9
V1999-00 Finest Team Finest Red #TF14 Shaquille O'Neal
p4558
sg11
I500
sg12
VFinest Team Finest Red
p4559
sg14
(lp4560
Vhttp://www.beckett.com/basketball/1999-00/finest-team-finest-red/tf14-shaquille-oneal-3202735
p4561
asg17
g18
sg19
(lp4562
Vhttp://img.beckett.com/images/items_stock/185226/3202711/3202735/front.jpg
p4563
asg22
V#TF14
p4564
sg24
V1999-00
p4565
sg26
g27
sg28
(lp4566
VShaquille O'Neal
p4567
assbag1
(g2
g3
Ntp4568
Rp4569
(dp4570
g7
(dp4571
g9
V1999-00 Finest Team Finest Red #TF18 Kobe Bryant
p4572
sg11
I500
sg12
VFinest Team Finest Red
p4573
sg14
(lp4574
Vhttp://www.beckett.com/basketball/1999-00/finest-team-finest-red/tf18-kobe-bryant-3202739
p4575
asg17
g18
sg19
(lp4576
Vhttp://img.beckett.com/images/no-image.jpg
p4577
asg22
V#TF18
p4578
sg24
V1999-00
p4579
sg26
g27
sg28
(lp4580
VKobe Bryant
p4581
assbag1
(g2
g3
Ntp4582
Rp4583
(dp4584
g7
(dp4585
g9
V1999-00 Finest Team Finest Red Refractors #TF14 Shaquille O'Neal
p4586
sg11
I50
sg12
VFinest Team Finest Red Refractors
p4587
sg14
(lp4588
Vhttp://www.beckett.com/basketball/1999-00/finest-team-finest-red-refractors/tf14-shaquille-oneal-3202766
p4589
asg17
g18
sg19
(lp4590
Vhttp://img.beckett.com/images/no-image.jpg
p4591
asg22
V#TF14
p4592
sg24
V1999-00
p4593
sg26
g27
sg28
(lp4594
VShaquille O'Neal
p4595
assbag1
(g2
g3
Ntp4596
Rp4597
(dp4598
g7
(dp4599
g9
V1999-00 Finest Team Finest Red Refractors #TF18 Kobe Bryant
p4600
sg11
I50
sg12
VFinest Team Finest Red Refractors
p4601
sg14
(lp4602
Vhttp://www.beckett.com/basketball/1999-00/finest-team-finest-red-refractors/tf18-kobe-bryant-3202770
p4603
asg17
g18
sg19
(lp4604
Vhttp://img.beckett.com/images/no-image.jpg
p4605
asg22
V#TF18
p4606
sg24
V1999-00
p4607
sg26
g27
sg28
(lp4608
VKobe Bryant
p4609
assbag1
(g2
g3
Ntp4610
Rp4611
(dp4612
g7
(dp4613
g9
V1999-00 Fleer Focus Soar Subjects Vivid #SS8 Kobe Bryant
p4614
sg11
I50
sg12
VFleer Focus Soar Subjects Vivid
p4615
sg14
(lp4616
Vhttp://www.beckett.com/basketball/1999-00/fleer-focus-soar-subjects-vivid/ss8-kobe-bryant-3200054
p4617
asg17
g18
sg19
(lp4618
Vhttp://img.beckett.com/images/no-image.jpg
p4619
asg22
V#SS8
p4620
sg24
V1999-00
p4621
sg26
g27
sg28
(lp4622
VKobe Bryant
p4623
assbag1
(g2
g3
Ntp4624
Rp4625
(dp4626
g7
(dp4627
g9
V1999-00 Fleer Focus Soar Subjects Vivid #SS12 Shaquille O'Neal
p4628
sg11
I50
sg12
VFleer Focus Soar Subjects Vivid
p4629
sg14
(lp4630
Vhttp://www.beckett.com/basketball/1999-00/fleer-focus-soar-subjects-vivid/ss12-shaquille-oneal-3200058
p4631
asg17
g18
sg19
(lp4632
Vhttp://img.beckett.com/images/no-image.jpg
p4633
asg22
V#SS12
p4634
sg24
V1999-00
p4635
sg26
g27
sg28
(lp4636
VShaquille O'Neal
p4637
assbag1
(g2
g3
Ntp4638
Rp4639
(dp4640
g7
(dp4641
g9
V1999-00 Hoops Build Your Own Card Redemptions #5a Shaquille O'Neal/Ball F/Body B
p4642
sg11
I250
sg12
VHoops Build Your Own Card Redemptions
p4643
sg14
(lp4644
Vhttp://www.beckett.com/basketball/1999-00/hoops-build-your-own-card-redemptions/5a-shaquille-onealball-fbody-b-8642316
p4645
asg17
g18
sg19
(lp4646
Vhttp://img.beckett.com/images/no-image.jpg
p4647
asg22
V#5a
p4648
sg24
V1999-00
p4649
sg26
g27
sg28
(lp4650
VShaquille O'Neal
p4651
aVBall
p4652
aVBody
p4653
assbag1
(g2
g3
Ntp4654
Rp4655
(dp4656
g7
(dp4657
g9
V1999-00 Hoops Build Your Own Card Redemptions #5b Shaquille O'Neal/Ball F/Head B
p4658
sg11
I250
sg12
VHoops Build Your Own Card Redemptions
p4659
sg14
(lp4660
Vhttp://www.beckett.com/basketball/1999-00/hoops-build-your-own-card-redemptions/5b-shaquille-onealball-fhead-b-8642317
p4661
asg17
g18
sg19
(lp4662
Vhttp://img.beckett.com/images/no-image.jpg
p4663
asg22
V#5b
p4664
sg24
V1999-00
p4665
sg26
g27
sg28
(lp4666
VShaquille O'Neal
p4667
aVBall
p4668
aVHead
p4669
assbag1
(g2
g3
Ntp4670
Rp4671
(dp4672
g7
(dp4673
g9
V1999-00 Hoops Build Your Own Card Redemptions #5c Shaquille O'Neal/Ball F/Horizonal B
p4674
sg11
I250
sg12
VHoops Build Your Own Card Redemptions
p4675
sg14
(lp4676
Vhttp://www.beckett.com/basketball/1999-00/hoops-build-your-own-card-redemptions/5c-shaquille-onealball-fhorizonal-b-8642318
p4677
asg17
g18
sg19
(lp4678
Vhttp://img.beckett.com/images/no-image.jpg
p4679
asg22
V#5c
p4680
sg24
V1999-00
p4681
sg26
g27
sg28
(lp4682
VShaquille O'Neal
p4683
aVBall
p4684
aVHorizonal
p4685
assbag1
(g2
g3
Ntp4686
Rp4687
(dp4688
g7
(dp4689
g9
V1999-00 Hoops Build Your Own Card Redemptions #5d Shaquille O'Neal/No Ball F/Body B
p4690
sg11
I250
sg12
VHoops Build Your Own Card Redemptions
p4691
sg14
(lp4692
Vhttp://www.beckett.com/basketball/1999-00/hoops-build-your-own-card-redemptions/5d-shaquille-onealno-ball-fbody-b-8642319
p4693
asg17
g18
sg19
(lp4694
Vhttp://img.beckett.com/images/no-image.jpg
p4695
asg22
V#5d
p4696
sg24
V1999-00
p4697
sg26
g27
sg28
(lp4698
VShaquille O'Neal
p4699
aVBall
p4700
aVBody
p4701
assbag1
(g2
g3
Ntp4702
Rp4703
(dp4704
g7
(dp4705
g9
V1999-00 Hoops Build Your Own Card Redemptions #5e Shaquille O'Neal/No Ball F/Head B
p4706
sg11
I250
sg12
VHoops Build Your Own Card Redemptions
p4707
sg14
(lp4708
Vhttp://www.beckett.com/basketball/1999-00/hoops-build-your-own-card-redemptions/5e-shaquille-onealno-ball-fhead-b-8642320
p4709
asg17
g18
sg19
(lp4710
Vhttp://img.beckett.com/images/no-image.jpg
p4711
asg22
V#5e
p4712
sg24
V1999-00
p4713
sg26
g27
sg28
(lp4714
VShaquille O'Neal
p4715
ag4700
aVHead
p4716
assbag1
(g2
g3
Ntp4717
Rp4718
(dp4719
g7
(dp4720
g9
V1999-00 Hoops Build Your Own Card Redemptions #5f Shaquille O'Neal/No Ball F/Horizontal B
p4721
sg11
I250
sg12
VHoops Build Your Own Card Redemptions
p4722
sg14
(lp4723
Vhttp://www.beckett.com/basketball/1999-00/hoops-build-your-own-card-redemptions/5f-shaquille-onealno-ball-fhorizontal-b-8642321
p4724
asg17
g18
sg19
(lp4725
Vhttp://img.beckett.com/images/no-image.jpg
p4726
asg22
V#5f
p4727
sg24
V1999-00
p4728
sg26
g27
sg28
(lp4729
VShaquille O'Neal
p4730
ag4700
aVHorizonal
p4731
assbag1
(g2
g3
Ntp4732
Rp4733
(dp4734
g7
(dp4735
g9
V1999-00 Hoops Build Your Own Card Redemptions #5g Shaquille O'Neal/Shoot F/Body B
p4736
sg11
I250
sg12
VHoops Build Your Own Card Redemptions
p4737
sg14
(lp4738
Vhttp://www.beckett.com/basketball/1999-00/hoops-build-your-own-card-redemptions/5g-shaquille-onealshoot-fbody-b-8642322
p4739
asg17
g18
sg19
(lp4740
Vhttp://img.beckett.com/images/no-image.jpg
p4741
asg22
V#5g
p4742
sg24
V1999-00
p4743
sg26
g27
sg28
(lp4744
VShaquille O'Neal
p4745
aVShoot
p4746
aVBody
p4747
assbag1
(g2
g3
Ntp4748
Rp4749
(dp4750
g7
(dp4751
g9
V1999-00 Hoops Build Your Own Card Redemptions #5h Shaquille O'Neal/Shoot F/Head B
p4752
sg11
I250
sg12
VHoops Build Your Own Card Redemptions
p4753
sg14
(lp4754
Vhttp://www.beckett.com/basketball/1999-00/hoops-build-your-own-card-redemptions/5h-shaquille-onealshoot-fhead-b-8642323
p4755
asg17
g18
sg19
(lp4756
Vhttp://img.beckett.com/images/no-image.jpg
p4757
asg22
V#5h
p4758
sg24
V1999-00
p4759
sg26
g27
sg28
(lp4760
VShaquille O'Neal
p4761
aVShoot
p4762
aVHead
p4763
assbag1
(g2
g3
Ntp4764
Rp4765
(dp4766
g7
(dp4767
g9
V1999-00 Hoops Build Your Own Card Redemptions #5i Shaquille O'Neal/Shoot F/Horizontal B
p4768
sg11
I250
sg12
VHoops Build Your Own Card Redemptions
p4769
sg14
(lp4770
Vhttp://www.beckett.com/basketball/1999-00/hoops-build-your-own-card-redemptions/5i-shaquille-onealshoot-fhorizontal-b-8642324
p4771
asg17
g18
sg19
(lp4772
Vhttp://img.beckett.com/images/no-image.jpg
p4773
asg22
V#5i
p4774
sg24
V1999-00
p4775
sg26
g27
sg28
(lp4776
VShaquille O'Neal
p4777
aVShoot
p4778
ag4731
assbag1
(g2
g3
Ntp4779
Rp4780
(dp4781
g7
(dp4782
g9
V1999-00 Hoops Build Your Own Card Redemptions #9a Kobe Bryant/Ball F/Body B
p4783
sg11
I250
sg12
VHoops Build Your Own Card Redemptions
p4784
sg14
(lp4785
Vhttp://www.beckett.com/basketball/1999-00/hoops-build-your-own-card-redemptions/9a-kobe-bryantball-fbody-b-8642352
p4786
asg17
g18
sg19
(lp4787
Vhttp://img.beckett.com/images/no-image.jpg
p4788
asg22
V#9a
p4789
sg24
V1999-00
p4790
sg26
g27
sg28
(lp4791
VKobe Bryant
p4792
aVBall
p4793
aVBody
p4794
assbag1
(g2
g3
Ntp4795
Rp4796
(dp4797
g7
(dp4798
g9
V1999-00 Hoops Build Your Own Card Redemptions #9b Kobe Bryant/Ball F/Head B
p4799
sg11
I250
sg12
VHoops Build Your Own Card Redemptions
p4800
sg14
(lp4801
Vhttp://www.beckett.com/basketball/1999-00/hoops-build-your-own-card-redemptions/9b-kobe-bryantball-fhead-b-8642353
p4802
asg17
g18
sg19
(lp4803
Vhttp://img.beckett.com/images/no-image.jpg
p4804
asg22
V#9b
p4805
sg24
V1999-00
p4806
sg26
g27
sg28
(lp4807
VKobe Bryant
p4808
aVBall
p4809
aVHead
p4810
assbag1
(g2
g3
Ntp4811
Rp4812
(dp4813
g7
(dp4814
g9
V1999-00 Hoops Build Your Own Card Redemptions #9c Kobe Bryant/Ball F/Horizonal B
p4815
sg11
I250
sg12
VHoops Build Your Own Card Redemptions
p4816
sg14
(lp4817
Vhttp://www.beckett.com/basketball/1999-00/hoops-build-your-own-card-redemptions/9c-kobe-bryantball-fhorizonal-b-8642354
p4818
asg17
g18
sg19
(lp4819
Vhttp://img.beckett.com/images/no-image.jpg
p4820
asg22
V#9c
p4821
sg24
V1999-00
p4822
sg26
g27
sg28
(lp4823
VKobe Bryant
p4824
aVBall
p4825
aVHorizonal
p4826
assbag1
(g2
g3
Ntp4827
Rp4828
(dp4829
g7
(dp4830
g9
V1999-00 Hoops Build Your Own Card Redemptions #9d Kobe Bryant/No Ball F/Body B
p4831
sg11
I250
sg12
VHoops Build Your Own Card Redemptions
p4832
sg14
(lp4833
Vhttp://www.beckett.com/basketball/1999-00/hoops-build-your-own-card-redemptions/9d-kobe-bryantno-ball-fbody-b-8642355
p4834
asg17
g18
sg19
(lp4835
Vhttp://img.beckett.com/images/no-image.jpg
p4836
asg22
V#9d
p4837
sg24
V1999-00
p4838
sg26
g27
sg28
(lp4839
VKobe Bryant
p4840
ag4700
aVBody
p4841
assbag1
(g2
g3
Ntp4842
Rp4843
(dp4844
g7
(dp4845
g9
V1999-00 Hoops Build Your Own Card Redemptions #9e Kobe Bryant/No Ball F/Head B
p4846
sg11
I250
sg12
VHoops Build Your Own Card Redemptions
p4847
sg14
(lp4848
Vhttp://www.beckett.com/basketball/1999-00/hoops-build-your-own-card-redemptions/9e-kobe-bryantno-ball-fhead-b-8642356
p4849
asg17
g18
sg19
(lp4850
Vhttp://img.beckett.com/images/no-image.jpg
p4851
asg22
V#9e
p4852
sg24
V1999-00
p4853
sg26
g27
sg28
(lp4854
VKobe Bryant
p4855
ag4700
aVHead
p4856
assbag1
(g2
g3
Ntp4857
Rp4858
(dp4859
g7
(dp4860
g9
V1999-00 Hoops Build Your Own Card Redemptions #9f Kobe Bryant/No Ball F/Horizontal B
p4861
sg11
I250
sg12
VHoops Build Your Own Card Redemptions
p4862
sg14
(lp4863
Vhttp://www.beckett.com/basketball/1999-00/hoops-build-your-own-card-redemptions/9f-kobe-bryantno-ball-fhorizontal-b-8642357
p4864
asg17
g18
sg19
(lp4865
Vhttp://img.beckett.com/images/no-image.jpg
p4866
asg22
V#9f
p4867
sg24
V1999-00
p4868
sg26
g27
sg28
(lp4869
VKobe Bryant
p4870
ag4700
ag4731
assbag1
(g2
g3
Ntp4871
Rp4872
(dp4873
g7
(dp4874
g9
V1999-00 Hoops Build Your Own Card Redemptions #9g Kobe Bryant/Shoot F/Body B
p4875
sg11
I250
sg12
VHoops Build Your Own Card Redemptions
p4876
sg14
(lp4877
Vhttp://www.beckett.com/basketball/1999-00/hoops-build-your-own-card-redemptions/9g-kobe-bryantshoot-fbody-b-8642358
p4878
asg17
g18
sg19
(lp4879
Vhttp://img.beckett.com/images/no-image.jpg
p4880
asg22
V#9g
p4881
sg24
V1999-00
p4882
sg26
g27
sg28
(lp4883
VKobe Bryant
p4884
aVShoot
p4885
aVBody
p4886
assbag1
(g2
g3
Ntp4887
Rp4888
(dp4889
g7
(dp4890
g9
V1999-00 Hoops Build Your Own Card Redemptions #9h Kobe Bryant/Shoot F/Head B
p4891
sg11
I250
sg12
VHoops Build Your Own Card Redemptions
p4892
sg14
(lp4893
Vhttp://www.beckett.com/basketball/1999-00/hoops-build-your-own-card-redemptions/9h-kobe-bryantshoot-fhead-b-8642359
p4894
asg17
g18
sg19
(lp4895
Vhttp://img.beckett.com/images/no-image.jpg
p4896
asg22
V#9h
p4897
sg24
V1999-00
p4898
sg26
g27
sg28
(lp4899
VKobe Bryant
p4900
aVShoot
p4901
aVHead
p4902
assbag1
(g2
g3
Ntp4903
Rp4904
(dp4905
g7
(dp4906
g9
V1999-00 Hoops Build Your Own Card Redemptions #9i Kobe Bryant/Shoot F/Horizontal B
p4907
sg11
I250
sg12
VHoops Build Your Own Card Redemptions
p4908
sg14
(lp4909
Vhttp://www.beckett.com/basketball/1999-00/hoops-build-your-own-card-redemptions/9i-kobe-bryantshoot-fhorizontal-b-8642360
p4910
asg17
g18
sg19
(lp4911
Vhttp://img.beckett.com/images/no-image.jpg
p4912
asg22
V#9i
p4913
sg24
V1999-00
p4914
sg26
g27
sg28
(lp4915
VKobe Bryant
p4916
aVShoot
p4917
ag4731
assbag1
(g2
g3
Ntp4918
Rp4919
(dp4920
g7
(dp4921
g9
V1999-00 Hoops Pure Players 100% #PP5 Kobe Bryant
p4922
sg11
I100
sg12
VHoops Pure Players 100%
p4923
sg14
(lp4924
Vhttp://www.beckett.com/basketball/1999-00/hoops-pure-players-100/pp5-kobe-bryant-3199338
p4925
asg17
g18
sg19
(lp4926
Vhttp://img.beckett.com/images/no-image.jpg
p4927
asg22
V#PP5
p4928
sg24
V1999-00
p4929
sg26
g27
sg28
(lp4930
VKobe Bryant
p4931
assbag1
(g2
g3
Ntp4932
Rp4933
(dp4934
g7
(dp4935
g9
V1999-00 Hoops Decade Draft Day Dominance Parallel #DD4 Shaquille O'Neal
p4936
sg11
I1989
sg12
VHoops Decade Draft Day Dominance Parallel
p4937
sg14
(lp4938
Vhttp://www.beckett.com/basketball/1999-00/hoops-decade-draft-day-dominance-parallel/dd4-shaquille-oneal-3197304
p4939
asg17
g18
sg19
(lp4940
Vhttp://img.beckett.com/images/items_stock/185226/3197293/3197304/front.jpg
p4941
asg22
V#DD4
p4942
sg24
V1999-00
p4943
sg26
g27
sg28
(lp4944
VShaquille O'Neal
p4945
assbag1
(g2
g3
Ntp4946
Rp4947
(dp4948
g7
(dp4949
g9
V1999-00 Hoops Decade Draft Day Dominance Parallel #DD8 Kobe Bryant
p4950
sg11
I1989
sg12
VHoops Decade Draft Day Dominance Parallel
p4951
sg14
(lp4952
Vhttp://www.beckett.com/basketball/1999-00/hoops-decade-draft-day-dominance-parallel/dd8-kobe-bryant-3197308
p4953
asg17
g18
sg19
(lp4954
Vhttp://img.beckett.com/images/items_stock/185226/3197293/3197308/front.jpg
p4955
asg22
V#DD8
p4956
sg24
V1999-00
p4957
sg26
g27
sg28
(lp4958
VKobe Bryant
p4959
assbag1
(g2
g3
Ntp4960
Rp4961
(dp4962
g7
(dp4963
g9
V1999-00 Hoops Decade Retrospection Collection Parallel #RC2 Kobe Bryant
p4964
sg11
I89
sg12
VHoops Decade Retrospection Collection Parallel
p4965
sg14
(lp4966
Vhttp://www.beckett.com/basketball/1999-00/hoops-decade-retrospection-collection-parallel/rc2-kobe-bryant-3197409
p4967
asg17
g18
sg19
(lp4968
Vhttp://img.beckett.com/images/no-image.jpg
p4969
asg22
V#RC2
p4970
sg24
V1999-00
p4971
sg26
g27
sg28
(lp4972
VKobe Bryant
p4973
assbag1
(g2
g3
Ntp4974
Rp4975
(dp4976
g7
(dp4977
g9
V1999-00 Hoops Decade Retrospection Collection Parallel #RC10 Shaquille O'Neal
p4978
sg11
I89
sg12
VHoops Decade Retrospection Collection Parallel
p4979
sg14
(lp4980
Vhttp://www.beckett.com/basketball/1999-00/hoops-decade-retrospection-collection-parallel/rc10-shaquille-oneal-3197417
p4981
asg17
g18
sg19
(lp4982
Vhttp://img.beckett.com/images/no-image.jpg
p4983
asg22
V#RC10
p4984
sg24
V1999-00
p4985
sg26
g27
sg28
(lp4986
VShaquille O'Neal
p4987
assbag1
(g2
g3
Ntp4988
Rp4989
(dp4990
g7
(dp4991
g9
V1999-00 Hoops Decade Up Tempo Parallel #UT3 Shaquille O'Neal
p4992
sg11
I1989
sg12
VHoops Decade Up Tempo Parallel
p4993
sg14
(lp4994
Vhttp://www.beckett.com/basketball/1999-00/hoops-decade-up-tempo-parallel/ut3-shaquille-oneal-3197454
p4995
asg17
g18
sg19
(lp4996
Vhttp://img.beckett.com/images/items_stock/185226/3197444/3197454/front.jpg
p4997
asg22
V#UT3
p4998
sg24
V1999-00
p4999
sg26
g27
sg28
(lp5000
VShaquille O'Neal
p5001
assbag1
(g2
g3
Ntp5002
Rp5003
(dp5004
g7
(dp5005
g9
V1999-00 SkyBox APEX Cutting Edge Warp Tek #5 Kobe Bryant
p5006
sg11
I25
sg12
VSkyBox APEX Cutting Edge Warp Tek
p5007
sg14
(lp5008
Vhttp://www.beckett.com/basketball/1999-00/skybox-apex-cutting-edge-warp-tek/5-kobe-bryant-3196725
p5009
asg17
g18
sg19
(lp5010
Vhttp://img.beckett.com/images/no-image.jpg
p5011
asg22
V#5
p5012
sg24
V1999-00
p5013
sg26
g27
sg28
(lp5014
VKobe Bryant
p5015
assbag1
(g2
g3
Ntp5016
Rp5017
(dp5018
g7
(dp5019
g9
V1999-00 SkyBox Dominion Sky's the Limit Warp Tek #8 Kobe Bryant
p5020
sg11
I25
sg12
VSkyBox Dominion Sky's the Limit Warp Tek
p5021
sg14
(lp5022
Vhttp://www.beckett.com/basketball/1999-00/skybox-dominion-skys-the-limit-warp-tek/8-kobe-bryant-3197264
p5023
asg17
g18
sg19
(lp5024
Vhttp://img.beckett.com/images/no-image.jpg
p5025
asg22
V#8
p5026
sg24
V1999-00
p5027
sg26
g27
sg28
(lp5028
VKobe Bryant
p5029
assbag1
(g2
g3
Ntp5030
Rp5031
(dp5032
g7
(dp5033
g9
V1999-00 SkyBox Dominion Sky's the Limit Warp Tek #11 Shaquille O'Neal
p5034
sg11
I25
sg12
VSkyBox Dominion Sky's the Limit Warp Tek
p5035
sg14
(lp5036
Vhttp://www.beckett.com/basketball/1999-00/skybox-dominion-skys-the-limit-warp-tek/11-shaquille-oneal-3197267
p5037
asg17
g18
sg19
(lp5038
Vhttp://img.beckett.com/images/no-image.jpg
p5039
asg22
V#11
p5040
sg24
V1999-00
p5041
sg26
g27
sg28
(lp5042
VShaquille O'Neal
p5043
assbag1
(g2
g3
Ntp5044
Rp5045
(dp5046
g7
(dp5047
g9
V1999-00 SkyBox Premium Autographics Blue #20 John Celestand
p5048
sg11
I50
sg12
VSkyBox Premium Autographics Blue
p5049
sg14
(lp5050
Vhttp://www.beckett.com/basketball/1999-00/skybox-premium-autographics-blue/20-john-celestand-3195884
p5051
asg17
g18
sg19
(lp5052
Vhttp://img.beckett.com/images/no-image.jpg
p5053
asg22
V#20
p5054
sg141
I1
sg24
V1999-00
p5055
sg26
g27
sg28
(lp5056
VJohn Celestand
p5057
assbag1
(g2
g3
Ntp5058
Rp5059
(dp5060
g7
(dp5061
g9
V1999-00 SkyBox Premium Autographics Blue #38 Devean George
p5062
sg11
I50
sg12
VSkyBox Premium Autographics Blue
p5063
sg14
(lp5064
Vhttp://www.beckett.com/basketball/1999-00/skybox-premium-autographics-blue/38-devean-george-3195902
p5065
asg17
g18
sg19
(lp5066
Vhttp://img.beckett.com/images/no-image.jpg
p5067
asg22
V#38
p5068
sg141
I1
sg24
V1999-00
p5069
sg26
g27
sg28
(lp5070
VDevean George
p5071
assbag1
(g2
g3
Ntp5072
Rp5073
(dp5074
g7
(dp5075
g9
V1999-00 SkyBox Premium Autographics Blue #65 Tyronn Lue
p5076
sg11
I50
sg12
VSkyBox Premium Autographics Blue
p5077
sg14
(lp5078
Vhttp://www.beckett.com/basketball/1999-00/skybox-premium-autographics-blue/65-tyronn-lue-3195929
p5079
asg17
g18
sg19
(lp5080
Vhttp://img.beckett.com/images/no-image.jpg
p5081
asg22
V#65
p5082
sg141
I1
sg24
V1999-00
p5083
sg26
g27
sg28
(lp5084
VTyronn Lue
p5085
assbag1
(g2
g3
Ntp5086
Rp5087
(dp5088
g7
(dp5089
g9
V1999-00 SkyBox Premium Autographics Blue #80 Shaquille O'Neal
p5090
sg11
I50
sg12
VSkyBox Premium Autographics Blue
p5091
sg14
(lp5092
Vhttp://www.beckett.com/basketball/1999-00/skybox-premium-autographics-blue/80-shaquille-oneal-3195944
p5093
asg17
g18
sg19
(lp5094
Vhttp://img.beckett.com/images/no-image.jpg
p5095
asg22
V#80
p5096
sg141
I1
sg24
V1999-00
p5097
sg26
g27
sg28
(lp5098
VShaquille O'Neal
p5099
assbag1
(g2
g3
Ntp5100
Rp5101
(dp5102
g7
(dp5103
g9
V1999-00 SkyBox Premium Autographics Blue #92 J.R. Reid
p5104
sg11
I50
sg12
VSkyBox Premium Autographics Blue
p5105
sg14
(lp5106
Vhttp://www.beckett.com/basketball/1999-00/skybox-premium-autographics-blue/92-jr-reid-3195956
p5107
asg17
g18
sg19
(lp5108
Vhttp://img.beckett.com/images/no-image.jpg
p5109
asg22
V#92
p5110
sg141
I1
sg24
V1999-00
p5111
sg26
g27
sg28
(lp5112
VJ.R. Reid
p5113
assbag1
(g2
g3
Ntp5114
Rp5115
(dp5116
g7
(dp5117
g9
V1999-00 SkyBox Premium Good Stuff Parallel #1 Kobe Bryant
p5118
sg11
I99
sg12
VSkyBox Premium Good Stuff Parallel
p5119
sg14
(lp5120
Vhttp://www.beckett.com/basketball/1999-00/skybox-premium-good-stuff-parallel/1-kobe-bryant-3196059
p5121
asg17
g18
sg19
(lp5122
Vhttp://img.beckett.com/images/no-image.jpg
p5123
asg22
V#1
p5124
sg24
V1999-00
p5125
sg26
g27
sg28
(lp5126
VKobe Bryant
p5127
assbag1
(g2
g3
Ntp5128
Rp5129
(dp5130
g7
(dp5131
g9
V1999-00 SkyBox Premium Good Stuff Parallel #10 Shaquille O'Neal
p5132
sg11
I99
sg12
VSkyBox Premium Good Stuff Parallel
p5133
sg14
(lp5134
Vhttp://www.beckett.com/basketball/1999-00/skybox-premium-good-stuff-parallel/10-shaquille-oneal-3196068
p5135
asg17
g18
sg19
(lp5136
Vhttp://img.beckett.com/images/no-image.jpg
p5137
asg22
V#10
p5138
sg24
V1999-00
p5139
sg26
g27
sg28
(lp5140
VShaquille O'Neal
p5141
assbag1
(g2
g3
Ntp5142
Rp5143
(dp5144
g7
(dp5145
g9
V1999-00 SP Authentic Sign of the Times Gold #GR Glen Rice
p5146
sg11
I25
sg12
VSP Authentic Sign of the Times Gold
p5147
sg14
(lp5148
Vhttp://www.beckett.com/basketball/1999-00/sp-authentic-sign-of-the-times-gold/gr-glen-rice-3193016
p5149
asg17
g18
sg19
(lp5150
Vhttp://img.beckett.com/images/no-image.jpg
p5151
asg22
V#GR
p5152
sg141
I1
sg24
V1999-00
p5153
sg26
g27
sg28
(lp5154
VGlen Rice
p5155
assbag1
(g2
g3
Ntp5156
Rp5157
(dp5158
g7
(dp5159
g9
V1999-00 SP Authentic Sign of the Times Gold #KB Kobe Bryant
p5160
sg11
I25
sg12
VSP Authentic Sign of the Times Gold
p5161
sg14
(lp5162
Vhttp://www.beckett.com/basketball/1999-00/sp-authentic-sign-of-the-times-gold/kb-kobe-bryant-3193024
p5163
asg17
g18
sg19
(lp5164
Vhttp://img.beckett.com/images/no-image.jpg
p5165
asg22
V#KB
p5166
sg141
I1
sg24
V1999-00
p5167
sg26
g27
sg28
(lp5168
VKobe Bryant
p5169
assbag1
(g2
g3
Ntp5170
Rp5171
(dp5172
g7
(dp5173
g9
V1999-00 Stadium Club Never Compromise Game-View #NCG17 Kobe Bryant
p5174
sg11
I100
sg12
VStadium Club Never Compromise Game-View
p5175
sg14
(lp5176
Vhttp://www.beckett.com/basketball/1999-00/stadium-club-never-compromise-game-view/ncg17-kobe-bryant-3192151
p5177
asg17
g18
sg19
(lp5178
Vhttp://img.beckett.com/images/no-image.jpg
p5179
asg22
V#NCG17
p5180
sg24
V1999-00
p5181
sg26
g27
sg28
(lp5182
VKobe Bryant
p5183
assbag1
(g2
g3
Ntp5184
Rp5185
(dp5186
g7
(dp5187
g9
V1999-00 Stadium Club Never Compromise Game-View #NCG20 Shaquille O'Neal
p5188
sg11
I100
sg12
VStadium Club Never Compromise Game-View
p5189
sg14
(lp5190
Vhttp://www.beckett.com/basketball/1999-00/stadium-club-never-compromise-game-view/ncg20-shaquille-oneal-3192154
p5191
asg17
g18
sg19
(lp5192
Vhttp://img.beckett.com/images/no-image.jpg
p5193
asg22
V#NCG20
p5194
sg24
V1999-00
p5195
sg26
g27
sg28
(lp5196
VShaquille O'Neal
p5197
assbag1
(g2
g3
Ntp5198
Rp5199
(dp5200
g7
(dp5201
g9
V1999-00 Topps Gold Label New Standard One to One #NS4 Kobe Bryant
p5202
sg11
I1
sg12
VTopps Gold Label New Standard One to One
p5203
sg14
(lp5204
Vhttp://www.beckett.com/basketball/1999-00/topps-gold-label-new-standard-one-to-one/ns4-kobe-bryant-3187583
p5205
asg17
g18
sg19
(lp5206
Vhttp://img.beckett.com/images/no-image.jpg
p5207
asg22
V#NS4
p5208
sg24
V1999-00
p5209
sg26
g27
sg28
(lp5210
VKobe Bryant
p5211
assbag1
(g2
g3
Ntp5212
Rp5213
(dp5214
g7
(dp5215
g9
V1999-00 Topps Gold Label New Standard Red Label #NS4 Kobe Bryant
p5216
sg11
I25
sg12
VTopps Gold Label New Standard Red Label
p5217
sg14
(lp5218
Vhttp://www.beckett.com/basketball/1999-00/topps-gold-label-new-standard-red-label/ns4-kobe-bryant-3187607
p5219
asg17
g18
sg19
(lp5220
Vhttp://img.beckett.com/images/no-image.jpg
p5221
asg22
V#NS4
p5222
sg24
V1999-00
p5223
sg26
g27
sg28
(lp5224
VKobe Bryant
p5225
assbag1
(g2
g3
Ntp5226
Rp5227
(dp5228
g7
(dp5229
g9
V1999-00 Topps Gold Label Prime Gold One to One #PG4 Shaquille O'Neal
p5230
sg11
I1
sg12
VTopps Gold Label Prime Gold One to One
p5231
sg14
(lp5232
Vhttp://www.beckett.com/basketball/1999-00/topps-gold-label-prime-gold-one-to-one/pg4-shaquille-oneal-3187671
p5233
asg17
g18
sg19
(lp5234
Vhttp://img.beckett.com/images/no-image.jpg
p5235
asg22
V#PG4
p5236
sg24
V1999-00
p5237
sg26
g27
sg28
(lp5238
VShaquille O'Neal
p5239
assbag1
(g2
g3
Ntp5240
Rp5241
(dp5242
g7
(dp5243
g9
V1999-00 Topps Gold Label Prime Gold Red Label #PG4 Shaquille O'Neal
p5244
sg11
I25
sg12
VTopps Gold Label Prime Gold Red Label
p5245
sg14
(lp5246
Vhttp://www.beckett.com/basketball/1999-00/topps-gold-label-prime-gold-red-label/pg4-shaquille-oneal-3187690
p5247
asg17
g18
sg19
(lp5248
Vhttp://img.beckett.com/images/no-image.jpg
p5249
asg22
V#PG4
p5250
sg24
V1999-00
p5251
sg26
g27
sg28
(lp5252
VShaquille O'Neal
p5253
assbag1
(g2
g3
Ntp5254
Rp5255
(dp5256
g7
(dp5257
g9
V1999-00 Upper Deck BioGraphics Level 1 #B19 Glen Rice
p5258
sg11
I100
sg12
VUpper Deck BioGraphics Level 1
p5259
sg14
(lp5260
Vhttp://www.beckett.com/basketball/1999-00/upper-deck-biographics-level-1/b19-glen-rice-3187325
p5261
asg17
g18
sg19
(lp5262
Vhttp://img.beckett.com/images/no-image.jpg
p5263
asg22
V#B19
p5264
sg24
V1999-00
p5265
sg26
g27
sg28
(lp5266
VGlen Rice
p5267
assbag1
(g2
g3
Ntp5268
Rp5269
(dp5270
g7
(dp5271
g9
V1999-00 Upper Deck BioGraphics Level 2 #B19 Glen Rice
p5272
sg11
I25
sg12
VUpper Deck BioGraphics Level 2
p5273
sg14
(lp5274
Vhttp://www.beckett.com/basketball/1999-00/upper-deck-biographics-level-2/b19-glen-rice-3187363
p5275
asg17
g18
sg19
(lp5276
Vhttp://img.beckett.com/images/no-image.jpg
p5277
asg22
V#B19
p5278
sg24
V1999-00
p5279
sg26
g27
sg28
(lp5280
VGlen Rice
p5281
assbag1
(g2
g3
Ntp5282
Rp5283
(dp5284
g7
(dp5285
g9
V1999-00 Upper Deck High Definition Level 1 #HD8 Kobe Bryant
p5286
sg11
I100
sg12
VUpper Deck High Definition Level 1
p5287
sg14
(lp5288
Vhttp://www.beckett.com/basketball/1999-00/upper-deck-high-definition-level-1/hd8-kobe-bryant-3185197
p5289
asg17
g18
sg19
(lp5290
Vhttp://img.beckett.com/images/no-image.jpg
p5291
asg22
V#HD8
p5292
sg24
V1999-00
p5293
sg26
g27
sg28
(lp5294
VKobe Bryant
p5295
assbag1
(g2
g3
Ntp5296
Rp5297
(dp5298
g7
(dp5299
g9
V1999-00 Upper Deck High Definition Level 1 #HD18 Shaquille O'Neal
p5300
sg11
I100
sg12
VUpper Deck High Definition Level 1
p5301
sg14
(lp5302
Vhttp://www.beckett.com/basketball/1999-00/upper-deck-high-definition-level-1/hd18-shaquille-oneal-3185207
p5303
asg17
g18
sg19
(lp5304
Vhttp://img.beckett.com/images/items_stock/185226/3185182/3185207/front.jpg
p5305
asg22
V#HD18
p5306
sg24
V1999-00
p5307
sg26
g27
sg28
(lp5308
VShaquille O'Neal
p5309
assbag1
(g2
g3
Ntp5310
Rp5311
(dp5312
g7
(dp5313
g9
V1999-00 Upper Deck High Definition Level 2 #HD8 Kobe Bryant
p5314
sg11
I25
sg12
VUpper Deck High Definition Level 2
p5315
sg14
(lp5316
Vhttp://www.beckett.com/basketball/1999-00/upper-deck-high-definition-level-2/hd8-kobe-bryant-3185225
p5317
asg17
g18
sg19
(lp5318
Vhttp://img.beckett.com/images/no-image.jpg
p5319
asg22
V#HD8
p5320
sg24
V1999-00
p5321
sg26
g27
sg28
(lp5322
VKobe Bryant
p5323
assbag1
(g2
g3
Ntp5324
Rp5325
(dp5326
g7
(dp5327
g9
V1999-00 Upper Deck High Definition Level 2 #HD18 Shaquille O'Neal
p5328
sg11
I25
sg12
VUpper Deck High Definition Level 2
p5329
sg14
(lp5330
Vhttp://www.beckett.com/basketball/1999-00/upper-deck-high-definition-level-2/hd18-shaquille-oneal-3185235
p5331
asg17
g18
sg19
(lp5332
Vhttp://img.beckett.com/images/no-image.jpg
p5333
asg22
V#HD18
p5334
sg24
V1999-00
p5335
sg26
g27
sg28
(lp5336
VShaquille O'Neal
p5337
assbag1
(g2
g3
Ntp5338
Rp5339
(dp5340
g7
(dp5341
g9
V1999-00 Upper Deck History Class Level 1 #HC7 Jerry West
p5342
sg11
I100
sg12
VUpper Deck History Class Level 1
p5343
sg14
(lp5344
Vhttp://www.beckett.com/basketball/1999-00/upper-deck-history-class-level-1/hc7-jerry-west-3185282
p5345
asg17
g18
sg19
(lp5346
Vhttp://img.beckett.com/images/items_stock/185226/3185268/3185282/front.jpg
p5347
asg22
V#HC7
p5348
sg24
V1999-00
p5349
sg26
g27
sg28
(lp5350
VJerry West
p5351
assbag1
(g2
g3
Ntp5352
Rp5353
(dp5354
g7
(dp5355
g9
V1999-00 Upper Deck History Class Level 2 #HC7 Jerry West
p5356
sg11
I25
sg12
VUpper Deck History Class Level 2
p5357
sg14
(lp5358
Vhttp://www.beckett.com/basketball/1999-00/upper-deck-history-class-level-2/hc7-jerry-west-3185310
p5359
asg17
g18
sg19
(lp5360
Vhttp://img.beckett.com/images/no-image.jpg
p5361
asg22
V#HC7
p5362
sg24
V1999-00
p5363
sg26
g27
sg28
(lp5364
VJerry West
p5365
assbag1
(g2
g3
Ntp5366
Rp5367
(dp5368
g7
(dp5369
g9
V1999-00 Upper Deck Jamboree Level 1 #J8 Kobe Bryant
p5370
sg11
I100
sg12
VUpper Deck Jamboree Level 1
p5371
sg14
(lp5372
Vhttp://www.beckett.com/basketball/1999-00/upper-deck-jamboree-level-1/j8-kobe-bryant-3185368
p5373
asg17
g18
sg19
(lp5374
Vhttp://img.beckett.com/images/no-image.jpg
p5375
asg22
V#J8
p5376
sg24
V1999-00
p5377
sg26
g27
sg28
(lp5378
VKobe Bryant
p5379
assbag1
(g2
g3
Ntp5380
Rp5381
(dp5382
g7
(dp5383
g9
V1999-00 Upper Deck Jamboree Level 2 #J8 Kobe Bryant
p5384
sg11
I25
sg12
VUpper Deck Jamboree Level 2
p5385
sg14
(lp5386
Vhttp://www.beckett.com/basketball/1999-00/upper-deck-jamboree-level-2/j8-kobe-bryant-3185391
p5387
asg17
g18
sg19
(lp5388
Vhttp://img.beckett.com/images/no-image.jpg
p5389
asg22
V#J8
p5390
sg24
V1999-00
p5391
sg26
g27
sg28
(lp5392
VKobe Bryant
p5393
assbag1
(g2
g3
Ntp5394
Rp5395
(dp5396
g7
(dp5397
g9
V1999-00 Upper Deck Now Showing Level 1 #NS13 Shaquille O'Neal
p5398
sg11
I100
sg12
VUpper Deck Now Showing Level 1
p5399
sg14
(lp5400
Vhttp://www.beckett.com/basketball/1999-00/upper-deck-now-showing-level-1/ns13-shaquille-oneal-3184282
p5401
asg17
g18
sg19
(lp5402
Vhttp://img.beckett.com/images/no-image.jpg
p5403
asg22
V#NS13
p5404
sg24
V1999-00
p5405
sg26
g27
sg28
(lp5406
VShaquille O'Neal
p5407
assbag1
(g2
g3
Ntp5408
Rp5409
(dp5410
g7
(dp5411
g9
V1999-00 Upper Deck Now Showing Level 2 #NS13 Shaquille O'Neal
p5412
sg11
I25
sg12
VUpper Deck Now Showing Level 2
p5413
sg14
(lp5414
Vhttp://www.beckett.com/basketball/1999-00/upper-deck-now-showing-level-2/ns13-shaquille-oneal-3184320
p5415
asg17
g18
sg19
(lp5416
Vhttp://img.beckett.com/images/no-image.jpg
p5417
asg22
V#NS13
p5418
sg24
V1999-00
p5419
sg26
g27
sg28
(lp5420
VShaquille O'Neal
p5421
assbag1
(g2
g3
Ntp5422
Rp5423
(dp5424
g7
(dp5425
g9
V1999-00 Upper Deck Star Surge Level 1 #S9 Shaquille O'Neal
p5426
sg11
I100
sg12
VUpper Deck Star Surge Level 1
p5427
sg14
(lp5428
Vhttp://www.beckett.com/basketball/1999-00/upper-deck-star-surge-level-1/s9-shaquille-oneal-3184480
p5429
asg17
g18
sg19
(lp5430
Vhttp://img.beckett.com/images/items_stock/185226/3184464/3184480/front.jpg
p5431
asg22
V#S9
p5432
sg24
V1999-00
p5433
sg26
g27
sg28
(lp5434
VShaquille O'Neal
p5435
assbag1
(g2
g3
Ntp5436
Rp5437
(dp5438
g7
(dp5439
g9
V1999-00 Upper Deck Star Surge Level 2 #S9 Shaquille O'Neal
p5440
sg11
I25
sg12
VUpper Deck Star Surge Level 2
p5441
sg14
(lp5442
Vhttp://www.beckett.com/basketball/1999-00/upper-deck-star-surge-level-2/s9-shaquille-oneal-3184503
p5443
asg17
g18
sg19
(lp5444
Vhttp://img.beckett.com/images/no-image.jpg
p5445
asg22
V#S9
p5446
sg24
V1999-00
p5447
sg26
g27
sg28
(lp5448
VShaquille O'Neal
p5449
assbag1
(g2
g3
Ntp5450
Rp5451
(dp5452
g7
(dp5453
g9
V1999-00 Upper Deck Wild! Level 1 #W1 Kobe Bryant
p5454
sg11
I100
sg12
VUpper Deck Wild! Level 1
p5455
sg14
(lp5456
Vhttp://www.beckett.com/basketball/1999-00/upper-deck-wild-level-1/w1-kobe-bryant-3184552
p5457
asg17
g18
sg19
(lp5458
Vhttp://img.beckett.com/images/no-image.jpg
p5459
asg22
V#W1
p5460
sg24
V1999-00
p5461
sg26
g27
sg28
(lp5462
VKobe Bryant
p5463
assbag1
(g2
g3
Ntp5464
Rp5465
(dp5466
g7
(dp5467
g9
V1999-00 Upper Deck Wild! Level 2 #W1 Kobe Bryant
p5468
sg11
I25
sg12
VUpper Deck Wild! Level 2
p5469
sg14
(lp5470
Vhttp://www.beckett.com/basketball/1999-00/upper-deck-wild-level-2/w1-kobe-bryant-3184579
p5471
asg17
g18
sg19
(lp5472
Vhttp://img.beckett.com/images/no-image.jpg
p5473
asg22
V#W1
p5474
sg24
V1999-00
p5475
sg26
g27
sg28
(lp5476
VKobe Bryant
p5477
assbag1
(g2
g3
Ntp5478
Rp5479
(dp5480
g7
(dp5481
g9
V1999-00 Upper Deck Encore Electric Currents F/X #EC8 Kobe Bryant
p5482
sg11
I150
sg12
VUpper Deck Encore Electric Currents F/X
p5483
sg14
(lp5484
Vhttp://www.beckett.com/basketball/1999-00/upper-deck-encore-electric-currents-fx/ec8-kobe-bryant-3184776
p5485
asg17
g18
sg19
(lp5486
Vhttp://img.beckett.com/images/no-image.jpg
p5487
asg22
V#EC8
p5488
sg24
V1999-00
p5489
sg26
g27
sg28
(lp5490
VKobe Bryant
p5491
assbag1
(g2
g3
Ntp5492
Rp5493
(dp5494
g7
(dp5495
g9
V1999-00 Upper Deck Encore Upper Realm F/X #UR2 Kobe Bryant
p5496
sg11
I150
sg12
VUpper Deck Encore Upper Realm F/X
p5497
sg14
(lp5498
Vhttp://www.beckett.com/basketball/1999-00/upper-deck-encore-upper-realm-fx/ur2-kobe-bryant-3183284
p5499
asg17
g18
sg19
(lp5500
Vhttp://img.beckett.com/images/no-image.jpg
p5501
asg22
V#UR2
p5502
sg24
V1999-00
p5503
sg26
g27
sg28
(lp5504
VKobe Bryant
p5505
assbag1
(g2
g3
Ntp5506
Rp5507
(dp5508
g7
(dp5509
g9
V1999-00 Upper Deck Encore Upper Realm F/X #UR10 Shaquille O'Neal
p5510
sg11
I150
sg12
VUpper Deck Encore Upper Realm F/X
p5511
sg14
(lp5512
Vhttp://www.beckett.com/basketball/1999-00/upper-deck-encore-upper-realm-fx/ur10-shaquille-oneal-3183292
p5513
asg17
g18
sg19
(lp5514
Vhttp://img.beckett.com/images/no-image.jpg
p5515
asg22
V#UR10
p5516
sg24
V1999-00
p5517
sg26
g27
sg28
(lp5518
VShaquille O'Neal
p5519
assbag1
(g2
g3
Ntp5520
Rp5521
(dp5522
g7
(dp5523
g9
V1999-00 Upper Deck Retro Distant Replay Parallel #D2 Kareem Abdul-Jabbar
p5524
sg11
I100
sg12
VUpper Deck Retro Distant Replay Parallel
p5525
sg14
(lp5526
Vhttp://www.beckett.com/basketball/1999-00/upper-deck-retro-distant-replay-parallel/d2-kareem-abdul-jabbar-3181763
p5527
asg17
g18
sg19
(lp5528
Vhttp://img.beckett.com/images/no-image.jpg
p5529
asg22
V#D2
p5530
sg24
V1999-00
p5531
sg26
g27
sg28
(lp5532
VKareem Abdul-Jabbar
p5533
assbag1
(g2
g3
Ntp5534
Rp5535
(dp5536
g7
(dp5537
g9
V1999-00 Upper Deck Retro Distant Replay Parallel #D8 Jerry West
p5538
sg11
I100
sg12
VUpper Deck Retro Distant Replay Parallel
p5539
sg14
(lp5540
Vhttp://www.beckett.com/basketball/1999-00/upper-deck-retro-distant-replay-parallel/d8-jerry-west-3181769
p5541
asg17
g18
sg19
(lp5542
Vhttp://img.beckett.com/images/no-image.jpg
p5543
asg22
V#D8
p5544
sg24
V1999-00
p5545
sg26
g27
sg28
(lp5546
VJerry West
p5547
assbag1
(g2
g3
Ntp5548
Rp5549
(dp5550
g7
(dp5551
g9
V1999-00 Upper Deck Retro Distant Replay Parallel #D10 Elgin Baylor
p5552
sg11
I100
sg12
VUpper Deck Retro Distant Replay Parallel
p5553
sg14
(lp5554
Vhttp://www.beckett.com/basketball/1999-00/upper-deck-retro-distant-replay-parallel/d10-elgin-baylor-3181771
p5555
asg17
g18
sg19
(lp5556
Vhttp://img.beckett.com/images/no-image.jpg
p5557
asg22
V#D10
p5558
sg24
V1999-00
p5559
sg26
g27
sg28
(lp5560
VElgin Baylor
p5561
assbag1
(g2
g3
Ntp5562
Rp5563
(dp5564
g7
(dp5565
g9
V1999-00 Upper Deck Retro Inkredible Level 2 #GR Glen Rice/41
p5566
sg11
I41
sg12
VUpper Deck Retro Inkredible Level 2
p5567
sg14
(lp5568
Vhttp://www.beckett.com/basketball/1999-00/upper-deck-retro-inkredible-level-2/gr-glen-rice41-3180086
p5569
asg17
g18
sg19
(lp5570
Vhttp://img.beckett.com/images/no-image.jpg
p5571
asg22
V#GR
p5572
sg141
I1
sg24
V1999-00
p5573
sg26
g27
sg28
(lp5574
VGlen Rice
p5575
assbag1
(g2
g3
Ntp5576
Rp5577
(dp5578
g7
(dp5579
g9
V1999-00 Upper Deck Retro Inkredible Level 2 #JW Jerry West/44
p5580
sg11
I44
sg12
VUpper Deck Retro Inkredible Level 2
p5581
sg14
(lp5582
Vhttp://www.beckett.com/basketball/1999-00/upper-deck-retro-inkredible-level-2/jw-jerry-west44-3180090
p5583
asg17
g18
sg19
(lp5584
Vhttp://img.beckett.com/images/no-image.jpg
p5585
asg22
V#JW
p5586
sg141
I1
sg24
V1999-00
p5587
sg26
g27
sg28
(lp5588
VJerry West
p5589
assbag1
(g2
g3
Ntp5590
Rp5591
(dp5592
g7
(dp5593
g9
V1999-00 Upper Deck Retro Inkredible Level 2 #WC Wilt Chamberlain/13
p5594
sg11
I13
sg12
VUpper Deck Retro Inkredible Level 2
p5595
sg14
(lp5596
Vhttp://www.beckett.com/basketball/1999-00/upper-deck-retro-inkredible-level-2/wc-wilt-chamberlain13-3180100
p5597
asg17
g18
sg19
(lp5598
Vhttp://img.beckett.com/images/no-image.jpg
p5599
asg22
V#WC
p5600
sg141
I1
sg24
V1999-00
p5601
sg26
g27
sg28
(lp5602
VWilt Chamberlain
p5603
assbag1
(g2
g3
Ntp5604
Rp5605
(dp5606
g7
(dp5607
g9
V1999-00 Upper Deck Retro Old School/New School Parallel #S2 Wilt Chamberlain
p5608
sg11
I500
sg12
VUpper Deck Retro Old School/New School Parallel
p5609
sg14
(lp5610
Vhttp://www.beckett.com/basketball/1999-00/upper-deck-retro-old-schoolnew-school-parallel/s2-wilt-chamberlain-3180167
p5611
asg17
g18
sg19
(lp5612
Vhttp://img.beckett.com/images/no-image.jpg
p5613
asg22
V#S2
p5614
sg24
V1999-00
p5615
sg26
g27
sg28
(lp5616
VWilt Chamberlain
p5617
assbag1
(g2
g3
Ntp5618
Rp5619
(dp5620
g7
(dp5621
g9
V1999-00 Upper Deck Retro Old School/New School Parallel #S7 Elgin Baylor
p5622
sg11
I500
sg12
VUpper Deck Retro Old School/New School Parallel
p5623
sg14
(lp5624
Vhttp://www.beckett.com/basketball/1999-00/upper-deck-retro-old-schoolnew-school-parallel/s7-elgin-baylor-3180172
p5625
asg17
g18
sg19
(lp5626
Vhttp://img.beckett.com/images/no-image.jpg
p5627
asg22
V#S7
p5628
sg24
V1999-00
p5629
sg26
g27
sg28
(lp5630
VElgin Baylor
p5631
assbag1
(g2
g3
Ntp5632
Rp5633
(dp5634
g7
(dp5635
g9
V1999-00 Upper Deck Retro Old School/New School Parallel #S9 Jerry West
p5636
sg11
I500
sg12
VUpper Deck Retro Old School/New School Parallel
p5637
sg14
(lp5638
Vhttp://www.beckett.com/basketball/1999-00/upper-deck-retro-old-schoolnew-school-parallel/s9-jerry-west-3180174
p5639
asg17
g18
sg19
(lp5640
Vhttp://img.beckett.com/images/no-image.jpg
p5641
asg22
V#S9
p5642
sg24
V1999-00
p5643
sg26
g27
sg28
(lp5644
VJerry West
p5645
assbag1
(g2
g3
Ntp5646
Rp5647
(dp5648
g7
(dp5649
g9
V1999-00 Upper Deck Retro Old School/New School Parallel #S14 Kareem Abdul-Jabbar
p5650
sg11
I500
sg12
VUpper Deck Retro Old School/New School Parallel
p5651
sg14
(lp5652
Vhttp://www.beckett.com/basketball/1999-00/upper-deck-retro-old-schoolnew-school-parallel/s14-kareem-abdul-jabbar-3180179
p5653
asg17
g18
sg19
(lp5654
Vhttp://img.beckett.com/images/no-image.jpg
p5655
asg22
V#S14
p5656
sg24
V1999-00
p5657
sg26
g27
sg28
(lp5658
VKareem Abdul-Jabbar
p5659
assbag1
(g2
g3
Ntp5660
Rp5661
(dp5662
g7
(dp5663
g9
V1999-00 Upper Deck Retro Old School/New School Parallel #S16 Kobe Bryant
p5664
sg11
I500
sg12
VUpper Deck Retro Old School/New School Parallel
p5665
sg14
(lp5666
Vhttp://www.beckett.com/basketball/1999-00/upper-deck-retro-old-schoolnew-school-parallel/s16-kobe-bryant-3180181
p5667
asg17
g18
sg19
(lp5668
Vhttp://img.beckett.com/images/no-image.jpg
p5669
asg22
V#S16
p5670
sg24
V1999-00
p5671
sg26
g27
sg28
(lp5672
VKobe Bryant
p5673
assbag1
(g2
g3
Ntp5674
Rp5675
(dp5676
g7
(dp5677
g9
V1999-00 Upper Deck Retro Old School/New School Parallel #S19 Shaquille O'Neal
p5678
sg11
I500
sg12
VUpper Deck Retro Old School/New School Parallel
p5679
sg14
(lp5680
Vhttp://www.beckett.com/basketball/1999-00/upper-deck-retro-old-schoolnew-school-parallel/s19-shaquille-oneal-3180184
p5681
asg17
g18
sg19
(lp5682
Vhttp://img.beckett.com/images/no-image.jpg
p5683
asg22
V#S19
p5684
sg24
V1999-00
p5685
sg26
g27
sg28
(lp5686
VShaquille O'Neal
p5687
assba.