(lp0
Naccopy_reg
_reconstructor
p1
(ctutorial.items
BeckettItem
p2
c__builtin__
object
p3
Ntp4
Rp5
(dp6
S'_values'
p7
(dp8
S'originalItemDescription'
p9
V1999 Upper Deck Century Legends Century Collection #55 Stephon Marbury
p10
sS'serialNumber'
p11
I100
sS'setName'
p12
VUpper Deck Century Legends Century Collection
p13
sS'beckettLink'
p14
(lp15
Vhttp://www.beckett.com/basketball/1999/upper-deck-century-legends-century-collection/55-stephon-marbury-3175485
p16
asS'team'
p17
S'New Jersey Nets'
p18
sS'imageLink'
p19
(lp20
Vhttp://img.beckett.com/images/no-image.jpg
p21
asS'cardNumber'
p22
V#55
p23
sS'year'
p24
V1999
p25
sS'sport'
p26
S'Basketball'
p27
sS'playerNames'
p28
(lp29
VStephon Marbury
p30
assbag1
(g2
g3
Ntp31
Rp32
(dp33
g7
(dp34
g9
V1999 Upper Deck Century Legends Century Collection #65 Keith Van Horn
p35
sg11
I100
sg12
VUpper Deck Century Legends Century Collection
p36
sg14
(lp37
Vhttp://www.beckett.com/basketball/1999/upper-deck-century-legends-century-collection/65-keith-van-horn-3175495
p38
asg17
g18
sg19
(lp39
Vhttp://img.beckett.com/images/no-image.jpg
p40
asg22
V#65
p41
sg24
V1999
p42
sg26
g27
sg28
(lp43
VKeith Van Horn
p44
assbag1
(g2
g3
Ntp45
Rp46
(dp47
g7
(dp48
g9
V1999-00 E-X #89 Evan Eschmeyer RC
p49
sg11
I3499
sg12
VE-X
p50
sg14
(lp51
Vhttp://www.beckett.com/basketball/1999-00/e-x/89-evan-eschmeyer-rc-3205150
p52
asg17
g18
sS'rookieCard'
p53
I1
sg19
(lp54
Vhttp://img.beckett.com/images/no-image.jpg
p55
asg22
V#89
p56
sg24
V1999-00
p57
sg26
g27
sg28
(lp58
VEvan Eschmeyer
p59
assbag1
(g2
g3
Ntp60
Rp61
(dp62
g7
(dp63
g9
V1999-00 Flair Showcase #122 Evan Eschmeyer RC
p64
sg11
I2000
sg12
VFlair Showcase
p65
sg14
(lp66
Vhttp://www.beckett.com/basketball/1999-00/flair-showcase/122-evan-eschmeyer-rc-3202906
p67
asg17
g18
sg53
I1
sg19
(lp68
Vhttp://img.beckett.com/images/no-image.jpg
p69
asg22
V#122
p70
sg24
V1999-00
p71
sg26
g27
sg28
(lp72
VEvan Eschmeyer
p73
assbag1
(g2
g3
Ntp74
Rp75
(dp76
g7
(dp77
g9
V1999-00 Fleer Focus #132 Evan Eschmeyer RC
p78
sg11
I3000
sg12
VFleer Focus
p79
sg14
(lp80
Vhttp://www.beckett.com/basketball/1999-00/fleer-focus/132-evan-eschmeyer-rc-3202017
p81
asg17
g18
sg53
I1
sg19
(lp82
Vhttp://img.beckett.com/images/no-image.jpg
p83
asg22
V#132
p84
sg24
V1999-00
p85
sg26
g27
sg28
(lp86
VEvan Eschmeyer
p87
assbag1
(g2
g3
Ntp88
Rp89
(dp90
g7
(dp91
g9
V1999-00 Fleer Focus #132A Evan Eschmeyer SP
p92
sg11
I999
sg12
VFleer Focus
p93
sg14
(lp94
Vhttp://www.beckett.com/basketball/1999-00/fleer-focus/132a-evan-eschmeyer-sp-3202018
p95
asg17
g18
sg19
(lp96
Vhttp://img.beckett.com/images/no-image.jpg
p97
asg22
V#132A
p98
sg24
V1999-00
p99
sS'subsetName'
p100
VSP
p101
sg26
g27
sg28
(lp102
VEvan Eschmeyer
p103
assbag1
(g2
g3
Ntp104
Rp105
(dp106
g7
(dp107
g9
V1999-00 Fleer Mystique #146 Keith Van Horn STAR
p108
sg11
I2500
sg12
VFleer Mystique
p109
sg14
(lp110
Vhttp://www.beckett.com/basketball/1999-00/fleer-mystique/146-keith-van-horn-star-3198480
p111
asg17
g18
sg19
(lp112
Vhttp://img.beckett.com/images/items_stock/185226/3198320/3198480/front.jpg
p113
asg22
V#146
p114
sg24
V1999-00
p115
sg100
VSTAR
p116
sg26
g27
sg28
(lp117
VKeith Van Horn
p118
assbag1
(g2
g3
Ntp119
Rp120
(dp121
g7
(dp122
g9
V1999-00 Fleer Mystique #148 Stephon Marbury STAR
p123
sg11
I2500
sg12
VFleer Mystique
p124
sg14
(lp125
Vhttp://www.beckett.com/basketball/1999-00/fleer-mystique/148-stephon-marbury-star-3198482
p126
asg17
g18
sg19
(lp127
Vhttp://img.beckett.com/images/items_stock/185226/3198320/3198482/front.jpg
p128
asg22
V#148
p129
sg24
V1999-00
p130
sg100
VSTAR
p131
sg26
g27
sg28
(lp132
VStephon Marbury
p133
assbag1
(g2
g3
Ntp134
Rp135
(dp136
g7
(dp137
g9
V1999-00 SkyBox APEX #NNO Keith Van Horn/50/Autographed Jersey
p138
sg11
I50
sg12
VSkyBox APEX
p139
sg14
(lp140
Vhttp://www.beckett.com/basketball/1999-00/skybox-apex/nno-keith-van-horn50autographed-jersey-3198124
p141
asg17
g18
sS'memorabilia'
p142
I1
sg19
(lp143
Vhttp://img.beckett.com/images/no-image.jpg
p144
asg22
V#NNO
p145
sS'autograph'
p146
I1
sg24
V1999-00
p147
sg26
g27
sg28
(lp148
VKeith Van Horn
p149
aVAutographed Jersey
p150
assbag1
(g2
g3
Ntp151
Rp152
(dp153
g7
(dp154
g9
V1999-00 SP Authentic #132 Evan Eschmeyer RC
p155
sg11
I1500
sg12
VSP Authentic
p156
sg14
(lp157
Vhttp://www.beckett.com/basketball/1999-00/sp-authentic/132-evan-eschmeyer-rc-3196277
p158
asg17
g18
sg53
I1
sg19
(lp159
Vhttp://img.beckett.com/images/no-image.jpg
p160
asg22
V#132
p161
sg24
V1999-00
p162
sg26
g27
sg28
(lp163
VEvan Eschmeyer
p164
assbag1
(g2
g3
Ntp165
Rp166
(dp167
g7
(dp168
g9
V1999-00 SPx #119 Evan Eschmeyer AU/2500 RC
p169
sg11
I2500
sg12
VSPx
p170
sg14
(lp171
Vhttp://www.beckett.com/basketball/1999-00/spx/119-evan-eschmeyer-au2500-rc-3193199
p172
asg17
g18
sg53
I1
sg19
(lp173
Vhttp://img.beckett.com/images/items_stock/185226/3193067/3193199/front.jpg
p174
asg22
V#119
p175
sg146
I1
sg24
V1999-00
p176
sg26
g27
sg28
(lp177
VEvan Eschmeyer
p178
assbag1
(g2
g3
Ntp179
Rp180
(dp181
g7
(dp182
g9
V1999-00 Upper Deck Encore #113 Evan Eschmeyer RC
p183
sg11
I1999
sg12
VUpper Deck Encore
p184
sg14
(lp185
Vhttp://www.beckett.com/basketball/1999-00/upper-deck-encore/113-evan-eschmeyer-rc-3184722
p186
asg17
g18
sg53
I1
sg19
(lp187
Vhttp://img.beckett.com/images/items_stock/185226/3184598/3184722/front.jpg
p188
asg22
V#113
p189
sg24
V1999-00
p190
sg26
g27
sg28
(lp191
VEvan Eschmeyer
p192
assbag1
(g2
g3
Ntp193
Rp194
(dp195
g7
(dp196
g9
V1999-00 Black Diamond Final Cut #50 Stephon Marbury
p197
sg11
I100
sg12
VBlack Diamond Final Cut
p198
sg14
(lp199
Vhttp://www.beckett.com/basketball/1999-00/black-diamond-final-cut/50-stephon-marbury-3205724
p200
asg17
g18
sg19
(lp201
Vhttp://img.beckett.com/images/no-image.jpg
p202
asg22
V#50
p203
sg24
V1999-00
p204
sg26
g27
sg28
(lp205
VStephon Marbury
p206
assbag1
(g2
g3
Ntp207
Rp208
(dp209
g7
(dp210
g9
V1999-00 Black Diamond Final Cut #51 Jayson Williams
p211
sg11
I100
sg12
VBlack Diamond Final Cut
p212
sg14
(lp213
Vhttp://www.beckett.com/basketball/1999-00/black-diamond-final-cut/51-jayson-williams-3205725
p214
asg17
g18
sg19
(lp215
Vhttp://img.beckett.com/images/no-image.jpg
p216
asg22
V#51
p217
sg24
V1999-00
p218
sg26
g27
sg28
(lp219
VJayson Williams
p220
assbag1
(g2
g3
Ntp221
Rp222
(dp223
g7
(dp224
g9
V1999-00 Black Diamond Final Cut #52 Keith Van Horn
p225
sg11
I100
sg12
VBlack Diamond Final Cut
p226
sg14
(lp227
Vhttp://www.beckett.com/basketball/1999-00/black-diamond-final-cut/52-keith-van-horn-3205726
p228
asg17
g18
sg19
(lp229
Vhttp://img.beckett.com/images/no-image.jpg
p230
asg22
V#52
p231
sg24
V1999-00
p232
sg26
g27
sg28
(lp233
VKeith Van Horn
p234
assbag1
(g2
g3
Ntp235
Rp236
(dp237
g7
(dp238
g9
V1999-00 Bowman's Best Atomic Refractors #5 Stephon Marbury
p239
sg11
I100
sg12
VBowman's Best Atomic Refractors
p240
sg14
(lp241
Vhttp://www.beckett.com/basketball/1999-00/bowmans-best-atomic-refractors/5-stephon-marbury-3204792
p242
asg17
g18
sg19
(lp243
Vhttp://img.beckett.com/images/no-image.jpg
p244
asg22
V#5
p245
sg24
V1999-00
p246
sg26
g27
sg28
(lp247
VStephon Marbury
p248
assbag1
(g2
g3
Ntp249
Rp250
(dp251
g7
(dp252
g9
V1999-00 Bowman's Best Atomic Refractors #50 Keith Van Horn
p253
sg11
I100
sg12
VBowman's Best Atomic Refractors
p254
sg14
(lp255
Vhttp://www.beckett.com/basketball/1999-00/bowmans-best-atomic-refractors/50-keith-van-horn-3204837
p256
asg17
g18
sg19
(lp257
Vhttp://img.beckett.com/images/no-image.jpg
p258
asg22
V#50
p259
sg24
V1999-00
p260
sg26
g27
sg28
(lp261
VKeith Van Horn
p262
assbag1
(g2
g3
Ntp263
Rp264
(dp265
g7
(dp266
g9
V1999-00 Bowman's Best Atomic Refractors #67 Kerry Kittles
p267
sg11
I100
sg12
VBowman's Best Atomic Refractors
p268
sg14
(lp269
Vhttp://www.beckett.com/basketball/1999-00/bowmans-best-atomic-refractors/67-kerry-kittles-3204854
p270
asg17
g18
sg19
(lp271
Vhttp://img.beckett.com/images/no-image.jpg
p272
asg22
V#67
p273
sg24
V1999-00
p274
sg26
g27
sg28
(lp275
VKerry Kittles
p276
assbag1
(g2
g3
Ntp277
Rp278
(dp279
g7
(dp280
g9
V1999-00 Bowman's Best Atomic Refractors #93 Keith Van Horn BP
p281
sg11
I100
sg12
VBowman's Best Atomic Refractors
p282
sg14
(lp283
Vhttp://www.beckett.com/basketball/1999-00/bowmans-best-atomic-refractors/93-keith-van-horn-bp-3204880
p284
asg17
g18
sg19
(lp285
Vhttp://img.beckett.com/images/no-image.jpg
p286
asg22
V#93
p287
sg24
V1999-00
p288
sg100
VBP
p289
sg26
g27
sg28
(lp290
VKeith Van Horn
p291
assbag1
(g2
g3
Ntp292
Rp293
(dp294
g7
(dp295
g9
V1999-00 Bowman's Best Refractors #5 Stephon Marbury
p296
sg11
I400
sg12
VBowman's Best Refractors
p297
sg14
(lp298
Vhttp://www.beckett.com/basketball/1999-00/bowmans-best-refractors/5-stephon-marbury-3204650
p299
asg17
g18
sg19
(lp300
Vhttp://img.beckett.com/images/items_stock/185226/3204637/3204650/front_old.jpg
p301
asg22
V#5
p302
sg24
V1999-00
p303
sg26
g27
sg28
(lp304
VStephon Marbury
p305
assbag1
(g2
g3
Ntp306
Rp307
(dp308
g7
(dp309
g9
V1999-00 Bowman's Best Refractors #50 Keith Van Horn
p310
sg11
I400
sg12
VBowman's Best Refractors
p311
sg14
(lp312
Vhttp://www.beckett.com/basketball/1999-00/bowmans-best-refractors/50-keith-van-horn-3204695
p313
asg17
g18
sg19
(lp314
Vhttp://img.beckett.com/images/items_stock/185226/3204637/3204695/front.jpg
p315
asg22
V#50
p316
sg24
V1999-00
p317
sg26
g27
sg28
(lp318
VKeith Van Horn
p319
assbag1
(g2
g3
Ntp320
Rp321
(dp322
g7
(dp323
g9
V1999-00 Bowman's Best Refractors #67 Kerry Kittles
p324
sg11
I400
sg12
VBowman's Best Refractors
p325
sg14
(lp326
Vhttp://www.beckett.com/basketball/1999-00/bowmans-best-refractors/67-kerry-kittles-3204712
p327
asg17
g18
sg19
(lp328
Vhttp://img.beckett.com/images/items_stock/185226/3204637/3204712/front.jpg
p329
asg22
V#67
p330
sg24
V1999-00
p331
sg26
g27
sg28
(lp332
VKerry Kittles
p333
assbag1
(g2
g3
Ntp334
Rp335
(dp336
g7
(dp337
g9
V1999-00 Bowman's Best Refractors #93 Keith Van Horn BP
p338
sg11
I400
sg12
VBowman's Best Refractors
p339
sg14
(lp340
Vhttp://www.beckett.com/basketball/1999-00/bowmans-best-refractors/93-keith-van-horn-bp-3204738
p341
asg17
g18
sg19
(lp342
Vhttp://img.beckett.com/images/items_stock/185226/3204637/3204738/front.jpg
p343
asg22
V#93
p344
sg24
V1999-00
p345
sg100
VBP
p346
sg26
g27
sg28
(lp347
VKeith Van Horn
p348
assbag1
(g2
g3
Ntp349
Rp350
(dp351
g7
(dp352
g9
V1999-00 Finest Refractors Gold #7 Kerry Kittles
p353
sg11
I100
sg12
VFinest Refractors Gold
p354
sg14
(lp355
Vhttp://www.beckett.com/basketball/1999-00/finest-refractors-gold/7-kerry-kittles-3203919
p356
asg17
g18
sg19
(lp357
Vhttp://img.beckett.com/images/items_stock/185226/3203898/3203919/front.jpg
p358
asg22
V#7
p359
sg24
V1999-00
p360
sg26
g27
sg28
(lp361
VKerry Kittles
p362
assbag1
(g2
g3
Ntp363
Rp364
(dp365
g7
(dp366
g9
V1999-00 Finest Refractors Gold #49 Kendall Gill
p367
sg11
I100
sg12
VFinest Refractors Gold
p368
sg14
(lp369
Vhttp://www.beckett.com/basketball/1999-00/finest-refractors-gold/49-kendall-gill-3203961
p370
asg17
g18
sg19
(lp371
Vhttp://img.beckett.com/images/no-image.jpg
p372
asg22
V#49
p373
sg24
V1999-00
p374
sg26
g27
sg28
(lp375
VKendall Gill
p376
assbag1
(g2
g3
Ntp377
Rp378
(dp379
g7
(dp380
g9
V1999-00 Finest Refractors Gold #93 Stephon Marbury
p381
sg11
I100
sg12
VFinest Refractors Gold
p382
sg14
(lp383
Vhttp://www.beckett.com/basketball/1999-00/finest-refractors-gold/93-stephon-marbury-3204005
p384
asg17
g18
sg19
(lp385
Vhttp://img.beckett.com/images/no-image.jpg
p386
asg22
V#93
p387
sg24
V1999-00
p388
sg26
g27
sg28
(lp389
VStephon Marbury
p390
assbag1
(g2
g3
Ntp391
Rp392
(dp393
g7
(dp394
g9
V1999-00 Finest Refractors Gold #129 Keith Van Horn SEN
p395
sg11
I100
sg12
VFinest Refractors Gold
p396
sg14
(lp397
Vhttp://www.beckett.com/basketball/1999-00/finest-refractors-gold/129-keith-van-horn-sen-3204041
p398
asg17
g18
sg19
(lp399
Vhttp://img.beckett.com/images/no-image.jpg
p400
asg22
V#129
p401
sg24
V1999-00
p402
sg100
VSEN
p403
sg26
g27
sg28
(lp404
VKeith Van Horn
p405
assbag1
(g2
g3
Ntp406
Rp407
(dp408
g7
(dp409
g9
V1999-00 Finest Refractors Gold #168 Jayson Williams
p410
sg11
I100
sg12
VFinest Refractors Gold
p411
sg14
(lp412
Vhttp://www.beckett.com/basketball/1999-00/finest-refractors-gold/168-jayson-williams-3204080
p413
asg17
g18
sg19
(lp414
Vhttp://img.beckett.com/images/items_stock/185226/3203898/3204080/front.jpg
p415
asg22
V#168
p416
sg24
V1999-00
p417
sg26
g27
sg28
(lp418
VJayson Williams
p419
assbag1
(g2
g3
Ntp420
Rp421
(dp422
g7
(dp423
g9
V1999-00 Finest Refractors Gold #189 Scott Burrell
p424
sg11
I100
sg12
VFinest Refractors Gold
p425
sg14
(lp426
Vhttp://www.beckett.com/basketball/1999-00/finest-refractors-gold/189-scott-burrell-3204101
p427
asg17
g18
sg19
(lp428
Vhttp://img.beckett.com/images/no-image.jpg
p429
asg22
V#189
p430
sg24
V1999-00
p431
sg26
g27
sg28
(lp432
VScott Burrell
p433
assbag1
(g2
g3
Ntp434
Rp435
(dp436
g7
(dp437
g9
V1999-00 Finest Refractors Gold #219 Keith Van Horn
p438
sg11
I100
sg12
VFinest Refractors Gold
p439
sg14
(lp440
Vhttp://www.beckett.com/basketball/1999-00/finest-refractors-gold/219-keith-van-horn-3204131
p441
asg17
g18
sg19
(lp442
Vhttp://img.beckett.com/images/items_stock/185226/3203898/3204131/front.jpg
p443
asg22
V#219
p444
sg24
V1999-00
p445
sg26
g27
sg28
(lp446
VKeith Van Horn
p447
assbag1
(g2
g3
Ntp448
Rp449
(dp450
g7
(dp451
g9
V1999-00 Finest Refractors Gold #250 Keith Van Horn EDGE
p452
sg11
I100
sg12
VFinest Refractors Gold
p453
sg14
(lp454
Vhttp://www.beckett.com/basketball/1999-00/finest-refractors-gold/250-keith-van-horn-edge-3204162
p455
asg17
g18
sg19
(lp456
Vhttp://img.beckett.com/images/no-image.jpg
p457
asg22
V#250
p458
sg24
V1999-00
p459
sg100
VEDGE
p460
sg26
g27
sg28
(lp461
VKeith Van Horn
p462
assbag1
(g2
g3
Ntp463
Rp464
(dp465
g7
(dp466
g9
V1999-00 Flair Showcase Legacy Collection #4 Kerry Kittles
p467
sg11
I20
sg12
VFlair Showcase Legacy Collection
p468
sg14
(lp469
Vhttp://www.beckett.com/basketball/1999-00/flair-showcase-legacy-collection/4-kerry-kittles-3202928
p470
asg17
g18
sg19
(lp471
Vhttp://img.beckett.com/images/no-image.jpg
p472
asg22
V#4
p473
sg24
V1999-00
p474
sg26
g27
sg28
(lp475
VKerry Kittles
p476
assbag1
(g2
g3
Ntp477
Rp478
(dp479
g7
(dp480
g9
V1999-00 Flair Showcase Legacy Collection #23 Jayson Williams
p481
sg11
I20
sg12
VFlair Showcase Legacy Collection
p482
sg14
(lp483
Vhttp://www.beckett.com/basketball/1999-00/flair-showcase-legacy-collection/23-jayson-williams-3202947
p484
asg17
g18
sg19
(lp485
Vhttp://img.beckett.com/images/no-image.jpg
p486
asg22
V#23
p487
sg24
V1999-00
p488
sg26
g27
sg28
(lp489
VJayson Williams
p490
assbag1
(g2
g3
Ntp491
Rp492
(dp493
g7
(dp494
g9
V1999-00 Flair Showcase Legacy Collection #80 Stephon Marbury
p495
sg11
I20
sg12
VFlair Showcase Legacy Collection
p496
sg14
(lp497
Vhttp://www.beckett.com/basketball/1999-00/flair-showcase-legacy-collection/80-stephon-marbury-3203004
p498
asg17
g18
sg19
(lp499
Vhttp://img.beckett.com/images/no-image.jpg
p500
asg22
V#80
p501
sg24
V1999-00
p502
sg26
g27
sg28
(lp503
VStephon Marbury
p504
assbag1
(g2
g3
Ntp505
Rp506
(dp507
g7
(dp508
g9
V1999-00 Flair Showcase Legacy Collection #97 Keith Van Horn
p509
sg11
I20
sg12
VFlair Showcase Legacy Collection
p510
sg14
(lp511
Vhttp://www.beckett.com/basketball/1999-00/flair-showcase-legacy-collection/97-keith-van-horn-3203021
p512
asg17
g18
sg19
(lp513
Vhttp://img.beckett.com/images/no-image.jpg
p514
asg22
V#97
p515
sg24
V1999-00
p516
sg26
g27
sg28
(lp517
VKeith Van Horn
p518
assbag1
(g2
g3
Ntp519
Rp520
(dp521
g7
(dp522
g9
V1999-00 Flair Showcase Legacy Collection #122 Evan Eschmeyer
p523
sg11
I20
sg12
VFlair Showcase Legacy Collection
p524
sg14
(lp525
Vhttp://www.beckett.com/basketball/1999-00/flair-showcase-legacy-collection/122-evan-eschmeyer-3203046
p526
asg17
g18
sg19
(lp527
Vhttp://img.beckett.com/images/no-image.jpg
p528
asg22
V#122
p529
sg24
V1999-00
p530
sg26
g27
sg28
(lp531
VEvan Eschmeyer
p532
assbag1
(g2
g3
Ntp533
Rp534
(dp535
g7
(dp536
g9
V1999-00 Flair Showcase Masterpiece #4 Kerry Kittles
p537
sg11
I1
sg12
VFlair Showcase Masterpiece
p538
sg14
(lp539
Vhttp://www.beckett.com/basketball/1999-00/flair-showcase-masterpiece/4-kerry-kittles-3203063
p540
asg17
g18
sg19
(lp541
Vhttp://img.beckett.com/images/no-image.jpg
p542
asg22
V#4
p543
sg24
V1999-00
p544
sg26
g27
sg28
(lp545
VKerry Kittles
p546
assbag1
(g2
g3
Ntp547
Rp548
(dp549
g7
(dp550
g9
V1999-00 Flair Showcase Masterpiece #23 Jayson Williams
p551
sg11
I1
sg12
VFlair Showcase Masterpiece
p552
sg14
(lp553
Vhttp://www.beckett.com/basketball/1999-00/flair-showcase-masterpiece/23-jayson-williams-3203082
p554
asg17
g18
sg19
(lp555
Vhttp://img.beckett.com/images/no-image.jpg
p556
asg22
V#23
p557
sg24
V1999-00
p558
sg26
g27
sg28
(lp559
VJayson Williams
p560
assbag1
(g2
g3
Ntp561
Rp562
(dp563
g7
(dp564
g9
V1999-00 Flair Showcase Masterpiece #80 Stephon Marbury
p565
sg11
I1
sg12
VFlair Showcase Masterpiece
p566
sg14
(lp567
Vhttp://www.beckett.com/basketball/1999-00/flair-showcase-masterpiece/80-stephon-marbury-3203139
p568
asg17
g18
sg19
(lp569
Vhttp://img.beckett.com/images/no-image.jpg
p570
asg22
V#80
p571
sg24
V1999-00
p572
sg26
g27
sg28
(lp573
VStephon Marbury
p574
assbag1
(g2
g3
Ntp575
Rp576
(dp577
g7
(dp578
g9
V1999-00 Flair Showcase Masterpiece #97 Keith Van Horn
p579
sg11
I1
sg12
VFlair Showcase Masterpiece
p580
sg14
(lp581
Vhttp://www.beckett.com/basketball/1999-00/flair-showcase-masterpiece/97-keith-van-horn-3203156
p582
asg17
g18
sg19
(lp583
Vhttp://img.beckett.com/images/no-image.jpg
p584
asg22
V#97
p585
sg24
V1999-00
p586
sg26
g27
sg28
(lp587
VKeith Van Horn
p588
assbag1
(g2
g3
Ntp589
Rp590
(dp591
g7
(dp592
g9
V1999-00 Flair Showcase Masterpiece #122 Evan Eschmeyer
p593
sg11
I1
sg12
VFlair Showcase Masterpiece
p594
sg14
(lp595
Vhttp://www.beckett.com/basketball/1999-00/flair-showcase-masterpiece/122-evan-eschmeyer-3203181
p596
asg17
g18
sg19
(lp597
Vhttp://img.beckett.com/images/no-image.jpg
p598
asg22
V#122
p599
sg24
V1999-00
p600
sg26
g27
sg28
(lp601
VEvan Eschmeyer
p602
assbag1
(g2
g3
Ntp603
Rp604
(dp605
g7
(dp606
g9
V1999-00 Fleer Supreme Court Collection #3 Keith Van Horn
p607
sg11
I20
sg12
VFleer Supreme Court Collection
p608
sg14
(lp609
Vhttp://www.beckett.com/basketball/1999-00/fleer-supreme-court-collection/3-keith-van-horn-3201509
p610
asg17
g18
sg19
(lp611
Vhttp://img.beckett.com/images/no-image.jpg
p612
asg22
V#3
p613
sg24
V1999-00
p614
sg26
g27
sg28
(lp615
VKeith Van Horn
p616
assbag1
(g2
g3
Ntp617
Rp618
(dp619
g7
(dp620
g9
V1999-00 Fleer Supreme Court Collection #28 Scott Burrell
p621
sg11
I20
sg12
VFleer Supreme Court Collection
p622
sg14
(lp623
Vhttp://www.beckett.com/basketball/1999-00/fleer-supreme-court-collection/28-scott-burrell-3201534
p624
asg17
g18
sg19
(lp625
Vhttp://img.beckett.com/images/no-image.jpg
p626
asg22
V#28
p627
sg24
V1999-00
p628
sg26
g27
sg28
(lp629
VScott Burrell
p630
assbag1
(g2
g3
Ntp631
Rp632
(dp633
g7
(dp634
g9
V1999-00 Fleer Supreme Court Collection #58 Kendall Gill
p635
sg11
I20
sg12
VFleer Supreme Court Collection
p636
sg14
(lp637
Vhttp://www.beckett.com/basketball/1999-00/fleer-supreme-court-collection/58-kendall-gill-3201564
p638
asg17
g18
sg19
(lp639
Vhttp://img.beckett.com/images/no-image.jpg
p640
asg22
V#58
p641
sg24
V1999-00
p642
sg26
g27
sg28
(lp643
VKendall Gill
p644
assbag1
(g2
g3
Ntp645
Rp646
(dp647
g7
(dp648
g9
V1999-00 Fleer Supreme Court Collection #88 Kerry Kittles
p649
sg11
I20
sg12
VFleer Supreme Court Collection
p650
sg14
(lp651
Vhttp://www.beckett.com/basketball/1999-00/fleer-supreme-court-collection/88-kerry-kittles-3201594
p652
asg17
g18
sg19
(lp653
Vhttp://img.beckett.com/images/no-image.jpg
p654
asg22
V#88
p655
sg24
V1999-00
p656
sg26
g27
sg28
(lp657
VKerry Kittles
p658
assbag1
(g2
g3
Ntp659
Rp660
(dp661
g7
(dp662
g9
V1999-00 Fleer Supreme Court Collection #117 Stephon Marbury
p663
sg11
I20
sg12
VFleer Supreme Court Collection
p664
sg14
(lp665
Vhttp://www.beckett.com/basketball/1999-00/fleer-supreme-court-collection/117-stephon-marbury-3201623
p666
asg17
g18
sg19
(lp667
Vhttp://img.beckett.com/images/no-image.jpg
p668
asg22
V#117
p669
sg24
V1999-00
p670
sg26
g27
sg28
(lp671
VStephon Marbury
p672
assbag1
(g2
g3
Ntp673
Rp674
(dp675
g7
(dp676
g9
V1999-00 Fleer Supreme Court Collection #147 Jayson Williams
p677
sg11
I20
sg12
VFleer Supreme Court Collection
p678
sg14
(lp679
Vhttp://www.beckett.com/basketball/1999-00/fleer-supreme-court-collection/147-jayson-williams-3201653
p680
asg17
g18
sg19
(lp681
Vhttp://img.beckett.com/images/no-image.jpg
p682
asg22
V#147
p683
sg24
V1999-00
p684
sg26
g27
sg28
(lp685
VJayson Williams
p686
assbag1
(g2
g3
Ntp687
Rp688
(dp689
g7
(dp690
g9
V1999-00 Fleer Focus Masterpiece Mania #3 Jayson Williams
p691
sg11
I300
sg12
VFleer Focus Masterpiece Mania
p692
sg14
(lp693
Vhttp://www.beckett.com/basketball/1999-00/fleer-focus-masterpiece-mania/3-jayson-williams-3202222
p694
asg17
g18
sg19
(lp695
Vhttp://img.beckett.com/images/items_stock/185226/3202210/3202222/front.jpg
p696
asg22
V#3
p697
sg24
V1999-00
p698
sg26
g27
sg28
(lp699
VJayson Williams
p700
assbag1
(g2
g3
Ntp701
Rp702
(dp703
g7
(dp704
g9
V1999-00 Fleer Focus Masterpiece Mania #13 Stephon Marbury
p705
sg11
I300
sg12
VFleer Focus Masterpiece Mania
p706
sg14
(lp707
Vhttp://www.beckett.com/basketball/1999-00/fleer-focus-masterpiece-mania/13-stephon-marbury-3202232
p708
asg17
g18
sg19
(lp709
Vhttp://img.beckett.com/images/items_stock/185226/3202210/3202232/front.jpg
p710
asg22
V#13
p711
sg24
V1999-00
p712
sg26
g27
sg28
(lp713
VStephon Marbury
p714
assbag1
(g2
g3
Ntp715
Rp716
(dp717
g7
(dp718
g9
V1999-00 Fleer Focus Masterpiece Mania #22 Kerry Kittles
p719
sg11
I300
sg12
VFleer Focus Masterpiece Mania
p720
sg14
(lp721
Vhttp://www.beckett.com/basketball/1999-00/fleer-focus-masterpiece-mania/22-kerry-kittles-3202241
p722
asg17
g18
sg19
(lp723
Vhttp://img.beckett.com/images/items_stock/185226/3202210/3202241/front.jpg
p724
asg22
V#22
p725
sg24
V1999-00
p726
sg26
g27
sg28
(lp727
VKerry Kittles
p728
assbag1
(g2
g3
Ntp729
Rp730
(dp731
g7
(dp732
g9
V1999-00 Fleer Focus Masterpiece Mania #69 Keith Van Horn
p733
sg11
I300
sg12
VFleer Focus Masterpiece Mania
p734
sg14
(lp735
Vhttp://www.beckett.com/basketball/1999-00/fleer-focus-masterpiece-mania/69-keith-van-horn-3202288
p736
asg17
g18
sg19
(lp737
Vhttp://img.beckett.com/images/items_stock/185226/3202210/3202288/front.jpg
p738
asg22
V#69
p739
sg24
V1999-00
p740
sg26
g27
sg28
(lp741
VKeith Van Horn
p742
assbag1
(g2
g3
Ntp743
Rp744
(dp745
g7
(dp746
g9
V1999-00 Fleer Focus Masterpiece Mania #132 Evan Eschmeyer
p747
sg11
I300
sg12
VFleer Focus Masterpiece Mania
p748
sg14
(lp749
Vhttp://www.beckett.com/basketball/1999-00/fleer-focus-masterpiece-mania/132-evan-eschmeyer-3202351
p750
asg17
g18
sg19
(lp751
Vhttp://img.beckett.com/images/items_stock/185226/3202210/3202351/front.jpg
p752
asg22
V#132
p753
sg24
V1999-00
p754
sg26
g27
sg28
(lp755
VEvan Eschmeyer
p756
assbag1
(g2
g3
Ntp757
Rp758
(dp759
g7
(dp760
g9
V1999-00 Fleer Focus Masterpieces #3 Jayson Williams
p761
sg11
I1
sg12
VFleer Focus Masterpieces
p762
sg14
(lp763
Vhttp://www.beckett.com/basketball/1999-00/fleer-focus-masterpieces/3-jayson-williams-3202062
p764
asg17
g18
sg19
(lp765
Vhttp://img.beckett.com/images/no-image.jpg
p766
asg22
V#3
p767
sg24
V1999-00
p768
sg26
g27
sg28
(lp769
VJayson Williams
p770
assbag1
(g2
g3
Ntp771
Rp772
(dp773
g7
(dp774
g9
V1999-00 Fleer Focus Masterpieces #13 Stephon Marbury
p775
sg11
I1
sg12
VFleer Focus Masterpieces
p776
sg14
(lp777
Vhttp://www.beckett.com/basketball/1999-00/fleer-focus-masterpieces/13-stephon-marbury-3202072
p778
asg17
g18
sg19
(lp779
Vhttp://img.beckett.com/images/no-image.jpg
p780
asg22
V#13
p781
sg24
V1999-00
p782
sg26
g27
sg28
(lp783
VStephon Marbury
p784
assbag1
(g2
g3
Ntp785
Rp786
(dp787
g7
(dp788
g9
V1999-00 Fleer Focus Masterpieces #22 Kerry Kittles
p789
sg11
I1
sg12
VFleer Focus Masterpieces
p790
sg14
(lp791
Vhttp://www.beckett.com/basketball/1999-00/fleer-focus-masterpieces/22-kerry-kittles-3202081
p792
asg17
g18
sg19
(lp793
Vhttp://img.beckett.com/images/no-image.jpg
p794
asg22
V#22
p795
sg24
V1999-00
p796
sg26
g27
sg28
(lp797
VKerry Kittles
p798
assbag1
(g2
g3
Ntp799
Rp800
(dp801
g7
(dp802
g9
V1999-00 Fleer Focus Masterpieces #69 Keith Van Horn
p803
sg11
I1
sg12
VFleer Focus Masterpieces
p804
sg14
(lp805
Vhttp://www.beckett.com/basketball/1999-00/fleer-focus-masterpieces/69-keith-van-horn-3202128
p806
asg17
g18
sg19
(lp807
Vhttp://img.beckett.com/images/no-image.jpg
p808
asg22
V#69
p809
sg24
V1999-00
p810
sg26
g27
sg28
(lp811
VKeith Van Horn
p812
assbag1
(g2
g3
Ntp813
Rp814
(dp815
g7
(dp816
g9
V1999-00 Fleer Focus Masterpieces #132 Evan Eschmeyer
p817
sg11
I1
sg12
VFleer Focus Masterpieces
p818
sg14
(lp819
Vhttp://www.beckett.com/basketball/1999-00/fleer-focus-masterpieces/132-evan-eschmeyer-3202191
p820
asg17
g18
sg19
(lp821
Vhttp://img.beckett.com/images/no-image.jpg
p822
asg22
V#132
p823
sg24
V1999-00
p824
sg26
g27
sg28
(lp825
VEvan Eschmeyer
p826
assbag1
(g2
g3
Ntp827
Rp828
(dp829
g7
(dp830
g9
V1999-00 Fleer Mystique Masterpiece #53 Stephon Marbury
p831
sg11
I1
sg12
VFleer Mystique Masterpiece
p832
sg14
(lp833
Vhttp://www.beckett.com/basketball/1999-00/fleer-mystique-masterpiece/53-stephon-marbury-3198649
p834
asg17
g18
sg19
(lp835
Vhttp://img.beckett.com/images/no-image.jpg
p836
asg22
V#53
p837
sg24
V1999-00
p838
sg26
g27
sg28
(lp839
VStephon Marbury
p840
assbag1
(g2
g3
Ntp841
Rp842
(dp843
g7
(dp844
g9
V1999-00 Fleer Mystique Masterpiece #57 Jayson Williams
p845
sg11
I1
sg12
VFleer Mystique Masterpiece
p846
sg14
(lp847
Vhttp://www.beckett.com/basketball/1999-00/fleer-mystique-masterpiece/57-jayson-williams-3198653
p848
asg17
g18
sg19
(lp849
Vhttp://img.beckett.com/images/no-image.jpg
p850
asg22
V#57
p851
sg24
V1999-00
p852
sg26
g27
sg28
(lp853
VJayson Williams
p854
assbag1
(g2
g3
Ntp855
Rp856
(dp857
g7
(dp858
g9
V1999-00 Fleer Mystique Masterpiece #82 Keith Van Horn
p859
sg11
I1
sg12
VFleer Mystique Masterpiece
p860
sg14
(lp861
Vhttp://www.beckett.com/basketball/1999-00/fleer-mystique-masterpiece/82-keith-van-horn-3198678
p862
asg17
g18
sg19
(lp863
Vhttp://img.beckett.com/images/no-image.jpg
p864
asg22
V#82
p865
sg24
V1999-00
p866
sg26
g27
sg28
(lp867
VKeith Van Horn
p868
assbag1
(g2
g3
Ntp869
Rp870
(dp871
g7
(dp872
g9
V1999-00 Fleer Mystique Masterpiece #99 Kerry Kittles
p873
sg11
I1
sg12
VFleer Mystique Masterpiece
p874
sg14
(lp875
Vhttp://www.beckett.com/basketball/1999-00/fleer-mystique-masterpiece/99-kerry-kittles-3198695
p876
asg17
g18
sg19
(lp877
Vhttp://img.beckett.com/images/no-image.jpg
p878
asg22
V#99
p879
sg24
V1999-00
p880
sg26
g27
sg28
(lp881
VKerry Kittles
p882
assbag1
(g2
g3
Ntp883
Rp884
(dp885
g7
(dp886
g9
V1999-00 Fleer Mystique Masterpiece #146 Keith Van Horn STAR
p887
sg11
I1
sg12
VFleer Mystique Masterpiece
p888
sg14
(lp889
Vhttp://www.beckett.com/basketball/1999-00/fleer-mystique-masterpiece/146-keith-van-horn-star-3198742
p890
asg17
g18
sg19
(lp891
Vhttp://img.beckett.com/images/no-image.jpg
p892
asg22
V#146
p893
sg24
V1999-00
p894
sg100
VSTAR
p895
sg26
g27
sg28
(lp896
VKeith Van Horn
p897
assbag1
(g2
g3
Ntp898
Rp899
(dp900
g7
(dp901
g9
V1999-00 Fleer Mystique Masterpiece #148 Stephon Marbury STAR
p902
sg11
I1
sg12
VFleer Mystique Masterpiece
p903
sg14
(lp904
Vhttp://www.beckett.com/basketball/1999-00/fleer-mystique-masterpiece/148-stephon-marbury-star-3198744
p905
asg17
g18
sg19
(lp906
Vhttp://img.beckett.com/images/no-image.jpg
p907
asg22
V#148
p908
sg24
V1999-00
p909
sg100
VSTAR
p910
sg26
g27
sg28
(lp911
VStephon Marbury
p912
assbag1
(g2
g3
Ntp913
Rp914
(dp915
g7
(dp916
g9
V1999-00 Hoops Starting Five #49 Kerry Kittles
p917
sg11
I5
sg12
VHoops Starting Five
p918
sg14
(lp919
Vhttp://www.beckett.com/basketball/1999-00/hoops-starting-five/49-kerry-kittles-3199111
p920
asg17
g18
sg19
(lp921
Vhttp://img.beckett.com/images/no-image.jpg
p922
asg22
V#49
p923
sg24
V1999-00
p924
sg26
g27
sg28
(lp925
VKerry Kittles
p926
assbag1
(g2
g3
Ntp927
Rp928
(dp929
g7
(dp930
g9
V1999-00 Hoops Starting Five #58 Rony Seikaly
p931
sg11
I5
sg12
VHoops Starting Five
p932
sg14
(lp933
Vhttp://www.beckett.com/basketball/1999-00/hoops-starting-five/58-rony-seikaly-3199120
p934
asg17
g18
sg19
(lp935
Vhttp://img.beckett.com/images/no-image.jpg
p936
asg22
V#58
p937
sg24
V1999-00
p938
sg26
g27
sg28
(lp939
VRony Seikaly
p940
assbag1
(g2
g3
Ntp941
Rp942
(dp943
g7
(dp944
g9
V1999-00 Hoops Starting Five #67 Elliot Perry
p945
sg11
I5
sg12
VHoops Starting Five
p946
sg14
(lp947
Vhttp://www.beckett.com/basketball/1999-00/hoops-starting-five/67-elliot-perry-3199129
p948
asg17
g18
sg19
(lp949
Vhttp://img.beckett.com/images/no-image.jpg
p950
asg22
V#67
p951
sg24
V1999-00
p952
sg26
g27
sg28
(lp953
VElliot Perry
p954
assbag1
(g2
g3
Ntp955
Rp956
(dp957
g7
(dp958
g9
V1999-00 Hoops Starting Five #76 Jayson Williams
p959
sg11
I5
sg12
VHoops Starting Five
p960
sg14
(lp961
Vhttp://www.beckett.com/basketball/1999-00/hoops-starting-five/76-jayson-williams-3199138
p962
asg17
g18
sg19
(lp963
Vhttp://img.beckett.com/images/no-image.jpg
p964
asg22
V#76
p965
sg24
V1999-00
p966
sg26
g27
sg28
(lp967
VJayson Williams
p968
assbag1
(g2
g3
Ntp969
Rp970
(dp971
g7
(dp972
g9
V1999-00 Hoops Starting Five #81 Stephon Marbury
p973
sg11
I5
sg12
VHoops Starting Five
p974
sg14
(lp975
Vhttp://www.beckett.com/basketball/1999-00/hoops-starting-five/81-stephon-marbury-3199143
p976
asg17
g18
sg19
(lp977
Vhttp://img.beckett.com/images/no-image.jpg
p978
asg22
V#81
p979
sg24
V1999-00
p980
sg26
g27
sg28
(lp981
VStephon Marbury
p982
assbag1
(g2
g3
Ntp983
Rp984
(dp985
g7
(dp986
g9
V1999-00 Hoops Starting Five #126 Keith Van Horn
p987
sg11
I5
sg12
VHoops Starting Five
p988
sg14
(lp989
Vhttp://www.beckett.com/basketball/1999-00/hoops-starting-five/126-keith-van-horn-3199188
p990
asg17
g18
sg19
(lp991
Vhttp://img.beckett.com/images/no-image.jpg
p992
asg22
V#126
p993
sg24
V1999-00
p994
sg26
g27
sg28
(lp995
VKeith Van Horn
p996
assbag1
(g2
g3
Ntp997
Rp998
(dp999
g7
(dp1000
g9
V1999-00 SkyBox APEX Xtra #2 Stephon Marbury
p1001
sg11
I50
sg12
VSkyBox APEX Xtra
p1002
sg14
(lp1003
Vhttp://www.beckett.com/basketball/1999-00/skybox-apex-xtra/2-stephon-marbury-3198136
p1004
asg17
g18
sg19
(lp1005
Vhttp://img.beckett.com/images/no-image.jpg
p1006
asg22
V#2
p1007
sg24
V1999-00
p1008
sg26
g27
sg28
(lp1009
VStephon Marbury
p1010
assbag1
(g2
g3
Ntp1011
Rp1012
(dp1013
g7
(dp1014
g9
V1999-00 SkyBox APEX Xtra #18 Keith Van Horn
p1015
sg11
I50
sg12
VSkyBox APEX Xtra
p1016
sg14
(lp1017
Vhttp://www.beckett.com/basketball/1999-00/skybox-apex-xtra/18-keith-van-horn-3198152
p1018
asg17
g18
sg19
(lp1019
Vhttp://img.beckett.com/images/no-image.jpg
p1020
asg22
V#18
p1021
sg24
V1999-00
p1022
sg26
g27
sg28
(lp1023
VKeith Van Horn
p1024
assbag1
(g2
g3
Ntp1025
Rp1026
(dp1027
g7
(dp1028
g9
V1999-00 SkyBox APEX Xtra #47 Kendall Gill
p1029
sg11
I50
sg12
VSkyBox APEX Xtra
p1030
sg14
(lp1031
Vhttp://www.beckett.com/basketball/1999-00/skybox-apex-xtra/47-kendall-gill-3198181
p1032
asg17
g18
sg19
(lp1033
Vhttp://img.beckett.com/images/no-image.jpg
p1034
asg22
V#47
p1035
sg24
V1999-00
p1036
sg26
g27
sg28
(lp1037
VKendall Gill
p1038
assbag1
(g2
g3
Ntp1039
Rp1040
(dp1041
g7
(dp1042
g9
V1999-00 SkyBox APEX Xtra #90 Kerry Kittles
p1043
sg11
I50
sg12
VSkyBox APEX Xtra
p1044
sg14
(lp1045
Vhttp://www.beckett.com/basketball/1999-00/skybox-apex-xtra/90-kerry-kittles-3198224
p1046
asg17
g18
sg19
(lp1047
Vhttp://img.beckett.com/images/no-image.jpg
p1048
asg22
V#90
p1049
sg24
V1999-00
p1050
sg26
g27
sg28
(lp1051
VKerry Kittles
p1052
assbag1
(g2
g3
Ntp1053
Rp1054
(dp1055
g7
(dp1056
g9
V1999-00 SkyBox APEX Xtra #116 Jayson Williams
p1057
sg11
I50
sg12
VSkyBox APEX Xtra
p1058
sg14
(lp1059
Vhttp://www.beckett.com/basketball/1999-00/skybox-apex-xtra/116-jayson-williams-3198250
p1060
asg17
g18
sg19
(lp1061
Vhttp://img.beckett.com/images/items_stock/185226/3198125/3198250/front.jpg
p1062
asg22
V#116
p1063
sg24
V1999-00
p1064
sg26
g27
sg28
(lp1065
VJayson Williams
p1066
assbag1
(g2
g3
Ntp1067
Rp1068
(dp1069
g7
(dp1070
g9
V1999-00 SkyBox APEX Xtreme #2 Stephon Marbury
p1071
sg11
I1
sg12
VSkyBox APEX Xtreme
p1072
sg14
(lp1073
Vhttp://www.beckett.com/basketball/1999-00/skybox-apex-xtreme/2-stephon-marbury-3196478
p1074
asg17
g18
sg19
(lp1075
Vhttp://img.beckett.com/images/no-image.jpg
p1076
asg22
V#2
p1077
sg24
V1999-00
p1078
sg26
g27
sg28
(lp1079
VStephon Marbury
p1080
assbag1
(g2
g3
Ntp1081
Rp1082
(dp1083
g7
(dp1084
g9
V1999-00 SkyBox APEX Xtreme #18 Keith Van Horn
p1085
sg11
I1
sg12
VSkyBox APEX Xtreme
p1086
sg14
(lp1087
Vhttp://www.beckett.com/basketball/1999-00/skybox-apex-xtreme/18-keith-van-horn-3196494
p1088
asg17
g18
sg19
(lp1089
Vhttp://img.beckett.com/images/no-image.jpg
p1090
asg22
V#18
p1091
sg24
V1999-00
p1092
sg26
g27
sg28
(lp1093
VKeith Van Horn
p1094
assbag1
(g2
g3
Ntp1095
Rp1096
(dp1097
g7
(dp1098
g9
V1999-00 SkyBox APEX Xtreme #47 Kendall Gill
p1099
sg11
I1
sg12
VSkyBox APEX Xtreme
p1100
sg14
(lp1101
Vhttp://www.beckett.com/basketball/1999-00/skybox-apex-xtreme/47-kendall-gill-3196523
p1102
asg17
g18
sg19
(lp1103
Vhttp://img.beckett.com/images/no-image.jpg
p1104
asg22
V#47
p1105
sg24
V1999-00
p1106
sg26
g27
sg28
(lp1107
VKendall Gill
p1108
assbag1
(g2
g3
Ntp1109
Rp1110
(dp1111
g7
(dp1112
g9
V1999-00 SkyBox APEX Xtreme #90 Kerry Kittles
p1113
sg11
I1
sg12
VSkyBox APEX Xtreme
p1114
sg14
(lp1115
Vhttp://www.beckett.com/basketball/1999-00/skybox-apex-xtreme/90-kerry-kittles-3196566
p1116
asg17
g18
sg19
(lp1117
Vhttp://img.beckett.com/images/no-image.jpg
p1118
asg22
V#90
p1119
sg24
V1999-00
p1120
sg26
g27
sg28
(lp1121
VKerry Kittles
p1122
assbag1
(g2
g3
Ntp1123
Rp1124
(dp1125
g7
(dp1126
g9
V1999-00 SkyBox APEX Xtreme #116 Jayson Williams
p1127
sg11
I1
sg12
VSkyBox APEX Xtreme
p1128
sg14
(lp1129
Vhttp://www.beckett.com/basketball/1999-00/skybox-apex-xtreme/116-jayson-williams-3196592
p1130
asg17
g18
sg19
(lp1131
Vhttp://img.beckett.com/images/no-image.jpg
p1132
asg22
V#116
p1133
sg24
V1999-00
p1134
sg26
g27
sg28
(lp1135
VJayson Williams
p1136
assbag1
(g2
g3
Ntp1137
Rp1138
(dp1139
g7
(dp1140
g9
V1999-00 SkyBox Premium Star Rubies #14 Kerry Kittles
p1141
sg11
I45
sg12
VSkyBox Premium Star Rubies
p1142
sg14
(lp1143
Vhttp://www.beckett.com/basketball/1999-00/skybox-premium-star-rubies/14-kerry-kittles-3195592
p1144
asg17
g18
sg19
(lp1145
Vhttp://img.beckett.com/images/no-image.jpg
p1146
asg22
V#14
p1147
sg24
V1999-00
p1148
sg26
g27
sg28
(lp1149
VKerry Kittles
p1150
assbag1
(g2
g3
Ntp1151
Rp1152
(dp1153
g7
(dp1154
g9
V1999-00 SkyBox Premium Star Rubies #19 Jayson Williams
p1155
sg11
I45
sg12
VSkyBox Premium Star Rubies
p1156
sg14
(lp1157
Vhttp://www.beckett.com/basketball/1999-00/skybox-premium-star-rubies/19-jayson-williams-3195597
p1158
asg17
g18
sg19
(lp1159
Vhttp://img.beckett.com/images/no-image.jpg
p1160
asg22
V#19
p1161
sg24
V1999-00
p1162
sg26
g27
sg28
(lp1163
VJayson Williams
p1164
assbag1
(g2
g3
Ntp1165
Rp1166
(dp1167
g7
(dp1168
g9
V1999-00 SkyBox Premium Star Rubies #28 Keith Van Horn
p1169
sg11
I45
sg12
VSkyBox Premium Star Rubies
p1170
sg14
(lp1171
Vhttp://www.beckett.com/basketball/1999-00/skybox-premium-star-rubies/28-keith-van-horn-3195606
p1172
asg17
g18
sg19
(lp1173
Vhttp://img.beckett.com/images/no-image.jpg
p1174
asg22
V#28
p1175
sg24
V1999-00
p1176
sg26
g27
sg28
(lp1177
VKeith Van Horn
p1178
assbag1
(g2
g3
Ntp1179
Rp1180
(dp1181
g7
(dp1182
g9
V1999-00 SkyBox Premium Star Rubies #75 Stephon Marbury
p1183
sg11
I45
sg12
VSkyBox Premium Star Rubies
p1184
sg14
(lp1185
Vhttp://www.beckett.com/basketball/1999-00/skybox-premium-star-rubies/75-stephon-marbury-3195653
p1186
asg17
g18
sg19
(lp1187
Vhttp://img.beckett.com/images/no-image.jpg
p1188
asg22
V#75
p1189
sg24
V1999-00
p1190
sg26
g27
sg28
(lp1191
VStephon Marbury
p1192
assbag1
(g2
g3
Ntp1193
Rp1194
(dp1195
g7
(dp1196
g9
V1999-00 SPx Radiance #50 Stephon Marbury
p1197
sg11
I100
sg12
VSPx Radiance
p1198
sg14
(lp1199
Vhttp://www.beckett.com/basketball/1999-00/spx-radiance/50-stephon-marbury-3193263
p1200
asg17
g18
sg19
(lp1201
Vhttp://img.beckett.com/images/no-image.jpg
p1202
asg22
V#50
p1203
sg24
V1999-00
p1204
sg26
g27
sg28
(lp1205
VStephon Marbury
p1206
assbag1
(g2
g3
Ntp1207
Rp1208
(dp1209
g7
(dp1210
g9
V1999-00 SPx Radiance #51 Keith Van Horn
p1211
sg11
I100
sg12
VSPx Radiance
p1212
sg14
(lp1213
Vhttp://www.beckett.com/basketball/1999-00/spx-radiance/51-keith-van-horn-3193264
p1214
asg17
g18
sg19
(lp1215
Vhttp://img.beckett.com/images/items_stock/185226/3193202/3193264/front.jpg
p1216
asg22
V#51
p1217
sg24
V1999-00
p1218
sg26
g27
sg28
(lp1219
VKeith Van Horn
p1220
assbag1
(g2
g3
Ntp1221
Rp1222
(dp1223
g7
(dp1224
g9
V1999-00 SPx Radiance #52 Jayson Williams
p1225
sg11
I100
sg12
VSPx Radiance
p1226
sg14
(lp1227
Vhttp://www.beckett.com/basketball/1999-00/spx-radiance/52-jayson-williams-3193265
p1228
asg17
g18
sg19
(lp1229
Vhttp://img.beckett.com/images/no-image.jpg
p1230
asg22
V#52
p1231
sg24
V1999-00
p1232
sg26
g27
sg28
(lp1233
VJayson Williams
p1234
assbag1
(g2
g3
Ntp1235
Rp1236
(dp1237
g7
(dp1238
g9
V1999-00 SPx Radiance #119 Evan Eschmeyer
p1239
sg11
I100
sg12
VSPx Radiance
p1240
sg14
(lp1241
Vhttp://www.beckett.com/basketball/1999-00/spx-radiance/119-evan-eschmeyer-3193332
p1242
asg17
g18
sg19
(lp1243
Vhttp://img.beckett.com/images/no-image.jpg
p1244
asg22
V#119
p1245
sg24
V1999-00
p1246
sg26
g27
sg28
(lp1247
VEvan Eschmeyer
p1248
assbag1
(g2
g3
Ntp1249
Rp1250
(dp1251
g7
(dp1252
g9
V1999-00 SPx Spectrum #50 Stephon Marbury
p1253
sg11
I1
sg12
VSPx Spectrum
p1254
sg14
(lp1255
Vhttp://www.beckett.com/basketball/1999-00/spx-spectrum/50-stephon-marbury-3193388
p1256
asg17
g18
sg19
(lp1257
Vhttp://img.beckett.com/images/no-image.jpg
p1258
asg22
V#50
p1259
sg24
V1999-00
p1260
sg26
g27
sg28
(lp1261
VStephon Marbury
p1262
assbag1
(g2
g3
Ntp1263
Rp1264
(dp1265
g7
(dp1266
g9
V1999-00 SPx Spectrum #51 Keith Van Horn
p1267
sg11
I1
sg12
VSPx Spectrum
p1268
sg14
(lp1269
Vhttp://www.beckett.com/basketball/1999-00/spx-spectrum/51-keith-van-horn-3193389
p1270
asg17
g18
sg19
(lp1271
Vhttp://img.beckett.com/images/no-image.jpg
p1272
asg22
V#51
p1273
sg24
V1999-00
p1274
sg26
g27
sg28
(lp1275
VKeith Van Horn
p1276
assbag1
(g2
g3
Ntp1277
Rp1278
(dp1279
g7
(dp1280
g9
V1999-00 SPx Spectrum #52 Jayson Williams
p1281
sg11
I1
sg12
VSPx Spectrum
p1282
sg14
(lp1283
Vhttp://www.beckett.com/basketball/1999-00/spx-spectrum/52-jayson-williams-3193390
p1284
asg17
g18
sg19
(lp1285
Vhttp://img.beckett.com/images/no-image.jpg
p1286
asg22
V#52
p1287
sg24
V1999-00
p1288
sg26
g27
sg28
(lp1289
VJayson Williams
p1290
assbag1
(g2
g3
Ntp1291
Rp1292
(dp1293
g7
(dp1294
g9
V1999-00 SPx Spectrum #119 Evan Eschmeyer
p1295
sg11
I1
sg12
VSPx Spectrum
p1296
sg14
(lp1297
Vhttp://www.beckett.com/basketball/1999-00/spx-spectrum/119-evan-eschmeyer-3193457
p1298
asg17
g18
sg19
(lp1299
Vhttp://img.beckett.com/images/no-image.jpg
p1300
asg22
V#119
p1301
sg24
V1999-00
p1302
sg26
g27
sg28
(lp1303
VEvan Eschmeyer
p1304
assbag1
(g2
g3
Ntp1305
Rp1306
(dp1307
g7
(dp1308
g9
V1999-00 Stadium Club First Day Issue #7 Kerry Kittles
p1309
sg11
I150
sg12
VStadium Club First Day Issue
p1310
sg14
(lp1311
Vhttp://www.beckett.com/basketball/1999-00/stadium-club-first-day-issue/7-kerry-kittles-3193841
p1312
asg17
g18
sg19
(lp1313
Vhttp://img.beckett.com/images/no-image.jpg
p1314
asg22
V#7
p1315
sg24
V1999-00
p1316
sg26
g27
sg28
(lp1317
VKerry Kittles
p1318
assbag1
(g2
g3
Ntp1319
Rp1320
(dp1321
g7
(dp1322
g9
V1999-00 Stadium Club First Day Issue #33 Keith Van Horn
p1323
sg11
I150
sg12
VStadium Club First Day Issue
p1324
sg14
(lp1325
Vhttp://www.beckett.com/basketball/1999-00/stadium-club-first-day-issue/33-keith-van-horn-3193867
p1326
asg17
g18
sg19
(lp1327
Vhttp://img.beckett.com/images/no-image.jpg
p1328
asg22
V#33
p1329
sg24
V1999-00
p1330
sg26
g27
sg28
(lp1331
VKeith Van Horn
p1332
assbag1
(g2
g3
Ntp1333
Rp1334
(dp1335
g7
(dp1336
g9
V1999-00 Stadium Club First Day Issue #67 Stephon Marbury
p1337
sg11
I150
sg12
VStadium Club First Day Issue
p1338
sg14
(lp1339
Vhttp://www.beckett.com/basketball/1999-00/stadium-club-first-day-issue/67-stephon-marbury-3193901
p1340
asg17
g18
sg19
(lp1341
Vhttp://img.beckett.com/images/no-image.jpg
p1342
asg22
V#67
p1343
sg24
V1999-00
p1344
sg26
g27
sg28
(lp1345
VStephon Marbury
p1346
assbag1
(g2
g3
Ntp1347
Rp1348
(dp1349
g7
(dp1350
g9
V1999-00 Stadium Club First Day Issue #85 Kendall Gill
p1351
sg11
I150
sg12
VStadium Club First Day Issue
p1352
sg14
(lp1353
Vhttp://www.beckett.com/basketball/1999-00/stadium-club-first-day-issue/85-kendall-gill-3193919
p1354
asg17
g18
sg19
(lp1355
Vhttp://img.beckett.com/images/no-image.jpg
p1356
asg22
V#85
p1357
sg24
V1999-00
p1358
sg26
g27
sg28
(lp1359
VKendall Gill
p1360
assbag1
(g2
g3
Ntp1361
Rp1362
(dp1363
g7
(dp1364
g9
V1999-00 Stadium Club First Day Issue #144 Jayson Williams
p1365
sg11
I150
sg12
VStadium Club First Day Issue
p1366
sg14
(lp1367
Vhttp://www.beckett.com/basketball/1999-00/stadium-club-first-day-issue/144-jayson-williams-3193978
p1368
asg17
g18
sg19
(lp1369
Vhttp://img.beckett.com/images/no-image.jpg
p1370
asg22
V#144
p1371
sg24
V1999-00
p1372
sg26
g27
sg28
(lp1373
VJayson Williams
p1374
assbag1
(g2
g3
Ntp1375
Rp1376
(dp1377
g7
(dp1378
g9
V1999-00 Stadium Club One of a Kind #7 Kerry Kittles
p1379
sg11
I150
sg12
VStadium Club One of a Kind
p1380
sg14
(lp1381
Vhttp://www.beckett.com/basketball/1999-00/stadium-club-one-of-a-kind/7-kerry-kittles-3194053
p1382
asg17
g18
sg19
(lp1383
Vhttp://img.beckett.com/images/items_stock/185226/3194036/3194053/front.jpg
p1384
asg22
V#7
p1385
sg24
V1999-00
p1386
sg26
g27
sg28
(lp1387
VKerry Kittles
p1388
assbag1
(g2
g3
Ntp1389
Rp1390
(dp1391
g7
(dp1392
g9
V1999-00 Stadium Club One of a Kind #33 Keith Van Horn
p1393
sg11
I150
sg12
VStadium Club One of a Kind
p1394
sg14
(lp1395
Vhttp://www.beckett.com/basketball/1999-00/stadium-club-one-of-a-kind/33-keith-van-horn-3194079
p1396
asg17
g18
sg19
(lp1397
Vhttp://img.beckett.com/images/items_stock/185226/3194036/3194079/front.jpg
p1398
asg22
V#33
p1399
sg24
V1999-00
p1400
sg26
g27
sg28
(lp1401
VKeith Van Horn
p1402
assbag1
(g2
g3
Ntp1403
Rp1404
(dp1405
g7
(dp1406
g9
V1999-00 Stadium Club One of a Kind #67 Stephon Marbury
p1407
sg11
I150
sg12
VStadium Club One of a Kind
p1408
sg14
(lp1409
Vhttp://www.beckett.com/basketball/1999-00/stadium-club-one-of-a-kind/67-stephon-marbury-3194113
p1410
asg17
g18
sg19
(lp1411
Vhttp://img.beckett.com/images/items_stock/185226/3194036/3194113/front.jpg
p1412
asg22
V#67
p1413
sg24
V1999-00
p1414
sg26
g27
sg28
(lp1415
VStephon Marbury
p1416
assbag1
(g2
g3
Ntp1417
Rp1418
(dp1419
g7
(dp1420
g9
V1999-00 Stadium Club One of a Kind #85 Kendall Gill
p1421
sg11
I150
sg12
VStadium Club One of a Kind
p1422
sg14
(lp1423
Vhttp://www.beckett.com/basketball/1999-00/stadium-club-one-of-a-kind/85-kendall-gill-3194131
p1424
asg17
g18
sg19
(lp1425
Vhttp://img.beckett.com/images/no-image.jpg
p1426
asg22
V#85
p1427
sg24
V1999-00
p1428
sg26
g27
sg28
(lp1429
VKendall Gill
p1430
assbag1
(g2
g3
Ntp1431
Rp1432
(dp1433
g7
(dp1434
g9
V1999-00 Stadium Club One of a Kind #144 Jayson Williams
p1435
sg11
I150
sg12
VStadium Club One of a Kind
p1436
sg14
(lp1437
Vhttp://www.beckett.com/basketball/1999-00/stadium-club-one-of-a-kind/144-jayson-williams-3194190
p1438
asg17
g18
sg19
(lp1439
Vhttp://img.beckett.com/images/no-image.jpg
p1440
asg22
V#144
p1441
sg24
V1999-00
p1442
sg26
g27
sg28
(lp1443
VJayson Williams
p1444
assbag1
(g2
g3
Ntp1445
Rp1446
(dp1447
g7
(dp1448
g9
V1999-00 Stadium Club Printing Plates #7A Kerry Kittles Black
p1449
sg11
I1
sg12
VStadium Club Printing Plates
p1450
sg14
(lp1451
Vhttp://www.beckett.com/basketball/1999-00/stadium-club-printing-plates/7a-kerry-kittles-black-3194278
p1452
asg17
g18
sg19
(lp1453
Vhttp://img.beckett.com/images/no-image.jpg
p1454
asg22
V#7A
p1455
sg24
V1999-00
p1456
sg26
g27
sg28
(lp1457
VKerry Kittles
p1458
assbag1
(g2
g3
Ntp1459
Rp1460
(dp1461
g7
(dp1462
g9
V1999-00 Stadium Club Printing Plates #7B Kerry Kittles Cyan
p1463
sg11
I1
sg12
VStadium Club Printing Plates
p1464
sg14
(lp1465
Vhttp://www.beckett.com/basketball/1999-00/stadium-club-printing-plates/7b-kerry-kittles-cyan-3194279
p1466
asg17
g18
sg19
(lp1467
Vhttp://img.beckett.com/images/no-image.jpg
p1468
asg22
V#7B
p1469
sg24
V1999-00
p1470
sg26
g27
sg28
(lp1471
g1458
assbag1
(g2
g3
Ntp1472
Rp1473
(dp1474
g7
(dp1475
g9
V1999-00 Stadium Club Printing Plates #7C Kerry Kittles Magenta
p1476
sg11
I1
sg12
VStadium Club Printing Plates
p1477
sg14
(lp1478
Vhttp://www.beckett.com/basketball/1999-00/stadium-club-printing-plates/7c-kerry-kittles-magenta-3194280
p1479
asg17
g18
sg19
(lp1480
Vhttp://img.beckett.com/images/no-image.jpg
p1481
asg22
V#7C
p1482
sg24
V1999-00
p1483
sg26
g27
sg28
(lp1484
g1458
assbag1
(g2
g3
Ntp1485
Rp1486
(dp1487
g7
(dp1488
g9
V1999-00 Stadium Club Printing Plates #7D Kerry Kittles Yellow
p1489
sg11
I1
sg12
VStadium Club Printing Plates
p1490
sg14
(lp1491
Vhttp://www.beckett.com/basketball/1999-00/stadium-club-printing-plates/7d-kerry-kittles-yellow-3194281
p1492
asg17
g18
sg19
(lp1493
Vhttp://img.beckett.com/images/no-image.jpg
p1494
asg22
V#7D
p1495
sg24
V1999-00
p1496
sg26
g27
sg28
(lp1497
g1458
assbag1
(g2
g3
Ntp1498
Rp1499
(dp1500
g7
(dp1501
g9
V1999-00 Stadium Club Printing Plates #33A Keith Van Horn Black
p1502
sg11
I1
sg12
VStadium Club Printing Plates
p1503
sg14
(lp1504
Vhttp://www.beckett.com/basketball/1999-00/stadium-club-printing-plates/33a-keith-van-horn-black-3194382
p1505
asg17
g18
sg19
(lp1506
Vhttp://img.beckett.com/images/no-image.jpg
p1507
asg22
V#33A
p1508
sg24
V1999-00
p1509
sg26
g27
sg28
(lp1510
VKeith Van Horn
p1511
assbag1
(g2
g3
Ntp1512
Rp1513
(dp1514
g7
(dp1515
g9
V1999-00 Stadium Club Printing Plates #33B Keith Van Horn Cyan
p1516
sg11
I1
sg12
VStadium Club Printing Plates
p1517
sg14
(lp1518
Vhttp://www.beckett.com/basketball/1999-00/stadium-club-printing-plates/33b-keith-van-horn-cyan-3194383
p1519
asg17
g18
sg19
(lp1520
Vhttp://img.beckett.com/images/no-image.jpg
p1521
asg22
V#33B
p1522
sg24
V1999-00
p1523
sg26
g27
sg28
(lp1524
g1511
assbag1
(g2
g3
Ntp1525
Rp1526
(dp1527
g7
(dp1528
g9
V1999-00 Stadium Club Printing Plates #33C Keith Van Horn Magenta
p1529
sg11
I1
sg12
VStadium Club Printing Plates
p1530
sg14
(lp1531
Vhttp://www.beckett.com/basketball/1999-00/stadium-club-printing-plates/33c-keith-van-horn-magenta-3194384
p1532
asg17
g18
sg19
(lp1533
Vhttp://img.beckett.com/images/no-image.jpg
p1534
asg22
V#33C
p1535
sg24
V1999-00
p1536
sg26
g27
sg28
(lp1537
g1511
assbag1
(g2
g3
Ntp1538
Rp1539
(dp1540
g7
(dp1541
g9
V1999-00 Stadium Club Printing Plates #33D Keith Van Horn Yellow
p1542
sg11
I1
sg12
VStadium Club Printing Plates
p1543
sg14
(lp1544
Vhttp://www.beckett.com/basketball/1999-00/stadium-club-printing-plates/33d-keith-van-horn-yellow-3194385
p1545
asg17
g18
sg19
(lp1546
Vhttp://img.beckett.com/images/no-image.jpg
p1547
asg22
V#33D
p1548
sg24
V1999-00
p1549
sg26
g27
sg28
(lp1550
g1511
assbag1
(g2
g3
Ntp1551
Rp1552
(dp1553
g7
(dp1554
g9
V1999-00 Stadium Club Printing Plates #67A Stephon Marbury Black
p1555
sg11
I1
sg12
VStadium Club Printing Plates
p1556
sg14
(lp1557
Vhttp://www.beckett.com/basketball/1999-00/stadium-club-printing-plates/67a-stephon-marbury-black-3194518
p1558
asg17
g18
sg19
(lp1559
Vhttp://img.beckett.com/images/no-image.jpg
p1560
asg22
V#67A
p1561
sg24
V1999-00
p1562
sg26
g27
sg28
(lp1563
VStephon Marbury
p1564
assbag1
(g2
g3
Ntp1565
Rp1566
(dp1567
g7
(dp1568
g9
V1999-00 Stadium Club Printing Plates #67B Stephon Marbury Cyan
p1569
sg11
I1
sg12
VStadium Club Printing Plates
p1570
sg14
(lp1571
Vhttp://www.beckett.com/basketball/1999-00/stadium-club-printing-plates/67b-stephon-marbury-cyan-3194519
p1572
asg17
g18
sg19
(lp1573
Vhttp://img.beckett.com/images/no-image.jpg
p1574
asg22
V#67B
p1575
sg24
V1999-00
p1576
sg26
g27
sg28
(lp1577
g1564
assbag1
(g2
g3
Ntp1578
Rp1579
(dp1580
g7
(dp1581
g9
V1999-00 Stadium Club Printing Plates #67C Stephon Marbury Magenta
p1582
sg11
I1
sg12
VStadium Club Printing Plates
p1583
sg14
(lp1584
Vhttp://www.beckett.com/basketball/1999-00/stadium-club-printing-plates/67c-stephon-marbury-magenta-3194520
p1585
asg17
g18
sg19
(lp1586
Vhttp://img.beckett.com/images/no-image.jpg
p1587
asg22
V#67C
p1588
sg24
V1999-00
p1589
sg26
g27
sg28
(lp1590
g1564
assbag1
(g2
g3
Ntp1591
Rp1592
(dp1593
g7
(dp1594
g9
V1999-00 Stadium Club Printing Plates #67D Stephon Marbury Yellow
p1595
sg11
I1
sg12
VStadium Club Printing Plates
p1596
sg14
(lp1597
Vhttp://www.beckett.com/basketball/1999-00/stadium-club-printing-plates/67d-stephon-marbury-yellow-3194521
p1598
asg17
g18
sg19
(lp1599
Vhttp://img.beckett.com/images/no-image.jpg
p1600
asg22
V#67D
p1601
sg24
V1999-00
p1602
sg26
g27
sg28
(lp1603
g1564
assbag1
(g2
g3
Ntp1604
Rp1605
(dp1606
g7
(dp1607
g9
V1999-00 Stadium Club Printing Plates #85A Kendall Gill Black
p1608
sg11
I1
sg12
VStadium Club Printing Plates
p1609
sg14
(lp1610
Vhttp://www.beckett.com/basketball/1999-00/stadium-club-printing-plates/85a-kendall-gill-black-3194590
p1611
asg17
g18
sg19
(lp1612
Vhttp://img.beckett.com/images/no-image.jpg
p1613
asg22
V#85A
p1614
sg24
V1999-00
p1615
sg26
g27
sg28
(lp1616
VKendall Gill
p1617
assbag1
(g2
g3
Ntp1618
Rp1619
(dp1620
g7
(dp1621
g9
V1999-00 Stadium Club Printing Plates #85B Kendall Gill Cyan
p1622
sg11
I1
sg12
VStadium Club Printing Plates
p1623
sg14
(lp1624
Vhttp://www.beckett.com/basketball/1999-00/stadium-club-printing-plates/85b-kendall-gill-cyan-3194591
p1625
asg17
g18
sg19
(lp1626
Vhttp://img.beckett.com/images/no-image.jpg
p1627
asg22
V#85B
p1628
sg24
V1999-00
p1629
sg26
g27
sg28
(lp1630
g1617
assbag1
(g2
g3
Ntp1631
Rp1632
(dp1633
g7
(dp1634
g9
V1999-00 Stadium Club Printing Plates #85C Kendall Gill Magenta
p1635
sg11
I1
sg12
VStadium Club Printing Plates
p1636
sg14
(lp1637
Vhttp://www.beckett.com/basketball/1999-00/stadium-club-printing-plates/85c-kendall-gill-magenta-3194592
p1638
asg17
g18
sg19
(lp1639
Vhttp://img.beckett.com/images/no-image.jpg
p1640
asg22
V#85C
p1641
sg24
V1999-00
p1642
sg26
g27
sg28
(lp1643
g1617
assbag1
(g2
g3
Ntp1644
Rp1645
(dp1646
g7
(dp1647
g9
V1999-00 Stadium Club Printing Plates #85D Kendall Gill Yellow
p1648
sg11
I1
sg12
VStadium Club Printing Plates
p1649
sg14
(lp1650
Vhttp://www.beckett.com/basketball/1999-00/stadium-club-printing-plates/85d-kendall-gill-yellow-3194593
p1651
asg17
g18
sg19
(lp1652
Vhttp://img.beckett.com/images/no-image.jpg
p1653
asg22
V#85D
p1654
sg24
V1999-00
p1655
sg26
g27
sg28
(lp1656
g1617
assbag1
(g2
g3
Ntp1657
Rp1658
(dp1659
g7
(dp1660
g9
V1999-00 Stadium Club Printing Plates #144A Jayson Williams Black
p1661
sg11
I1
sg12
VStadium Club Printing Plates
p1662
sg14
(lp1663
Vhttp://www.beckett.com/basketball/1999-00/stadium-club-printing-plates/144a-jayson-williams-black-3194826
p1664
asg17
g18
sg19
(lp1665
Vhttp://img.beckett.com/images/no-image.jpg
p1666
asg22
V#144A
p1667
sg24
V1999-00
p1668
sg26
g27
sg28
(lp1669
VJayson Williams
p1670
assbag1
(g2
g3
Ntp1671
Rp1672
(dp1673
g7
(dp1674
g9
V1999-00 Stadium Club Printing Plates #144B Jayson Williams Cyan
p1675
sg11
I1
sg12
VStadium Club Printing Plates
p1676
sg14
(lp1677
Vhttp://www.beckett.com/basketball/1999-00/stadium-club-printing-plates/144b-jayson-williams-cyan-3194827
p1678
asg17
g18
sg19
(lp1679
Vhttp://img.beckett.com/images/no-image.jpg
p1680
asg22
V#144B
p1681
sg24
V1999-00
p1682
sg26
g27
sg28
(lp1683
g1670
assbag1
(g2
g3
Ntp1684
Rp1685
(dp1686
g7
(dp1687
g9
V1999-00 Stadium Club Printing Plates #144C Jayson Williams Magenta
p1688
sg11
I1
sg12
VStadium Club Printing Plates
p1689
sg14
(lp1690
Vhttp://www.beckett.com/basketball/1999-00/stadium-club-printing-plates/144c-jayson-williams-magenta-3194828
p1691
asg17
g18
sg19
(lp1692
Vhttp://img.beckett.com/images/no-image.jpg
p1693
asg22
V#144C
p1694
sg24
V1999-00
p1695
sg26
g27
sg28
(lp1696
g1670
assbag1
(g2
g3
Ntp1697
Rp1698
(dp1699
g7
(dp1700
g9
V1999-00 Stadium Club Printing Plates #144D Jayson Willaims Yellow
p1701
sg11
I1
sg12
VStadium Club Printing Plates
p1702
sg14
(lp1703
Vhttp://www.beckett.com/basketball/1999-00/stadium-club-printing-plates/144d-jayson-willaims-yellow-3194829
p1704
asg17
g18
sg19
(lp1705
Vhttp://img.beckett.com/images/no-image.jpg
p1706
asg22
V#144D
p1707
sg24
V1999-00
p1708
sg26
g27
sg28
(lp1709
g1670
assbag1
(g2
g3
Ntp1710
Rp1711
(dp1712
g7
(dp1713
g9
V1999-00 Stadium Club Chrome First Day Issue #6 Kerry Kittles
p1714
sg11
I100
sg12
VStadium Club Chrome First Day Issue
p1715
sg14
(lp1716
Vhttp://www.beckett.com/basketball/1999-00/stadium-club-chrome-first-day-issue/6-kerry-kittles-3192406
p1717
asg17
g18
sg19
(lp1718
Vhttp://img.beckett.com/images/no-image.jpg
p1719
asg22
V#6
p1720
sg24
V1999-00
p1721
sg26
g27
sg28
(lp1722
VKerry Kittles
p1723
assbag1
(g2
g3
Ntp1724
Rp1725
(dp1726
g7
(dp1727
g9
V1999-00 Stadium Club Chrome First Day Issue #24 Keith Van Horn
p1728
sg11
I100
sg12
VStadium Club Chrome First Day Issue
p1729
sg14
(lp1730
Vhttp://www.beckett.com/basketball/1999-00/stadium-club-chrome-first-day-issue/24-keith-van-horn-3192424
p1731
asg17
g18
sg19
(lp1732
Vhttp://img.beckett.com/images/no-image.jpg
p1733
asg22
V#24
p1734
sg24
V1999-00
p1735
sg26
g27
sg28
(lp1736
VKeith Van Horn
p1737
assbag1
(g2
g3
Ntp1738
Rp1739
(dp1740
g7
(dp1741
g9
V1999-00 Stadium Club Chrome First Day Issue #48 Stephon Marbury
p1742
sg11
I100
sg12
VStadium Club Chrome First Day Issue
p1743
sg14
(lp1744
Vhttp://www.beckett.com/basketball/1999-00/stadium-club-chrome-first-day-issue/48-stephon-marbury-3192448
p1745
asg17
g18
sg19
(lp1746
Vhttp://img.beckett.com/images/items_stock/185226/3192391/3192448/front.jpg
p1747
asg22
V#48
p1748
sg24
V1999-00
p1749
sg26
g27
sg28
(lp1750
VStephon Marbury
p1751
assbag1
(g2
g3
Ntp1752
Rp1753
(dp1754
g7
(dp1755
g9
V1999-00 Stadium Club Chrome First Day Issue #61 Kendall Gill
p1756
sg11
I100
sg12
VStadium Club Chrome First Day Issue
p1757
sg14
(lp1758
Vhttp://www.beckett.com/basketball/1999-00/stadium-club-chrome-first-day-issue/61-kendall-gill-3192461
p1759
asg17
g18
sg19
(lp1760
Vhttp://img.beckett.com/images/no-image.jpg
p1761
asg22
V#61
p1762
sg24
V1999-00
p1763
sg26
g27
sg28
(lp1764
VKendall Gill
p1765
assbag1
(g2
g3
Ntp1766
Rp1767
(dp1768
g7
(dp1769
g9
V1999-00 Stadium Club Chrome First Day Issue #110 Jayson Williams
p1770
sg11
I100
sg12
VStadium Club Chrome First Day Issue
p1771
sg14
(lp1772
Vhttp://www.beckett.com/basketball/1999-00/stadium-club-chrome-first-day-issue/110-jayson-williams-3192510
p1773
asg17
g18
sg19
(lp1774
Vhttp://img.beckett.com/images/no-image.jpg
p1775
asg22
V#110
p1776
sg24
V1999-00
p1777
sg26
g27
sg28
(lp1778
VJayson Williams
p1779
assbag1
(g2
g3
Ntp1780
Rp1781
(dp1782
g7
(dp1783
g9
V1999-00 Stadium Club Chrome First Day Issue Refractors #6 Kerry Kittles
p1784
sg11
I25
sg12
VStadium Club Chrome First Day Issue Refractors
p1785
sg14
(lp1786
Vhttp://www.beckett.com/basketball/1999-00/stadium-club-chrome-first-day-issue-refractors/6-kerry-kittles-3192566
p1787
asg17
g18
sg19
(lp1788
Vhttp://img.beckett.com/images/no-image.jpg
p1789
asg22
V#6
p1790
sg24
V1999-00
p1791
sg26
g27
sg28
(lp1792
VKerry Kittles
p1793
assbag1
(g2
g3
Ntp1794
Rp1795
(dp1796
g7
(dp1797
g9
V1999-00 Stadium Club Chrome First Day Issue Refractors #24 Keith Van Horn
p1798
sg11
I25
sg12
VStadium Club Chrome First Day Issue Refractors
p1799
sg14
(lp1800
Vhttp://www.beckett.com/basketball/1999-00/stadium-club-chrome-first-day-issue-refractors/24-keith-van-horn-3192584
p1801
asg17
g18
sg19
(lp1802
Vhttp://img.beckett.com/images/items_stock/185226/3192551/3192584/front.jpg
p1803
asg22
V#24
p1804
sg24
V1999-00
p1805
sg26
g27
sg28
(lp1806
VKeith Van Horn
p1807
assbag1
(g2
g3
Ntp1808
Rp1809
(dp1810
g7
(dp1811
g9
V1999-00 Stadium Club Chrome First Day Issue Refractors #48 Stephon Marbury
p1812
sg11
I25
sg12
VStadium Club Chrome First Day Issue Refractors
p1813
sg14
(lp1814
Vhttp://www.beckett.com/basketball/1999-00/stadium-club-chrome-first-day-issue-refractors/48-stephon-marbury-3192608
p1815
asg17
g18
sg19
(lp1816
Vhttp://img.beckett.com/images/no-image.jpg
p1817
asg22
V#48
p1818
sg24
V1999-00
p1819
sg26
g27
sg28
(lp1820
VStephon Marbury
p1821
assbag1
(g2
g3
Ntp1822
Rp1823
(dp1824
g7
(dp1825
g9
V1999-00 Stadium Club Chrome First Day Issue Refractors #61 Kendall Gill
p1826
sg11
I25
sg12
VStadium Club Chrome First Day Issue Refractors
p1827
sg14
(lp1828
Vhttp://www.beckett.com/basketball/1999-00/stadium-club-chrome-first-day-issue-refractors/61-kendall-gill-3192621
p1829
asg17
g18
sg19
(lp1830
Vhttp://img.beckett.com/images/no-image.jpg
p1831
asg22
V#61
p1832
sg24
V1999-00
p1833
sg26
g27
sg28
(lp1834
VKendall Gill
p1835
assbag1
(g2
g3
Ntp1836
Rp1837
(dp1838
g7
(dp1839
g9
V1999-00 Stadium Club Chrome First Day Issue Refractors #110 Jayson Williams
p1840
sg11
I25
sg12
VStadium Club Chrome First Day Issue Refractors
p1841
sg14
(lp1842
Vhttp://www.beckett.com/basketball/1999-00/stadium-club-chrome-first-day-issue-refractors/110-jayson-williams-3192670
p1843
asg17
g18
sg19
(lp1844
Vhttp://img.beckett.com/images/no-image.jpg
p1845
asg22
V#110
p1846
sg24
V1999-00
p1847
sg26
g27
sg28
(lp1848
VJayson Williams
p1849
assbag1
(g2
g3
Ntp1850
Rp1851
(dp1852
g7
(dp1853
g9
V1999-00 Topps Gallery Player's Private Issue #10 Stephon Marbury
p1854
sg11
I250
sg12
VTopps Gallery Player's Private Issue
p1855
sg14
(lp1856
Vhttp://www.beckett.com/basketball/1999-00/topps-gallery-players-private-issue/10-stephon-marbury-3190804
p1857
asg17
g18
sg19
(lp1858
Vhttp://img.beckett.com/images/no-image.jpg
p1859
asg22
V#10
p1860
sg24
V1999-00
p1861
sg26
g27
sg28
(lp1862
VStephon Marbury
p1863
assbag1
(g2
g3
Ntp1864
Rp1865
(dp1866
g7
(dp1867
g9
V1999-00 Topps Gallery Player's Private Issue #47 Jayson Williams
p1868
sg11
I250
sg12
VTopps Gallery Player's Private Issue
p1869
sg14
(lp1870
Vhttp://www.beckett.com/basketball/1999-00/topps-gallery-players-private-issue/47-jayson-williams-3190841
p1871
asg17
g18
sg19
(lp1872
Vhttp://img.beckett.com/images/items_stock/185226/3190784/3190841/front.jpg
p1873
asg22
V#47
p1874
sg24
V1999-00
p1875
sg26
g27
sg28
(lp1876
VJayson Williams
p1877
assbag1
(g2
g3
Ntp1878
Rp1879
(dp1880
g7
(dp1881
g9
V1999-00 Topps Gallery Player's Private Issue #58 Keith Van Horn
p1882
sg11
I250
sg12
VTopps Gallery Player's Private Issue
p1883
sg14
(lp1884
Vhttp://www.beckett.com/basketball/1999-00/topps-gallery-players-private-issue/58-keith-van-horn-3190852
p1885
asg17
g18
sg19
(lp1886
Vhttp://img.beckett.com/images/items_stock/185226/3190784/3190852/front.jpg
p1887
asg22
V#58
p1888
sg24
V1999-00
p1889
sg26
g27
sg28
(lp1890
VKeith Van Horn
p1891
assbag1
(g2
g3
Ntp1892
Rp1893
(dp1894
g7
(dp1895
g9
V1999-00 Topps Gallery Player's Private Issue #62 Kerry Kittles
p1896
sg11
I250
sg12
VTopps Gallery Player's Private Issue
p1897
sg14
(lp1898
Vhttp://www.beckett.com/basketball/1999-00/topps-gallery-players-private-issue/62-kerry-kittles-3190856
p1899
asg17
g18
sg19
(lp1900
Vhttp://img.beckett.com/images/no-image.jpg
p1901
asg22
V#62
p1902
sg24
V1999-00
p1903
sg26
g27
sg28
(lp1904
VKerry Kittles
p1905
assbag1
(g2
g3
Ntp1906
Rp1907
(dp1908
g7
(dp1909
g9
V1999-00 Topps Gallery Player's Private Issue #124 Stephon Marbury ART
p1910
sg11
I250
sg12
VTopps Gallery Player's Private Issue
p1911
sg14
(lp1912
Vhttp://www.beckett.com/basketball/1999-00/topps-gallery-players-private-issue/124-stephon-marbury-art-3190918
p1913
asg17
g18
sg19
(lp1914
Vhttp://img.beckett.com/images/no-image.jpg
p1915
asg22
V#124
p1916
sg24
V1999-00
p1917
sg100
VART
p1918
sg26
g27
sg28
(lp1919
VStephon Marbury
p1920
assbag1
(g2
g3
Ntp1921
Rp1922
(dp1923
g7
(dp1924
g9
V1999-00 Topps Gold Label Class 1 One to One #11 Keith Van Horn
p1925
sg11
I1
sg12
VTopps Gold Label Class 1 One to One
p1926
sg14
(lp1927
Vhttp://www.beckett.com/basketball/1999-00/topps-gold-label-class-1-one-to-one/11-keith-van-horn-3188729
p1928
asg17
g18
sg19
(lp1929
Vhttp://img.beckett.com/images/no-image.jpg
p1930
asg22
V#11
p1931
sg24
V1999-00
p1932
sg26
g27
sg28
(lp1933
VKeith Van Horn
p1934
assbag1
(g2
g3
Ntp1935
Rp1936
(dp1937
g7
(dp1938
g9
V1999-00 Topps Gold Label Class 1 One to One #41 Stephon Marbury
p1939
sg11
I1
sg12
VTopps Gold Label Class 1 One to One
p1940
sg14
(lp1941
Vhttp://www.beckett.com/basketball/1999-00/topps-gold-label-class-1-one-to-one/41-stephon-marbury-3188759
p1942
asg17
g18
sg19
(lp1943
Vhttp://img.beckett.com/images/no-image.jpg
p1944
asg22
V#41
p1945
sg24
V1999-00
p1946
sg26
g27
sg28
(lp1947
VStephon Marbury
p1948
assbag1
(g2
g3
Ntp1949
Rp1950
(dp1951
g7
(dp1952
g9
V1999-00 Topps Gold Label Class 1 One to One #63 Kerry Kittles
p1953
sg11
I1
sg12
VTopps Gold Label Class 1 One to One
p1954
sg14
(lp1955
Vhttp://www.beckett.com/basketball/1999-00/topps-gold-label-class-1-one-to-one/63-kerry-kittles-3188781
p1956
asg17
g18
sg19
(lp1957
Vhttp://img.beckett.com/images/no-image.jpg
p1958
asg22
V#63
p1959
sg24
V1999-00
p1960
sg26
g27
sg28
(lp1961
VKerry Kittles
p1962
assbag1
(g2
g3
Ntp1963
Rp1964
(dp1965
g7
(dp1966
g9
V1999-00 Topps Gold Label Class 1 Red Label #11 Keith Van Horn
p1967
sg11
I100
sg12
VTopps Gold Label Class 1 Red Label
p1968
sg14
(lp1969
Vhttp://www.beckett.com/basketball/1999-00/topps-gold-label-class-1-red-label/11-keith-van-horn-3188839
p1970
asg17
g18
sg19
(lp1971
Vhttp://img.beckett.com/images/no-image.jpg
p1972
asg22
V#11
p1973
sg24
V1999-00
p1974
sg26
g27
sg28
(lp1975
VKeith Van Horn
p1976
assbag1
(g2
g3
Ntp1977
Rp1978
(dp1979
g7
(dp1980
g9
V1999-00 Topps Gold Label Class 1 Red Label #41 Stephon Marbury
p1981
sg11
I100
sg12
VTopps Gold Label Class 1 Red Label
p1982
sg14
(lp1983
Vhttp://www.beckett.com/basketball/1999-00/topps-gold-label-class-1-red-label/41-stephon-marbury-3188869
p1984
asg17
g18
sg19
(lp1985
Vhttp://img.beckett.com/images/no-image.jpg
p1986
asg22
V#41
p1987
sg24
V1999-00
p1988
sg26
g27
sg28
(lp1989
VStephon Marbury
p1990
assbag1
(g2
g3
Ntp1991
Rp1992
(dp1993
g7
(dp1994
g9
V1999-00 Topps Gold Label Class 1 Red Label #63 Kerry Kittles
p1995
sg11
I100
sg12
VTopps Gold Label Class 1 Red Label
p1996
sg14
(lp1997
Vhttp://www.beckett.com/basketball/1999-00/topps-gold-label-class-1-red-label/63-kerry-kittles-3188891
p1998
asg17
g18
sg19
(lp1999
Vhttp://img.beckett.com/images/no-image.jpg
p2000
asg22
V#63
p2001
sg24
V1999-00
p2002
sg26
g27
sg28
(lp2003
VKerry Kittles
p2004
assbag1
(g2
g3
Ntp2005
Rp2006
(dp2007
g7
(dp2008
g9
V1999-00 Topps Gold Label Class 2 One to One #11 Keith Van Horn
p2009
sg11
I1
sg12
VTopps Gold Label Class 2 One to One
p2010
sg14
(lp2011
Vhttp://www.beckett.com/basketball/1999-00/topps-gold-label-class-2-one-to-one/11-keith-van-horn-3189175
p2012
asg17
g18
sg19
(lp2013
Vhttp://img.beckett.com/images/no-image.jpg
p2014
asg22
V#11
p2015
sg24
V1999-00
p2016
sg26
g27
sg28
(lp2017
VKeith Van Horn
p2018
assbag1
(g2
g3
Ntp2019
Rp2020
(dp2021
g7
(dp2022
g9
V1999-00 Topps Gold Label Class 2 One to One #41 Stephon Marbury
p2023
sg11
I1
sg12
VTopps Gold Label Class 2 One to One
p2024
sg14
(lp2025
Vhttp://www.beckett.com/basketball/1999-00/topps-gold-label-class-2-one-to-one/41-stephon-marbury-3189205
p2026
asg17
g18
sg19
(lp2027
Vhttp://img.beckett.com/images/no-image.jpg
p2028
asg22
V#41
p2029
sg24
V1999-00
p2030
sg26
g27
sg28
(lp2031
VStephon Marbury
p2032
assbag1
(g2
g3
Ntp2033
Rp2034
(dp2035
g7
(dp2036
g9
V1999-00 Topps Gold Label Class 2 One to One #63 Kerry Kittles
p2037
sg11
I1
sg12
VTopps Gold Label Class 2 One to One
p2038
sg14
(lp2039
Vhttp://www.beckett.com/basketball/1999-00/topps-gold-label-class-2-one-to-one/63-kerry-kittles-3189227
p2040
asg17
g18
sg19
(lp2041
Vhttp://img.beckett.com/images/no-image.jpg
p2042
asg22
V#63
p2043
sg24
V1999-00
p2044
sg26
g27
sg28
(lp2045
VKerry Kittles
p2046
assbag1
(g2
g3
Ntp2047
Rp2048
(dp2049
g7
(dp2050
g9
V1999-00 Topps Gold Label Class 2 Red Label #11 Keith Van Horn
p2051
sg11
I50
sg12
VTopps Gold Label Class 2 Red Label
p2052
sg14
(lp2053
Vhttp://www.beckett.com/basketball/1999-00/topps-gold-label-class-2-red-label/11-keith-van-horn-3189285
p2054
asg17
g18
sg19
(lp2055
Vhttp://img.beckett.com/images/no-image.jpg
p2056
asg22
V#11
p2057
sg24
V1999-00
p2058
sg26
g27
sg28
(lp2059
VKeith Van Horn
p2060
assbag1
(g2
g3
Ntp2061
Rp2062
(dp2063
g7
(dp2064
g9
V1999-00 Topps Gold Label Class 2 Red Label #41 Stephon Marbury
p2065
sg11
I50
sg12
VTopps Gold Label Class 2 Red Label
p2066
sg14
(lp2067
Vhttp://www.beckett.com/basketball/1999-00/topps-gold-label-class-2-red-label/41-stephon-marbury-3189315
p2068
asg17
g18
sg19
(lp2069
Vhttp://img.beckett.com/images/no-image.jpg
p2070
asg22
V#41
p2071
sg24
V1999-00
p2072
sg26
g27
sg28
(lp2073
VStephon Marbury
p2074
assbag1
(g2
g3
Ntp2075
Rp2076
(dp2077
g7
(dp2078
g9
V1999-00 Topps Gold Label Class 2 Red Label #63 Kerry Kittles
p2079
sg11
I50
sg12
VTopps Gold Label Class 2 Red Label
p2080
sg14
(lp2081
Vhttp://www.beckett.com/basketball/1999-00/topps-gold-label-class-2-red-label/63-kerry-kittles-3189337
p2082
asg17
g18
sg19
(lp2083
Vhttp://img.beckett.com/images/no-image.jpg
p2084
asg22
V#63
p2085
sg24
V1999-00
p2086
sg26
g27
sg28
(lp2087
VKerry Kittles
p2088
assbag1
(g2
g3
Ntp2089
Rp2090
(dp2091
g7
(dp2092
g9
V1999-00 Topps Gold Label Class 3 One to One #11 Keith Van Horn
p2093
sg11
I1
sg12
VTopps Gold Label Class 3 One to One
p2094
sg14
(lp2095
Vhttp://www.beckett.com/basketball/1999-00/topps-gold-label-class-3-one-to-one/11-keith-van-horn-3189621
p2096
asg17
g18
sg19
(lp2097
Vhttp://img.beckett.com/images/no-image.jpg
p2098
asg22
V#11
p2099
sg24
V1999-00
p2100
sg26
g27
sg28
(lp2101
VKeith Van Horn
p2102
assbag1
(g2
g3
Ntp2103
Rp2104
(dp2105
g7
(dp2106
g9
V1999-00 Topps Gold Label Class 3 One to One #41 Stephon Marbury
p2107
sg11
I1
sg12
VTopps Gold Label Class 3 One to One
p2108
sg14
(lp2109
Vhttp://www.beckett.com/basketball/1999-00/topps-gold-label-class-3-one-to-one/41-stephon-marbury-3189651
p2110
asg17
g18
sg19
(lp2111
Vhttp://img.beckett.com/images/no-image.jpg
p2112
asg22
V#41
p2113
sg24
V1999-00
p2114
sg26
g27
sg28
(lp2115
VStephon Marbury
p2116
assbag1
(g2
g3
Ntp2117
Rp2118
(dp2119
g7
(dp2120
g9
V1999-00 Topps Gold Label Class 3 One to One #63 Kerry Kittles
p2121
sg11
I1
sg12
VTopps Gold Label Class 3 One to One
p2122
sg14
(lp2123
Vhttp://www.beckett.com/basketball/1999-00/topps-gold-label-class-3-one-to-one/63-kerry-kittles-3189673
p2124
asg17
g18
sg19
(lp2125
Vhttp://img.beckett.com/images/no-image.jpg
p2126
asg22
V#63
p2127
sg24
V1999-00
p2128
sg26
g27
sg28
(lp2129
VKerry Kittles
p2130
assbag1
(g2
g3
Ntp2131
Rp2132
(dp2133
g7
(dp2134
g9
V1999-00 Topps Gold Label Class 3 Red Label #11 Keith Van Horn
p2135
sg11
I25
sg12
VTopps Gold Label Class 3 Red Label
p2136
sg14
(lp2137
Vhttp://www.beckett.com/basketball/1999-00/topps-gold-label-class-3-red-label/11-keith-van-horn-3187432
p2138
asg17
g18
sg19
(lp2139
Vhttp://img.beckett.com/images/no-image.jpg
p2140
asg22
V#11
p2141
sg24
V1999-00
p2142
sg26
g27
sg28
(lp2143
VKeith Van Horn
p2144
assbag1
(g2
g3
Ntp2145
Rp2146
(dp2147
g7
(dp2148
g9
V1999-00 Topps Gold Label Class 3 Red Label #41 Stephon Marbury
p2149
sg11
I25
sg12
VTopps Gold Label Class 3 Red Label
p2150
sg14
(lp2151
Vhttp://www.beckett.com/basketball/1999-00/topps-gold-label-class-3-red-label/41-stephon-marbury-3187462
p2152
asg17
g18
sg19
(lp2153
Vhttp://img.beckett.com/images/no-image.jpg
p2154
asg22
V#41
p2155
sg24
V1999-00
p2156
sg26
g27
sg28
(lp2157
VStephon Marbury
p2158
assbag1
(g2
g3
Ntp2159
Rp2160
(dp2161
g7
(dp2162
g9
V1999-00 Topps Gold Label Class 3 Red Label #63 Kerry Kittles
p2163
sg11
I25
sg12
VTopps Gold Label Class 3 Red Label
p2164
sg14
(lp2165
Vhttp://www.beckett.com/basketball/1999-00/topps-gold-label-class-3-red-label/63-kerry-kittles-3187484
p2166
asg17
g18
sg19
(lp2167
Vhttp://img.beckett.com/images/no-image.jpg
p2168
asg22
V#63
p2169
sg24
V1999-00
p2170
sg26
g27
sg28
(lp2171
VKerry Kittles
p2172
assbag1
(g2
g3
Ntp2173
Rp2174
(dp2175
g7
(dp2176
g9
V1999-00 Ultimate Victory 1 of 1 #50 Keith Van Horn
p2177
sg11
I1
sg12
VUltimate Victory 1 of 1
p2178
sg14
(lp2179
Vhttp://www.beckett.com/basketball/1999-00/ultimate-victory-1-of-1/50-keith-van-horn-3180414
p2180
asg17
g18
sg19
(lp2181
Vhttp://img.beckett.com/images/no-image.jpg
p2182
asg22
V#50
p2183
sg24
V1999-00
p2184
sg26
g27
sg28
(lp2185
VKeith Van Horn
p2186
assbag1
(g2
g3
Ntp2187
Rp2188
(dp2189
g7
(dp2190
g9
V1999-00 Ultimate Victory 1 of 1 #51 Stephon Marbury
p2191
sg11
I1
sg12
VUltimate Victory 1 of 1
p2192
sg14
(lp2193
Vhttp://www.beckett.com/basketball/1999-00/ultimate-victory-1-of-1/51-stephon-marbury-3180415
p2194
asg17
g18
sg19
(lp2195
Vhttp://img.beckett.com/images/no-image.jpg
p2196
asg22
V#51
p2197
sg24
V1999-00
p2198
sg26
g27
sg28
(lp2199
VStephon Marbury
p2200
assbag1
(g2
g3
Ntp2201
Rp2202
(dp2203
g7
(dp2204
g9
V1999-00 Ultimate Victory 1 of 1 #52 Jayson Williams
p2205
sg11
I1
sg12
VUltimate Victory 1 of 1
p2206
sg14
(lp2207
Vhttp://www.beckett.com/basketball/1999-00/ultimate-victory-1-of-1/52-jayson-williams-3180416
p2208
asg17
g18
sg19
(lp2209
Vhttp://img.beckett.com/images/no-image.jpg
p2210
asg22
V#52
p2211
sg24
V1999-00
p2212
sg26
g27
sg28
(lp2213
VJayson Williams
p2214
assbag1
(g2
g3
Ntp2215
Rp2216
(dp2217
g7
(dp2218
g9
V1999-00 Ultimate Victory Parallel 100 #50 Keith Van Horn
p2219
sg11
I100
sg12
VUltimate Victory Parallel 100
p2220
sg14
(lp2221
Vhttp://www.beckett.com/basketball/1999-00/ultimate-victory-parallel-100/50-keith-van-horn-3180736
p2222
asg17
g18
sg19
(lp2223
Vhttp://img.beckett.com/images/no-image.jpg
p2224
asg22
V#50
p2225
sg24
V1999-00
p2226
sg26
g27
sg28
(lp2227
VKeith Van Horn
p2228
assbag1
(g2
g3
Ntp2229
Rp2230
(dp2231
g7
(dp2232
g9
V1999-00 Ultimate Victory Parallel 100 #51 Stephon Marbury
p2233
sg11
I100
sg12
VUltimate Victory Parallel 100
p2234
sg14
(lp2235
Vhttp://www.beckett.com/basketball/1999-00/ultimate-victory-parallel-100/51-stephon-marbury-3180737
p2236
asg17
g18
sg19
(lp2237
Vhttp://img.beckett.com/images/no-image.jpg
p2238
asg22
V#51
p2239
sg24
V1999-00
p2240
sg26
g27
sg28
(lp2241
VStephon Marbury
p2242
assbag1
(g2
g3
Ntp2243
Rp2244
(dp2245
g7
(dp2246
g9
V1999-00 Ultimate Victory Parallel 100 #52 Jayson Williams
p2247
sg11
I100
sg12
VUltimate Victory Parallel 100
p2248
sg14
(lp2249
Vhttp://www.beckett.com/basketball/1999-00/ultimate-victory-parallel-100/52-jayson-williams-3180738
p2250
asg17
g18
sg19
(lp2251
Vhttp://img.beckett.com/images/no-image.jpg
p2252
asg22
V#52
p2253
sg24
V1999-00
p2254
sg26
g27
sg28
(lp2255
VJayson Williams
p2256
assbag1
(g2
g3
Ntp2257
Rp2258
(dp2259
g7
(dp2260
g9
V1999-00 Ultra Masterpieces #9 Kerry Kittles
p2261
sg11
I1
sg12
VUltra Masterpieces
p2262
sg14
(lp2263
Vhttp://www.beckett.com/basketball/1999-00/ultra-masterpieces/9-kerry-kittles-3206000
p2264
asg17
g18
sg19
(lp2265
Vhttp://img.beckett.com/images/no-image.jpg
p2266
asg22
V#9
p2267
sg24
V1999-00
p2268
sg26
g27
sg28
(lp2269
VKerry Kittles
p2270
assbag1
(g2
g3
Ntp2271
Rp2272
(dp2273
g7
(dp2274
g9
V1999-00 Ultra Masterpieces #16 Kendall Gill
p2275
sg11
I1
sg12
VUltra Masterpieces
p2276
sg14
(lp2277
Vhttp://www.beckett.com/basketball/1999-00/ultra-masterpieces/16-kendall-gill-3206007
p2278
asg17
g18
sg19
(lp2279
Vhttp://img.beckett.com/images/no-image.jpg
p2280
asg22
V#16
p2281
sg24
V1999-00
p2282
sg26
g27
sg28
(lp2283
VKendall Gill
p2284
assbag1
(g2
g3
Ntp2285
Rp2286
(dp2287
g7
(dp2288
g9
V1999-00 Ultra Masterpieces #33 Jayson Williams
p2289
sg11
I1
sg12
VUltra Masterpieces
p2290
sg14
(lp2291
Vhttp://www.beckett.com/basketball/1999-00/ultra-masterpieces/33-jayson-williams-3206024
p2292
asg17
g18
sg19
(lp2293
Vhttp://img.beckett.com/images/no-image.jpg
p2294
asg22
V#33
p2295
sg24
V1999-00
p2296
sg26
g27
sg28
(lp2297
VJayson Williams
p2298
assbag1
(g2
g3
Ntp2299
Rp2300
(dp2301
g7
(dp2302
g9
V1999-00 Ultra Masterpieces #64 Keith Van Horn
p2303
sg11
I1
sg12
VUltra Masterpieces
p2304
sg14
(lp2305
Vhttp://www.beckett.com/basketball/1999-00/ultra-masterpieces/64-keith-van-horn-3206055
p2306
asg17
g18
sg19
(lp2307
Vhttp://img.beckett.com/images/no-image.jpg
p2308
asg22
V#64
p2309
sg24
V1999-00
p2310
sg26
g27
sg28
(lp2311
VKeith Van Horn
p2312
assbag1
(g2
g3
Ntp2313
Rp2314
(dp2315
g7
(dp2316
g9
V1999-00 Ultra Masterpieces #110 Stephon Marbury
p2317
sg11
I1
sg12
VUltra Masterpieces
p2318
sg14
(lp2319
Vhttp://www.beckett.com/basketball/1999-00/ultra-masterpieces/110-stephon-marbury-3206101
p2320
asg17
g18
sg19
(lp2321
Vhttp://img.beckett.com/images/no-image.jpg
p2322
asg22
V#110
p2323
sg24
V1999-00
p2324
sg26
g27
sg28
(lp2325
VStephon Marbury
p2326
assbag1
(g2
g3
Ntp2327
Rp2328
(dp2329
g7
(dp2330
g9
V1999-00 Ultra Platinum Medallion #9 Kerry Kittles
p2331
sg11
I50
sg12
VUltra Platinum Medallion
p2332
sg14
(lp2333
Vhttp://www.beckett.com/basketball/1999-00/ultra-platinum-medallion/9-kerry-kittles-3185815
p2334
asg17
g18
sg19
(lp2335
Vhttp://img.beckett.com/images/no-image.jpg
p2336
asg22
V#9
p2337
sg24
V1999-00
p2338
sg26
g27
sg28
(lp2339
VKerry Kittles
p2340
assbag1
(g2
g3
Ntp2341
Rp2342
(dp2343
g7
(dp2344
g9
V1999-00 Ultra Platinum Medallion #16 Kendall Gill
p2345
sg11
I50
sg12
VUltra Platinum Medallion
p2346
sg14
(lp2347
Vhttp://www.beckett.com/basketball/1999-00/ultra-platinum-medallion/16-kendall-gill-3185822
p2348
asg17
g18
sg19
(lp2349
Vhttp://img.beckett.com/images/no-image.jpg
p2350
asg22
V#16
p2351
sg24
V1999-00
p2352
sg26
g27
sg28
(lp2353
VKendall Gill
p2354
assbag1
(g2
g3
Ntp2355
Rp2356
(dp2357
g7
(dp2358
g9
V1999-00 Ultra Platinum Medallion #33 Jayson Williams
p2359
sg11
I50
sg12
VUltra Platinum Medallion
p2360
sg14
(lp2361
Vhttp://www.beckett.com/basketball/1999-00/ultra-platinum-medallion/33-jayson-williams-3185839
p2362
asg17
g18
sg19
(lp2363
Vhttp://img.beckett.com/images/no-image.jpg
p2364
asg22
V#33
p2365
sg24
V1999-00
p2366
sg26
g27
sg28
(lp2367
VJayson Williams
p2368
assbag1
(g2
g3
Ntp2369
Rp2370
(dp2371
g7
(dp2372
g9
V1999-00 Ultra Platinum Medallion #64 Keith Van Horn
p2373
sg11
I50
sg12
VUltra Platinum Medallion
p2374
sg14
(lp2375
Vhttp://www.beckett.com/basketball/1999-00/ultra-platinum-medallion/64-keith-van-horn-3185870
p2376
asg17
g18
sg19
(lp2377
Vhttp://img.beckett.com/images/items_stock/185226/3185794/3185870/front.jpg
p2378
asg22
V#64
p2379
sg24
V1999-00
p2380
sg26
g27
sg28
(lp2381
VKeith Van Horn
p2382
assbag1
(g2
g3
Ntp2383
Rp2384
(dp2385
g7
(dp2386
g9
V1999-00 Ultra Platinum Medallion #110 Stephon Marbury
p2387
sg11
I50
sg12
VUltra Platinum Medallion
p2388
sg14
(lp2389
Vhttp://www.beckett.com/basketball/1999-00/ultra-platinum-medallion/110-stephon-marbury-3185916
p2390
asg17
g18
sg19
(lp2391
Vhttp://img.beckett.com/images/no-image.jpg
p2392
asg22
V#110
p2393
sg24
V1999-00
p2394
sg26
g27
sg28
(lp2395
VStephon Marbury
p2396
assbag1
(g2
g3
Ntp2397
Rp2398
(dp2399
g7
(dp2400
g9
V1999-00 Upper Deck Bronze #75 Keith Van Horn
p2401
sg11
I100
sg12
VUpper Deck Bronze
p2402
sg14
(lp2403
Vhttp://www.beckett.com/basketball/1999-00/upper-deck-bronze/75-keith-van-horn-3186602
p2404
asg17
g18
sg19
(lp2405
Vhttp://img.beckett.com/images/no-image.jpg
p2406
asg22
V#75
p2407
sg24
V1999-00
p2408
sg26
g27
sg28
(lp2409
VKeith Van Horn
p2410
assbag1
(g2
g3
Ntp2411
Rp2412
(dp2413
g7
(dp2414
g9
V1999-00 Upper Deck Bronze #76 Stephon Marbury
p2415
sg11
I100
sg12
VUpper Deck Bronze
p2416
sg14
(lp2417
Vhttp://www.beckett.com/basketball/1999-00/upper-deck-bronze/76-stephon-marbury-3186603
p2418
asg17
g18
sg19
(lp2419
Vhttp://img.beckett.com/images/no-image.jpg
p2420
asg22
V#76
p2421
sg24
V1999-00
p2422
sg26
g27
sg28
(lp2423
VStephon Marbury
p2424
assbag1
(g2
g3
Ntp2425
Rp2426
(dp2427
g7
(dp2428
g9
V1999-00 Upper Deck Bronze #77 Kendall Gill
p2429
sg11
I100
sg12
VUpper Deck Bronze
p2430
sg14
(lp2431
Vhttp://www.beckett.com/basketball/1999-00/upper-deck-bronze/77-kendall-gill-3186604
p2432
asg17
g18
sg19
(lp2433
Vhttp://img.beckett.com/images/no-image.jpg
p2434
asg22
V#77
p2435
sg24
V1999-00
p2436
sg26
g27
sg28
(lp2437
VKendall Gill
p2438
assbag1
(g2
g3
Ntp2439
Rp2440
(dp2441
g7
(dp2442
g9
V1999-00 Upper Deck Bronze #78 Scott Burrell
p2443
sg11
I100
sg12
VUpper Deck Bronze
p2444
sg14
(lp2445
Vhttp://www.beckett.com/basketball/1999-00/upper-deck-bronze/78-scott-burrell-3186605
p2446
asg17
g18
sg19
(lp2447
Vhttp://img.beckett.com/images/items_stock/185226/3186514/3186605/front.jpg
p2448
asg22
V#78
p2449
sg24
V1999-00
p2450
sg26
g27
sg28
(lp2451
VScott Burrell
p2452
assbag1
(g2
g3
Ntp2453
Rp2454
(dp2455
g7
(dp2456
g9
V1999-00 Upper Deck Bronze #179 Evan Eschmeyer
p2457
sg11
I100
sg12
VUpper Deck Bronze
p2458
sg14
(lp2459
Vhttp://www.beckett.com/basketball/1999-00/upper-deck-bronze/179-evan-eschmeyer-3186706
p2460
asg17
g18
sg19
(lp2461
Vhttp://img.beckett.com/images/items_stock/185226/3186514/3186706/front.jpg
p2462
asg22
V#179
p2463
sg24
V1999-00
p2464
sg26
g27
sg28
(lp2465
VEvan Eschmeyer
p2466
assbag1
(g2
g3
Ntp2467
Rp2468
(dp2469
g7
(dp2470
g9
V1999-00 Upper Deck Bronze #255 Jayson Williams
p2471
sg11
I100
sg12
VUpper Deck Bronze
p2472
sg14
(lp2473
Vhttp://www.beckett.com/basketball/1999-00/upper-deck-bronze/255-jayson-williams-3186782
p2474
asg17
g18
sg19
(lp2475
Vhttp://img.beckett.com/images/items_stock/185226/3186514/3186782/front.jpg
p2476
asg22
V#255
p2477
sg24
V1999-00
p2478
sg26
g27
sg28
(lp2479
VJayson Williams
p2480
assbag1
(g2
g3
Ntp2481
Rp2482
(dp2483
g7
(dp2484
g9
V1999-00 Upper Deck Bronze #256 Jamie Feick
p2485
sg11
I100
sg12
VUpper Deck Bronze
p2486
sg14
(lp2487
Vhttp://www.beckett.com/basketball/1999-00/upper-deck-bronze/256-jamie-feick-3186783
p2488
asg17
g18
sg19
(lp2489
Vhttp://img.beckett.com/images/no-image.jpg
p2490
asg22
V#256
p2491
sg24
V1999-00
p2492
sg26
g27
sg28
(lp2493
VJamie Feick
p2494
assbag1
(g2
g3
Ntp2495
Rp2496
(dp2497
g7
(dp2498
g9
V1999-00 Upper Deck Bronze #257 Kerry Kittles
p2499
sg11
I100
sg12
VUpper Deck Bronze
p2500
sg14
(lp2501
Vhttp://www.beckett.com/basketball/1999-00/upper-deck-bronze/257-kerry-kittles-3186784
p2502
asg17
g18
sg19
(lp2503
Vhttp://img.beckett.com/images/items_stock/185226/3186514/3186784/front.jpg
p2504
asg22
V#257
p2505
sg24
V1999-00
p2506
sg26
g27
sg28
(lp2507
VKerry Kittles
p2508
assbag1
(g2
g3
Ntp2509
Rp2510
(dp2511
g7
(dp2512
g9
V1999-00 Upper Deck Bronze #346 Evan Eschmeyer
p2513
sg11
I100
sg12
VUpper Deck Bronze
p2514
sg14
(lp2515
Vhttp://www.beckett.com/basketball/1999-00/upper-deck-bronze/346-evan-eschmeyer-3186873
p2516
asg17
g18
sg19
(lp2517
Vhttp://img.beckett.com/images/items_stock/185226/3186514/3186873/front.jpg
p2518
asg22
V#346
p2519
sg24
V1999-00
p2520
sg26
g27
sg28
(lp2521
VEvan Eschmeyer
p2522
assbag1
(g2
g3
Ntp2523
Rp2524
(dp2525
g7
(dp2526
g9
V1999-00 Upper Deck Gold #75 Keith Van Horn
p2527
sg11
I1
sg12
VUpper Deck Gold
p2528
sg14
(lp2529
Vhttp://www.beckett.com/basketball/1999-00/upper-deck-gold/75-keith-van-horn-3186967
p2530
asg17
g18
sg19
(lp2531
Vhttp://img.beckett.com/images/no-image.jpg
p2532
asg22
V#75
p2533
sg24
V1999-00
p2534
sg26
g27
sg28
(lp2535
VKeith Van Horn
p2536
assbag1
(g2
g3
Ntp2537
Rp2538
(dp2539
g7
(dp2540
g9
V1999-00 Upper Deck Gold #76 Stephon Marbury
p2541
sg11
I1
sg12
VUpper Deck Gold
p2542
sg14
(lp2543
Vhttp://www.beckett.com/basketball/1999-00/upper-deck-gold/76-stephon-marbury-3186968
p2544
asg17
g18
sg19
(lp2545
Vhttp://img.beckett.com/images/no-image.jpg
p2546
asg22
V#76
p2547
sg24
V1999-00
p2548
sg26
g27
sg28
(lp2549
VStephon Marbury
p2550
assbag1
(g2
g3
Ntp2551
Rp2552
(dp2553
g7
(dp2554
g9
V1999-00 Upper Deck Gold #77 Kendall Gill
p2555
sg11
I1
sg12
VUpper Deck Gold
p2556
sg14
(lp2557
Vhttp://www.beckett.com/basketball/1999-00/upper-deck-gold/77-kendall-gill-3186969
p2558
asg17
g18
sg19
(lp2559
Vhttp://img.beckett.com/images/no-image.jpg
p2560
asg22
V#77
p2561
sg24
V1999-00
p2562
sg26
g27
sg28
(lp2563
VKendall Gill
p2564
assbag1
(g2
g3
Ntp2565
Rp2566
(dp2567
g7
(dp2568
g9
V1999-00 Upper Deck Gold #78 Scott Burrell
p2569
sg11
I1
sg12
VUpper Deck Gold
p2570
sg14
(lp2571
Vhttp://www.beckett.com/basketball/1999-00/upper-deck-gold/78-scott-burrell-3186970
p2572
asg17
g18
sg19
(lp2573
Vhttp://img.beckett.com/images/no-image.jpg
p2574
asg22
V#78
p2575
sg24
V1999-00
p2576
sg26
g27
sg28
(lp2577
VScott Burrell
p2578
assbag1
(g2
g3
Ntp2579
Rp2580
(dp2581
g7
(dp2582
g9
V1999-00 Upper Deck Gold #179 Evan Eschmeyer
p2583
sg11
I1
sg12
VUpper Deck Gold
p2584
sg14
(lp2585
Vhttp://www.beckett.com/basketball/1999-00/upper-deck-gold/179-evan-eschmeyer-3187071
p2586
asg17
g18
sg19
(lp2587
Vhttp://img.beckett.com/images/no-image.jpg
p2588
asg22
V#179
p2589
sg24
V1999-00
p2590
sg26
g27
sg28
(lp2591
VEvan Eschmeyer
p2592
assbag1
(g2
g3
Ntp2593
Rp2594
(dp2595
g7
(dp2596
g9
V1999-00 Upper Deck Gold #255 Jayson Williams
p2597
sg11
I1
sg12
VUpper Deck Gold
p2598
sg14
(lp2599
Vhttp://www.beckett.com/basketball/1999-00/upper-deck-gold/255-jayson-williams-3187147
p2600
asg17
g18
sg19
(lp2601
Vhttp://img.beckett.com/images/no-image.jpg
p2602
asg22
V#255
p2603
sg24
V1999-00
p2604
sg26
g27
sg28
(lp2605
VJayson Williams
p2606
assbag1
(g2
g3
Ntp2607
Rp2608
(dp2609
g7
(dp2610
g9
V1999-00 Upper Deck Gold #256 Jamie Feick
p2611
sg11
I1
sg12
VUpper Deck Gold
p2612
sg14
(lp2613
Vhttp://www.beckett.com/basketball/1999-00/upper-deck-gold/256-jamie-feick-3187148
p2614
asg17
g18
sg19
(lp2615
Vhttp://img.beckett.com/images/no-image.jpg
p2616
asg22
V#256
p2617
sg24
V1999-00
p2618
sg26
g27
sg28
(lp2619
VJamie Feick
p2620
assbag1
(g2
g3
Ntp2621
Rp2622
(dp2623
g7
(dp2624
g9
V1999-00 Upper Deck Gold #257 Kerry Kittles
p2625
sg11
I1
sg12
VUpper Deck Gold
p2626
sg14
(lp2627
Vhttp://www.beckett.com/basketball/1999-00/upper-deck-gold/257-kerry-kittles-3187149
p2628
asg17
g18
sg19
(lp2629
Vhttp://img.beckett.com/images/no-image.jpg
p2630
asg22
V#257
p2631
sg24
V1999-00
p2632
sg26
g27
sg28
(lp2633
VKerry Kittles
p2634
assbag1
(g2
g3
Ntp2635
Rp2636
(dp2637
g7
(dp2638
g9
V1999-00 Upper Deck Gold #346 Evan Eschmeyer
p2639
sg11
I1
sg12
VUpper Deck Gold
p2640
sg14
(lp2641
Vhttp://www.beckett.com/basketball/1999-00/upper-deck-gold/346-evan-eschmeyer-3187238
p2642
asg17
g18
sg19
(lp2643
Vhttp://img.beckett.com/images/no-image.jpg
p2644
asg22
V#346
p2645
sg24
V1999-00
p2646
sg26
g27
sg28
(lp2647
VEvan Eschmeyer
p2648
assbag1
(g2
g3
Ntp2649
Rp2650
(dp2651
g7
(dp2652
g9
V1999-00 Upper Deck Hardcourt Baseline Grooves Gold #33 Stephon Marbury
p2653
sg11
I1
sg12
VUpper Deck Hardcourt Baseline Grooves Gold
p2654
sg14
(lp2655
Vhttp://www.beckett.com/basketball/1999-00/upper-deck-hardcourt-baseline-grooves-gold/33-stephon-marbury-3183873
p2656
asg17
g18
sg19
(lp2657
Vhttp://img.beckett.com/images/no-image.jpg
p2658
asg22
V#33
p2659
sg24
V1999-00
p2660
sg26
g27
sg28
(lp2661
VStephon Marbury
p2662
assbag1
(g2
g3
Ntp2663
Rp2664
(dp2665
g7
(dp2666
g9
V1999-00 Upper Deck Hardcourt Baseline Grooves Gold #34 Keith Van Horn
p2667
sg11
I1
sg12
VUpper Deck Hardcourt Baseline Grooves Gold
p2668
sg14
(lp2669
Vhttp://www.beckett.com/basketball/1999-00/upper-deck-hardcourt-baseline-grooves-gold/34-keith-van-horn-3183874
p2670
asg17
g18
sg19
(lp2671
Vhttp://img.beckett.com/images/no-image.jpg
p2672
asg22
V#34
p2673
sg24
V1999-00
p2674
sg26
g27
sg28
(lp2675
VKeith Van Horn
p2676
assbag1
(g2
g3
Ntp2677
Rp2678
(dp2679
g7
(dp2680
g9
V1999-00 Upper Deck Hardcourt Baseline Grooves Rainbow #33 Stephon Marbury
p2681
sg11
I500
sg12
VUpper Deck Hardcourt Baseline Grooves Rainbow
p2682
sg14
(lp2683
Vhttp://www.beckett.com/basketball/1999-00/upper-deck-hardcourt-baseline-grooves-rainbow/33-stephon-marbury-3183780
p2684
asg17
g18
sg19
(lp2685
Vhttp://img.beckett.com/images/items_stock/185226/3183740/3183780/front.jpg
p2686
asg22
V#33
p2687
sg24
V1999-00
p2688
sg26
g27
sg28
(lp2689
VStephon Marbury
p2690
assbag1
(g2
g3
Ntp2691
Rp2692
(dp2693
g7
(dp2694
g9
V1999-00 Upper Deck Hardcourt Baseline Grooves Rainbow #34 Keith Van Horn
p2695
sg11
I500
sg12
VUpper Deck Hardcourt Baseline Grooves Rainbow
p2696
sg14
(lp2697
Vhttp://www.beckett.com/basketball/1999-00/upper-deck-hardcourt-baseline-grooves-rainbow/34-keith-van-horn-3183781
p2698
asg17
g18
sg19
(lp2699
Vhttp://img.beckett.com/images/items_stock/185226/3183740/3183781/front.jpg
p2700
asg22
V#34
p2701
sg24
V1999-00
p2702
sg26
g27
sg28
(lp2703
VKeith Van Horn
p2704
assbag1
(g2
g3
Ntp2705
Rp2706
(dp2707
g7
(dp2708
g9
V1999-00 Upper Deck Hardcourt Baseline Grooves Silver #33 Stephon Marbury
p2709
sg11
I50
sg12
VUpper Deck Hardcourt Baseline Grooves Silver
p2710
sg14
(lp2711
Vhttp://www.beckett.com/basketball/1999-00/upper-deck-hardcourt-baseline-grooves-silver/33-stephon-marbury-3183973
p2712
asg17
g18
sg19
(lp2713
Vhttp://img.beckett.com/images/no-image.jpg
p2714
asg22
V#33
p2715
sg24
V1999-00
p2716
sg26
g27
sg28
(lp2717
VStephon Marbury
p2718
assbag1
(g2
g3
Ntp2719
Rp2720
(dp2721
g7
(dp2722
g9
V1999-00 Upper Deck Hardcourt Baseline Grooves Silver #34 Keith Van Horn
p2723
sg11
I50
sg12
VUpper Deck Hardcourt Baseline Grooves Silver
p2724
sg14
(lp2725
Vhttp://www.beckett.com/basketball/1999-00/upper-deck-hardcourt-baseline-grooves-silver/34-keith-van-horn-3183974
p2726
asg17
g18
sg19
(lp2727
Vhttp://img.beckett.com/images/no-image.jpg
p2728
asg22
V#34
p2729
sg24
V1999-00
p2730
sg26
g27
sg28
(lp2731
VKeith Van Horn
p2732
assbag1
(g2
g3
Ntp2733
Rp2734
(dp2735
g7
(dp2736
g9
V1999-00 Upper Deck MVP Gold Script #99 Keith Van Horn
p2737
sg11
I100
sg12
VUpper Deck MVP Gold Script
p2738
sg14
(lp2739
Vhttp://www.beckett.com/basketball/1999-00/upper-deck-mvp-gold-script/99-keith-van-horn-3182732
p2740
asg17
g18
sg19
(lp2741
Vhttp://img.beckett.com/images/items_stock/185226/3182624/3182732/front.jpg
p2742
asg22
V#99
p2743
sg24
V1999-00
p2744
sg26
g27
sg28
(lp2745
VKeith Van Horn
p2746
assbag1
(g2
g3
Ntp2747
Rp2748
(dp2749
g7
(dp2750
g9
V1999-00 Upper Deck MVP Gold Script #100 Stephon Marbury
p2751
sg11
I100
sg12
VUpper Deck MVP Gold Script
p2752
sg14
(lp2753
Vhttp://www.beckett.com/basketball/1999-00/upper-deck-mvp-gold-script/100-stephon-marbury-3182733
p2754
asg17
g18
sg19
(lp2755
Vhttp://img.beckett.com/images/no-image.jpg
p2756
asg22
V#100
p2757
sg24
V1999-00
p2758
sg26
g27
sg28
(lp2759
VStephon Marbury
p2760
assbag1
(g2
g3
Ntp2761
Rp2762
(dp2763
g7
(dp2764
g9
V1999-00 Upper Deck MVP Gold Script #101 Jayson Williams
p2765
sg11
I100
sg12
VUpper Deck MVP Gold Script
p2766
sg14
(lp2767
Vhttp://www.beckett.com/basketball/1999-00/upper-deck-mvp-gold-script/101-jayson-williams-3182734
p2768
asg17
g18
sg19
(lp2769
Vhttp://img.beckett.com/images/no-image.jpg
p2770
asg22
V#101
p2771
sg24
V1999-00
p2772
sg26
g27
sg28
(lp2773
VJayson Williams
p2774
assbag1
(g2
g3
Ntp2775
Rp2776
(dp2777
g7
(dp2778
g9
V1999-00 Upper Deck MVP Gold Script #102 Kendall Gill
p2779
sg11
I100
sg12
VUpper Deck MVP Gold Script
p2780
sg14
(lp2781
Vhttp://www.beckett.com/basketball/1999-00/upper-deck-mvp-gold-script/102-kendall-gill-3182735
p2782
asg17
g18
sg19
(lp2783
Vhttp://img.beckett.com/images/no-image.jpg
p2784
asg22
V#102
p2785
sg24
V1999-00
p2786
sg26
g27
sg28
(lp2787
VKendall Gill
p2788
assbag1
(g2
g3
Ntp2789
Rp2790
(dp2791
g7
(dp2792
g9
V1999-00 Upper Deck MVP Gold Script #103 Kerry Kittles
p2793
sg11
I100
sg12
VUpper Deck MVP Gold Script
p2794
sg14
(lp2795
Vhttp://www.beckett.com/basketball/1999-00/upper-deck-mvp-gold-script/103-kerry-kittles-3182736
p2796
asg17
g18
sg19
(lp2797
Vhttp://img.beckett.com/images/no-image.jpg
p2798
asg22
V#103
p2799
sg24
V1999-00
p2800
sg26
g27
sg28
(lp2801
VKerry Kittles
p2802
assbag1
(g2
g3
Ntp2803
Rp2804
(dp2805
g7
(dp2806
g9
V1999-00 Upper Deck MVP Gold Script #104 Scott Burrell
p2807
sg11
I100
sg12
VUpper Deck MVP Gold Script
p2808
sg14
(lp2809
Vhttp://www.beckett.com/basketball/1999-00/upper-deck-mvp-gold-script/104-scott-burrell-3182737
p2810
asg17
g18
sg19
(lp2811
Vhttp://img.beckett.com/images/no-image.jpg
p2812
asg22
V#104
p2813
sg24
V1999-00
p2814
sg26
g27
sg28
(lp2815
VScott Burrell
p2816
assbag1
(g2
g3
Ntp2817
Rp2818
(dp2819
g7
(dp2820
g9
V1999-00 Upper Deck MVP Super Script #99 Keith Van Horn
p2821
sg11
I25
sg12
VUpper Deck MVP Super Script
p2822
sg14
(lp2823
Vhttp://www.beckett.com/basketball/1999-00/upper-deck-mvp-super-script/99-keith-van-horn-3182962
p2824
asg17
g18
sg19
(lp2825
Vhttp://img.beckett.com/images/no-image.jpg
p2826
asg22
V#99
p2827
sg24
V1999-00
p2828
sg26
g27
sg28
(lp2829
VKeith Van Horn
p2830
assbag1
(g2
g3
Ntp2831
Rp2832
(dp2833
g7
(dp2834
g9
V1999-00 Upper Deck MVP Super Script #100 Stephon Marbury
p2835
sg11
I25
sg12
VUpper Deck MVP Super Script
p2836
sg14
(lp2837
Vhttp://www.beckett.com/basketball/1999-00/upper-deck-mvp-super-script/100-stephon-marbury-3182963
p2838
asg17
g18
sg19
(lp2839
Vhttp://img.beckett.com/images/no-image.jpg
p2840
asg22
V#100
p2841
sg24
V1999-00
p2842
sg26
g27
sg28
(lp2843
VStephon Marbury
p2844
assbag1
(g2
g3
Ntp2845
Rp2846
(dp2847
g7
(dp2848
g9
V1999-00 Upper Deck MVP Super Script #101 Jayson Williams
p2849
sg11
I25
sg12
VUpper Deck MVP Super Script
p2850
sg14
(lp2851
Vhttp://www.beckett.com/basketball/1999-00/upper-deck-mvp-super-script/101-jayson-williams-3182964
p2852
asg17
g18
sg19
(lp2853
Vhttp://img.beckett.com/images/items_stock/185226/3182854/3182964/front.jpg
p2854
asg22
V#101
p2855
sg24
V1999-00
p2856
sg26
g27
sg28
(lp2857
VJayson Williams
p2858
assbag1
(g2
g3
Ntp2859
Rp2860
(dp2861
g7
(dp2862
g9
V1999-00 Upper Deck MVP Super Script #102 Kendall Gill
p2863
sg11
I25
sg12
VUpper Deck MVP Super Script
p2864
sg14
(lp2865
Vhttp://www.beckett.com/basketball/1999-00/upper-deck-mvp-super-script/102-kendall-gill-3182965
p2866
asg17
g18
sg19
(lp2867
Vhttp://img.beckett.com/images/no-image.jpg
p2868
asg22
V#102
p2869
sg24
V1999-00
p2870
sg26
g27
sg28
(lp2871
VKendall Gill
p2872
assbag1
(g2
g3
Ntp2873
Rp2874
(dp2875
g7
(dp2876
g9
V1999-00 Upper Deck MVP Super Script #103 Kerry Kittles
p2877
sg11
I25
sg12
VUpper Deck MVP Super Script
p2878
sg14
(lp2879
Vhttp://www.beckett.com/basketball/1999-00/upper-deck-mvp-super-script/103-kerry-kittles-3182966
p2880
asg17
g18
sg19
(lp2881
Vhttp://img.beckett.com/images/no-image.jpg
p2882
asg22
V#103
p2883
sg24
V1999-00
p2884
sg26
g27
sg28
(lp2885
VKerry Kittles
p2886
assbag1
(g2
g3
Ntp2887
Rp2888
(dp2889
g7
(dp2890
g9
V1999-00 Upper Deck MVP Super Script #104 Scott Burrell
p2891
sg11
I25
sg12
VUpper Deck MVP Super Script
p2892
sg14
(lp2893
Vhttp://www.beckett.com/basketball/1999-00/upper-deck-mvp-super-script/104-scott-burrell-3182967
p2894
asg17
g18
sg19
(lp2895
Vhttp://img.beckett.com/images/no-image.jpg
p2896
asg22
V#104
p2897
sg24
V1999-00
p2898
sg26
g27
sg28
(lp2899
VScott Burrell
p2900
assbag1
(g2
g3
Ntp2901
Rp2902
(dp2903
g7
(dp2904
g9
V1999-00 Upper Deck Ovation Standing Ovation #34 Stephon Marbury
p2905
sg11
I50
sg12
VUpper Deck Ovation Standing Ovation
p2906
sg14
(lp2907
Vhttp://www.beckett.com/basketball/1999-00/upper-deck-ovation-standing-ovation/34-stephon-marbury-3181167
p2908
asg17
g18
sg19
(lp2909
Vhttp://img.beckett.com/images/no-image.jpg
p2910
asg22
V#34
p2911
sg24
V1999-00
p2912
sg26
g27
sg28
(lp2913
VStephon Marbury
p2914
assbag1
(g2
g3
Ntp2915
Rp2916
(dp2917
g7
(dp2918
g9
V1999-00 Upper Deck Ovation Standing Ovation #35 Keith Van Horn
p2919
sg11
I50
sg12
VUpper Deck Ovation Standing Ovation
p2920
sg14
(lp2921
Vhttp://www.beckett.com/basketball/1999-00/upper-deck-ovation-standing-ovation/35-keith-van-horn-3181168
p2922
asg17
g18
sg19
(lp2923
Vhttp://img.beckett.com/images/no-image.jpg
p2924
asg22
V#35
p2925
sg24
V1999-00
p2926
sg26
g27
sg28
(lp2927
VKeith Van Horn
p2928
assbag1
(g2
g3
Ntp2929
Rp2930
(dp2931
g7
(dp2932
g9
V1999-00 Upper Deck Ovation Standing Ovation #90 Evan Eschmeyer
p2933
sg11
I50
sg12
VUpper Deck Ovation Standing Ovation
p2934
sg14
(lp2935
Vhttp://www.beckett.com/basketball/1999-00/upper-deck-ovation-standing-ovation/90-evan-eschmeyer-3181223
p2936
asg17
g18
sg19
(lp2937
Vhttp://img.beckett.com/images/no-image.jpg
p2938
asg22
V#90
p2939
sg24
V1999-00
p2940
sg26
g27
sg28
(lp2941
VEvan Eschmeyer
p2942
assbag1
(g2
g3
Ntp2943
Rp2944
(dp2945
g7
(dp2946
g9
V1999-00 Upper Deck Retro Gold #49 Stephon Marbury
p2947
sg11
I250
sg12
VUpper Deck Retro Gold
p2948
sg14
(lp2949
Vhttp://www.beckett.com/basketball/1999-00/upper-deck-retro-gold/49-stephon-marbury-3181556
p2950
asg17
g18
sg19
(lp2951
Vhttp://img.beckett.com/images/items_stock/185226/3181499/3181556/front.jpg
p2952
asg22
V#49
p2953
sg24
V1999-00
p2954
sg26
g27
sg28
(lp2955
VStephon Marbury
p2956
assbag1
(g2
g3
Ntp2957
Rp2958
(dp2959
g7
(dp2960
g9
V1999-00 Upper Deck Retro Gold #80 Keith Van Horn
p2961
sg11
I250
sg12
VUpper Deck Retro Gold
p2962
sg14
(lp2963
Vhttp://www.beckett.com/basketball/1999-00/upper-deck-retro-gold/80-keith-van-horn-3181587
p2964
asg17
g18
sg19
(lp2965
Vhttp://img.beckett.com/images/items_stock/185226/3181499/3181587/front.jpg
p2966
asg22
V#80
p2967
sg24
V1999-00
p2968
sg26
g27
sg28
(lp2969
VKeith Van Horn
p2970
assbag1
(g2
g3
Ntp2971
Rp2972
(dp2973
g7
(dp2974
g9
V1999-00 Upper Deck Retro Platinum #49 Stephon Marbury
p2975
sg11
I1
sg12
VUpper Deck Retro Platinum
p2976
sg14
(lp2977
Vhttp://www.beckett.com/basketball/1999-00/upper-deck-retro-platinum/49-stephon-marbury-3181671
p2978
asg17
g18
sg19
(lp2979
Vhttp://img.beckett.com/images/no-image.jpg
p2980
asg22
V#49
p2981
sg24
V1999-00
p2982
sg26
g27
sg28
(lp2983
VStephon Marbury
p2984
assbag1
(g2
g3
Ntp2985
Rp2986
(dp2987
g7
(dp2988
g9
V1999-00 Upper Deck Retro Platinum #80 Keith Van Horn
p2989
sg11
I1
sg12
VUpper Deck Retro Platinum
p2990
sg14
(lp2991
Vhttp://www.beckett.com/basketball/1999-00/upper-deck-retro-platinum/80-keith-van-horn-3181702
p2992
asg17
g18
sg19
(lp2993
Vhttp://img.beckett.com/images/no-image.jpg
p2994
asg22
V#80
p2995
sg24
V1999-00
p2996
sg26
g27
sg28
(lp2997
VKeith Van Horn
p2998
assbag1
(g2
g3
Ntp2999
Rp3000
(dp3001
g7
(dp3002
g9
V1999-00 Finest Team Finest Blue #TF2 Stephon Marbury
p3003
sg11
I1500
sg12
VFinest Team Finest Blue
p3004
sg14
(lp3005
Vhttp://www.beckett.com/basketball/1999-00/finest-team-finest-blue/tf2-stephon-marbury-3202599
p3006
asg17
g18
sg19
(lp3007
Vhttp://img.beckett.com/images/items_stock/185226/3202568/3202599/front.jpg
p3008
asg22
V#TF2
p3009
sg24
V1999-00
p3010
sg26
g27
sg28
(lp3011
VStephon Marbury
p3012
assbag1
(g2
g3
Ntp3013
Rp3014
(dp3015
g7
(dp3016
g9
V1999-00 Finest Team Finest Blue #TF10 Keith Van Horn
p3017
sg11
I1500
sg12
VFinest Team Finest Blue
p3018
sg14
(lp3019
Vhttp://www.beckett.com/basketball/1999-00/finest-team-finest-blue/tf10-keith-van-horn-3202607
p3020
asg17
g18
sg19
(lp3021
Vhttp://img.beckett.com/images/items_stock/185226/3202568/3202607/front.jpg
p3022
asg22
V#TF10
p3023
sg24
V1999-00
p3024
sg26
g27
sg28
(lp3025
VKeith Van Horn
p3026
assbag1
(g2
g3
Ntp3027
Rp3028
(dp3029
g7
(dp3030
g9
V1999-00 Flair Showcase Rookie Showcase Firsts #22 Evan Eschmeyer
p3031
sg11
I500
sg12
VFlair Showcase Rookie Showcase Firsts
p3032
sg14
(lp3033
Vhttp://www.beckett.com/basketball/1999-00/flair-showcase-rookie-showcase-firsts/22-evan-eschmeyer-3201024
p3034
asg17
g18
sg19
(lp3035
Vhttp://img.beckett.com/images/items_stock/185226/3200996/3201024/front.jpg
p3036
asg22
V#22
p3037
sg24
V1999-00
p3038
sg26
g27
sg28
(lp3039
VEvan Eschmeyer
p3040
assbag1
(g2
g3
Ntp3041
Rp3042
(dp3043
g7
(dp3044
g9
V1999-00 Fleer Game Breakers #10 Stephon Marbury
p3045
sg11
I100
sg12
VFleer Game Breakers
p3046
sg14
(lp3047
Vhttp://www.beckett.com/basketball/1999-00/fleer-game-breakers/10-stephon-marbury-3201769
p3048
asg17
g18
sg19
(lp3049
Vhttp://img.beckett.com/images/no-image.jpg
p3050
asg22
V#10
p3051
sg24
V1999-00
p3052
sg26
g27
sg28
(lp3053
VStephon Marbury
p3054
assbag1
(g2
g3
Ntp3055
Rp3056
(dp3057
g7
(dp3058
g9
V1999-00 Fleer Game Breakers #13 Keith Van Horn
p3059
sg11
I100
sg12
VFleer Game Breakers
p3060
sg14
(lp3061
Vhttp://www.beckett.com/basketball/1999-00/fleer-game-breakers/13-keith-van-horn-3201772
p3062
asg17
g18
sg19
(lp3063
Vhttp://img.beckett.com/images/no-image.jpg
p3064
asg22
V#13
p3065
sg24
V1999-00
p3066
sg26
g27
sg28
(lp3067
VKeith Van Horn
p3068
assbag1
(g2
g3
Ntp3069
Rp3070
(dp3071
g7
(dp3072
g9
V1999-00 Fleer Mystique Point Perfect #PP2 Stephon Marbury
p3073
sg11
I1999
sg12
VFleer Mystique Point Perfect
p3074
sg14
(lp3075
Vhttp://www.beckett.com/basketball/1999-00/fleer-mystique-point-perfect/pp2-stephon-marbury-3198818
p3076
asg17
g18
sg19
(lp3077
Vhttp://img.beckett.com/images/items_stock/185226/3198810/3198818/front.jpg
p3078
asg22
V#PP2
p3079
sg24
V1999-00
p3080
sg26
g27
sg28
(lp3081
VStephon Marbury
p3082
assbag1
(g2
g3
Ntp3083
Rp3084
(dp3085
g7
(dp3086
g9
V1999-00 Fleer Mystique Raise the Roof #RR2 Keith Van Horn
p3087
sg11
I100
sg12
VFleer Mystique Raise the Roof
p3088
sg14
(lp3089
Vhttp://www.beckett.com/basketball/1999-00/fleer-mystique-raise-the-roof/rr2-keith-van-horn-3198835
p3090
asg17
g18
sg19
(lp3091
Vhttp://img.beckett.com/images/no-image.jpg
p3092
asg22
V#RR2
p3093
sg24
V1999-00
p3094
sg26
g27
sg28
(lp3095
VKeith Van Horn
p3096
assbag1
(g2
g3
Ntp3097
Rp3098
(dp3099
g7
(dp3100
g9
V1999-00 Fleer Mystique Slamboree #S10 Stephon Marbury
p3101
sg11
I999
sg12
VFleer Mystique Slamboree
p3102
sg14
(lp3103
Vhttp://www.beckett.com/basketball/1999-00/fleer-mystique-slamboree/s10-stephon-marbury-3198860
p3104
asg17
g18
sg19
(lp3105
Vhttp://img.beckett.com/images/items_stock/185226/3198844/3198860/front.jpg
p3106
asg22
V#S10
p3107
sg24
V1999-00
p3108
sg26
g27
sg28
(lp3109
VStephon Marbury
p3110
assbag1
(g2
g3
Ntp3111
Rp3112
(dp3113
g7
(dp3114
g9
V1999-00 Hoops Pure Players #PP2 Keith Van Horn
p3115
sg11
I500
sg12
VHoops Pure Players
p3116
sg14
(lp3117
Vhttp://www.beckett.com/basketball/1999-00/hoops-pure-players/pp2-keith-van-horn-3199317
p3118
asg17
g18
sg19
(lp3119
Vhttp://img.beckett.com/images/no-image.jpg
p3120
asg22
V#PP2
p3121
sg24
V1999-00
p3122
sg26
g27
sg28
(lp3123
VKeith Van Horn
p3124
assbag1
(g2
g3
Ntp3125
Rp3126
(dp3127
g7
(dp3128
g9
V1999-00 Hoops Pure Players #PP3 Stephon Marbury
p3129
sg11
I500
sg12
VHoops Pure Players
p3130
sg14
(lp3131
Vhttp://www.beckett.com/basketball/1999-00/hoops-pure-players/pp3-stephon-marbury-3199318
p3132
asg17
g18
sg19
(lp3133
Vhttp://img.beckett.com/images/no-image.jpg
p3134
asg22
V#PP3
p3135
sg24
V1999-00
p3136
sg26
g27
sg28
(lp3137
VStephon Marbury
p3138
assbag1
(g2
g3
Ntp3139
Rp3140
(dp3141
g7
(dp3142
g9
V1999-00 SkyBox Premium Club Vertical #7 Keith Van Horn
p3143
sg11
I100
sg12
VSkyBox Premium Club Vertical
p3144
sg14
(lp3145
Vhttp://www.beckett.com/basketball/1999-00/skybox-premium-club-vertical/7-keith-van-horn-3196014
p3146
asg17
g18
sg19
(lp3147
Vhttp://img.beckett.com/images/no-image.jpg
p3148
asg22
V#7
p3149
sg24
V1999-00
p3150
sg26
g27
sg28
(lp3151
VKeith Van Horn
p3152
assbag1
(g2
g3
Ntp3153
Rp3154
(dp3155
g7
(dp3156
g9
V1999-00 Ultra Millennium Men #11 Stephon Marbury
p3157
sg11
I100
sg12
VUltra Millennium Men
p3158
sg14
(lp3159
Vhttp://www.beckett.com/basketball/1999-00/ultra-millennium-men/11-stephon-marbury-3186093
p3160
asg17
g18
sg19
(lp3161
Vhttp://img.beckett.com/images/no-image.jpg
p3162
asg22
V#11
p3163
sg24
V1999-00
p3164
sg26
g27
sg28
(lp3165
VStephon Marbury
p3166
assbag1
(g2
g3
Ntp3167
Rp3168
(dp3169
g7
(dp3170
g9
V1999-00 Ultra Millennium Men #12 Keith Van Horn
p3171
sg11
I100
sg12
VUltra Millennium Men
p3172
sg14
(lp3173
Vhttp://www.beckett.com/basketball/1999-00/ultra-millennium-men/12-keith-van-horn-3186094
p3174
asg17
g18
sg19
(lp3175
Vhttp://img.beckett.com/images/no-image.jpg
p3176
asg22
V#12
p3177
sg24
V1999-00
p3178
sg26
g27
sg28
(lp3179
VKeith Van Horn
p3180
assbag1
(g2
g3
Ntp3181
Rp3182
(dp3183
g7
(dp3184
g9
V1999-00 Upper Deck Game Jerseys Patch Super #KV Keith Van Horn
p3185
sg11
I25
sg12
VUpper Deck Game Jerseys Patch Super
p3186
sg14
(lp3187
Vhttp://www.beckett.com/basketball/1999-00/upper-deck-game-jerseys-patch-super/kv-keith-van-horn-3185139
p3188
asg17
g18
sg142
I1
sg19
(lp3189
Vhttp://img.beckett.com/images/no-image.jpg
p3190
asg22
V#KV
p3191
sg24
V1999-00
p3192
sg26
g27
sg28
(lp3193
VKeith Van Horn
p3194
assbag1
(g2
g3
Ntp3195
Rp3196
(dp3197
g7
(dp3198
g9
V1999-00 E-X Essential Credentials Future #1 Stephon Marbury/60
p3199
sg11
I60
sg12
VE-X Essential Credentials Future
p3200
sg14
(lp3201
Vhttp://www.beckett.com/basketball/1999-00/e-x-essential-credentials-future/1-stephon-marbury60-3205162
p3202
asg17
g18
sg19
(lp3203
Vhttp://img.beckett.com/images/no-image.jpg
p3204
asg22
V#1
p3205
sg24
V1999-00
p3206
sg26
g27
sg28
(lp3207
VStephon Marbury
p3208
assbag1
(g2
g3
Ntp3209
Rp3210
(dp3211
g7
(dp3212
g9
V1999-00 E-X Essential Credentials Future #21 Keith Van Horn/40
p3213
sg11
I40
sg12
VE-X Essential Credentials Future
p3214
sg14
(lp3215
Vhttp://www.beckett.com/basketball/1999-00/e-x-essential-credentials-future/21-keith-van-horn40-3205182
p3216
asg17
g18
sg19
(lp3217
Vhttp://img.beckett.com/images/no-image.jpg
p3218
asg22
V#21
p3219
sg24
V1999-00
p3220
sg26
g27
sg28
(lp3221
VKeith Van Horn
p3222
assbag1
(g2
g3
Ntp3223
Rp3224
(dp3225
g7
(dp3226
g9
V1999-00 E-X Essential Credentials Future #89 Evan Eschmeyer/2
p3227
sg11
I2
sg12
VE-X Essential Credentials Future
p3228
sg14
(lp3229
Vhttp://www.beckett.com/basketball/1999-00/e-x-essential-credentials-future/89-evan-eschmeyer2-3205250
p3230
asg17
g18
sg19
(lp3231
Vhttp://img.beckett.com/images/no-image.jpg
p3232
asg22
V#89
p3233
sg24
V1999-00
p3234
sg26
g27
sg28
(lp3235
VEvan Eschmeyer
p3236
assbag1
(g2
g3
Ntp3237
Rp3238
(dp3239
g7
(dp3240
g9
V1999-00 E-X Essential Credentials Now #1 Stephon Marbury/1
p3241
sg11
I1
sg12
VE-X Essential Credentials Now
p3242
sg14
(lp3243
Vhttp://www.beckett.com/basketball/1999-00/e-x-essential-credentials-now/1-stephon-marbury1-3205259
p3244
asg17
g18
sg19
(lp3245
Vhttp://img.beckett.com/images/no-image.jpg
p3246
asg22
V#1
p3247
sg24
V1999-00
p3248
sg26
g27
sg28
(lp3249
VStephon Marbury
p3250
assbag1
(g2
g3
Ntp3251
Rp3252
(dp3253
g7
(dp3254
g9
V1999-00 E-X Essential Credentials Now #21 Keith Van Horn/21
p3255
sg11
I21
sg12
VE-X Essential Credentials Now
p3256
sg14
(lp3257
Vhttp://www.beckett.com/basketball/1999-00/e-x-essential-credentials-now/21-keith-van-horn21-3205279
p3258
asg17
g18
sg19
(lp3259
Vhttp://img.beckett.com/images/no-image.jpg
p3260
asg22
V#21
p3261
sg24
V1999-00
p3262
sg26
g27
sg28
(lp3263
VKeith Van Horn
p3264
assbag1
(g2
g3
Ntp3265
Rp3266
(dp3267
g7
(dp3268
g9
V1999-00 E-X Essential Credentials Now #89 Evan Eschmeyer/29
p3269
sg11
I29
sg12
VE-X Essential Credentials Now
p3270
sg14
(lp3271
Vhttp://www.beckett.com/basketball/1999-00/e-x-essential-credentials-now/89-evan-eschmeyer29-3205347
p3272
asg17
g18
sg19
(lp3273
Vhttp://img.beckett.com/images/no-image.jpg
p3274
asg22
V#89
p3275
sg24
V1999-00
p3276
sg26
g27
sg28
(lp3277
VEvan Eschmeyer
p3278
assbag1
(g2
g3
Ntp3279
Rp3280
(dp3281
g7
(dp3282
g9
V1999-00 E-X E-Xceptional Green #XC5 Keith Van Horn
p3283
sg11
I500
sg12
VE-X E-Xceptional Green
p3284
sg14
(lp3285
Vhttp://www.beckett.com/basketball/1999-00/e-x-e-xceptional-green/xc5-keith-van-horn-3203224
p3286
asg17
g18
sg19
(lp3287
Vhttp://img.beckett.com/images/no-image.jpg
p3288
asg22
V#XC5
p3289
sg24
V1999-00
p3290
sg26
g27
sg28
(lp3291
VKeith Van Horn
p3292
assbag1
(g2
g3
Ntp3293
Rp3294
(dp3295
g7
(dp3296
g9
V1999-00 E-X E-Xceptional Green #XC8 Stephon Marbury
p3297
sg11
I500
sg12
VE-X E-Xceptional Green
p3298
sg14
(lp3299
Vhttp://www.beckett.com/basketball/1999-00/e-x-e-xceptional-green/xc8-stephon-marbury-3203227
p3300
asg17
g18
sg19
(lp3301
Vhttp://img.beckett.com/images/no-image.jpg
p3302
asg22
V#XC8
p3303
sg24
V1999-00
p3304
sg26
g27
sg28
(lp3305
VStephon Marbury
p3306
assbag1
(g2
g3
Ntp3307
Rp3308
(dp3309
g7
(dp3310
g9
V1999-00 E-X E-Xceptional Blue #XC5 Keith Van Horn
p3311
sg11
I250
sg12
VE-X E-Xceptional Blue
p3312
sg14
(lp3313
Vhttp://www.beckett.com/basketball/1999-00/e-x-e-xceptional-blue/xc5-keith-van-horn-3205393
p3314
asg17
g18
sg19
(lp3315
Vhttp://img.beckett.com/images/no-image.jpg
p3316
asg22
V#XC5
p3317
sg24
V1999-00
p3318
sg26
g27
sg28
(lp3319
VKeith Van Horn
p3320
assbag1
(g2
g3
Ntp3321
Rp3322
(dp3323
g7
(dp3324
g9
V1999-00 E-X E-Xceptional Blue #XC8 Stephon Marbury
p3325
sg11
I250
sg12
VE-X E-Xceptional Blue
p3326
sg14
(lp3327
Vhttp://www.beckett.com/basketball/1999-00/e-x-e-xceptional-blue/xc8-stephon-marbury-3205396
p3328
asg17
g18
sg19
(lp3329
Vhttp://img.beckett.com/images/no-image.jpg
p3330
asg22
V#XC8
p3331
sg24
V1999-00
p3332
sg26
g27
sg28
(lp3333
VStephon Marbury
p3334
assbag1
(g2
g3
Ntp3335
Rp3336
(dp3337
g7
(dp3338
g9
V1999-00 Finest Team Finest Blue Refractors #TF2 Stephon Marbury
p3339
sg11
I150
sg12
VFinest Team Finest Blue Refractors
p3340
sg14
(lp3341
Vhttp://www.beckett.com/basketball/1999-00/finest-team-finest-blue-refractors/tf2-stephon-marbury-3202630
p3342
asg17
g18
sg19
(lp3343
Vhttp://img.beckett.com/images/no-image.jpg
p3344
asg22
V#TF2
p3345
sg24
V1999-00
p3346
sg26
g27
sg28
(lp3347
VStephon Marbury
p3348
assbag1
(g2
g3
Ntp3349
Rp3350
(dp3351
g7
(dp3352
g9
V1999-00 Finest Team Finest Blue Refractors #TF10 Keith Van Horn
p3353
sg11
I150
sg12
VFinest Team Finest Blue Refractors
p3354
sg14
(lp3355
Vhttp://www.beckett.com/basketball/1999-00/finest-team-finest-blue-refractors/tf10-keith-van-horn-3202638
p3356
asg17
g18
sg19
(lp3357
Vhttp://img.beckett.com/images/no-image.jpg
p3358
asg22
V#TF10
p3359
sg24
V1999-00
p3360
sg26
g27
sg28
(lp3361
VKeith Van Horn
p3362
assbag1
(g2
g3
Ntp3363
Rp3364
(dp3365
g7
(dp3366
g9
V1999-00 Finest Team Finest Gold #TF2 Stephon Marbury
p3367
sg11
I250
sg12
VFinest Team Finest Gold
p3368
sg14
(lp3369
Vhttp://www.beckett.com/basketball/1999-00/finest-team-finest-gold/tf2-stephon-marbury-3202661
p3370
asg17
g18
sg19
(lp3371
Vhttp://img.beckett.com/images/no-image.jpg
p3372
asg22
V#TF2
p3373
sg24
V1999-00
p3374
sg26
g27
sg28
(lp3375
VStephon Marbury
p3376
assbag1
(g2
g3
Ntp3377
Rp3378
(dp3379
g7
(dp3380
g9
V1999-00 Finest Team Finest Gold #TF10 Keith Van Horn
p3381
sg11
I250
sg12
VFinest Team Finest Gold
p3382
sg14
(lp3383
Vhttp://www.beckett.com/basketball/1999-00/finest-team-finest-gold/tf10-keith-van-horn-3202669
p3384
asg17
g18
sg19
(lp3385
Vhttp://img.beckett.com/images/items_stock/185226/3202649/3202669/front.jpg
p3386
asg22
V#TF10
p3387
sg24
V1999-00
p3388
sg26
g27
sg28
(lp3389
VKeith Van Horn
p3390
assbag1
(g2
g3
Ntp3391
Rp3392
(dp3393
g7
(dp3394
g9
V1999-00 Finest Team Finest Gold Refractors #TF2 Stephon Marbury
p3395
sg11
I25
sg12
VFinest Team Finest Gold Refractors
p3396
sg14
(lp3397
Vhttp://www.beckett.com/basketball/1999-00/finest-team-finest-gold-refractors/tf2-stephon-marbury-3202692
p3398
asg17
g18
sg19
(lp3399
Vhttp://img.beckett.com/images/no-image.jpg
p3400
asg22
V#TF2
p3401
sg24
V1999-00
p3402
sg26
g27
sg28
(lp3403
VStephon Marbury
p3404
assbag1
(g2
g3
Ntp3405
Rp3406
(dp3407
g7
(dp3408
g9
V1999-00 Finest Team Finest Gold Refractors #TF10 Keith Van Horn
p3409
sg11
I25
sg12
VFinest Team Finest Gold Refractors
p3410
sg14
(lp3411
Vhttp://www.beckett.com/basketball/1999-00/finest-team-finest-gold-refractors/tf10-keith-van-horn-3202700
p3412
asg17
g18
sg19
(lp3413
Vhttp://img.beckett.com/images/no-image.jpg
p3414
asg22
V#TF10
p3415
sg24
V1999-00
p3416
sg26
g27
sg28
(lp3417
VKeith Van Horn
p3418
assbag1
(g2
g3
Ntp3419
Rp3420
(dp3421
g7
(dp3422
g9
V1999-00 Finest Team Finest Red #TF2 Stephon Marbury
p3423
sg11
I500
sg12
VFinest Team Finest Red
p3424
sg14
(lp3425
Vhttp://www.beckett.com/basketball/1999-00/finest-team-finest-red/tf2-stephon-marbury-3202723
p3426
asg17
g18
sg19
(lp3427
Vhttp://img.beckett.com/images/no-image.jpg
p3428
asg22
V#TF2
p3429
sg24
V1999-00
p3430
sg26
g27
sg28
(lp3431
VStephon Marbury
p3432
assbag1
(g2
g3
Ntp3433
Rp3434
(dp3435
g7
(dp3436
g9
V1999-00 Finest Team Finest Red #TF10 Keith Van Horn
p3437
sg11
I500
sg12
VFinest Team Finest Red
p3438
sg14
(lp3439
Vhttp://www.beckett.com/basketball/1999-00/finest-team-finest-red/tf10-keith-van-horn-3202731
p3440
asg17
g18
sg19
(lp3441
Vhttp://img.beckett.com/images/no-image.jpg
p3442
asg22
V#TF10
p3443
sg24
V1999-00
p3444
sg26
g27
sg28
(lp3445
VKeith Van Horn
p3446
assbag1
(g2
g3
Ntp3447
Rp3448
(dp3449
g7
(dp3450
g9
V1999-00 Finest Team Finest Red Refractors #TF2 Stephon Marbury
p3451
sg11
I50
sg12
VFinest Team Finest Red Refractors
p3452
sg14
(lp3453
Vhttp://www.beckett.com/basketball/1999-00/finest-team-finest-red-refractors/tf2-stephon-marbury-3202754
p3454
asg17
g18
sg19
(lp3455
Vhttp://img.beckett.com/images/no-image.jpg
p3456
asg22
V#TF2
p3457
sg24
V1999-00
p3458
sg26
g27
sg28
(lp3459
VStephon Marbury
p3460
assbag1
(g2
g3
Ntp3461
Rp3462
(dp3463
g7
(dp3464
g9
V1999-00 Finest Team Finest Red Refractors #TF10 Keith Van Horn
p3465
sg11
I50
sg12
VFinest Team Finest Red Refractors
p3466
sg14
(lp3467
Vhttp://www.beckett.com/basketball/1999-00/finest-team-finest-red-refractors/tf10-keith-van-horn-3202762
p3468
asg17
g18
sg19
(lp3469
Vhttp://img.beckett.com/images/no-image.jpg
p3470
asg22
V#TF10
p3471
sg24
V1999-00
p3472
sg26
g27
sg28
(lp3473
VKeith Van Horn
p3474
assbag1
(g2
g3
Ntp3475
Rp3476
(dp3477
g7
(dp3478
g9
V1999-00 Fleer Focus Soar Subjects Vivid #SS6 Keith Van Horn
p3479
sg11
I50
sg12
VFleer Focus Soar Subjects Vivid
p3480
sg14
(lp3481
Vhttp://www.beckett.com/basketball/1999-00/fleer-focus-soar-subjects-vivid/ss6-keith-van-horn-3200052
p3482
asg17
g18
sg19
(lp3483
Vhttp://img.beckett.com/images/no-image.jpg
p3484
asg22
V#SS6
p3485
sg24
V1999-00
p3486
sg26
g27
sg28
(lp3487
VKeith Van Horn
p3488
assbag1
(g2
g3
Ntp3489
Rp3490
(dp3491
g7
(dp3492
g9
V1999-00 Fleer Focus Soar Subjects Vivid #SS14 Stephon Marbury
p3493
sg11
I50
sg12
VFleer Focus Soar Subjects Vivid
p3494
sg14
(lp3495
Vhttp://www.beckett.com/basketball/1999-00/fleer-focus-soar-subjects-vivid/ss14-stephon-marbury-3200060
p3496
asg17
g18
sg19
(lp3497
Vhttp://img.beckett.com/images/no-image.jpg
p3498
asg22
V#SS14
p3499
sg24
V1999-00
p3500
sg26
g27
sg28
(lp3501
VStephon Marbury
p3502
assbag1
(g2
g3
Ntp3503
Rp3504
(dp3505
g7
(dp3506
g9
V1999-00 Hoops Build Your Own Card Redemptions #2a Keith Van Horn/Ball F/Body B
p3507
sg11
I250
sg12
VHoops Build Your Own Card Redemptions
p3508
sg14
(lp3509
Vhttp://www.beckett.com/basketball/1999-00/hoops-build-your-own-card-redemptions/2a-keith-van-hornball-fbody-b-8642289
p3510
asg17
g18
sg19
(lp3511
Vhttp://img.beckett.com/images/no-image.jpg
p3512
asg22
V#2a
p3513
sg24
V1999-00
p3514
sg26
g27
sg28
(lp3515
VKeith Van Horn
p3516
aVBall
p3517
aVBody
p3518
assbag1
(g2
g3
Ntp3519
Rp3520
(dp3521
g7
(dp3522
g9
V1999-00 Hoops Build Your Own Card Redemptions #2b Keith Van Horn/Ball F/Head B
p3523
sg11
I250
sg12
VHoops Build Your Own Card Redemptions
p3524
sg14
(lp3525
Vhttp://www.beckett.com/basketball/1999-00/hoops-build-your-own-card-redemptions/2b-keith-van-hornball-fhead-b-8642290
p3526
asg17
g18
sg19
(lp3527
Vhttp://img.beckett.com/images/no-image.jpg
p3528
asg22
V#2b
p3529
sg24
V1999-00
p3530
sg26
g27
sg28
(lp3531
VKeith Van Horn
p3532
aVBall
p3533
aVHead
p3534
assbag1
(g2
g3
Ntp3535
Rp3536
(dp3537
g7
(dp3538
g9
V1999-00 Hoops Build Your Own Card Redemptions #2c Keith Van Horn/Ball F/Horizontal B
p3539
sg11
I250
sg12
VHoops Build Your Own Card Redemptions
p3540
sg14
(lp3541
Vhttp://www.beckett.com/basketball/1999-00/hoops-build-your-own-card-redemptions/2c-keith-van-hornball-fhorizontal-b-8642291
p3542
asg17
g18
sg19
(lp3543
Vhttp://img.beckett.com/images/no-image.jpg
p3544
asg22
V#2c
p3545
sg24
V1999-00
p3546
sg26
g27
sg28
(lp3547
VKeith Van Horn
p3548
aVBall
p3549
aVHorizonal
p3550
assbag1
(g2
g3
Ntp3551
Rp3552
(dp3553
g7
(dp3554
g9
V1999-00 Hoops Build Your Own Card Redemptions #2d Keith Van Horn/No Ball F/Body B
p3555
sg11
I250
sg12
VHoops Build Your Own Card Redemptions
p3556
sg14
(lp3557
Vhttp://www.beckett.com/basketball/1999-00/hoops-build-your-own-card-redemptions/2d-keith-van-hornno-ball-fbody-b-8642292
p3558
asg17
g18
sg19
(lp3559
Vhttp://img.beckett.com/images/no-image.jpg
p3560
asg22
V#2d
p3561
sg24
V1999-00
p3562
sg26
g27
sg28
(lp3563
VKeith Van Horn
p3564
aVBall
p3565
aVBody
p3566
assbag1
(g2
g3
Ntp3567
Rp3568
(dp3569
g7
(dp3570
g9
V1999-00 Hoops Build Your Own Card Redemptions #2e Keith Van Horn/No Ball F/Head B
p3571
sg11
I250
sg12
VHoops Build Your Own Card Redemptions
p3572
sg14
(lp3573
Vhttp://www.beckett.com/basketball/1999-00/hoops-build-your-own-card-redemptions/2e-keith-van-hornno-ball-fhead-b-8642293
p3574
asg17
g18
sg19
(lp3575
Vhttp://img.beckett.com/images/no-image.jpg
p3576
asg22
V#2e
p3577
sg24
V1999-00
p3578
sg26
g27
sg28
(lp3579
VKeith Van Horn
p3580
ag3565
aVHead
p3581
assbag1
(g2
g3
Ntp3582
Rp3583
(dp3584
g7
(dp3585
g9
V1999-00 Hoops Build Your Own Card Redemptions #2f Keith Van Horn/No Ball F/Horizontal B
p3586
sg11
I250
sg12
VHoops Build Your Own Card Redemptions
p3587
sg14
(lp3588
Vhttp://www.beckett.com/basketball/1999-00/hoops-build-your-own-card-redemptions/2f-keith-van-hornno-ball-fhorizontal-b-8642294
p3589
asg17
g18
sg19
(lp3590
Vhttp://img.beckett.com/images/no-image.jpg
p3591
asg22
V#2f
p3592
sg24
V1999-00
p3593
sg26
g27
sg28
(lp3594
VKeith Van Horn
p3595
ag3565
ag3550
assbag1
(g2
g3
Ntp3596
Rp3597
(dp3598
g7
(dp3599
g9
V1999-00 Hoops Build Your Own Card Redemptions #2g Keith Van Horn/Shoot F/Body B
p3600
sg11
I250
sg12
VHoops Build Your Own Card Redemptions
p3601
sg14
(lp3602
Vhttp://www.beckett.com/basketball/1999-00/hoops-build-your-own-card-redemptions/2g-keith-van-hornshoot-fbody-b-8642295
p3603
asg17
g18
sg19
(lp3604
Vhttp://img.beckett.com/images/no-image.jpg
p3605
asg22
V#2g
p3606
sg24
V1999-00
p3607
sg26
g27
sg28
(lp3608
VKeith Van Horn
p3609
aVShoot
p3610
aVBody
p3611
assbag1
(g2
g3
Ntp3612
Rp3613
(dp3614
g7
(dp3615
g9
V1999-00 Hoops Build Your Own Card Redemptions #2h Keith Van Horn/Shoot F/Head B
p3616
sg11
I250
sg12
VHoops Build Your Own Card Redemptions
p3617
sg14
(lp3618
Vhttp://www.beckett.com/basketball/1999-00/hoops-build-your-own-card-redemptions/2h-keith-van-hornshoot-fhead-b-8642296
p3619
asg17
g18
sg19
(lp3620
Vhttp://img.beckett.com/images/no-image.jpg
p3621
asg22
V#2h
p3622
sg24
V1999-00
p3623
sg26
g27
sg28
(lp3624
VKeith Van Horn
p3625
aVShoot
p3626
aVHead
p3627
assbag1
(g2
g3
Ntp3628
Rp3629
(dp3630
g7
(dp3631
g9
V1999-00 Hoops Build Your Own Card Redemptions #2i Keith Van Horn/Shoot F/Horizontal B
p3632
sg11
I250
sg12
VHoops Build Your Own Card Redemptions
p3633
sg14
(lp3634
Vhttp://www.beckett.com/basketball/1999-00/hoops-build-your-own-card-redemptions/2i-keith-van-hornshoot-fhorizontal-b-8642297
p3635
asg17
g18
sg19
(lp3636
Vhttp://img.beckett.com/images/no-image.jpg
p3637
asg22
V#2i
p3638
sg24
V1999-00
p3639
sg26
g27
sg28
(lp3640
VKeith Van Horn
p3641
aVShoot
p3642
ag3550
assbag1
(g2
g3
Ntp3643
Rp3644
(dp3645
g7
(dp3646
g9
V1999-00 Hoops Pure Players 100% #PP2 Keith Van Horn
p3647
sg11
I100
sg12
VHoops Pure Players 100%
p3648
sg14
(lp3649
Vhttp://www.beckett.com/basketball/1999-00/hoops-pure-players-100/pp2-keith-van-horn-3199335
p3650
asg17
g18
sg19
(lp3651
Vhttp://img.beckett.com/images/no-image.jpg
p3652
asg22
V#PP2
p3653
sg24
V1999-00
p3654
sg26
g27
sg28
(lp3655
VKeith Van Horn
p3656
assbag1
(g2
g3
Ntp3657
Rp3658
(dp3659
g7
(dp3660
g9
V1999-00 Hoops Pure Players 100% #PP3 Stephon Marbury
p3661
sg11
I100
sg12
VHoops Pure Players 100%
p3662
sg14
(lp3663
Vhttp://www.beckett.com/basketball/1999-00/hoops-pure-players-100/pp3-stephon-marbury-3199336
p3664
asg17
g18
sg19
(lp3665
Vhttp://img.beckett.com/images/no-image.jpg
p3666
asg22
V#PP3
p3667
sg24
V1999-00
p3668
sg26
g27
sg28
(lp3669
VStephon Marbury
p3670
assbag1
(g2
g3
Ntp3671
Rp3672
(dp3673
g7
(dp3674
g9
V1999-00 Hoops Decade Draft Day Dominance Parallel #DD9 Keith Van Horn
p3675
sg11
I1989
sg12
VHoops Decade Draft Day Dominance Parallel
p3676
sg14
(lp3677
Vhttp://www.beckett.com/basketball/1999-00/hoops-decade-draft-day-dominance-parallel/dd9-keith-van-horn-3197309
p3678
asg17
g18
sg19
(lp3679
Vhttp://img.beckett.com/images/items_stock/185226/3197293/3197309/front.jpg
p3680
asg22
V#DD9
p3681
sg24
V1999-00
p3682
sg26
g27
sg28
(lp3683
VKeith Van Horn
p3684
assbag1
(g2
g3
Ntp3685
Rp3686
(dp3687
g7
(dp3688
g9
V1999-00 Hoops Decade Up Tempo Parallel #UT5 Stephon Marbury
p3689
sg11
I1989
sg12
VHoops Decade Up Tempo Parallel
p3690
sg14
(lp3691
Vhttp://www.beckett.com/basketball/1999-00/hoops-decade-up-tempo-parallel/ut5-stephon-marbury-3197456
p3692
asg17
g18
sg19
(lp3693
Vhttp://img.beckett.com/images/items_stock/185226/3197444/3197456/front.jpg
p3694
asg22
V#UT5
p3695
sg24
V1999-00
p3696
sg26
g27
sg28
(lp3697
VStephon Marbury
p3698
assbag1
(g2
g3
Ntp3699
Rp3700
(dp3701
g7
(dp3702
g9
V1999-00 Hoops Decade Up Tempo Parallel #UT6 Keith Van Horn
p3703
sg11
I1989
sg12
VHoops Decade Up Tempo Parallel
p3704
sg14
(lp3705
Vhttp://www.beckett.com/basketball/1999-00/hoops-decade-up-tempo-parallel/ut6-keith-van-horn-3197457
p3706
asg17
g18
sg19
(lp3707
Vhttp://img.beckett.com/images/items_stock/185226/3197444/3197457/front.jpg
p3708
asg22
V#UT6
p3709
sg24
V1999-00
p3710
sg26
g27
sg28
(lp3711
VKeith Van Horn
p3712
assbag1
(g2
g3
Ntp3713
Rp3714
(dp3715
g7
(dp3716
g9
V1999-00 SkyBox APEX Cutting Edge Warp Tek #7 Stephon Marbury
p3717
sg11
I25
sg12
VSkyBox APEX Cutting Edge Warp Tek
p3718
sg14
(lp3719
Vhttp://www.beckett.com/basketball/1999-00/skybox-apex-cutting-edge-warp-tek/7-stephon-marbury-3196727
p3720
asg17
g18
sg19
(lp3721
Vhttp://img.beckett.com/images/no-image.jpg
p3722
asg22
V#7
p3723
sg24
V1999-00
p3724
sg26
g27
sg28
(lp3725
VStephon Marbury
p3726
assbag1
(g2
g3
Ntp3727
Rp3728
(dp3729
g7
(dp3730
g9
V1999-00 SkyBox APEX Cutting Edge Warp Tek #14 Keith Van Horn
p3731
sg11
I25
sg12
VSkyBox APEX Cutting Edge Warp Tek
p3732
sg14
(lp3733
Vhttp://www.beckett.com/basketball/1999-00/skybox-apex-cutting-edge-warp-tek/14-keith-van-horn-3196734
p3734
asg17
g18
sg19
(lp3735
Vhttp://img.beckett.com/images/no-image.jpg
p3736
asg22
V#14
p3737
sg24
V1999-00
p3738
sg26
g27
sg28
(lp3739
VKeith Van Horn
p3740
assbag1
(g2
g3
Ntp3741
Rp3742
(dp3743
g7
(dp3744
g9
V1999-00 SkyBox Dominion Sky's the Limit Warp Tek #4 Keith Van Horn
p3745
sg11
I25
sg12
VSkyBox Dominion Sky's the Limit Warp Tek
p3746
sg14
(lp3747
Vhttp://www.beckett.com/basketball/1999-00/skybox-dominion-skys-the-limit-warp-tek/4-keith-van-horn-3197260
p3748
asg17
g18
sg19
(lp3749
Vhttp://img.beckett.com/images/no-image.jpg
p3750
asg22
V#4
p3751
sg24
V1999-00
p3752
sg26
g27
sg28
(lp3753
VKeith Van Horn
p3754
assbag1
(g2
g3
Ntp3755
Rp3756
(dp3757
g7
(dp3758
g9
V1999-00 SkyBox Dominion Sky's the Limit Warp Tek #12 Stephon Marbury
p3759
sg11
I25
sg12
VSkyBox Dominion Sky's the Limit Warp Tek
p3760
sg14
(lp3761
Vhttp://www.beckett.com/basketball/1999-00/skybox-dominion-skys-the-limit-warp-tek/12-stephon-marbury-3197268
p3762
asg17
g18
sg19
(lp3763
Vhttp://img.beckett.com/images/no-image.jpg
p3764
asg22
V#12
p3765
sg24
V1999-00
p3766
sg26
g27
sg28
(lp3767
VStephon Marbury
p3768
assbag1
(g2
g3
Ntp3769
Rp3770
(dp3771
g7
(dp3772
g9
V1999-00 SkyBox Premium Autographics Blue #29 Evan Eschmeyer
p3773
sg11
I50
sg12
VSkyBox Premium Autographics Blue
p3774
sg14
(lp3775
Vhttp://www.beckett.com/basketball/1999-00/skybox-premium-autographics-blue/29-evan-eschmeyer-3195893
p3776
asg17
g18
sg19
(lp3777
Vhttp://img.beckett.com/images/no-image.jpg
p3778
asg22
V#29
p3779
sg146
I1
sg24
V1999-00
p3780
sg26
g27
sg28
(lp3781
VEvan Eschmeyer
p3782
assbag1
(g2
g3
Ntp3783
Rp3784
(dp3785
g7
(dp3786
g9
V1999-00 SkyBox Premium Autographics Blue #39 Kendall Gill
p3787
sg11
I50
sg12
VSkyBox Premium Autographics Blue
p3788
sg14
(lp3789
Vhttp://www.beckett.com/basketball/1999-00/skybox-premium-autographics-blue/39-kendall-gill-3195903
p3790
asg17
g18
sg19
(lp3791
Vhttp://img.beckett.com/images/no-image.jpg
p3792
asg22
V#39
p3793
sg146
I1
sg24
V1999-00
p3794
sg26
g27
sg28
(lp3795
VKendall Gill
p3796
assbag1
(g2
g3
Ntp3797
Rp3798
(dp3799
g7
(dp3800
g9
V1999-00 SkyBox Premium Autographics Blue #60 Kerry Kittles
p3801
sg11
I50
sg12
VSkyBox Premium Autographics Blue
p3802
sg14
(lp3803
Vhttp://www.beckett.com/basketball/1999-00/skybox-premium-autographics-blue/60-kerry-kittles-3195924
p3804
asg17
g18
sg19
(lp3805
Vhttp://img.beckett.com/images/no-image.jpg
p3806
asg22
V#60
p3807
sg146
I1
sg24
V1999-00
p3808
sg26
g27
sg28
(lp3809
VKerry Kittles
p3810
assbag1
(g2
g3
Ntp3811
Rp3812
(dp3813
g7
(dp3814
g9
V1999-00 SkyBox Premium Autographics Blue #68 Stephon Marbury
p3815
sg11
I50
sg12
VSkyBox Premium Autographics Blue
p3816
sg14
(lp3817
Vhttp://www.beckett.com/basketball/1999-00/skybox-premium-autographics-blue/68-stephon-marbury-3195932
p3818
asg17
g18
sg19
(lp3819
Vhttp://img.beckett.com/images/no-image.jpg
p3820
asg22
V#68
p3821
sg146
I1
sg24
V1999-00
p3822
sg26
g27
sg28
(lp3823
VStephon Marbury
p3824
assbag1
(g2
g3
Ntp3825
Rp3826
(dp3827
g7
(dp3828
g9
V1999-00 SkyBox Premium Good Stuff Parallel #8 Keith Van Horn
p3829
sg11
I99
sg12
VSkyBox Premium Good Stuff Parallel
p3830
sg14
(lp3831
Vhttp://www.beckett.com/basketball/1999-00/skybox-premium-good-stuff-parallel/8-keith-van-horn-3196066
p3832
asg17
g18
sg19
(lp3833
Vhttp://img.beckett.com/images/no-image.jpg
p3834
asg22
V#8
p3835
sg24
V1999-00
p3836
sg26
g27
sg28
(lp3837
VKeith Van Horn
p3838
assbag1
(g2
g3
Ntp3839
Rp3840
(dp3841
g7
(dp3842
g9
V1999-00 SP Authentic Sign of the Times Gold #JY Jayson Williams
p3843
sg11
I25
sg12
VSP Authentic Sign of the Times Gold
p3844
sg14
(lp3845
Vhttp://www.beckett.com/basketball/1999-00/sp-authentic-sign-of-the-times-gold/jy-jayson-williams-3193023
p3846
asg17
g18
sg19
(lp3847
Vhttp://img.beckett.com/images/no-image.jpg
p3848
asg22
V#JY
p3849
sg146
I1
sg24
V1999-00
p3850
sg26
g27
sg28
(lp3851
VJayson Williams
p3852
assbag1
(g2
g3
Ntp3853
Rp3854
(dp3855
g7
(dp3856
g9
V1999-00 Stadium Club Never Compromise Game-View #NCG16 Stephon Marbury
p3857
sg11
I100
sg12
VStadium Club Never Compromise Game-View
p3858
sg14
(lp3859
Vhttp://www.beckett.com/basketball/1999-00/stadium-club-never-compromise-game-view/ncg16-stephon-marbury-3192150
p3860
asg17
g18
sg19
(lp3861
Vhttp://img.beckett.com/images/no-image.jpg
p3862
asg22
V#NCG16
p3863
sg24
V1999-00
p3864
sg26
g27
sg28
(lp3865
VStephon Marbury
p3866
assbag1
(g2
g3
Ntp3867
Rp3868
(dp3869
g7
(dp3870
g9
V1999-00 Stadium Club Never Compromise Game-View #NCG18 Keith Van Horn
p3871
sg11
I100
sg12
VStadium Club Never Compromise Game-View
p3872
sg14
(lp3873
Vhttp://www.beckett.com/basketball/1999-00/stadium-club-never-compromise-game-view/ncg18-keith-van-horn-3192152
p3874
asg17
g18
sg19
(lp3875
Vhttp://img.beckett.com/images/no-image.jpg
p3876
asg22
V#NCG18
p3877
sg24
V1999-00
p3878
sg26
g27
sg28
(lp3879
VKeith Van Horn
p3880
assbag1
(g2
g3
Ntp3881
Rp3882
(dp3883
g7
(dp3884
g9
V1999-00 Topps Gold Label New Standard One to One #NS7 Keith Van Horn
p3885
sg11
I1
sg12
VTopps Gold Label New Standard One to One
p3886
sg14
(lp3887
Vhttp://www.beckett.com/basketball/1999-00/topps-gold-label-new-standard-one-to-one/ns7-keith-van-horn-3187586
p3888
asg17
g18
sg19
(lp3889
Vhttp://img.beckett.com/images/no-image.jpg
p3890
asg22
V#NS7
p3891
sg24
V1999-00
p3892
sg26
g27
sg28
(lp3893
VKeith Van Horn
p3894
assbag1
(g2
g3
Ntp3895
Rp3896
(dp3897
g7
(dp3898
g9
V1999-00 Topps Gold Label New Standard Red Label #NS7 Keith Van Horn
p3899
sg11
I25
sg12
VTopps Gold Label New Standard Red Label
p3900
sg14
(lp3901
Vhttp://www.beckett.com/basketball/1999-00/topps-gold-label-new-standard-red-label/ns7-keith-van-horn-3187610
p3902
asg17
g18
sg19
(lp3903
Vhttp://img.beckett.com/images/no-image.jpg
p3904
asg22
V#NS7
p3905
sg24
V1999-00
p3906
sg26
g27
sg28
(lp3907
VKeith Van Horn
p3908
assbag1
(g2
g3
Ntp3909
Rp3910
(dp3911
g7
(dp3912
g9
V1999-00 Upper Deck BioGraphics Level 1 #B8 Keith Van Horn
p3913
sg11
I100
sg12
VUpper Deck BioGraphics Level 1
p3914
sg14
(lp3915
Vhttp://www.beckett.com/basketball/1999-00/upper-deck-biographics-level-1/b8-keith-van-horn-3187314
p3916
asg17
g18
sg19
(lp3917
Vhttp://img.beckett.com/images/no-image.jpg
p3918
asg22
V#B8
p3919
sg24
V1999-00
p3920
sg26
g27
sg28
(lp3921
VKeith Van Horn
p3922
assbag1
(g2
g3
Ntp3923
Rp3924
(dp3925
g7
(dp3926
g9
V1999-00 Upper Deck BioGraphics Level 1 #B23 Stephon Marbury
p3927
sg11
I100
sg12
VUpper Deck BioGraphics Level 1
p3928
sg14
(lp3929
Vhttp://www.beckett.com/basketball/1999-00/upper-deck-biographics-level-1/b23-stephon-marbury-3187329
p3930
asg17
g18
sg19
(lp3931
Vhttp://img.beckett.com/images/no-image.jpg
p3932
asg22
V#B23
p3933
sg24
V1999-00
p3934
sg26
g27
sg28
(lp3935
VStephon Marbury
p3936
assbag1
(g2
g3
Ntp3937
Rp3938
(dp3939
g7
(dp3940
g9
V1999-00 Upper Deck BioGraphics Level 2 #B8 Keith Van Horn
p3941
sg11
I25
sg12
VUpper Deck BioGraphics Level 2
p3942
sg14
(lp3943
Vhttp://www.beckett.com/basketball/1999-00/upper-deck-biographics-level-2/b8-keith-van-horn-3187352
p3944
asg17
g18
sg19
(lp3945
Vhttp://img.beckett.com/images/no-image.jpg
p3946
asg22
V#B8
p3947
sg24
V1999-00
p3948
sg26
g27
sg28
(lp3949
VKeith Van Horn
p3950
assbag1
(g2
g3
Ntp3951
Rp3952
(dp3953
g7
(dp3954
g9
V1999-00 Upper Deck BioGraphics Level 2 #B23 Stephon Marbury
p3955
sg11
I25
sg12
VUpper Deck BioGraphics Level 2
p3956
sg14
(lp3957
Vhttp://www.beckett.com/basketball/1999-00/upper-deck-biographics-level-2/b23-stephon-marbury-3187367
p3958
asg17
g18
sg19
(lp3959
Vhttp://img.beckett.com/images/no-image.jpg
p3960
asg22
V#B23
p3961
sg24
V1999-00
p3962
sg26
g27
sg28
(lp3963
VStephon Marbury
p3964
assbag1
(g2
g3
Ntp3965
Rp3966
(dp3967
g7
(dp3968
g9
V1999-00 Upper Deck Future Charge Level 1 #FC13 Stephon Marbury
p3969
sg11
I100
sg12
VUpper Deck Future Charge Level 1
p3970
sg14
(lp3971
Vhttp://www.beckett.com/basketball/1999-00/upper-deck-future-charge-level-1/fc13-stephon-marbury-3184929
p3972
asg17
g18
sg19
(lp3973
Vhttp://img.beckett.com/images/no-image.jpg
p3974
asg22
V#FC13
p3975
sg24
V1999-00
p3976
sg26
g27
sg28
(lp3977
VStephon Marbury
p3978
assbag1
(g2
g3
Ntp3979
Rp3980
(dp3981
g7
(dp3982
g9
V1999-00 Upper Deck Future Charge Level 2 #FC13 Stephon Marbury
p3983
sg11
I25
sg12
VUpper Deck Future Charge Level 2
p3984
sg14
(lp3985
Vhttp://www.beckett.com/basketball/1999-00/upper-deck-future-charge-level-2/fc13-stephon-marbury-3184952
p3986
asg17
g18
sg19
(lp3987
Vhttp://img.beckett.com/images/no-image.jpg
p3988
asg22
V#FC13
p3989
sg24
V1999-00
p3990
sg26
g27
sg28
(lp3991
VStephon Marbury
p3992
assbag1
(g2
g3
Ntp3993
Rp3994
(dp3995
g7
(dp3996
g9
V1999-00 Upper Deck Jamboree Level 1 #J11 Keith Van Horn
p3997
sg11
I100
sg12
VUpper Deck Jamboree Level 1
p3998
sg14
(lp3999
Vhttp://www.beckett.com/basketball/1999-00/upper-deck-jamboree-level-1/j11-keith-van-horn-3185371
p4000
asg17
g18
sg19
(lp4001
Vhttp://img.beckett.com/images/no-image.jpg
p4002
asg22
V#J11
p4003
sg24
V1999-00
p4004
sg26
g27
sg28
(lp4005
VKeith Van Horn
p4006
assbag1
(g2
g3
Ntp4007
Rp4008
(dp4009
g7
(dp4010
g9
V1999-00 Upper Deck Jamboree Level 2 #J11 Keith Van Horn
p4011
sg11
I25
sg12
VUpper Deck Jamboree Level 2
p4012
sg14
(lp4013
Vhttp://www.beckett.com/basketball/1999-00/upper-deck-jamboree-level-2/j11-keith-van-horn-3185394
p4014
asg17
g18
sg19
(lp4015
Vhttp://img.beckett.com/images/no-image.jpg
p4016
asg22
V#J11
p4017
sg24
V1999-00
p4018
sg26
g27
sg28
(lp4019
VKeith Van Horn
p4020
assbag1
(g2
g3
Ntp4021
Rp4022
(dp4023
g7
(dp4024
g9
V1999-00 Upper Deck Now Showing Level 1 #NS17 Stephon Marbury
p4025
sg11
I100
sg12
VUpper Deck Now Showing Level 1
p4026
sg14
(lp4027
Vhttp://www.beckett.com/basketball/1999-00/upper-deck-now-showing-level-1/ns17-stephon-marbury-3184286
p4028
asg17
g18
sg19
(lp4029
Vhttp://img.beckett.com/images/no-image.jpg
p4030
asg22
V#NS17
p4031
sg24
V1999-00
p4032
sg26
g27
sg28
(lp4033
VStephon Marbury
p4034
assbag1
(g2
g3
Ntp4035
Rp4036
(dp4037
g7
(dp4038
g9
V1999-00 Upper Deck Now Showing Level 2 #NS17 Stephon Marbury
p4039
sg11
I25
sg12
VUpper Deck Now Showing Level 2
p4040
sg14
(lp4041
Vhttp://www.beckett.com/basketball/1999-00/upper-deck-now-showing-level-2/ns17-stephon-marbury-3184324
p4042
asg17
g18
sg19
(lp4043
Vhttp://img.beckett.com/images/no-image.jpg
p4044
asg22
V#NS17
p4045
sg24
V1999-00
p4046
sg26
g27
sg28
(lp4047
VStephon Marbury
p4048
assbag1
(g2
g3
Ntp4049
Rp4050
(dp4051
g7
(dp4052
g9
V1999-00 Upper Deck Star Surge Level 1 #S12 Keith Van Horn
p4053
sg11
I100
sg12
VUpper Deck Star Surge Level 1
p4054
sg14
(lp4055
Vhttp://www.beckett.com/basketball/1999-00/upper-deck-star-surge-level-1/s12-keith-van-horn-3184483
p4056
asg17
g18
sg19
(lp4057
Vhttp://img.beckett.com/images/no-image.jpg
p4058
asg22
V#S12
p4059
sg24
V1999-00
p4060
sg26
g27
sg28
(lp4061
VKeith Van Horn
p4062
assbag1
(g2
g3
Ntp4063
Rp4064
(dp4065
g7
(dp4066
g9
V1999-00 Upper Deck Star Surge Level 1 #S15 Stephon Marbury
p4067
sg11
I100
sg12
VUpper Deck Star Surge Level 1
p4068
sg14
(lp4069
Vhttp://www.beckett.com/basketball/1999-00/upper-deck-star-surge-level-1/s15-stephon-marbury-3184486
p4070
asg17
g18
sg19
(lp4071
Vhttp://img.beckett.com/images/no-image.jpg
p4072
asg22
V#S15
p4073
sg24
V1999-00
p4074
sg26
g27
sg28
(lp4075
VStephon Marbury
p4076
assbag1
(g2
g3
Ntp4077
Rp4078
(dp4079
g7
(dp4080
g9
V1999-00 Upper Deck Star Surge Level 2 #S12 Keith Van Horn
p4081
sg11
I25
sg12
VUpper Deck Star Surge Level 2
p4082
sg14
(lp4083
Vhttp://www.beckett.com/basketball/1999-00/upper-deck-star-surge-level-2/s12-keith-van-horn-3184506
p4084
asg17
g18
sg19
(lp4085
Vhttp://img.beckett.com/images/no-image.jpg
p4086
asg22
V#S12
p4087
sg24
V1999-00
p4088
sg26
g27
sg28
(lp4089
VKeith Van Horn
p4090
assbag1
(g2
g3
Ntp4091
Rp4092
(dp4093
g7
(dp4094
g9
V1999-00 Upper Deck Star Surge Level 2 #S15 Stephon Marbury
p4095
sg11
I25
sg12
VUpper Deck Star Surge Level 2
p4096
sg14
(lp4097
Vhttp://www.beckett.com/basketball/1999-00/upper-deck-star-surge-level-2/s15-stephon-marbury-3184509
p4098
asg17
g18
sg19
(lp4099
Vhttp://img.beckett.com/images/items_stock/185226/3184487/3184509/front.jpg
p4100
asg22
V#S15
p4101
sg24
V1999-00
p4102
sg26
g27
sg28
(lp4103
VStephon Marbury
p4104
assbag1
(g2
g3
Ntp4105
Rp4106
(dp4107
g7
(dp4108
g9
V1999-00 Upper Deck Wild! Level 1 #W16 Stephon Marbury
p4109
sg11
I100
sg12
VUpper Deck Wild! Level 1
p4110
sg14
(lp4111
Vhttp://www.beckett.com/basketball/1999-00/upper-deck-wild-level-1/w16-stephon-marbury-3184567
p4112
asg17
g18
sg19
(lp4113
Vhttp://img.beckett.com/images/no-image.jpg
p4114
asg22
V#W16
p4115
sg24
V1999-00
p4116
sg26
g27
sg28
(lp4117
VStephon Marbury
p4118
assbag1
(g2
g3
Ntp4119
Rp4120
(dp4121
g7
(dp4122
g9
V1999-00 Upper Deck Wild! Level 2 #W16 Stephon Marbury
p4123
sg11
I25
sg12
VUpper Deck Wild! Level 2
p4124
sg14
(lp4125
Vhttp://www.beckett.com/basketball/1999-00/upper-deck-wild-level-2/w16-stephon-marbury-3184594
p4126
asg17
g18
sg19
(lp4127
Vhttp://img.beckett.com/images/no-image.jpg
p4128
asg22
V#W16
p4129
sg24
V1999-00
p4130
sg26
g27
sg28
(lp4131
VStephon Marbury
p4132
assbag1
(g2
g3
Ntp4133
Rp4134
(dp4135
g7
(dp4136
g9
V1999-00 Upper Deck Encore Electric Currents F/X #EC11 Keith Van Horn
p4137
sg11
I150
sg12
VUpper Deck Encore Electric Currents F/X
p4138
sg14
(lp4139
Vhttp://www.beckett.com/basketball/1999-00/upper-deck-encore-electric-currents-fx/ec11-keith-van-horn-3184779
p4140
asg17
g18
sg19
(lp4141
Vhttp://img.beckett.com/images/items_stock/185226/3184761/3184779/front.jpg
p4142
asg22
V#EC11
p4143
sg24
V1999-00
p4144
sg26
g27
sg28
(lp4145
VKeith Van Horn
p4146
assbag1
(g2
g3
Ntp4147
Rp4148
(dp4149
g7
(dp4150
g9
V1999-00 Upper Deck Encore Electric Currents F/X #EC19 Stephon Marbury
p4151
sg11
I150
sg12
VUpper Deck Encore Electric Currents F/X
p4152
sg14
(lp4153
Vhttp://www.beckett.com/basketball/1999-00/upper-deck-encore-electric-currents-fx/ec19-stephon-marbury-3184787
p4154
asg17
g18
sg19
(lp4155
Vhttp://img.beckett.com/images/items_stock/185226/3184761/3184787/front.jpg
p4156
asg22
V#EC19
p4157
sg24
V1999-00
p4158
sg26
g27
sg28
(lp4159
VStephon Marbury
p4160
assbag1
(g2
g3
Ntp4161
Rp4162
(dp4163
g7
(dp4164
g9
V1999-00 Upper Deck Retro Old School/New School Parallel #S18 Stephon Marbury
p4165
sg11
I500
sg12
VUpper Deck Retro Old School/New School Parallel
p4166
sg14
(lp4167
Vhttp://www.beckett.com/basketball/1999-00/upper-deck-retro-old-schoolnew-school-parallel/s18-stephon-marbury-3180183
p4168
asg17
g18
sg19
(lp4169
Vhttp://img.beckett.com/images/no-image.jpg
p4170
asg22
V#S18
p4171
sg24
V1999-00
p4172
sg26
g27
sg28
(lp4173
VStephon Marbury
p4174
assbag1
(g2
g3
Ntp4175
Rp4176
(dp4177
g7
(dp4178
g9
V1999-00 Upper Deck Retro Old School/New School Parallel #S21 Keith Van Horn
p4179
sg11
I500
sg12
VUpper Deck Retro Old School/New School Parallel
p4180
sg14
(lp4181
Vhttp://www.beckett.com/basketball/1999-00/upper-deck-retro-old-schoolnew-school-parallel/s21-keith-van-horn-3180186
p4182
asg17
g18
sg19
(lp4183
Vhttp://img.beckett.com/images/no-image.jpg
p4184
asg22
V#S21
p4185
sg24
V1999-00
p4186
sg26
g27
sg28
(lp4187
VKeith Van Horn
p4188
assba.