(lp0
Naccopy_reg
_reconstructor
p1
(ctutorial.items
BeckettItem
p2
c__builtin__
object
p3
Ntp4
Rp5
(dp6
S'_values'
p7
(dp8
S'originalItemDescription'
p9
V1999 Upper Deck Century Legends Century Collection #22 Willis Reed
p10
sS'serialNumber'
p11
I100
sS'setName'
p12
VUpper Deck Century Legends Century Collection
p13
sS'beckettLink'
p14
(lp15
Vhttp://www.beckett.com/basketball/1999/upper-deck-century-legends-century-collection/22-willis-reed-3175452
p16
asS'team'
p17
S'New York Knicks'
p18
sS'imageLink'
p19
(lp20
Vhttp://img.beckett.com/images/no-image.jpg
p21
asS'cardNumber'
p22
V#22
p23
sS'year'
p24
V1999
p25
sS'sport'
p26
S'Basketball'
p27
sS'playerNames'
p28
(lp29
VWillis Reed
p30
assbag1
(g2
g3
Ntp31
Rp32
(dp33
g7
(dp34
g9
V1999 Upper Deck Century Legends Century Collection #25 Walt Frazier
p35
sg11
I100
sg12
VUpper Deck Century Legends Century Collection
p36
sg14
(lp37
Vhttp://www.beckett.com/basketball/1999/upper-deck-century-legends-century-collection/25-walt-frazier-3175455
p38
asg17
g18
sg19
(lp39
Vhttp://img.beckett.com/images/no-image.jpg
p40
asg22
V#25
p41
sg24
V1999
p42
sg26
g27
sg28
(lp43
VWalt Frazier
p44
assbag1
(g2
g3
Ntp45
Rp46
(dp47
g7
(dp48
g9
V1999 Upper Deck Century Legends Century Collection #30 Dave DeBusschere
p49
sg11
I100
sg12
VUpper Deck Century Legends Century Collection
p50
sg14
(lp51
Vhttp://www.beckett.com/basketball/1999/upper-deck-century-legends-century-collection/30-dave-debusschere-3175460
p52
asg17
g18
sg19
(lp53
Vhttp://img.beckett.com/images/no-image.jpg
p54
asg22
V#30
p55
sg24
V1999
p56
sg26
g27
sg28
(lp57
VDave DeBusschere
p58
assbag1
(g2
g3
Ntp59
Rp60
(dp61
g7
(dp62
g9
V1999 Upper Deck Century Legends Century Collection #31 Earl Monroe
p63
sg11
I100
sg12
VUpper Deck Century Legends Century Collection
p64
sg14
(lp65
Vhttp://www.beckett.com/basketball/1999/upper-deck-century-legends-century-collection/31-earl-monroe-3175461
p66
asg17
g18
sg19
(lp67
Vhttp://img.beckett.com/images/no-image.jpg
p68
asg22
V#31
p69
sg24
V1999
p70
sg26
g27
sg28
(lp71
VEarl Monroe
p72
assbag1
(g2
g3
Ntp73
Rp74
(dp75
g7
(dp76
g9
V1999 Upper Deck Century Legends Century Collection #40 Nate Archibald
p77
sg11
I100
sg12
VUpper Deck Century Legends Century Collection
p78
sg14
(lp79
Vhttp://www.beckett.com/basketball/1999/upper-deck-century-legends-century-collection/40-nate-archibald-3175470
p80
asg17
g18
sg19
(lp81
Vhttp://img.beckett.com/images/no-image.jpg
p82
asg22
V#40
p83
sg24
V1999
p84
sg26
g27
sg28
(lp85
VNate Archibald
p86
assbag1
(g2
g3
Ntp87
Rp88
(dp89
g7
(dp90
g9
V1999 Upper Deck Century Legends Century Collection #42 Patrick Ewing
p91
sg11
I100
sg12
VUpper Deck Century Legends Century Collection
p92
sg14
(lp93
Vhttp://www.beckett.com/basketball/1999/upper-deck-century-legends-century-collection/42-patrick-ewing-3175472
p94
asg17
g18
sg19
(lp95
Vhttp://img.beckett.com/images/no-image.jpg
p96
asg22
V#42
p97
sg24
V1999
p98
sg26
g27
sg28
(lp99
VPatrick Ewing
p100
assbag1
(g2
g3
Ntp101
Rp102
(dp103
g7
(dp104
g9
V1999 Upper Deck Century Legends Century Collection #76 Allan Houston
p105
sg11
I100
sg12
VUpper Deck Century Legends Century Collection
p106
sg14
(lp107
Vhttp://www.beckett.com/basketball/1999/upper-deck-century-legends-century-collection/76-allan-houston-3175506
p108
asg17
g18
sg19
(lp109
Vhttp://img.beckett.com/images/no-image.jpg
p110
asg22
V#76
p111
sg24
V1999
p112
sg26
g27
sg28
(lp113
VAllan Houston
p114
assbag1
(g2
g3
Ntp115
Rp116
(dp117
g7
(dp118
g9
V1999-00 Fleer Focus #143 DeMarco Johnson RC
p119
sg11
I3000
sg12
VFleer Focus
p120
sg14
(lp121
Vhttp://www.beckett.com/basketball/1999-00/fleer-focus/143-demarco-johnson-rc-3202039
p122
asg17
g18
sS'rookieCard'
p123
I1
sg19
(lp124
Vhttp://img.beckett.com/images/no-image.jpg
p125
asg22
V#143
p126
sg24
V1999-00
p127
sg26
g27
sg28
(lp128
VDeMarco Johnson
p129
assbag1
(g2
g3
Ntp130
Rp131
(dp132
g7
(dp133
g9
V1999-00 Fleer Focus #143A DeMarco Johnson SP
p134
sg11
I999
sg12
VFleer Focus
p135
sg14
(lp136
Vhttp://www.beckett.com/basketball/1999-00/fleer-focus/143a-demarco-johnson-sp-3202040
p137
asg17
g18
sg19
(lp138
Vhttp://img.beckett.com/images/no-image.jpg
p139
asg22
V#143A
p140
sg24
V1999-00
p141
sS'subsetName'
p142
VSP
p143
sg26
g27
sg28
(lp144
VDeMarco Johnson
p145
assbag1
(g2
g3
Ntp146
Rp147
(dp148
g7
(dp149
g9
V1999-00 Black Diamond Final Cut #53 Latrell Sprewell
p150
sg11
I100
sg12
VBlack Diamond Final Cut
p151
sg14
(lp152
Vhttp://www.beckett.com/basketball/1999-00/black-diamond-final-cut/53-latrell-sprewell-3205727
p153
asg17
g18
sg19
(lp154
Vhttp://img.beckett.com/images/no-image.jpg
p155
asg22
V#53
p156
sg24
V1999-00
p157
sg26
g27
sg28
(lp158
VLatrell Sprewell
p159
assbag1
(g2
g3
Ntp160
Rp161
(dp162
g7
(dp163
g9
V1999-00 Black Diamond Final Cut #54 Allan Houston
p164
sg11
I100
sg12
VBlack Diamond Final Cut
p165
sg14
(lp166
Vhttp://www.beckett.com/basketball/1999-00/black-diamond-final-cut/54-allan-houston-3205728
p167
asg17
g18
sg19
(lp168
Vhttp://img.beckett.com/images/no-image.jpg
p169
asg22
V#54
p170
sg24
V1999-00
p171
sg26
g27
sg28
(lp172
VAllan Houston
p173
assbag1
(g2
g3
Ntp174
Rp175
(dp176
g7
(dp177
g9
V1999-00 Black Diamond Final Cut #55 Patrick Ewing
p178
sg11
I100
sg12
VBlack Diamond Final Cut
p179
sg14
(lp180
Vhttp://www.beckett.com/basketball/1999-00/black-diamond-final-cut/55-patrick-ewing-3205729
p181
asg17
g18
sg19
(lp182
Vhttp://img.beckett.com/images/no-image.jpg
p183
asg22
V#55
p184
sg24
V1999-00
p185
sg26
g27
sg28
(lp186
VPatrick Ewing
p187
assbag1
(g2
g3
Ntp188
Rp189
(dp190
g7
(dp191
g9
V1999-00 Black Diamond Final Cut #56 Marcus Camby
p192
sg11
I100
sg12
VBlack Diamond Final Cut
p193
sg14
(lp194
Vhttp://www.beckett.com/basketball/1999-00/black-diamond-final-cut/56-marcus-camby-3205730
p195
asg17
g18
sg19
(lp196
Vhttp://img.beckett.com/images/no-image.jpg
p197
asg22
V#56
p198
sg24
V1999-00
p199
sg26
g27
sg28
(lp200
VMarcus Camby
p201
assbag1
(g2
g3
Ntp202
Rp203
(dp204
g7
(dp205
g9
V1999-00 Bowman's Best Atomic Refractors #28 Latrell Sprewell
p206
sg11
I100
sg12
VBowman's Best Atomic Refractors
p207
sg14
(lp208
Vhttp://www.beckett.com/basketball/1999-00/bowmans-best-atomic-refractors/28-latrell-sprewell-3204815
p209
asg17
g18
sg19
(lp210
Vhttp://img.beckett.com/images/no-image.jpg
p211
asg22
V#28
p212
sg24
V1999-00
p213
sg26
g27
sg28
(lp214
VLatrell Sprewell
p215
assbag1
(g2
g3
Ntp216
Rp217
(dp218
g7
(dp219
g9
V1999-00 Bowman's Best Atomic Refractors #35 Allan Houston
p220
sg11
I100
sg12
VBowman's Best Atomic Refractors
p221
sg14
(lp222
Vhttp://www.beckett.com/basketball/1999-00/bowmans-best-atomic-refractors/35-allan-houston-3204822
p223
asg17
g18
sg19
(lp224
Vhttp://img.beckett.com/images/items_stock/185226/3204779/3204822/front.jpg
p225
asg22
V#35
p226
sg24
V1999-00
p227
sg26
g27
sg28
(lp228
VAllan Houston
p229
assbag1
(g2
g3
Ntp230
Rp231
(dp232
g7
(dp233
g9
V1999-00 Bowman's Best Atomic Refractors #66 Marcus Camby
p234
sg11
I100
sg12
VBowman's Best Atomic Refractors
p235
sg14
(lp236
Vhttp://www.beckett.com/basketball/1999-00/bowmans-best-atomic-refractors/66-marcus-camby-3204853
p237
asg17
g18
sg19
(lp238
Vhttp://img.beckett.com/images/no-image.jpg
p239
asg22
V#66
p240
sg24
V1999-00
p241
sg26
g27
sg28
(lp242
VMarcus Camby
p243
assbag1
(g2
g3
Ntp244
Rp245
(dp246
g7
(dp247
g9
V1999-00 Bowman's Best Atomic Refractors #81 Patrick Ewing
p248
sg11
I100
sg12
VBowman's Best Atomic Refractors
p249
sg14
(lp250
Vhttp://www.beckett.com/basketball/1999-00/bowmans-best-atomic-refractors/81-patrick-ewing-3204868
p251
asg17
g18
sg19
(lp252
Vhttp://img.beckett.com/images/no-image.jpg
p253
asg22
V#81
p254
sg24
V1999-00
p255
sg26
g27
sg28
(lp256
VPatrick Ewing
p257
assbag1
(g2
g3
Ntp258
Rp259
(dp260
g7
(dp261
g9
V1999-00 Bowman's Best Atomic Refractors #115 DeMarco Johnson
p262
sg11
I100
sg12
VBowman's Best Atomic Refractors
p263
sg14
(lp264
Vhttp://www.beckett.com/basketball/1999-00/bowmans-best-atomic-refractors/115-demarco-johnson-3204902
p265
asg17
g18
sg19
(lp266
Vhttp://img.beckett.com/images/no-image.jpg
p267
asg22
V#115
p268
sg24
V1999-00
p269
sg26
g27
sg28
(lp270
VDeMarco Johnson
p271
assbag1
(g2
g3
Ntp272
Rp273
(dp274
g7
(dp275
g9
V1999-00 Bowman's Best Refractors #28 Latrell Sprewell
p276
sg11
I400
sg12
VBowman's Best Refractors
p277
sg14
(lp278
Vhttp://www.beckett.com/basketball/1999-00/bowmans-best-refractors/28-latrell-sprewell-3204673
p279
asg17
g18
sg19
(lp280
Vhttp://img.beckett.com/images/no-image.jpg
p281
asg22
V#28
p282
sg24
V1999-00
p283
sg26
g27
sg28
(lp284
VLatrell Sprewell
p285
assbag1
(g2
g3
Ntp286
Rp287
(dp288
g7
(dp289
g9
V1999-00 Bowman's Best Refractors #35 Allan Houston
p290
sg11
I400
sg12
VBowman's Best Refractors
p291
sg14
(lp292
Vhttp://www.beckett.com/basketball/1999-00/bowmans-best-refractors/35-allan-houston-3204680
p293
asg17
g18
sg19
(lp294
Vhttp://img.beckett.com/images/items_stock/185226/3204637/3204680/front.jpg
p295
asg22
V#35
p296
sg24
V1999-00
p297
sg26
g27
sg28
(lp298
VAllan Houston
p299
assbag1
(g2
g3
Ntp300
Rp301
(dp302
g7
(dp303
g9
V1999-00 Bowman's Best Refractors #66 Marcus Camby
p304
sg11
I400
sg12
VBowman's Best Refractors
p305
sg14
(lp306
Vhttp://www.beckett.com/basketball/1999-00/bowmans-best-refractors/66-marcus-camby-3204711
p307
asg17
g18
sg19
(lp308
Vhttp://img.beckett.com/images/items_stock/185226/3204637/3204711/front.jpg
p309
asg22
V#66
p310
sg24
V1999-00
p311
sg26
g27
sg28
(lp312
VMarcus Camby
p313
assbag1
(g2
g3
Ntp314
Rp315
(dp316
g7
(dp317
g9
V1999-00 Bowman's Best Refractors #81 Patrick Ewing
p318
sg11
I400
sg12
VBowman's Best Refractors
p319
sg14
(lp320
Vhttp://www.beckett.com/basketball/1999-00/bowmans-best-refractors/81-patrick-ewing-3204726
p321
asg17
g18
sg19
(lp322
Vhttp://img.beckett.com/images/no-image.jpg
p323
asg22
V#81
p324
sg24
V1999-00
p325
sg26
g27
sg28
(lp326
VPatrick Ewing
p327
assbag1
(g2
g3
Ntp328
Rp329
(dp330
g7
(dp331
g9
V1999-00 Bowman's Best Refractors #115 DeMarco Johnson
p332
sg11
I400
sg12
VBowman's Best Refractors
p333
sg14
(lp334
Vhttp://www.beckett.com/basketball/1999-00/bowmans-best-refractors/115-demarco-johnson-3204760
p335
asg17
g18
sg19
(lp336
Vhttp://img.beckett.com/images/items_stock/185226/3204637/3204760/front.jpg
p337
asg22
V#115
p338
sg24
V1999-00
p339
sg26
g27
sg28
(lp340
VDeMarco Johnson
p341
assbag1
(g2
g3
Ntp342
Rp343
(dp344
g7
(dp345
g9
V1999-00 Finest Refractors Gold #21 Latrell Sprewell
p346
sg11
I100
sg12
VFinest Refractors Gold
p347
sg14
(lp348
Vhttp://www.beckett.com/basketball/1999-00/finest-refractors-gold/21-latrell-sprewell-3203933
p349
asg17
g18
sg19
(lp350
Vhttp://img.beckett.com/images/no-image.jpg
p351
asg22
V#21
p352
sg24
V1999-00
p353
sg26
g27
sg28
(lp354
VLatrell Sprewell
p355
assbag1
(g2
g3
Ntp356
Rp357
(dp358
g7
(dp359
g9
V1999-00 Finest Refractors Gold #48 Allan Houston
p360
sg11
I100
sg12
VFinest Refractors Gold
p361
sg14
(lp362
Vhttp://www.beckett.com/basketball/1999-00/finest-refractors-gold/48-allan-houston-3203960
p363
asg17
g18
sg19
(lp364
Vhttp://img.beckett.com/images/no-image.jpg
p365
asg22
V#48
p366
sg24
V1999-00
p367
sg26
g27
sg28
(lp368
VAllan Houston
p369
assbag1
(g2
g3
Ntp370
Rp371
(dp372
g7
(dp373
g9
V1999-00 Finest Refractors Gold #76 Chris Childs
p374
sg11
I100
sg12
VFinest Refractors Gold
p375
sg14
(lp376
Vhttp://www.beckett.com/basketball/1999-00/finest-refractors-gold/76-chris-childs-3203988
p377
asg17
g18
sg19
(lp378
Vhttp://img.beckett.com/images/items_stock/185226/3203898/3203988/front.jpg
p379
asg22
V#76
p380
sg24
V1999-00
p381
sg26
g27
sg28
(lp382
VChris Childs
p383
assbag1
(g2
g3
Ntp384
Rp385
(dp386
g7
(dp387
g9
V1999-00 Finest Refractors Gold #92 Larry Johnson
p388
sg11
I100
sg12
VFinest Refractors Gold
p389
sg14
(lp390
Vhttp://www.beckett.com/basketball/1999-00/finest-refractors-gold/92-larry-johnson-3204004
p391
asg17
g18
sg19
(lp392
Vhttp://img.beckett.com/images/no-image.jpg
p393
asg22
V#92
p394
sg24
V1999-00
p395
sg26
g27
sg28
(lp396
VLarry Johnson
p397
assbag1
(g2
g3
Ntp398
Rp399
(dp400
g7
(dp401
g9
V1999-00 Finest Refractors Gold #148 Charlie Ward
p402
sg11
I100
sg12
VFinest Refractors Gold
p403
sg14
(lp404
Vhttp://www.beckett.com/basketball/1999-00/finest-refractors-gold/148-charlie-ward-3204060
p405
asg17
g18
sg19
(lp406
Vhttp://img.beckett.com/images/no-image.jpg
p407
asg22
V#148
p408
sg24
V1999-00
p409
sg26
g27
sg28
(lp410
VCharlie Ward
p411
assbag1
(g2
g3
Ntp412
Rp413
(dp414
g7
(dp415
g9
V1999-00 Finest Refractors Gold #158 Patrick Ewing
p416
sg11
I100
sg12
VFinest Refractors Gold
p417
sg14
(lp418
Vhttp://www.beckett.com/basketball/1999-00/finest-refractors-gold/158-patrick-ewing-3204070
p419
asg17
g18
sg19
(lp420
Vhttp://img.beckett.com/images/no-image.jpg
p421
asg22
V#158
p422
sg24
V1999-00
p423
sg26
g27
sg28
(lp424
VPatrick Ewing
p425
assbag1
(g2
g3
Ntp426
Rp427
(dp428
g7
(dp429
g9
V1999-00 Finest Refractors Gold #207 Marcus Camby
p430
sg11
I100
sg12
VFinest Refractors Gold
p431
sg14
(lp432
Vhttp://www.beckett.com/basketball/1999-00/finest-refractors-gold/207-marcus-camby-3204119
p433
asg17
g18
sg19
(lp434
Vhttp://img.beckett.com/images/no-image.jpg
p435
asg22
V#207
p436
sg24
V1999-00
p437
sg26
g27
sg28
(lp438
VMarcus Camby
p439
assbag1
(g2
g3
Ntp440
Rp441
(dp442
g7
(dp443
g9
V1999-00 Finest Refractors Gold #229 Allan Houston USA
p444
sg11
I100
sg12
VFinest Refractors Gold
p445
sg14
(lp446
Vhttp://www.beckett.com/basketball/1999-00/finest-refractors-gold/229-allan-houston-usa-3204141
p447
asg17
g18
sg19
(lp448
Vhttp://img.beckett.com/images/no-image.jpg
p449
asg22
V#229
p450
sg24
V1999-00
p451
sg142
VUSA
p452
sg26
g27
sg28
(lp453
VAllan Houston
p454
assbag1
(g2
g3
Ntp455
Rp456
(dp457
g7
(dp458
g9
V1999-00 Finest Refractors Gold #251 Patrick Ewing EDGE
p459
sg11
I100
sg12
VFinest Refractors Gold
p460
sg14
(lp461
Vhttp://www.beckett.com/basketball/1999-00/finest-refractors-gold/251-patrick-ewing-edge-3204163
p462
asg17
g18
sg19
(lp463
Vhttp://img.beckett.com/images/no-image.jpg
p464
asg22
V#251
p465
sg24
V1999-00
p466
sg142
VEDGE
p467
sg26
g27
sg28
(lp468
VPatrick Ewing
p469
assbag1
(g2
g3
Ntp470
Rp471
(dp472
g7
(dp473
g9
V1999-00 Flair Showcase Legacy Collection #21 Larry Johnson
p474
sg11
I20
sg12
VFlair Showcase Legacy Collection
p475
sg14
(lp476
Vhttp://www.beckett.com/basketball/1999-00/flair-showcase-legacy-collection/21-larry-johnson-3202945
p477
asg17
g18
sg19
(lp478
Vhttp://img.beckett.com/images/no-image.jpg
p479
asg22
V#21
p480
sg24
V1999-00
p481
sg26
g27
sg28
(lp482
VLarry Johnson
p483
assbag1
(g2
g3
Ntp484
Rp485
(dp486
g7
(dp487
g9
V1999-00 Flair Showcase Legacy Collection #37 Patrick Ewing
p488
sg11
I20
sg12
VFlair Showcase Legacy Collection
p489
sg14
(lp490
Vhttp://www.beckett.com/basketball/1999-00/flair-showcase-legacy-collection/37-patrick-ewing-3202961
p491
asg17
g18
sg19
(lp492
Vhttp://img.beckett.com/images/no-image.jpg
p493
asg22
V#37
p494
sg24
V1999-00
p495
sg26
g27
sg28
(lp496
VPatrick Ewing
p497
assbag1
(g2
g3
Ntp498
Rp499
(dp500
g7
(dp501
g9
V1999-00 Flair Showcase Legacy Collection #42 Marcus Camby
p502
sg11
I20
sg12
VFlair Showcase Legacy Collection
p503
sg14
(lp504
Vhttp://www.beckett.com/basketball/1999-00/flair-showcase-legacy-collection/42-marcus-camby-3202966
p505
asg17
g18
sg19
(lp506
Vhttp://img.beckett.com/images/no-image.jpg
p507
asg22
V#42
p508
sg24
V1999-00
p509
sg26
g27
sg28
(lp510
VMarcus Camby
p511
assbag1
(g2
g3
Ntp512
Rp513
(dp514
g7
(dp515
g9
V1999-00 Flair Showcase Legacy Collection #82 Allan Houston
p516
sg11
I20
sg12
VFlair Showcase Legacy Collection
p517
sg14
(lp518
Vhttp://www.beckett.com/basketball/1999-00/flair-showcase-legacy-collection/82-allan-houston-3203006
p519
asg17
g18
sg19
(lp520
Vhttp://img.beckett.com/images/no-image.jpg
p521
asg22
V#82
p522
sg24
V1999-00
p523
sg26
g27
sg28
(lp524
VAllan Houston
p525
assbag1
(g2
g3
Ntp526
Rp527
(dp528
g7
(dp529
g9
V1999-00 Flair Showcase Legacy Collection #98 Latrell Sprewell
p530
sg11
I20
sg12
VFlair Showcase Legacy Collection
p531
sg14
(lp532
Vhttp://www.beckett.com/basketball/1999-00/flair-showcase-legacy-collection/98-latrell-sprewell-3203022
p533
asg17
g18
sg19
(lp534
Vhttp://img.beckett.com/images/no-image.jpg
p535
asg22
V#98
p536
sg24
V1999-00
p537
sg26
g27
sg28
(lp538
VLatrell Sprewell
p539
assbag1
(g2
g3
Ntp540
Rp541
(dp542
g7
(dp543
g9
V1999-00 Flair Showcase Masterpiece #21 Larry Johnson
p544
sg11
I1
sg12
VFlair Showcase Masterpiece
p545
sg14
(lp546
Vhttp://www.beckett.com/basketball/1999-00/flair-showcase-masterpiece/21-larry-johnson-3203080
p547
asg17
g18
sg19
(lp548
Vhttp://img.beckett.com/images/no-image.jpg
p549
asg22
V#21
p550
sg24
V1999-00
p551
sg26
g27
sg28
(lp552
VLarry Johnson
p553
assbag1
(g2
g3
Ntp554
Rp555
(dp556
g7
(dp557
g9
V1999-00 Flair Showcase Masterpiece #37 Patrick Ewing
p558
sg11
I1
sg12
VFlair Showcase Masterpiece
p559
sg14
(lp560
Vhttp://www.beckett.com/basketball/1999-00/flair-showcase-masterpiece/37-patrick-ewing-3203096
p561
asg17
g18
sg19
(lp562
Vhttp://img.beckett.com/images/no-image.jpg
p563
asg22
V#37
p564
sg24
V1999-00
p565
sg26
g27
sg28
(lp566
VPatrick Ewing
p567
assbag1
(g2
g3
Ntp568
Rp569
(dp570
g7
(dp571
g9
V1999-00 Flair Showcase Masterpiece #42 Marcus Camby
p572
sg11
I1
sg12
VFlair Showcase Masterpiece
p573
sg14
(lp574
Vhttp://www.beckett.com/basketball/1999-00/flair-showcase-masterpiece/42-marcus-camby-3203101
p575
asg17
g18
sg19
(lp576
Vhttp://img.beckett.com/images/no-image.jpg
p577
asg22
V#42
p578
sg24
V1999-00
p579
sg26
g27
sg28
(lp580
VMarcus Camby
p581
assbag1
(g2
g3
Ntp582
Rp583
(dp584
g7
(dp585
g9
V1999-00 Flair Showcase Masterpiece #82 Allan Houston
p586
sg11
I1
sg12
VFlair Showcase Masterpiece
p587
sg14
(lp588
Vhttp://www.beckett.com/basketball/1999-00/flair-showcase-masterpiece/82-allan-houston-3203141
p589
asg17
g18
sg19
(lp590
Vhttp://img.beckett.com/images/no-image.jpg
p591
asg22
V#82
p592
sg24
V1999-00
p593
sg26
g27
sg28
(lp594
VAllan Houston
p595
assbag1
(g2
g3
Ntp596
Rp597
(dp598
g7
(dp599
g9
V1999-00 Flair Showcase Masterpiece #98 Latrell Sprewell
p600
sg11
I1
sg12
VFlair Showcase Masterpiece
p601
sg14
(lp602
Vhttp://www.beckett.com/basketball/1999-00/flair-showcase-masterpiece/98-latrell-sprewell-3203157
p603
asg17
g18
sg19
(lp604
Vhttp://img.beckett.com/images/no-image.jpg
p605
asg22
V#98
p606
sg24
V1999-00
p607
sg26
g27
sg28
(lp608
VLatrell Sprewell
p609
assbag1
(g2
g3
Ntp610
Rp611
(dp612
g7
(dp613
g9
V1999-00 Fleer Supreme Court Collection #30 Marcus Camby
p614
sg11
I20
sg12
VFleer Supreme Court Collection
p615
sg14
(lp616
Vhttp://www.beckett.com/basketball/1999-00/fleer-supreme-court-collection/30-marcus-camby-3201536
p617
asg17
g18
sg19
(lp618
Vhttp://img.beckett.com/images/no-image.jpg
p619
asg22
V#30
p620
sg24
V1999-00
p621
sg26
g27
sg28
(lp622
VMarcus Camby
p623
assbag1
(g2
g3
Ntp624
Rp625
(dp626
g7
(dp627
g9
V1999-00 Fleer Supreme Court Collection #60 Chris Childs
p628
sg11
I20
sg12
VFleer Supreme Court Collection
p629
sg14
(lp630
Vhttp://www.beckett.com/basketball/1999-00/fleer-supreme-court-collection/60-chris-childs-3201566
p631
asg17
g18
sg19
(lp632
Vhttp://img.beckett.com/images/no-image.jpg
p633
asg22
V#60
p634
sg24
V1999-00
p635
sg26
g27
sg28
(lp636
VChris Childs
p637
assbag1
(g2
g3
Ntp638
Rp639
(dp640
g7
(dp641
g9
V1999-00 Fleer Supreme Court Collection #90 Patrick Ewing
p642
sg11
I20
sg12
VFleer Supreme Court Collection
p643
sg14
(lp644
Vhttp://www.beckett.com/basketball/1999-00/fleer-supreme-court-collection/90-patrick-ewing-3201596
p645
asg17
g18
sg19
(lp646
Vhttp://img.beckett.com/images/no-image.jpg
p647
asg22
V#90
p648
sg24
V1999-00
p649
sg26
g27
sg28
(lp650
VPatrick Ewing
p651
assbag1
(g2
g3
Ntp652
Rp653
(dp654
g7
(dp655
g9
V1999-00 Fleer Supreme Court Collection #119 Allan Houston
p656
sg11
I20
sg12
VFleer Supreme Court Collection
p657
sg14
(lp658
Vhttp://www.beckett.com/basketball/1999-00/fleer-supreme-court-collection/119-allan-houston-3201625
p659
asg17
g18
sg19
(lp660
Vhttp://img.beckett.com/images/no-image.jpg
p661
asg22
V#119
p662
sg24
V1999-00
p663
sg26
g27
sg28
(lp664
VAllan Houston
p665
assbag1
(g2
g3
Ntp666
Rp667
(dp668
g7
(dp669
g9
V1999-00 Fleer Supreme Court Collection #148 Larry Johnson
p670
sg11
I20
sg12
VFleer Supreme Court Collection
p671
sg14
(lp672
Vhttp://www.beckett.com/basketball/1999-00/fleer-supreme-court-collection/148-larry-johnson-3201654
p673
asg17
g18
sg19
(lp674
Vhttp://img.beckett.com/images/no-image.jpg
p675
asg22
V#148
p676
sg24
V1999-00
p677
sg26
g27
sg28
(lp678
VLarry Johnson
p679
assbag1
(g2
g3
Ntp680
Rp681
(dp682
g7
(dp683
g9
V1999-00 Fleer Supreme Court Collection #176 Latrell Sprewell
p684
sg11
I20
sg12
VFleer Supreme Court Collection
p685
sg14
(lp686
Vhttp://www.beckett.com/basketball/1999-00/fleer-supreme-court-collection/176-latrell-sprewell-3201682
p687
asg17
g18
sg19
(lp688
Vhttp://img.beckett.com/images/no-image.jpg
p689
asg22
V#176
p690
sg24
V1999-00
p691
sg26
g27
sg28
(lp692
VLatrell Sprewell
p693
assbag1
(g2
g3
Ntp694
Rp695
(dp696
g7
(dp697
g9
V1999-00 Fleer Supreme Court Collection #189 John Starks
p698
sg11
I20
sg12
VFleer Supreme Court Collection
p699
sg14
(lp700
Vhttp://www.beckett.com/basketball/1999-00/fleer-supreme-court-collection/189-john-starks-3201695
p701
asg17
g18
sg19
(lp702
Vhttp://img.beckett.com/images/no-image.jpg
p703
asg22
V#189
p704
sg24
V1999-00
p705
sg26
g27
sg28
(lp706
VJohn Starks
p707
assbag1
(g2
g3
Ntp708
Rp709
(dp710
g7
(dp711
g9
V1999-00 Fleer Supreme Court Collection #197 Charlie Ward
p712
sg11
I20
sg12
VFleer Supreme Court Collection
p713
sg14
(lp714
Vhttp://www.beckett.com/basketball/1999-00/fleer-supreme-court-collection/197-charlie-ward-3201703
p715
asg17
g18
sg19
(lp716
Vhttp://img.beckett.com/images/no-image.jpg
p717
asg22
V#197
p718
sg24
V1999-00
p719
sg26
g27
sg28
(lp720
VCharlie Ward
p721
assbag1
(g2
g3
Ntp722
Rp723
(dp724
g7
(dp725
g9
V1999-00 Fleer Focus Masterpiece Mania #9 Larry Johnson
p726
sg11
I300
sg12
VFleer Focus Masterpiece Mania
p727
sg14
(lp728
Vhttp://www.beckett.com/basketball/1999-00/fleer-focus-masterpiece-mania/9-larry-johnson-3202228
p729
asg17
g18
sg19
(lp730
Vhttp://img.beckett.com/images/items_stock/185226/3202210/3202228/front.jpg
p731
asg22
V#9
p732
sg24
V1999-00
p733
sg26
g27
sg28
(lp734
VLarry Johnson
p735
assbag1
(g2
g3
Ntp736
Rp737
(dp738
g7
(dp739
g9
V1999-00 Fleer Focus Masterpiece Mania #81 Latrell Sprewell
p740
sg11
I300
sg12
VFleer Focus Masterpiece Mania
p741
sg14
(lp742
Vhttp://www.beckett.com/basketball/1999-00/fleer-focus-masterpiece-mania/81-latrell-sprewell-3202300
p743
asg17
g18
sg19
(lp744
Vhttp://img.beckett.com/images/no-image.jpg
p745
asg22
V#81
p746
sg24
V1999-00
p747
sg26
g27
sg28
(lp748
VLatrell Sprewell
p749
assbag1
(g2
g3
Ntp750
Rp751
(dp752
g7
(dp753
g9
V1999-00 Fleer Focus Masterpiece Mania #87 Patrick Ewing
p754
sg11
I300
sg12
VFleer Focus Masterpiece Mania
p755
sg14
(lp756
Vhttp://www.beckett.com/basketball/1999-00/fleer-focus-masterpiece-mania/87-patrick-ewing-3202306
p757
asg17
g18
sg19
(lp758
Vhttp://img.beckett.com/images/no-image.jpg
p759
asg22
V#87
p760
sg24
V1999-00
p761
sg26
g27
sg28
(lp762
VPatrick Ewing
p763
assbag1
(g2
g3
Ntp764
Rp765
(dp766
g7
(dp767
g9
V1999-00 Fleer Focus Masterpiece Mania #95 Marcus Camby
p768
sg11
I300
sg12
VFleer Focus Masterpiece Mania
p769
sg14
(lp770
Vhttp://www.beckett.com/basketball/1999-00/fleer-focus-masterpiece-mania/95-marcus-camby-3202314
p771
asg17
g18
sg19
(lp772
Vhttp://img.beckett.com/images/items_stock/185226/3202210/3202314/front.jpg
p773
asg22
V#95
p774
sg24
V1999-00
p775
sg26
g27
sg28
(lp776
VMarcus Camby
p777
assbag1
(g2
g3
Ntp778
Rp779
(dp780
g7
(dp781
g9
V1999-00 Fleer Focus Masterpiece Mania #97 John Starks
p782
sg11
I300
sg12
VFleer Focus Masterpiece Mania
p783
sg14
(lp784
Vhttp://www.beckett.com/basketball/1999-00/fleer-focus-masterpiece-mania/97-john-starks-3202316
p785
asg17
g18
sg19
(lp786
Vhttp://img.beckett.com/images/items_stock/185226/3202210/3202316/front.jpg
p787
asg22
V#97
p788
sg24
V1999-00
p789
sg26
g27
sg28
(lp790
VJohn Starks
p791
assbag1
(g2
g3
Ntp792
Rp793
(dp794
g7
(dp795
g9
V1999-00 Fleer Focus Masterpiece Mania #143 DeMarco Johnson
p796
sg11
I300
sg12
VFleer Focus Masterpiece Mania
p797
sg14
(lp798
Vhttp://www.beckett.com/basketball/1999-00/fleer-focus-masterpiece-mania/143-demarco-johnson-3202362
p799
asg17
g18
sg19
(lp800
Vhttp://img.beckett.com/images/items_stock/185226/3202210/3202362/front.jpg
p801
asg22
V#143
p802
sg24
V1999-00
p803
sg26
g27
sg28
(lp804
VDeMarco Johnson
p805
assbag1
(g2
g3
Ntp806
Rp807
(dp808
g7
(dp809
g9
V1999-00 Fleer Focus Masterpieces #9 Larry Johnson
p810
sg11
I1
sg12
VFleer Focus Masterpieces
p811
sg14
(lp812
Vhttp://www.beckett.com/basketball/1999-00/fleer-focus-masterpieces/9-larry-johnson-3202068
p813
asg17
g18
sg19
(lp814
Vhttp://img.beckett.com/images/no-image.jpg
p815
asg22
V#9
p816
sg24
V1999-00
p817
sg26
g27
sg28
(lp818
VLarry Johnson
p819
assbag1
(g2
g3
Ntp820
Rp821
(dp822
g7
(dp823
g9
V1999-00 Fleer Focus Masterpieces #81 Latrell Sprewell
p824
sg11
I1
sg12
VFleer Focus Masterpieces
p825
sg14
(lp826
Vhttp://www.beckett.com/basketball/1999-00/fleer-focus-masterpieces/81-latrell-sprewell-3202140
p827
asg17
g18
sg19
(lp828
Vhttp://img.beckett.com/images/no-image.jpg
p829
asg22
V#81
p830
sg24
V1999-00
p831
sg26
g27
sg28
(lp832
VLatrell Sprewell
p833
assbag1
(g2
g3
Ntp834
Rp835
(dp836
g7
(dp837
g9
V1999-00 Fleer Focus Masterpieces #87 Patrick Ewing
p838
sg11
I1
sg12
VFleer Focus Masterpieces
p839
sg14
(lp840
Vhttp://www.beckett.com/basketball/1999-00/fleer-focus-masterpieces/87-patrick-ewing-3202146
p841
asg17
g18
sg19
(lp842
Vhttp://img.beckett.com/images/no-image.jpg
p843
asg22
V#87
p844
sg24
V1999-00
p845
sg26
g27
sg28
(lp846
VPatrick Ewing
p847
assbag1
(g2
g3
Ntp848
Rp849
(dp850
g7
(dp851
g9
V1999-00 Fleer Focus Masterpieces #95 Marcus Camby
p852
sg11
I1
sg12
VFleer Focus Masterpieces
p853
sg14
(lp854
Vhttp://www.beckett.com/basketball/1999-00/fleer-focus-masterpieces/95-marcus-camby-3202154
p855
asg17
g18
sg19
(lp856
Vhttp://img.beckett.com/images/no-image.jpg
p857
asg22
V#95
p858
sg24
V1999-00
p859
sg26
g27
sg28
(lp860
VMarcus Camby
p861
assbag1
(g2
g3
Ntp862
Rp863
(dp864
g7
(dp865
g9
V1999-00 Fleer Focus Masterpieces #97 John Starks
p866
sg11
I1
sg12
VFleer Focus Masterpieces
p867
sg14
(lp868
Vhttp://www.beckett.com/basketball/1999-00/fleer-focus-masterpieces/97-john-starks-3202156
p869
asg17
g18
sg19
(lp870
Vhttp://img.beckett.com/images/no-image.jpg
p871
asg22
V#97
p872
sg24
V1999-00
p873
sg26
g27
sg28
(lp874
VJohn Starks
p875
assbag1
(g2
g3
Ntp876
Rp877
(dp878
g7
(dp879
g9
V1999-00 Fleer Focus Masterpieces #143 DeMarco Johnson
p880
sg11
I1
sg12
VFleer Focus Masterpieces
p881
sg14
(lp882
Vhttp://www.beckett.com/basketball/1999-00/fleer-focus-masterpieces/143-demarco-johnson-3202202
p883
asg17
g18
sg19
(lp884
Vhttp://img.beckett.com/images/no-image.jpg
p885
asg22
V#143
p886
sg24
V1999-00
p887
sg26
g27
sg28
(lp888
VDeMarco Johnson
p889
assbag1
(g2
g3
Ntp890
Rp891
(dp892
g7
(dp893
g9
V1999-00 Fleer Mystique Masterpiece #34 Larry Johnson
p894
sg11
I1
sg12
VFleer Mystique Masterpiece
p895
sg14
(lp896
Vhttp://www.beckett.com/basketball/1999-00/fleer-mystique-masterpiece/34-larry-johnson-3198630
p897
asg17
g18
sg19
(lp898
Vhttp://img.beckett.com/images/no-image.jpg
p899
asg22
V#34
p900
sg24
V1999-00
p901
sg26
g27
sg28
(lp902
VLarry Johnson
p903
assbag1
(g2
g3
Ntp904
Rp905
(dp906
g7
(dp907
g9
V1999-00 Fleer Mystique Masterpiece #68 Marcus Camby
p908
sg11
I1
sg12
VFleer Mystique Masterpiece
p909
sg14
(lp910
Vhttp://www.beckett.com/basketball/1999-00/fleer-mystique-masterpiece/68-marcus-camby-3198664
p911
asg17
g18
sg19
(lp912
Vhttp://img.beckett.com/images/no-image.jpg
p913
asg22
V#68
p914
sg24
V1999-00
p915
sg26
g27
sg28
(lp916
VMarcus Camby
p917
assbag1
(g2
g3
Ntp918
Rp919
(dp920
g7
(dp921
g9
V1999-00 Fleer Mystique Masterpiece #71 Patrick Ewing
p922
sg11
I1
sg12
VFleer Mystique Masterpiece
p923
sg14
(lp924
Vhttp://www.beckett.com/basketball/1999-00/fleer-mystique-masterpiece/71-patrick-ewing-3198667
p925
asg17
g18
sg19
(lp926
Vhttp://img.beckett.com/images/no-image.jpg
p927
asg22
V#71
p928
sg24
V1999-00
p929
sg26
g27
sg28
(lp930
VPatrick Ewing
p931
assbag1
(g2
g3
Ntp932
Rp933
(dp934
g7
(dp935
g9
V1999-00 Fleer Mystique Masterpiece #76 Allan Houston
p936
sg11
I1
sg12
VFleer Mystique Masterpiece
p937
sg14
(lp938
Vhttp://www.beckett.com/basketball/1999-00/fleer-mystique-masterpiece/76-allan-houston-3198672
p939
asg17
g18
sg19
(lp940
Vhttp://img.beckett.com/images/no-image.jpg
p941
asg22
V#76
p942
sg24
V1999-00
p943
sg26
g27
sg28
(lp944
VAllan Houston
p945
assbag1
(g2
g3
Ntp946
Rp947
(dp948
g7
(dp949
g9
V1999-00 Fleer Mystique Masterpiece #100 Latrell Sprewell
p950
sg11
I1
sg12
VFleer Mystique Masterpiece
p951
sg14
(lp952
Vhttp://www.beckett.com/basketball/1999-00/fleer-mystique-masterpiece/100-latrell-sprewell-3198696
p953
asg17
g18
sg19
(lp954
Vhttp://img.beckett.com/images/no-image.jpg
p955
asg22
V#100
p956
sg24
V1999-00
p957
sg26
g27
sg28
(lp958
VLatrell Sprewell
p959
assbag1
(g2
g3
Ntp960
Rp961
(dp962
g7
(dp963
g9
V1999-00 Hoops Starting Five #20 Larry Johnson
p964
sg11
I5
sg12
VHoops Starting Five
p965
sg14
(lp966
Vhttp://www.beckett.com/basketball/1999-00/hoops-starting-five/20-larry-johnson-3199082
p967
asg17
g18
sg19
(lp968
Vhttp://img.beckett.com/images/no-image.jpg
p969
asg22
V#20
p970
sg24
V1999-00
p971
sg26
g27
sg28
(lp972
VLarry Johnson
p973
assbag1
(g2
g3
Ntp974
Rp975
(dp976
g7
(dp977
g9
V1999-00 Hoops Starting Five #45 Latrell Sprewell
p978
sg11
I5
sg12
VHoops Starting Five
p979
sg14
(lp980
Vhttp://www.beckett.com/basketball/1999-00/hoops-starting-five/45-latrell-sprewell-3199107
p981
asg17
g18
sg19
(lp982
Vhttp://img.beckett.com/images/no-image.jpg
p983
asg22
V#45
p984
sg24
V1999-00
p985
sg26
g27
sg28
(lp986
VLatrell Sprewell
p987
assbag1
(g2
g3
Ntp988
Rp989
(dp990
g7
(dp991
g9
V1999-00 Hoops Starting Five #56 Chris Childs
p992
sg11
I5
sg12
VHoops Starting Five
p993
sg14
(lp994
Vhttp://www.beckett.com/basketball/1999-00/hoops-starting-five/56-chris-childs-3199118
p995
asg17
g18
sg19
(lp996
Vhttp://img.beckett.com/images/no-image.jpg
p997
asg22
V#56
p998
sg24
V1999-00
p999
sg26
g27
sg28
(lp1000
VChris Childs
p1001
assbag1
(g2
g3
Ntp1002
Rp1003
(dp1004
g7
(dp1005
g9
V1999-00 Hoops Starting Five #70 Marcus Camby
p1006
sg11
I5
sg12
VHoops Starting Five
p1007
sg14
(lp1008
Vhttp://www.beckett.com/basketball/1999-00/hoops-starting-five/70-marcus-camby-3199132
p1009
asg17
g18
sg19
(lp1010
Vhttp://img.beckett.com/images/no-image.jpg
p1011
asg22
V#70
p1012
sg24
V1999-00
p1013
sg26
g27
sg28
(lp1014
VMarcus Camby
p1015
assbag1
(g2
g3
Ntp1016
Rp1017
(dp1018
g7
(dp1019
g9
V1999-00 Hoops Starting Five #85 Allan Houston
p1020
sg11
I5
sg12
VHoops Starting Five
p1021
sg14
(lp1022
Vhttp://www.beckett.com/basketball/1999-00/hoops-starting-five/85-allan-houston-3199147
p1023
asg17
g18
sg19
(lp1024
Vhttp://img.beckett.com/images/no-image.jpg
p1025
asg22
V#85
p1026
sg24
V1999-00
p1027
sg26
g27
sg28
(lp1028
VAllan Houston
p1029
assbag1
(g2
g3
Ntp1030
Rp1031
(dp1032
g7
(dp1033
g9
V1999-00 Hoops Starting Five #127 Patrick Ewing
p1034
sg11
I5
sg12
VHoops Starting Five
p1035
sg14
(lp1036
Vhttp://www.beckett.com/basketball/1999-00/hoops-starting-five/127-patrick-ewing-3199189
p1037
asg17
g18
sg19
(lp1038
Vhttp://img.beckett.com/images/no-image.jpg
p1039
asg22
V#127
p1040
sg24
V1999-00
p1041
sg26
g27
sg28
(lp1042
VPatrick Ewing
p1043
assbag1
(g2
g3
Ntp1044
Rp1045
(dp1046
g7
(dp1047
g9
V1999-00 SkyBox APEX Xtra #21 Allan Houston
p1048
sg11
I50
sg12
VSkyBox APEX Xtra
p1049
sg14
(lp1050
Vhttp://www.beckett.com/basketball/1999-00/skybox-apex-xtra/21-allan-houston-3198155
p1051
asg17
g18
sg19
(lp1052
Vhttp://img.beckett.com/images/no-image.jpg
p1053
asg22
V#21
p1054
sg24
V1999-00
p1055
sg26
g27
sg28
(lp1056
VAllan Houston
p1057
assbag1
(g2
g3
Ntp1058
Rp1059
(dp1060
g7
(dp1061
g9
V1999-00 SkyBox APEX Xtra #44 Larry Johnson
p1062
sg11
I50
sg12
VSkyBox APEX Xtra
p1063
sg14
(lp1064
Vhttp://www.beckett.com/basketball/1999-00/skybox-apex-xtra/44-larry-johnson-3198178
p1065
asg17
g18
sg19
(lp1066
Vhttp://img.beckett.com/images/no-image.jpg
p1067
asg22
V#44
p1068
sg24
V1999-00
p1069
sg26
g27
sg28
(lp1070
VLarry Johnson
p1071
assbag1
(g2
g3
Ntp1072
Rp1073
(dp1074
g7
(dp1075
g9
V1999-00 SkyBox APEX Xtra #104 Latrell Sprewell
p1076
sg11
I50
sg12
VSkyBox APEX Xtra
p1077
sg14
(lp1078
Vhttp://www.beckett.com/basketball/1999-00/skybox-apex-xtra/104-latrell-sprewell-3198238
p1079
asg17
g18
sg19
(lp1080
Vhttp://img.beckett.com/images/no-image.jpg
p1081
asg22
V#104
p1082
sg24
V1999-00
p1083
sg26
g27
sg28
(lp1084
VLatrell Sprewell
p1085
assbag1
(g2
g3
Ntp1086
Rp1087
(dp1088
g7
(dp1089
g9
V1999-00 SkyBox APEX Xtra #113 Marcus Camby
p1090
sg11
I50
sg12
VSkyBox APEX Xtra
p1091
sg14
(lp1092
Vhttp://www.beckett.com/basketball/1999-00/skybox-apex-xtra/113-marcus-camby-3198247
p1093
asg17
g18
sg19
(lp1094
Vhttp://img.beckett.com/images/no-image.jpg
p1095
asg22
V#113
p1096
sg24
V1999-00
p1097
sg26
g27
sg28
(lp1098
VMarcus Camby
p1099
assbag1
(g2
g3
Ntp1100
Rp1101
(dp1102
g7
(dp1103
g9
V1999-00 SkyBox APEX Xtra #150 Patrick Ewing
p1104
sg11
I50
sg12
VSkyBox APEX Xtra
p1105
sg14
(lp1106
Vhttp://www.beckett.com/basketball/1999-00/skybox-apex-xtra/150-patrick-ewing-3198284
p1107
asg17
g18
sg19
(lp1108
Vhttp://img.beckett.com/images/no-image.jpg
p1109
asg22
V#150
p1110
sg24
V1999-00
p1111
sg26
g27
sg28
(lp1112
VPatrick Ewing
p1113
assbag1
(g2
g3
Ntp1114
Rp1115
(dp1116
g7
(dp1117
g9
V1999-00 SkyBox APEX Xtreme #21 Allan Houston
p1118
sg11
I1
sg12
VSkyBox APEX Xtreme
p1119
sg14
(lp1120
Vhttp://www.beckett.com/basketball/1999-00/skybox-apex-xtreme/21-allan-houston-3196497
p1121
asg17
g18
sg19
(lp1122
Vhttp://img.beckett.com/images/no-image.jpg
p1123
asg22
V#21
p1124
sg24
V1999-00
p1125
sg26
g27
sg28
(lp1126
VAllan Houston
p1127
assbag1
(g2
g3
Ntp1128
Rp1129
(dp1130
g7
(dp1131
g9
V1999-00 SkyBox APEX Xtreme #44 Larry Johnson
p1132
sg11
I1
sg12
VSkyBox APEX Xtreme
p1133
sg14
(lp1134
Vhttp://www.beckett.com/basketball/1999-00/skybox-apex-xtreme/44-larry-johnson-3196520
p1135
asg17
g18
sg19
(lp1136
Vhttp://img.beckett.com/images/no-image.jpg
p1137
asg22
V#44
p1138
sg24
V1999-00
p1139
sg26
g27
sg28
(lp1140
VLarry Johnson
p1141
assbag1
(g2
g3
Ntp1142
Rp1143
(dp1144
g7
(dp1145
g9
V1999-00 SkyBox APEX Xtreme #104 Latrell Sprewell
p1146
sg11
I1
sg12
VSkyBox APEX Xtreme
p1147
sg14
(lp1148
Vhttp://www.beckett.com/basketball/1999-00/skybox-apex-xtreme/104-latrell-sprewell-3196580
p1149
asg17
g18
sg19
(lp1150
Vhttp://img.beckett.com/images/no-image.jpg
p1151
asg22
V#104
p1152
sg24
V1999-00
p1153
sg26
g27
sg28
(lp1154
VLatrell Sprewell
p1155
assbag1
(g2
g3
Ntp1156
Rp1157
(dp1158
g7
(dp1159
g9
V1999-00 SkyBox APEX Xtreme #113 Marcus Camby
p1160
sg11
I1
sg12
VSkyBox APEX Xtreme
p1161
sg14
(lp1162
Vhttp://www.beckett.com/basketball/1999-00/skybox-apex-xtreme/113-marcus-camby-3196589
p1163
asg17
g18
sg19
(lp1164
Vhttp://img.beckett.com/images/no-image.jpg
p1165
asg22
V#113
p1166
sg24
V1999-00
p1167
sg26
g27
sg28
(lp1168
VMarcus Camby
p1169
assbag1
(g2
g3
Ntp1170
Rp1171
(dp1172
g7
(dp1173
g9
V1999-00 SkyBox APEX Xtreme #150 Patrick Ewing
p1174
sg11
I1
sg12
VSkyBox APEX Xtreme
p1175
sg14
(lp1176
Vhttp://www.beckett.com/basketball/1999-00/skybox-apex-xtreme/150-patrick-ewing-3196626
p1177
asg17
g18
sg19
(lp1178
Vhttp://img.beckett.com/images/no-image.jpg
p1179
asg22
V#150
p1180
sg24
V1999-00
p1181
sg26
g27
sg28
(lp1182
VPatrick Ewing
p1183
assbag1
(g2
g3
Ntp1184
Rp1185
(dp1186
g7
(dp1187
g9
V1999-00 SkyBox Premium Star Rubies #39 Larry Johnson
p1188
sg11
I45
sg12
VSkyBox Premium Star Rubies
p1189
sg14
(lp1190
Vhttp://www.beckett.com/basketball/1999-00/skybox-premium-star-rubies/39-larry-johnson-3195617
p1191
asg17
g18
sg19
(lp1192
Vhttp://img.beckett.com/images/no-image.jpg
p1193
asg22
V#39
p1194
sg24
V1999-00
p1195
sg26
g27
sg28
(lp1196
VLarry Johnson
p1197
assbag1
(g2
g3
Ntp1198
Rp1199
(dp1200
g7
(dp1201
g9
V1999-00 SkyBox Premium Star Rubies #63 Latrell Sprewell
p1202
sg11
I45
sg12
VSkyBox Premium Star Rubies
p1203
sg14
(lp1204
Vhttp://www.beckett.com/basketball/1999-00/skybox-premium-star-rubies/63-latrell-sprewell-3195641
p1205
asg17
g18
sg19
(lp1206
Vhttp://img.beckett.com/images/no-image.jpg
p1207
asg22
V#63
p1208
sg24
V1999-00
p1209
sg26
g27
sg28
(lp1210
VLatrell Sprewell
p1211
assbag1
(g2
g3
Ntp1212
Rp1213
(dp1214
g7
(dp1215
g9
V1999-00 SkyBox Premium Star Rubies #70 Marcus Camby
p1216
sg11
I45
sg12
VSkyBox Premium Star Rubies
p1217
sg14
(lp1218
Vhttp://www.beckett.com/basketball/1999-00/skybox-premium-star-rubies/70-marcus-camby-3195648
p1219
asg17
g18
sg19
(lp1220
Vhttp://img.beckett.com/images/no-image.jpg
p1221
asg22
V#70
p1222
sg24
V1999-00
p1223
sg26
g27
sg28
(lp1224
VMarcus Camby
p1225
assbag1
(g2
g3
Ntp1226
Rp1227
(dp1228
g7
(dp1229
g9
V1999-00 SkyBox Premium Star Rubies #94 Patrick Ewing
p1230
sg11
I45
sg12
VSkyBox Premium Star Rubies
p1231
sg14
(lp1232
Vhttp://www.beckett.com/basketball/1999-00/skybox-premium-star-rubies/94-patrick-ewing-3195672
p1233
asg17
g18
sg19
(lp1234
Vhttp://img.beckett.com/images/no-image.jpg
p1235
asg22
V#94
p1236
sg24
V1999-00
p1237
sg26
g27
sg28
(lp1238
VPatrick Ewing
p1239
assbag1
(g2
g3
Ntp1240
Rp1241
(dp1242
g7
(dp1243
g9
V1999-00 SPx Radiance #53 Patrick Ewing
p1244
sg11
I100
sg12
VSPx Radiance
p1245
sg14
(lp1246
Vhttp://www.beckett.com/basketball/1999-00/spx-radiance/53-patrick-ewing-3193266
p1247
asg17
g18
sg19
(lp1248
Vhttp://img.beckett.com/images/no-image.jpg
p1249
asg22
V#53
p1250
sg24
V1999-00
p1251
sg26
g27
sg28
(lp1252
VPatrick Ewing
p1253
assbag1
(g2
g3
Ntp1254
Rp1255
(dp1256
g7
(dp1257
g9
V1999-00 SPx Radiance #54 Latrell Sprewell
p1258
sg11
I100
sg12
VSPx Radiance
p1259
sg14
(lp1260
Vhttp://www.beckett.com/basketball/1999-00/spx-radiance/54-latrell-sprewell-3193267
p1261
asg17
g18
sg19
(lp1262
Vhttp://img.beckett.com/images/no-image.jpg
p1263
asg22
V#54
p1264
sg24
V1999-00
p1265
sg26
g27
sg28
(lp1266
VLatrell Sprewell
p1267
assbag1
(g2
g3
Ntp1268
Rp1269
(dp1270
g7
(dp1271
g9
V1999-00 SPx Radiance #55 Allan Houston
p1272
sg11
I100
sg12
VSPx Radiance
p1273
sg14
(lp1274
Vhttp://www.beckett.com/basketball/1999-00/spx-radiance/55-allan-houston-3193268
p1275
asg17
g18
sg19
(lp1276
Vhttp://img.beckett.com/images/no-image.jpg
p1277
asg22
V#55
p1278
sg24
V1999-00
p1279
sg26
g27
sg28
(lp1280
VAllan Houston
p1281
assbag1
(g2
g3
Ntp1282
Rp1283
(dp1284
g7
(dp1285
g9
V1999-00 SPx Radiance #56 Marcus Camby
p1286
sg11
I100
sg12
VSPx Radiance
p1287
sg14
(lp1288
Vhttp://www.beckett.com/basketball/1999-00/spx-radiance/56-marcus-camby-3193269
p1289
asg17
g18
sg19
(lp1290
Vhttp://img.beckett.com/images/no-image.jpg
p1291
asg22
V#56
p1292
sg24
V1999-00
p1293
sg26
g27
sg28
(lp1294
VMarcus Camby
p1295
assbag1
(g2
g3
Ntp1296
Rp1297
(dp1298
g7
(dp1299
g9
V1999-00 SPx Spectrum #53 Patrick Ewing
p1300
sg11
I1
sg12
VSPx Spectrum
p1301
sg14
(lp1302
Vhttp://www.beckett.com/basketball/1999-00/spx-spectrum/53-patrick-ewing-3193391
p1303
asg17
g18
sg19
(lp1304
Vhttp://img.beckett.com/images/no-image.jpg
p1305
asg22
V#53
p1306
sg24
V1999-00
p1307
sg26
g27
sg28
(lp1308
VPatrick Ewing
p1309
assbag1
(g2
g3
Ntp1310
Rp1311
(dp1312
g7
(dp1313
g9
V1999-00 SPx Spectrum #54 Latrell Sprewell
p1314
sg11
I1
sg12
VSPx Spectrum
p1315
sg14
(lp1316
Vhttp://www.beckett.com/basketball/1999-00/spx-spectrum/54-latrell-sprewell-3193392
p1317
asg17
g18
sg19
(lp1318
Vhttp://img.beckett.com/images/no-image.jpg
p1319
asg22
V#54
p1320
sg24
V1999-00
p1321
sg26
g27
sg28
(lp1322
VLatrell Sprewell
p1323
assbag1
(g2
g3
Ntp1324
Rp1325
(dp1326
g7
(dp1327
g9
V1999-00 SPx Spectrum #55 Allan Houston
p1328
sg11
I1
sg12
VSPx Spectrum
p1329
sg14
(lp1330
Vhttp://www.beckett.com/basketball/1999-00/spx-spectrum/55-allan-houston-3193393
p1331
asg17
g18
sg19
(lp1332
Vhttp://img.beckett.com/images/no-image.jpg
p1333
asg22
V#55
p1334
sg24
V1999-00
p1335
sg26
g27
sg28
(lp1336
VAllan Houston
p1337
assbag1
(g2
g3
Ntp1338
Rp1339
(dp1340
g7
(dp1341
g9
V1999-00 SPx Spectrum #56 Marcus Camby
p1342
sg11
I1
sg12
VSPx Spectrum
p1343
sg14
(lp1344
Vhttp://www.beckett.com/basketball/1999-00/spx-spectrum/56-marcus-camby-3193394
p1345
asg17
g18
sg19
(lp1346
Vhttp://img.beckett.com/images/no-image.jpg
p1347
asg22
V#56
p1348
sg24
V1999-00
p1349
sg26
g27
sg28
(lp1350
VMarcus Camby
p1351
assbag1
(g2
g3
Ntp1352
Rp1353
(dp1354
g7
(dp1355
g9
V1999-00 Stadium Club First Day Issue #55 Patrick Ewing
p1356
sg11
I150
sg12
VStadium Club First Day Issue
p1357
sg14
(lp1358
Vhttp://www.beckett.com/basketball/1999-00/stadium-club-first-day-issue/55-patrick-ewing-3193889
p1359
asg17
g18
sg19
(lp1360
Vhttp://img.beckett.com/images/no-image.jpg
p1361
asg22
V#55
p1362
sg24
V1999-00
p1363
sg26
g27
sg28
(lp1364
VPatrick Ewing
p1365
assbag1
(g2
g3
Ntp1366
Rp1367
(dp1368
g7
(dp1369
g9
V1999-00 Stadium Club First Day Issue #61 Latrell Sprewell
p1370
sg11
I150
sg12
VStadium Club First Day Issue
p1371
sg14
(lp1372
Vhttp://www.beckett.com/basketball/1999-00/stadium-club-first-day-issue/61-latrell-sprewell-3193895
p1373
asg17
g18
sg19
(lp1374
Vhttp://img.beckett.com/images/no-image.jpg
p1375
asg22
V#61
p1376
sg24
V1999-00
p1377
sg26
g27
sg28
(lp1378
VLatrell Sprewell
p1379
assbag1
(g2
g3
Ntp1380
Rp1381
(dp1382
g7
(dp1383
g9
V1999-00 Stadium Club First Day Issue #66 Marcus Camby
p1384
sg11
I150
sg12
VStadium Club First Day Issue
p1385
sg14
(lp1386
Vhttp://www.beckett.com/basketball/1999-00/stadium-club-first-day-issue/66-marcus-camby-3193900
p1387
asg17
g18
sg19
(lp1388
Vhttp://img.beckett.com/images/no-image.jpg
p1389
asg22
V#66
p1390
sg24
V1999-00
p1391
sg26
g27
sg28
(lp1392
VMarcus Camby
p1393
assbag1
(g2
g3
Ntp1394
Rp1395
(dp1396
g7
(dp1397
g9
V1999-00 Stadium Club First Day Issue #76 Chris Childs
p1398
sg11
I150
sg12
VStadium Club First Day Issue
p1399
sg14
(lp1400
Vhttp://www.beckett.com/basketball/1999-00/stadium-club-first-day-issue/76-chris-childs-3193910
p1401
asg17
g18
sg19
(lp1402
Vhttp://img.beckett.com/images/items_stock/185226/3193824/3193910/front.jpg
p1403
asg22
V#76
p1404
sg24
V1999-00
p1405
sg26
g27
sg28
(lp1406
VChris Childs
p1407
assbag1
(g2
g3
Ntp1408
Rp1409
(dp1410
g7
(dp1411
g9
V1999-00 Stadium Club First Day Issue #95 Larry Johnson
p1412
sg11
I150
sg12
VStadium Club First Day Issue
p1413
sg14
(lp1414
Vhttp://www.beckett.com/basketball/1999-00/stadium-club-first-day-issue/95-larry-johnson-3193929
p1415
asg17
g18
sg19
(lp1416
Vhttp://img.beckett.com/images/no-image.jpg
p1417
asg22
V#95
p1418
sg24
V1999-00
p1419
sg26
g27
sg28
(lp1420
VLarry Johnson
p1421
assbag1
(g2
g3
Ntp1422
Rp1423
(dp1424
g7
(dp1425
g9
V1999-00 Stadium Club First Day Issue #116 Allan Houston
p1426
sg11
I150
sg12
VStadium Club First Day Issue
p1427
sg14
(lp1428
Vhttp://www.beckett.com/basketball/1999-00/stadium-club-first-day-issue/116-allan-houston-3193950
p1429
asg17
g18
sg19
(lp1430
Vhttp://img.beckett.com/images/no-image.jpg
p1431
asg22
V#116
p1432
sg24
V1999-00
p1433
sg26
g27
sg28
(lp1434
VAllan Houston
p1435
assbag1
(g2
g3
Ntp1436
Rp1437
(dp1438
g7
(dp1439
g9
V1999-00 Stadium Club First Day Issue #190 DeMarco Johnson
p1440
sg11
I150
sg12
VStadium Club First Day Issue
p1441
sg14
(lp1442
Vhttp://www.beckett.com/basketball/1999-00/stadium-club-first-day-issue/190-demarco-johnson-3194024
p1443
asg17
g18
sg19
(lp1444
Vhttp://img.beckett.com/images/no-image.jpg
p1445
asg22
V#190
p1446
sg24
V1999-00
p1447
sg26
g27
sg28
(lp1448
VDeMarco Johnson
p1449
assbag1
(g2
g3
Ntp1450
Rp1451
(dp1452
g7
(dp1453
g9
V1999-00 Stadium Club One of a Kind #55 Patrick Ewing
p1454
sg11
I150
sg12
VStadium Club One of a Kind
p1455
sg14
(lp1456
Vhttp://www.beckett.com/basketball/1999-00/stadium-club-one-of-a-kind/55-patrick-ewing-3194101
p1457
asg17
g18
sg19
(lp1458
Vhttp://img.beckett.com/images/no-image.jpg
p1459
asg22
V#55
p1460
sg24
V1999-00
p1461
sg26
g27
sg28
(lp1462
VPatrick Ewing
p1463
assbag1
(g2
g3
Ntp1464
Rp1465
(dp1466
g7
(dp1467
g9
V1999-00 Stadium Club One of a Kind #61 Latrell Sprewell
p1468
sg11
I150
sg12
VStadium Club One of a Kind
p1469
sg14
(lp1470
Vhttp://www.beckett.com/basketball/1999-00/stadium-club-one-of-a-kind/61-latrell-sprewell-3194107
p1471
asg17
g18
sg19
(lp1472
Vhttp://img.beckett.com/images/no-image.jpg
p1473
asg22
V#61
p1474
sg24
V1999-00
p1475
sg26
g27
sg28
(lp1476
VLatrell Sprewell
p1477
assbag1
(g2
g3
Ntp1478
Rp1479
(dp1480
g7
(dp1481
g9
V1999-00 Stadium Club One of a Kind #66 Marcus Camby
p1482
sg11
I150
sg12
VStadium Club One of a Kind
p1483
sg14
(lp1484
Vhttp://www.beckett.com/basketball/1999-00/stadium-club-one-of-a-kind/66-marcus-camby-3194112
p1485
asg17
g18
sg19
(lp1486
Vhttp://img.beckett.com/images/no-image.jpg
p1487
asg22
V#66
p1488
sg24
V1999-00
p1489
sg26
g27
sg28
(lp1490
VMarcus Camby
p1491
assbag1
(g2
g3
Ntp1492
Rp1493
(dp1494
g7
(dp1495
g9
V1999-00 Stadium Club One of a Kind #76 Chris Childs
p1496
sg11
I150
sg12
VStadium Club One of a Kind
p1497
sg14
(lp1498
Vhttp://www.beckett.com/basketball/1999-00/stadium-club-one-of-a-kind/76-chris-childs-3194122
p1499
asg17
g18
sg19
(lp1500
Vhttp://img.beckett.com/images/no-image.jpg
p1501
asg22
V#76
p1502
sg24
V1999-00
p1503
sg26
g27
sg28
(lp1504
VChris Childs
p1505
assbag1
(g2
g3
Ntp1506
Rp1507
(dp1508
g7
(dp1509
g9
V1999-00 Stadium Club One of a Kind #95 Larry Johnson
p1510
sg11
I150
sg12
VStadium Club One of a Kind
p1511
sg14
(lp1512
Vhttp://www.beckett.com/basketball/1999-00/stadium-club-one-of-a-kind/95-larry-johnson-3194141
p1513
asg17
g18
sg19
(lp1514
Vhttp://img.beckett.com/images/no-image.jpg
p1515
asg22
V#95
p1516
sg24
V1999-00
p1517
sg26
g27
sg28
(lp1518
VLarry Johnson
p1519
assbag1
(g2
g3
Ntp1520
Rp1521
(dp1522
g7
(dp1523
g9
V1999-00 Stadium Club One of a Kind #116 Allan Houston
p1524
sg11
I150
sg12
VStadium Club One of a Kind
p1525
sg14
(lp1526
Vhttp://www.beckett.com/basketball/1999-00/stadium-club-one-of-a-kind/116-allan-houston-3194162
p1527
asg17
g18
sg19
(lp1528
Vhttp://img.beckett.com/images/no-image.jpg
p1529
asg22
V#116
p1530
sg24
V1999-00
p1531
sg26
g27
sg28
(lp1532
VAllan Houston
p1533
assbag1
(g2
g3
Ntp1534
Rp1535
(dp1536
g7
(dp1537
g9
V1999-00 Stadium Club One of a Kind #190 DeMarco Johnson
p1538
sg11
I150
sg12
VStadium Club One of a Kind
p1539
sg14
(lp1540
Vhttp://www.beckett.com/basketball/1999-00/stadium-club-one-of-a-kind/190-demarco-johnson-3194236
p1541
asg17
g18
sg19
(lp1542
Vhttp://img.beckett.com/images/no-image.jpg
p1543
asg22
V#190
p1544
sg24
V1999-00
p1545
sg26
g27
sg28
(lp1546
VDeMarco Johnson
p1547
assbag1
(g2
g3
Ntp1548
Rp1549
(dp1550
g7
(dp1551
g9
V1999-00 Stadium Club Printing Plates #55A Patrick Ewing Black
p1552
sg11
I1
sg12
VStadium Club Printing Plates
p1553
sg14
(lp1554
Vhttp://www.beckett.com/basketball/1999-00/stadium-club-printing-plates/55a-patrick-ewing-black-3194470
p1555
asg17
g18
sg19
(lp1556
Vhttp://img.beckett.com/images/no-image.jpg
p1557
asg22
V#55A
p1558
sg24
V1999-00
p1559
sg26
g27
sg28
(lp1560
VPatrick Ewing
p1561
assbag1
(g2
g3
Ntp1562
Rp1563
(dp1564
g7
(dp1565
g9
V1999-00 Stadium Club Printing Plates #55B Patrick Ewing Cyan
p1566
sg11
I1
sg12
VStadium Club Printing Plates
p1567
sg14
(lp1568
Vhttp://www.beckett.com/basketball/1999-00/stadium-club-printing-plates/55b-patrick-ewing-cyan-3194471
p1569
asg17
g18
sg19
(lp1570
Vhttp://img.beckett.com/images/no-image.jpg
p1571
asg22
V#55B
p1572
sg24
V1999-00
p1573
sg26
g27
sg28
(lp1574
g1561
assbag1
(g2
g3
Ntp1575
Rp1576
(dp1577
g7
(dp1578
g9
V1999-00 Stadium Club Printing Plates #55C Patrick Ewing Magenta
p1579
sg11
I1
sg12
VStadium Club Printing Plates
p1580
sg14
(lp1581
Vhttp://www.beckett.com/basketball/1999-00/stadium-club-printing-plates/55c-patrick-ewing-magenta-3194472
p1582
asg17
g18
sg19
(lp1583
Vhttp://img.beckett.com/images/no-image.jpg
p1584
asg22
V#55C
p1585
sg24
V1999-00
p1586
sg26
g27
sg28
(lp1587
g1561
assbag1
(g2
g3
Ntp1588
Rp1589
(dp1590
g7
(dp1591
g9
V1999-00 Stadium Club Printing Plates #55D Patrick Ewing Yellow
p1592
sg11
I1
sg12
VStadium Club Printing Plates
p1593
sg14
(lp1594
Vhttp://www.beckett.com/basketball/1999-00/stadium-club-printing-plates/55d-patrick-ewing-yellow-3194473
p1595
asg17
g18
sg19
(lp1596
Vhttp://img.beckett.com/images/no-image.jpg
p1597
asg22
V#55D
p1598
sg24
V1999-00
p1599
sg26
g27
sg28
(lp1600
g1561
assbag1
(g2
g3
Ntp1601
Rp1602
(dp1603
g7
(dp1604
g9
V1999-00 Stadium Club Printing Plates #61A Latrell Sprewell Black
p1605
sg11
I1
sg12
VStadium Club Printing Plates
p1606
sg14
(lp1607
Vhttp://www.beckett.com/basketball/1999-00/stadium-club-printing-plates/61a-latrell-sprewell-black-3194494
p1608
asg17
g18
sg19
(lp1609
Vhttp://img.beckett.com/images/no-image.jpg
p1610
asg22
V#61A
p1611
sg24
V1999-00
p1612
sg26
g27
sg28
(lp1613
VLatrell Sprewell
p1614
assbag1
(g2
g3
Ntp1615
Rp1616
(dp1617
g7
(dp1618
g9
V1999-00 Stadium Club Printing Plates #61B Latrell Sprewell Cyan
p1619
sg11
I1
sg12
VStadium Club Printing Plates
p1620
sg14
(lp1621
Vhttp://www.beckett.com/basketball/1999-00/stadium-club-printing-plates/61b-latrell-sprewell-cyan-3194495
p1622
asg17
g18
sg19
(lp1623
Vhttp://img.beckett.com/images/no-image.jpg
p1624
asg22
V#61B
p1625
sg24
V1999-00
p1626
sg26
g27
sg28
(lp1627
g1614
assbag1
(g2
g3
Ntp1628
Rp1629
(dp1630
g7
(dp1631
g9
V1999-00 Stadium Club Printing Plates #61C Latrell Sprewell Magenta
p1632
sg11
I1
sg12
VStadium Club Printing Plates
p1633
sg14
(lp1634
Vhttp://www.beckett.com/basketball/1999-00/stadium-club-printing-plates/61c-latrell-sprewell-magenta-3194496
p1635
asg17
g18
sg19
(lp1636
Vhttp://img.beckett.com/images/no-image.jpg
p1637
asg22
V#61C
p1638
sg24
V1999-00
p1639
sg26
g27
sg28
(lp1640
g1614
assbag1
(g2
g3
Ntp1641
Rp1642
(dp1643
g7
(dp1644
g9
V1999-00 Stadium Club Printing Plates #61D Latrell Sprewell Yellow
p1645
sg11
I1
sg12
VStadium Club Printing Plates
p1646
sg14
(lp1647
Vhttp://www.beckett.com/basketball/1999-00/stadium-club-printing-plates/61d-latrell-sprewell-yellow-3194497
p1648
asg17
g18
sg19
(lp1649
Vhttp://img.beckett.com/images/no-image.jpg
p1650
asg22
V#61D
p1651
sg24
V1999-00
p1652
sg26
g27
sg28
(lp1653
g1614
assbag1
(g2
g3
Ntp1654
Rp1655
(dp1656
g7
(dp1657
g9
V1999-00 Stadium Club Printing Plates #66A Marcus Camby Black
p1658
sg11
I1
sg12
VStadium Club Printing Plates
p1659
sg14
(lp1660
Vhttp://www.beckett.com/basketball/1999-00/stadium-club-printing-plates/66a-marcus-camby-black-3194514
p1661
asg17
g18
sg19
(lp1662
Vhttp://img.beckett.com/images/no-image.jpg
p1663
asg22
V#66A
p1664
sg24
V1999-00
p1665
sg26
g27
sg28
(lp1666
VMarcus Camby
p1667
assbag1
(g2
g3
Ntp1668
Rp1669
(dp1670
g7
(dp1671
g9
V1999-00 Stadium Club Printing Plates #66B Marcus Camby Cyan
p1672
sg11
I1
sg12
VStadium Club Printing Plates
p1673
sg14
(lp1674
Vhttp://www.beckett.com/basketball/1999-00/stadium-club-printing-plates/66b-marcus-camby-cyan-3194515
p1675
asg17
g18
sg19
(lp1676
Vhttp://img.beckett.com/images/no-image.jpg
p1677
asg22
V#66B
p1678
sg24
V1999-00
p1679
sg26
g27
sg28
(lp1680
g1667
assbag1
(g2
g3
Ntp1681
Rp1682
(dp1683
g7
(dp1684
g9
V1999-00 Stadium Club Printing Plates #66C Marcus Camby Magenta
p1685
sg11
I1
sg12
VStadium Club Printing Plates
p1686
sg14
(lp1687
Vhttp://www.beckett.com/basketball/1999-00/stadium-club-printing-plates/66c-marcus-camby-magenta-3194516
p1688
asg17
g18
sg19
(lp1689
Vhttp://img.beckett.com/images/no-image.jpg
p1690
asg22
V#66C
p1691
sg24
V1999-00
p1692
sg26
g27
sg28
(lp1693
g1667
assbag1
(g2
g3
Ntp1694
Rp1695
(dp1696
g7
(dp1697
g9
V1999-00 Stadium Club Printing Plates #66D Marcus Camby Yellow
p1698
sg11
I1
sg12
VStadium Club Printing Plates
p1699
sg14
(lp1700
Vhttp://www.beckett.com/basketball/1999-00/stadium-club-printing-plates/66d-marcus-camby-yellow-3194517
p1701
asg17
g18
sg19
(lp1702
Vhttp://img.beckett.com/images/no-image.jpg
p1703
asg22
V#66D
p1704
sg24
V1999-00
p1705
sg26
g27
sg28
(lp1706
g1667
assbag1
(g2
g3
Ntp1707
Rp1708
(dp1709
g7
(dp1710
g9
V1999-00 Stadium Club Printing Plates #76A Chris Childs Black
p1711
sg11
I1
sg12
VStadium Club Printing Plates
p1712
sg14
(lp1713
Vhttp://www.beckett.com/basketball/1999-00/stadium-club-printing-plates/76a-chris-childs-black-3194554
p1714
asg17
g18
sg19
(lp1715
Vhttp://img.beckett.com/images/no-image.jpg
p1716
asg22
V#76A
p1717
sg24
V1999-00
p1718
sg26
g27
sg28
(lp1719
VChris Childs
p1720
assbag1
(g2
g3
Ntp1721
Rp1722
(dp1723
g7
(dp1724
g9
V1999-00 Stadium Club Printing Plates #76B Chris Childs Cyan
p1725
sg11
I1
sg12
VStadium Club Printing Plates
p1726
sg14
(lp1727
Vhttp://www.beckett.com/basketball/1999-00/stadium-club-printing-plates/76b-chris-childs-cyan-3194555
p1728
asg17
g18
sg19
(lp1729
Vhttp://img.beckett.com/images/no-image.jpg
p1730
asg22
V#76B
p1731
sg24
V1999-00
p1732
sg26
g27
sg28
(lp1733
g1720
assbag1
(g2
g3
Ntp1734
Rp1735
(dp1736
g7
(dp1737
g9
V1999-00 Stadium Club Printing Plates #76C Chris Childs Magenta
p1738
sg11
I1
sg12
VStadium Club Printing Plates
p1739
sg14
(lp1740
Vhttp://www.beckett.com/basketball/1999-00/stadium-club-printing-plates/76c-chris-childs-magenta-3194556
p1741
asg17
g18
sg19
(lp1742
Vhttp://img.beckett.com/images/no-image.jpg
p1743
asg22
V#76C
p1744
sg24
V1999-00
p1745
sg26
g27
sg28
(lp1746
g1720
assbag1
(g2
g3
Ntp1747
Rp1748
(dp1749
g7
(dp1750
g9
V1999-00 Stadium Club Printing Plates #76D Chris Childs Yellow
p1751
sg11
I1
sg12
VStadium Club Printing Plates
p1752
sg14
(lp1753
Vhttp://www.beckett.com/basketball/1999-00/stadium-club-printing-plates/76d-chris-childs-yellow-3194557
p1754
asg17
g18
sg19
(lp1755
Vhttp://img.beckett.com/images/no-image.jpg
p1756
asg22
V#76D
p1757
sg24
V1999-00
p1758
sg26
g27
sg28
(lp1759
g1720
assbag1
(g2
g3
Ntp1760
Rp1761
(dp1762
g7
(dp1763
g9
V1999-00 Stadium Club Printing Plates #95A Larry Johnson Black
p1764
sg11
I1
sg12
VStadium Club Printing Plates
p1765
sg14
(lp1766
Vhttp://www.beckett.com/basketball/1999-00/stadium-club-printing-plates/95a-larry-johnson-black-3194630
p1767
asg17
g18
sg19
(lp1768
Vhttp://img.beckett.com/images/no-image.jpg
p1769
asg22
V#95A
p1770
sg24
V1999-00
p1771
sg26
g27
sg28
(lp1772
VLarry Johnson
p1773
assbag1
(g2
g3
Ntp1774
Rp1775
(dp1776
g7
(dp1777
g9
V1999-00 Stadium Club Printing Plates #95B Larry Johnson Cyan
p1778
sg11
I1
sg12
VStadium Club Printing Plates
p1779
sg14
(lp1780
Vhttp://www.beckett.com/basketball/1999-00/stadium-club-printing-plates/95b-larry-johnson-cyan-3194631
p1781
asg17
g18
sg19
(lp1782
Vhttp://img.beckett.com/images/no-image.jpg
p1783
asg22
V#95B
p1784
sg24
V1999-00
p1785
sg26
g27
sg28
(lp1786
g1773
assbag1
(g2
g3
Ntp1787
Rp1788
(dp1789
g7
(dp1790
g9
V1999-00 Stadium Club Printing Plates #95C Larry Johnson Magenta
p1791
sg11
I1
sg12
VStadium Club Printing Plates
p1792
sg14
(lp1793
Vhttp://www.beckett.com/basketball/1999-00/stadium-club-printing-plates/95c-larry-johnson-magenta-3194632
p1794
asg17
g18
sg19
(lp1795
Vhttp://img.beckett.com/images/no-image.jpg
p1796
asg22
V#95C
p1797
sg24
V1999-00
p1798
sg26
g27
sg28
(lp1799
g1773
assbag1
(g2
g3
Ntp1800
Rp1801
(dp1802
g7
(dp1803
g9
V1999-00 Stadium Club Printing Plates #95D Larry Johnson Yellow
p1804
sg11
I1
sg12
VStadium Club Printing Plates
p1805
sg14
(lp1806
Vhttp://www.beckett.com/basketball/1999-00/stadium-club-printing-plates/95d-larry-johnson-yellow-3194633
p1807
asg17
g18
sg19
(lp1808
Vhttp://img.beckett.com/images/no-image.jpg
p1809
asg22
V#95D
p1810
sg24
V1999-00
p1811
sg26
g27
sg28
(lp1812
g1773
assbag1
(g2
g3
Ntp1813
Rp1814
(dp1815
g7
(dp1816
g9
V1999-00 Stadium Club Printing Plates #116A Allan Houston Black
p1817
sg11
I1
sg12
VStadium Club Printing Plates
p1818
sg14
(lp1819
Vhttp://www.beckett.com/basketball/1999-00/stadium-club-printing-plates/116a-allan-houston-black-3194714
p1820
asg17
g18
sg19
(lp1821
Vhttp://img.beckett.com/images/no-image.jpg
p1822
asg22
V#116A
p1823
sg24
V1999-00
p1824
sg26
g27
sg28
(lp1825
VAllan Houston
p1826
assbag1
(g2
g3
Ntp1827
Rp1828
(dp1829
g7
(dp1830
g9
V1999-00 Stadium Club Printing Plates #116B Allan Houston Cyan
p1831
sg11
I1
sg12
VStadium Club Printing Plates
p1832
sg14
(lp1833
Vhttp://www.beckett.com/basketball/1999-00/stadium-club-printing-plates/116b-allan-houston-cyan-3194715
p1834
asg17
g18
sg19
(lp1835
Vhttp://img.beckett.com/images/no-image.jpg
p1836
asg22
V#116B
p1837
sg24
V1999-00
p1838
sg26
g27
sg28
(lp1839
g1826
assbag1
(g2
g3
Ntp1840
Rp1841
(dp1842
g7
(dp1843
g9
V1999-00 Stadium Club Printing Plates #116C Allan Houston Magenta
p1844
sg11
I1
sg12
VStadium Club Printing Plates
p1845
sg14
(lp1846
Vhttp://www.beckett.com/basketball/1999-00/stadium-club-printing-plates/116c-allan-houston-magenta-3194716
p1847
asg17
g18
sg19
(lp1848
Vhttp://img.beckett.com/images/no-image.jpg
p1849
asg22
V#116C
p1850
sg24
V1999-00
p1851
sg26
g27
sg28
(lp1852
g1826
assbag1
(g2
g3
Ntp1853
Rp1854
(dp1855
g7
(dp1856
g9
V1999-00 Stadium Club Printing Plates #116D Allan Houston Yellow
p1857
sg11
I1
sg12
VStadium Club Printing Plates
p1858
sg14
(lp1859
Vhttp://www.beckett.com/basketball/1999-00/stadium-club-printing-plates/116d-allan-houston-yellow-3194717
p1860
asg17
g18
sg19
(lp1861
Vhttp://img.beckett.com/images/no-image.jpg
p1862
asg22
V#116D
p1863
sg24
V1999-00
p1864
sg26
g27
sg28
(lp1865
g1826
assbag1
(g2
g3
Ntp1866
Rp1867
(dp1868
g7
(dp1869
g9
V1999-00 Stadium Club Printing Plates #190A DeMarco Johnson Black
p1870
sg11
I1
sg12
VStadium Club Printing Plates
p1871
sg14
(lp1872
Vhttp://www.beckett.com/basketball/1999-00/stadium-club-printing-plates/190a-demarco-johnson-black-3195010
p1873
asg17
g18
sg19
(lp1874
Vhttp://img.beckett.com/images/no-image.jpg
p1875
asg22
V#190A
p1876
sg24
V1999-00
p1877
sg26
g27
sg28
(lp1878
VDeMarco Johnson
p1879
assbag1
(g2
g3
Ntp1880
Rp1881
(dp1882
g7
(dp1883
g9
V1999-00 Stadium Club Printing Plates #190B DeMarco Johnson Cyan
p1884
sg11
I1
sg12
VStadium Club Printing Plates
p1885
sg14
(lp1886
Vhttp://www.beckett.com/basketball/1999-00/stadium-club-printing-plates/190b-demarco-johnson-cyan-3195011
p1887
asg17
g18
sg19
(lp1888
Vhttp://img.beckett.com/images/no-image.jpg
p1889
asg22
V#190B
p1890
sg24
V1999-00
p1891
sg26
g27
sg28
(lp1892
g1879
assbag1
(g2
g3
Ntp1893
Rp1894
(dp1895
g7
(dp1896
g9
V1999-00 Stadium Club Printing Plates #190C DeMarco Johnson Magenta
p1897
sg11
I1
sg12
VStadium Club Printing Plates
p1898
sg14
(lp1899
Vhttp://www.beckett.com/basketball/1999-00/stadium-club-printing-plates/190c-demarco-johnson-magenta-3195012
p1900
asg17
g18
sg19
(lp1901
Vhttp://img.beckett.com/images/no-image.jpg
p1902
asg22
V#190C
p1903
sg24
V1999-00
p1904
sg26
g27
sg28
(lp1905
g1879
assbag1
(g2
g3
Ntp1906
Rp1907
(dp1908
g7
(dp1909
g9
V1999-00 Stadium Club Printing Plates #190D DeMarco Johnson Yellow
p1910
sg11
I1
sg12
VStadium Club Printing Plates
p1911
sg14
(lp1912
Vhttp://www.beckett.com/basketball/1999-00/stadium-club-printing-plates/190d-demarco-johnson-yellow-3195013
p1913
asg17
g18
sg19
(lp1914
Vhttp://img.beckett.com/images/no-image.jpg
p1915
asg22
V#190D
p1916
sg24
V1999-00
p1917
sg26
g27
sg28
(lp1918
g1879
assbag1
(g2
g3
Ntp1919
Rp1920
(dp1921
g7
(dp1922
g9
V1999-00 Stadium Club Chrome First Day Issue #39 Patrick Ewing
p1923
sg11
I100
sg12
VStadium Club Chrome First Day Issue
p1924
sg14
(lp1925
Vhttp://www.beckett.com/basketball/1999-00/stadium-club-chrome-first-day-issue/39-patrick-ewing-3192439
p1926
asg17
g18
sg19
(lp1927
Vhttp://img.beckett.com/images/no-image.jpg
p1928
asg22
V#39
p1929
sg24
V1999-00
p1930
sg26
g27
sg28
(lp1931
VPatrick Ewing
p1932
assbag1
(g2
g3
Ntp1933
Rp1934
(dp1935
g7
(dp1936
g9
V1999-00 Stadium Club Chrome First Day Issue #44 Latrell Sprewell
p1937
sg11
I100
sg12
VStadium Club Chrome First Day Issue
p1938
sg14
(lp1939
Vhttp://www.beckett.com/basketball/1999-00/stadium-club-chrome-first-day-issue/44-latrell-sprewell-3192444
p1940
asg17
g18
sg19
(lp1941
Vhttp://img.beckett.com/images/no-image.jpg
p1942
asg22
V#44
p1943
sg24
V1999-00
p1944
sg26
g27
sg28
(lp1945
VLatrell Sprewell
p1946
assbag1
(g2
g3
Ntp1947
Rp1948
(dp1949
g7
(dp1950
g9
V1999-00 Stadium Club Chrome First Day Issue #47 Marcus Camby
p1951
sg11
I100
sg12
VStadium Club Chrome First Day Issue
p1952
sg14
(lp1953
Vhttp://www.beckett.com/basketball/1999-00/stadium-club-chrome-first-day-issue/47-marcus-camby-3192447
p1954
asg17
g18
sg19
(lp1955
Vhttp://img.beckett.com/images/no-image.jpg
p1956
asg22
V#47
p1957
sg24
V1999-00
p1958
sg26
g27
sg28
(lp1959
VMarcus Camby
p1960
assbag1
(g2
g3
Ntp1961
Rp1962
(dp1963
g7
(dp1964
g9
V1999-00 Stadium Club Chrome First Day Issue #68 Larry Johnson
p1965
sg11
I100
sg12
VStadium Club Chrome First Day Issue
p1966
sg14
(lp1967
Vhttp://www.beckett.com/basketball/1999-00/stadium-club-chrome-first-day-issue/68-larry-johnson-3192468
p1968
asg17
g18
sg19
(lp1969
Vhttp://img.beckett.com/images/no-image.jpg
p1970
asg22
V#68
p1971
sg24
V1999-00
p1972
sg26
g27
sg28
(lp1973
VLarry Johnson
p1974
assbag1
(g2
g3
Ntp1975
Rp1976
(dp1977
g7
(dp1978
g9
V1999-00 Stadium Club Chrome First Day Issue #86 Allan Houston
p1979
sg11
I100
sg12
VStadium Club Chrome First Day Issue
p1980
sg14
(lp1981
Vhttp://www.beckett.com/basketball/1999-00/stadium-club-chrome-first-day-issue/86-allan-houston-3192486
p1982
asg17
g18
sg19
(lp1983
Vhttp://img.beckett.com/images/no-image.jpg
p1984
asg22
V#86
p1985
sg24
V1999-00
p1986
sg26
g27
sg28
(lp1987
VAllan Houston
p1988
assbag1
(g2
g3
Ntp1989
Rp1990
(dp1991
g7
(dp1992
g9
V1999-00 Stadium Club Chrome First Day Issue Refractors #39 Patrick Ewing
p1993
sg11
I25
sg12
VStadium Club Chrome First Day Issue Refractors
p1994
sg14
(lp1995
Vhttp://www.beckett.com/basketball/1999-00/stadium-club-chrome-first-day-issue-refractors/39-patrick-ewing-3192599
p1996
asg17
g18
sg19
(lp1997
Vhttp://img.beckett.com/images/no-image.jpg
p1998
asg22
V#39
p1999
sg24
V1999-00
p2000
sg26
g27
sg28
(lp2001
VPatrick Ewing
p2002
assbag1
(g2
g3
Ntp2003
Rp2004
(dp2005
g7
(dp2006
g9
V1999-00 Stadium Club Chrome First Day Issue Refractors #44 Latrell Sprewell
p2007
sg11
I25
sg12
VStadium Club Chrome First Day Issue Refractors
p2008
sg14
(lp2009
Vhttp://www.beckett.com/basketball/1999-00/stadium-club-chrome-first-day-issue-refractors/44-latrell-sprewell-3192604
p2010
asg17
g18
sg19
(lp2011
Vhttp://img.beckett.com/images/no-image.jpg
p2012
asg22
V#44
p2013
sg24
V1999-00
p2014
sg26
g27
sg28
(lp2015
VLatrell Sprewell
p2016
assbag1
(g2
g3
Ntp2017
Rp2018
(dp2019
g7
(dp2020
g9
V1999-00 Stadium Club Chrome First Day Issue Refractors #47 Marcus Camby
p2021
sg11
I25
sg12
VStadium Club Chrome First Day Issue Refractors
p2022
sg14
(lp2023
Vhttp://www.beckett.com/basketball/1999-00/stadium-club-chrome-first-day-issue-refractors/47-marcus-camby-3192607
p2024
asg17
g18
sg19
(lp2025
Vhttp://img.beckett.com/images/no-image.jpg
p2026
asg22
V#47
p2027
sg24
V1999-00
p2028
sg26
g27
sg28
(lp2029
VMarcus Camby
p2030
assbag1
(g2
g3
Ntp2031
Rp2032
(dp2033
g7
(dp2034
g9
V1999-00 Stadium Club Chrome First Day Issue Refractors #68 Larry Johnson
p2035
sg11
I25
sg12
VStadium Club Chrome First Day Issue Refractors
p2036
sg14
(lp2037
Vhttp://www.beckett.com/basketball/1999-00/stadium-club-chrome-first-day-issue-refractors/68-larry-johnson-3192628
p2038
asg17
g18
sg19
(lp2039
Vhttp://img.beckett.com/images/no-image.jpg
p2040
asg22
V#68
p2041
sg24
V1999-00
p2042
sg26
g27
sg28
(lp2043
VLarry Johnson
p2044
assbag1
(g2
g3
Ntp2045
Rp2046
(dp2047
g7
(dp2048
g9
V1999-00 Stadium Club Chrome First Day Issue Refractors #86 Allan Houston
p2049
sg11
I25
sg12
VStadium Club Chrome First Day Issue Refractors
p2050
sg14
(lp2051
Vhttp://www.beckett.com/basketball/1999-00/stadium-club-chrome-first-day-issue-refractors/86-allan-houston-3192646
p2052
asg17
g18
sg19
(lp2053
Vhttp://img.beckett.com/images/no-image.jpg
p2054
asg22
V#86
p2055
sg24
V1999-00
p2056
sg26
g27
sg28
(lp2057
VAllan Houston
p2058
assbag1
(g2
g3
Ntp2059
Rp2060
(dp2061
g7
(dp2062
g9
V1999-00 Topps Gallery Player's Private Issue #12 Marcus Camby
p2063
sg11
I250
sg12
VTopps Gallery Player's Private Issue
p2064
sg14
(lp2065
Vhttp://www.beckett.com/basketball/1999-00/topps-gallery-players-private-issue/12-marcus-camby-3190806
p2066
asg17
g18
sg19
(lp2067
Vhttp://img.beckett.com/images/no-image.jpg
p2068
asg22
V#12
p2069
sg24
V1999-00
p2070
sg26
g27
sg28
(lp2071
VMarcus Camby
p2072
assbag1
(g2
g3
Ntp2073
Rp2074
(dp2075
g7
(dp2076
g9
V1999-00 Topps Gallery Player's Private Issue #53 Latrell Sprewell
p2077
sg11
I250
sg12
VTopps Gallery Player's Private Issue
p2078
sg14
(lp2079
Vhttp://www.beckett.com/basketball/1999-00/topps-gallery-players-private-issue/53-latrell-sprewell-3190847
p2080
asg17
g18
sg19
(lp2081
Vhttp://img.beckett.com/images/no-image.jpg
p2082
asg22
V#53
p2083
sg24
V1999-00
p2084
sg26
g27
sg28
(lp2085
VLatrell Sprewell
p2086
assbag1
(g2
g3
Ntp2087
Rp2088
(dp2089
g7
(dp2090
g9
V1999-00 Topps Gallery Player's Private Issue #69 Allan Houston
p2091
sg11
I250
sg12
VTopps Gallery Player's Private Issue
p2092
sg14
(lp2093
Vhttp://www.beckett.com/basketball/1999-00/topps-gallery-players-private-issue/69-allan-houston-3190863
p2094
asg17
g18
sg19
(lp2095
Vhttp://img.beckett.com/images/no-image.jpg
p2096
asg22
V#69
p2097
sg24
V1999-00
p2098
sg26
g27
sg28
(lp2099
VAllan Houston
p2100
assbag1
(g2
g3
Ntp2101
Rp2102
(dp2103
g7
(dp2104
g9
V1999-00 Topps Gallery Player's Private Issue #85 Patrick Ewing
p2105
sg11
I250
sg12
VTopps Gallery Player's Private Issue
p2106
sg14
(lp2107
Vhttp://www.beckett.com/basketball/1999-00/topps-gallery-players-private-issue/85-patrick-ewing-3190879
p2108
asg17
g18
sg19
(lp2109
Vhttp://img.beckett.com/images/no-image.jpg
p2110
asg22
V#85
p2111
sg24
V1999-00
p2112
sg26
g27
sg28
(lp2113
VPatrick Ewing
p2114
assbag1
(g2
g3
Ntp2115
Rp2116
(dp2117
g7
(dp2118
g9
V1999-00 Topps Gallery Player's Private Issue #112 Patrick Ewing MAS
p2119
sg11
I250
sg12
VTopps Gallery Player's Private Issue
p2120
sg14
(lp2121
Vhttp://www.beckett.com/basketball/1999-00/topps-gallery-players-private-issue/112-patrick-ewing-mas-3190906
p2122
asg17
g18
sg19
(lp2123
Vhttp://img.beckett.com/images/no-image.jpg
p2124
asg22
V#112
p2125
sg24
V1999-00
p2126
sg142
VMAS
p2127
sg26
g27
sg28
(lp2128
VPatrick Ewing
p2129
assbag1
(g2
g3
Ntp2130
Rp2131
(dp2132
g7
(dp2133
g9
V1999-00 Topps Gallery Printing Plates Black #69 Allan Houston
p2134
sg11
I1
sg12
VTopps Gallery Printing Plates Black
p2135
sg14
(lp2136
Vhttp://www.beckett.com/basketball/1999-00/topps-gallery-printing-plates-black/69-allan-houston-3188262
p2137
asg17
g18
sg19
(lp2138
Vhttp://img.beckett.com/images/no-image.jpg
p2139
asg22
V#69
p2140
sg24
V1999-00
p2141
sg26
g27
sg28
(lp2142
VAllan Houston
p2143
assbag1
(g2
g3
Ntp2144
Rp2145
(dp2146
g7
(dp2147
g9
V1999-00 Topps Gold Label Class 1 One to One #16 Latrell Sprewell
p2148
sg11
I1
sg12
VTopps Gold Label Class 1 One to One
p2149
sg14
(lp2150
Vhttp://www.beckett.com/basketball/1999-00/topps-gold-label-class-1-one-to-one/16-latrell-sprewell-3188734
p2151
asg17
g18
sg19
(lp2152
Vhttp://img.beckett.com/images/no-image.jpg
p2153
asg22
V#16
p2154
sg24
V1999-00
p2155
sg26
g27
sg28
(lp2156
VLatrell Sprewell
p2157
assbag1
(g2
g3
Ntp2158
Rp2159
(dp2160
g7
(dp2161
g9
V1999-00 Topps Gold Label Class 1 One to One #52 Patrick Ewing
p2162
sg11
I1
sg12
VTopps Gold Label Class 1 One to One
p2163
sg14
(lp2164
Vhttp://www.beckett.com/basketball/1999-00/topps-gold-label-class-1-one-to-one/52-patrick-ewing-3188770
p2165
asg17
g18
sg19
(lp2166
Vhttp://img.beckett.com/images/no-image.jpg
p2167
asg22
V#52
p2168
sg24
V1999-00
p2169
sg26
g27
sg28
(lp2170
VPatrick Ewing
p2171
assbag1
(g2
g3
Ntp2172
Rp2173
(dp2174
g7
(dp2175
g9
V1999-00 Topps Gold Label Class 1 One to One #70 Allan Houston
p2176
sg11
I1
sg12
VTopps Gold Label Class 1 One to One
p2177
sg14
(lp2178
Vhttp://www.beckett.com/basketball/1999-00/topps-gold-label-class-1-one-to-one/70-allan-houston-3188788
p2179
asg17
g18
sg19
(lp2180
Vhttp://img.beckett.com/images/no-image.jpg
p2181
asg22
V#70
p2182
sg24
V1999-00
p2183
sg26
g27
sg28
(lp2184
VAllan Houston
p2185
assbag1
(g2
g3
Ntp2186
Rp2187
(dp2188
g7
(dp2189
g9
V1999-00 Topps Gold Label Class 1 Red Label #16 Latrell Sprewell
p2190
sg11
I100
sg12
VTopps Gold Label Class 1 Red Label
p2191
sg14
(lp2192
Vhttp://www.beckett.com/basketball/1999-00/topps-gold-label-class-1-red-label/16-latrell-sprewell-3188844
p2193
asg17
g18
sg19
(lp2194
Vhttp://img.beckett.com/images/no-image.jpg
p2195
asg22
V#16
p2196
sg24
V1999-00
p2197
sg26
g27
sg28
(lp2198
VLatrell Sprewell
p2199
assbag1
(g2
g3
Ntp2200
Rp2201
(dp2202
g7
(dp2203
g9
V1999-00 Topps Gold Label Class 1 Red Label #52 Patrick Ewing
p2204
sg11
I100
sg12
VTopps Gold Label Class 1 Red Label
p2205
sg14
(lp2206
Vhttp://www.beckett.com/basketball/1999-00/topps-gold-label-class-1-red-label/52-patrick-ewing-3188880
p2207
asg17
g18
sg19
(lp2208
Vhttp://img.beckett.com/images/no-image.jpg
p2209
asg22
V#52
p2210
sg24
V1999-00
p2211
sg26
g27
sg28
(lp2212
VPatrick Ewing
p2213
assbag1
(g2
g3
Ntp2214
Rp2215
(dp2216
g7
(dp2217
g9
V1999-00 Topps Gold Label Class 1 Red Label #70 Allan Houston
p2218
sg11
I100
sg12
VTopps Gold Label Class 1 Red Label
p2219
sg14
(lp2220
Vhttp://www.beckett.com/basketball/1999-00/topps-gold-label-class-1-red-label/70-allan-houston-3188898
p2221
asg17
g18
sg19
(lp2222
Vhttp://img.beckett.com/images/no-image.jpg
p2223
asg22
V#70
p2224
sg24
V1999-00
p2225
sg26
g27
sg28
(lp2226
VAllan Houston
p2227
assbag1
(g2
g3
Ntp2228
Rp2229
(dp2230
g7
(dp2231
g9
V1999-00 Topps Gold Label Class 2 One to One #16 Latrell Sprewell
p2232
sg11
I1
sg12
VTopps Gold Label Class 2 One to One
p2233
sg14
(lp2234
Vhttp://www.beckett.com/basketball/1999-00/topps-gold-label-class-2-one-to-one/16-latrell-sprewell-3189180
p2235
asg17
g18
sg19
(lp2236
Vhttp://img.beckett.com/images/no-image.jpg
p2237
asg22
V#16
p2238
sg24
V1999-00
p2239
sg26
g27
sg28
(lp2240
VLatrell Sprewell
p2241
assbag1
(g2
g3
Ntp2242
Rp2243
(dp2244
g7
(dp2245
g9
V1999-00 Topps Gold Label Class 2 One to One #52 Patrick Ewing
p2246
sg11
I1
sg12
VTopps Gold Label Class 2 One to One
p2247
sg14
(lp2248
Vhttp://www.beckett.com/basketball/1999-00/topps-gold-label-class-2-one-to-one/52-patrick-ewing-3189216
p2249
asg17
g18
sg19
(lp2250
Vhttp://img.beckett.com/images/no-image.jpg
p2251
asg22
V#52
p2252
sg24
V1999-00
p2253
sg26
g27
sg28
(lp2254
VPatrick Ewing
p2255
assbag1
(g2
g3
Ntp2256
Rp2257
(dp2258
g7
(dp2259
g9
V1999-00 Topps Gold Label Class 2 One to One #70 Allan Houston
p2260
sg11
I1
sg12
VTopps Gold Label Class 2 One to One
p2261
sg14
(lp2262
Vhttp://www.beckett.com/basketball/1999-00/topps-gold-label-class-2-one-to-one/70-allan-houston-3189234
p2263
asg17
g18
sg19
(lp2264
Vhttp://img.beckett.com/images/no-image.jpg
p2265
asg22
V#70
p2266
sg24
V1999-00
p2267
sg26
g27
sg28
(lp2268
VAllan Houston
p2269
assbag1
(g2
g3
Ntp2270
Rp2271
(dp2272
g7
(dp2273
g9
V1999-00 Topps Gold Label Class 2 Red Label #16 Latrell Sprewell
p2274
sg11
I50
sg12
VTopps Gold Label Class 2 Red Label
p2275
sg14
(lp2276
Vhttp://www.beckett.com/basketball/1999-00/topps-gold-label-class-2-red-label/16-latrell-sprewell-3189290
p2277
asg17
g18
sg19
(lp2278
Vhttp://img.beckett.com/images/no-image.jpg
p2279
asg22
V#16
p2280
sg24
V1999-00
p2281
sg26
g27
sg28
(lp2282
VLatrell Sprewell
p2283
assbag1
(g2
g3
Ntp2284
Rp2285
(dp2286
g7
(dp2287
g9
V1999-00 Topps Gold Label Class 2 Red Label #52 Patrick Ewing
p2288
sg11
I50
sg12
VTopps Gold Label Class 2 Red Label
p2289
sg14
(lp2290
Vhttp://www.beckett.com/basketball/1999-00/topps-gold-label-class-2-red-label/52-patrick-ewing-3189326
p2291
asg17
g18
sg19
(lp2292
Vhttp://img.beckett.com/images/no-image.jpg
p2293
asg22
V#52
p2294
sg24
V1999-00
p2295
sg26
g27
sg28
(lp2296
VPatrick Ewing
p2297
assbag1
(g2
g3
Ntp2298
Rp2299
(dp2300
g7
(dp2301
g9
V1999-00 Topps Gold Label Class 2 Red Label #70 Allan Houston
p2302
sg11
I50
sg12
VTopps Gold Label Class 2 Red Label
p2303
sg14
(lp2304
Vhttp://www.beckett.com/basketball/1999-00/topps-gold-label-class-2-red-label/70-allan-houston-3189344
p2305
asg17
g18
sg19
(lp2306
Vhttp://img.beckett.com/images/no-image.jpg
p2307
asg22
V#70
p2308
sg24
V1999-00
p2309
sg26
g27
sg28
(lp2310
VAllan Houston
p2311
assbag1
(g2
g3
Ntp2312
Rp2313
(dp2314
g7
(dp2315
g9
V1999-00 Topps Gold Label Class 3 One to One #16 Latrell Sprewell
p2316
sg11
I1
sg12
VTopps Gold Label Class 3 One to One
p2317
sg14
(lp2318
Vhttp://www.beckett.com/basketball/1999-00/topps-gold-label-class-3-one-to-one/16-latrell-sprewell-3189626
p2319
asg17
g18
sg19
(lp2320
Vhttp://img.beckett.com/images/no-image.jpg
p2321
asg22
V#16
p2322
sg24
V1999-00
p2323
sg26
g27
sg28
(lp2324
VLatrell Sprewell
p2325
assbag1
(g2
g3
Ntp2326
Rp2327
(dp2328
g7
(dp2329
g9
V1999-00 Topps Gold Label Class 3 One to One #52 Patrick Ewing
p2330
sg11
I1
sg12
VTopps Gold Label Class 3 One to One
p2331
sg14
(lp2332
Vhttp://www.beckett.com/basketball/1999-00/topps-gold-label-class-3-one-to-one/52-patrick-ewing-3189662
p2333
asg17
g18
sg19
(lp2334
Vhttp://img.beckett.com/images/no-image.jpg
p2335
asg22
V#52
p2336
sg24
V1999-00
p2337
sg26
g27
sg28
(lp2338
VPatrick Ewing
p2339
assbag1
(g2
g3
Ntp2340
Rp2341
(dp2342
g7
(dp2343
g9
V1999-00 Topps Gold Label Class 3 One to One #70 Allan Houston
p2344
sg11
I1
sg12
VTopps Gold Label Class 3 One to One
p2345
sg14
(lp2346
Vhttp://www.beckett.com/basketball/1999-00/topps-gold-label-class-3-one-to-one/70-allan-houston-3189680
p2347
asg17
g18
sg19
(lp2348
Vhttp://img.beckett.com/images/no-image.jpg
p2349
asg22
V#70
p2350
sg24
V1999-00
p2351
sg26
g27
sg28
(lp2352
VAllan Houston
p2353
assbag1
(g2
g3
Ntp2354
Rp2355
(dp2356
g7
(dp2357
g9
V1999-00 Topps Gold Label Class 3 Red Label #16 Latrell Sprewell
p2358
sg11
I25
sg12
VTopps Gold Label Class 3 Red Label
p2359
sg14
(lp2360
Vhttp://www.beckett.com/basketball/1999-00/topps-gold-label-class-3-red-label/16-latrell-sprewell-3187437
p2361
asg17
g18
sg19
(lp2362
Vhttp://img.beckett.com/images/no-image.jpg
p2363
asg22
V#16
p2364
sg24
V1999-00
p2365
sg26
g27
sg28
(lp2366
VLatrell Sprewell
p2367
assbag1
(g2
g3
Ntp2368
Rp2369
(dp2370
g7
(dp2371
g9
V1999-00 Topps Gold Label Class 3 Red Label #52 Patrick Ewing
p2372
sg11
I25
sg12
VTopps Gold Label Class 3 Red Label
p2373
sg14
(lp2374
Vhttp://www.beckett.com/basketball/1999-00/topps-gold-label-class-3-red-label/52-patrick-ewing-3187473
p2375
asg17
g18
sg19
(lp2376
Vhttp://img.beckett.com/images/no-image.jpg
p2377
asg22
V#52
p2378
sg24
V1999-00
p2379
sg26
g27
sg28
(lp2380
VPatrick Ewing
p2381
assbag1
(g2
g3
Ntp2382
Rp2383
(dp2384
g7
(dp2385
g9
V1999-00 Topps Gold Label Class 3 Red Label #70 Allan Houston
p2386
sg11
I25
sg12
VTopps Gold Label Class 3 Red Label
p2387
sg14
(lp2388
Vhttp://www.beckett.com/basketball/1999-00/topps-gold-label-class-3-red-label/70-allan-houston-3187491
p2389
asg17
g18
sg19
(lp2390
Vhttp://img.beckett.com/images/no-image.jpg
p2391
asg22
V#70
p2392
sg24
V1999-00
p2393
sg26
g27
sg28
(lp2394
VAllan Houston
p2395
assbag1
(g2
g3
Ntp2396
Rp2397
(dp2398
g7
(dp2399
g9
V1999-00 Ultimate Victory 1 of 1 #53 Patrick Ewing
p2400
sg11
I1
sg12
VUltimate Victory 1 of 1
p2401
sg14
(lp2402
Vhttp://www.beckett.com/basketball/1999-00/ultimate-victory-1-of-1/53-patrick-ewing-3180417
p2403
asg17
g18
sg19
(lp2404
Vhttp://img.beckett.com/images/no-image.jpg
p2405
asg22
V#53
p2406
sg24
V1999-00
p2407
sg26
g27
sg28
(lp2408
VPatrick Ewing
p2409
assbag1
(g2
g3
Ntp2410
Rp2411
(dp2412
g7
(dp2413
g9
V1999-00 Ultimate Victory 1 of 1 #54 Allan Houston
p2414
sg11
I1
sg12
VUltimate Victory 1 of 1
p2415
sg14
(lp2416
Vhttp://www.beckett.com/basketball/1999-00/ultimate-victory-1-of-1/54-allan-houston-3180418
p2417
asg17
g18
sg19
(lp2418
Vhttp://img.beckett.com/images/no-image.jpg
p2419
asg22
V#54
p2420
sg24
V1999-00
p2421
sg26
g27
sg28
(lp2422
VAllan Houston
p2423
assbag1
(g2
g3
Ntp2424
Rp2425
(dp2426
g7
(dp2427
g9
V1999-00 Ultimate Victory 1 of 1 #55 Latrell Sprewell
p2428
sg11
I1
sg12
VUltimate Victory 1 of 1
p2429
sg14
(lp2430
Vhttp://www.beckett.com/basketball/1999-00/ultimate-victory-1-of-1/55-latrell-sprewell-3180419
p2431
asg17
g18
sg19
(lp2432
Vhttp://img.beckett.com/images/no-image.jpg
p2433
asg22
V#55
p2434
sg24
V1999-00
p2435
sg26
g27
sg28
(lp2436
VLatrell Sprewell
p2437
assbag1
(g2
g3
Ntp2438
Rp2439
(dp2440
g7
(dp2441
g9
V1999-00 Ultimate Victory 1 of 1 #56 Marcus Camby
p2442
sg11
I1
sg12
VUltimate Victory 1 of 1
p2443
sg14
(lp2444
Vhttp://www.beckett.com/basketball/1999-00/ultimate-victory-1-of-1/56-marcus-camby-3180420
p2445
asg17
g18
sg19
(lp2446
Vhttp://img.beckett.com/images/no-image.jpg
p2447
asg22
V#56
p2448
sg24
V1999-00
p2449
sg26
g27
sg28
(lp2450
VMarcus Camby
p2451
assbag1
(g2
g3
Ntp2452
Rp2453
(dp2454
g7
(dp2455
g9
V1999-00 Ultimate Victory Parallel 100 #53 Patrick Ewing
p2456
sg11
I100
sg12
VUltimate Victory Parallel 100
p2457
sg14
(lp2458
Vhttp://www.beckett.com/basketball/1999-00/ultimate-victory-parallel-100/53-patrick-ewing-3180739
p2459
asg17
g18
sg19
(lp2460
Vhttp://img.beckett.com/images/no-image.jpg
p2461
asg22
V#53
p2462
sg24
V1999-00
p2463
sg26
g27
sg28
(lp2464
VPatrick Ewing
p2465
assbag1
(g2
g3
Ntp2466
Rp2467
(dp2468
g7
(dp2469
g9
V1999-00 Ultimate Victory Parallel 100 #54 Allan Houston
p2470
sg11
I100
sg12
VUltimate Victory Parallel 100
p2471
sg14
(lp2472
Vhttp://www.beckett.com/basketball/1999-00/ultimate-victory-parallel-100/54-allan-houston-3180740
p2473
asg17
g18
sg19
(lp2474
Vhttp://img.beckett.com/images/no-image.jpg
p2475
asg22
V#54
p2476
sg24
V1999-00
p2477
sg26
g27
sg28
(lp2478
VAllan Houston
p2479
assbag1
(g2
g3
Ntp2480
Rp2481
(dp2482
g7
(dp2483
g9
V1999-00 Ultimate Victory Parallel 100 #55 Latrell Sprewell
p2484
sg11
I100
sg12
VUltimate Victory Parallel 100
p2485
sg14
(lp2486
Vhttp://www.beckett.com/basketball/1999-00/ultimate-victory-parallel-100/55-latrell-sprewell-3180741
p2487
asg17
g18
sg19
(lp2488
Vhttp://img.beckett.com/images/no-image.jpg
p2489
asg22
V#55
p2490
sg24
V1999-00
p2491
sg26
g27
sg28
(lp2492
VLatrell Sprewell
p2493
assbag1
(g2
g3
Ntp2494
Rp2495
(dp2496
g7
(dp2497
g9
V1999-00 Ultimate Victory Parallel 100 #56 Marcus Camby
p2498
sg11
I100
sg12
VUltimate Victory Parallel 100
p2499
sg14
(lp2500
Vhttp://www.beckett.com/basketball/1999-00/ultimate-victory-parallel-100/56-marcus-camby-3180742
p2501
asg17
g18
sg19
(lp2502
Vhttp://img.beckett.com/images/no-image.jpg
p2503
asg22
V#56
p2504
sg24
V1999-00
p2505
sg26
g27
sg28
(lp2506
VMarcus Camby
p2507
assbag1
(g2
g3
Ntp2508
Rp2509
(dp2510
g7
(dp2511
g9
V1999-00 Ultra Masterpieces #17 Larry Johnson
p2512
sg11
I1
sg12
VUltra Masterpieces
p2513
sg14
(lp2514
Vhttp://www.beckett.com/basketball/1999-00/ultra-masterpieces/17-larry-johnson-3206008
p2515
asg17
g18
sg19
(lp2516
Vhttp://img.beckett.com/images/no-image.jpg
p2517
asg22
V#17
p2518
sg24
V1999-00
p2519
sg26
g27
sg28
(lp2520
VLarry Johnson
p2521
assbag1
(g2
g3
Ntp2522
Rp2523
(dp2524
g7
(dp2525
g9
V1999-00 Ultra Masterpieces #26 Patrick Ewing
p2526
sg11
I1
sg12
VUltra Masterpieces
p2527
sg14
(lp2528
Vhttp://www.beckett.com/basketball/1999-00/ultra-masterpieces/26-patrick-ewing-3206017
p2529
asg17
g18
sg19
(lp2530
Vhttp://img.beckett.com/images/no-image.jpg
p2531
asg22
V#26
p2532
sg24
V1999-00
p2533
sg26
g27
sg28
(lp2534
VPatrick Ewing
p2535
assbag1
(g2
g3
Ntp2536
Rp2537
(dp2538
g7
(dp2539
g9
V1999-00 Ultra Masterpieces #37 Allan Houston
p2540
sg11
I1
sg12
VUltra Masterpieces
p2541
sg14
(lp2542
Vhttp://www.beckett.com/basketball/1999-00/ultra-masterpieces/37-allan-houston-3206028
p2543
asg17
g18
sg19
(lp2544
Vhttp://img.beckett.com/images/no-image.jpg
p2545
asg22
V#37
p2546
sg24
V1999-00
p2547
sg26
g27
sg28
(lp2548
VAllan Houston
p2549
assbag1
(g2
g3
Ntp2550
Rp2551
(dp2552
g7
(dp2553
g9
V1999-00 Ultra Masterpieces #39 Marcus Camby
p2554
sg11
I1
sg12
VUltra Masterpieces
p2555
sg14
(lp2556
Vhttp://www.beckett.com/basketball/1999-00/ultra-masterpieces/39-marcus-camby-3206030
p2557
asg17
g18
sg19
(lp2558
Vhttp://img.beckett.com/images/no-image.jpg
p2559
asg22
V#39
p2560
sg24
V1999-00
p2561
sg26
g27
sg28
(lp2562
VMarcus Camby
p2563
assbag1
(g2
g3
Ntp2564
Rp2565
(dp2566
g7
(dp2567
g9
V1999-00 Ultra Masterpieces #45 Latrell Sprewell
p2568
sg11
I1
sg12
VUltra Masterpieces
p2569
sg14
(lp2570
Vhttp://www.beckett.com/basketball/1999-00/ultra-masterpieces/45-latrell-sprewell-3206036
p2571
asg17
g18
sg19
(lp2572
Vhttp://img.beckett.com/images/no-image.jpg
p2573
asg22
V#45
p2574
sg24
V1999-00
p2575
sg26
g27
sg28
(lp2576
VLatrell Sprewell
p2577
assbag1
(g2
g3
Ntp2578
Rp2579
(dp2580
g7
(dp2581
g9
V1999-00 Ultra Platinum Medallion #17 Larry Johnson
p2582
sg11
I50
sg12
VUltra Platinum Medallion
p2583
sg14
(lp2584
Vhttp://www.beckett.com/basketball/1999-00/ultra-platinum-medallion/17-larry-johnson-3185823
p2585
asg17
g18
sg19
(lp2586
Vhttp://img.beckett.com/images/no-image.jpg
p2587
asg22
V#17
p2588
sg24
V1999-00
p2589
sg26
g27
sg28
(lp2590
VLarry Johnson
p2591
assbag1
(g2
g3
Ntp2592
Rp2593
(dp2594
g7
(dp2595
g9
V1999-00 Ultra Platinum Medallion #26 Patrick Ewing
p2596
sg11
I50
sg12
VUltra Platinum Medallion
p2597
sg14
(lp2598
Vhttp://www.beckett.com/basketball/1999-00/ultra-platinum-medallion/26-patrick-ewing-3185832
p2599
asg17
g18
sg19
(lp2600
Vhttp://img.beckett.com/images/no-image.jpg
p2601
asg22
V#26
p2602
sg24
V1999-00
p2603
sg26
g27
sg28
(lp2604
VPatrick Ewing
p2605
assbag1
(g2
g3
Ntp2606
Rp2607
(dp2608
g7
(dp2609
g9
V1999-00 Ultra Platinum Medallion #37 Allan Houston
p2610
sg11
I50
sg12
VUltra Platinum Medallion
p2611
sg14
(lp2612
Vhttp://www.beckett.com/basketball/1999-00/ultra-platinum-medallion/37-allan-houston-3185843
p2613
asg17
g18
sg19
(lp2614
Vhttp://img.beckett.com/images/no-image.jpg
p2615
asg22
V#37
p2616
sg24
V1999-00
p2617
sg26
g27
sg28
(lp2618
VAllan Houston
p2619
assbag1
(g2
g3
Ntp2620
Rp2621
(dp2622
g7
(dp2623
g9
V1999-00 Ultra Platinum Medallion #39 Marcus Camby
p2624
sg11
I50
sg12
VUltra Platinum Medallion
p2625
sg14
(lp2626
Vhttp://www.beckett.com/basketball/1999-00/ultra-platinum-medallion/39-marcus-camby-3185845
p2627
asg17
g18
sg19
(lp2628
Vhttp://img.beckett.com/images/no-image.jpg
p2629
asg22
V#39
p2630
sg24
V1999-00
p2631
sg26
g27
sg28
(lp2632
VMarcus Camby
p2633
assbag1
(g2
g3
Ntp2634
Rp2635
(dp2636
g7
(dp2637
g9
V1999-00 Ultra Platinum Medallion #45 Latrell Sprewell
p2638
sg11
I50
sg12
VUltra Platinum Medallion
p2639
sg14
(lp2640
Vhttp://www.beckett.com/basketball/1999-00/ultra-platinum-medallion/45-latrell-sprewell-3185851
p2641
asg17
g18
sg19
(lp2642
Vhttp://img.beckett.com/images/no-image.jpg
p2643
asg22
V#45
p2644
sg24
V1999-00
p2645
sg26
g27
sg28
(lp2646
VLatrell Sprewell
p2647
assbag1
(g2
g3
Ntp2648
Rp2649
(dp2650
g7
(dp2651
g9
V1999-00 Upper Deck Bronze #79 Patrick Ewing
p2652
sg11
I100
sg12
VUpper Deck Bronze
p2653
sg14
(lp2654
Vhttp://www.beckett.com/basketball/1999-00/upper-deck-bronze/79-patrick-ewing-3186606
p2655
asg17
g18
sg19
(lp2656
Vhttp://img.beckett.com/images/no-image.jpg
p2657
asg22
V#79
p2658
sg24
V1999-00
p2659
sg26
g27
sg28
(lp2660
VPatrick Ewing
p2661
assbag1
(g2
g3
Ntp2662
Rp2663
(dp2664
g7
(dp2665
g9
V1999-00 Upper Deck Bronze #80 Allan Houston
p2666
sg11
I100
sg12
VUpper Deck Bronze
p2667
sg14
(lp2668
Vhttp://www.beckett.com/basketball/1999-00/upper-deck-bronze/80-allan-houston-3186607
p2669
asg17
g18
sg19
(lp2670
Vhttp://img.beckett.com/images/no-image.jpg
p2671
asg22
V#80
p2672
sg24
V1999-00
p2673
sg26
g27
sg28
(lp2674
VAllan Houston
p2675
assbag1
(g2
g3
Ntp2676
Rp2677
(dp2678
g7
(dp2679
g9
V1999-00 Upper Deck Bronze #81 Latrell Sprewell
p2680
sg11
I100
sg12
VUpper Deck Bronze
p2681
sg14
(lp2682
Vhttp://www.beckett.com/basketball/1999-00/upper-deck-bronze/81-latrell-sprewell-3186608
p2683
asg17
g18
sg19
(lp2684
Vhttp://img.beckett.com/images/no-image.jpg
p2685
asg22
V#81
p2686
sg24
V1999-00
p2687
sg26
g27
sg28
(lp2688
VLatrell Sprewell
p2689
assbag1
(g2
g3
Ntp2690
Rp2691
(dp2692
g7
(dp2693
g9
V1999-00 Upper Deck Bronze #82 Larry Johnson
p2694
sg11
I100
sg12
VUpper Deck Bronze
p2695
sg14
(lp2696
Vhttp://www.beckett.com/basketball/1999-00/upper-deck-bronze/82-larry-johnson-3186609
p2697
asg17
g18
sg19
(lp2698
Vhttp://img.beckett.com/images/no-image.jpg
p2699
asg22
V#82
p2700
sg24
V1999-00
p2701
sg26
g27
sg28
(lp2702
VLarry Johnson
p2703
assbag1
(g2
g3
Ntp2704
Rp2705
(dp2706
g7
(dp2707
g9
V1999-00 Upper Deck Bronze #83 Marcus Camby
p2708
sg11
I100
sg12
VUpper Deck Bronze
p2709
sg14
(lp2710
Vhttp://www.beckett.com/basketball/1999-00/upper-deck-bronze/83-marcus-camby-3186610
p2711
asg17
g18
sg19
(lp2712
Vhttp://img.beckett.com/images/no-image.jpg
p2713
asg22
V#83
p2714
sg24
V1999-00
p2715
sg26
g27
sg28
(lp2716
VMarcus Camby
p2717
assbag1
(g2
g3
Ntp2718
Rp2719
(dp2720
g7
(dp2721
g9
V1999-00 Upper Deck Bronze #259 Chris Childs
p2722
sg11
I100
sg12
VUpper Deck Bronze
p2723
sg14
(lp2724
Vhttp://www.beckett.com/basketball/1999-00/upper-deck-bronze/259-chris-childs-3186786
p2725
asg17
g18
sg19
(lp2726
Vhttp://img.beckett.com/images/items_stock/185226/3186514/3186786/front.jpg
p2727
asg22
V#259
p2728
sg24
V1999-00
p2729
sg26
g27
sg28
(lp2730
VChris Childs
p2731
assbag1
(g2
g3
Ntp2732
Rp2733
(dp2734
g7
(dp2735
g9
V1999-00 Upper Deck Bronze #260 Kurt Thomas
p2736
sg11
I100
sg12
VUpper Deck Bronze
p2737
sg14
(lp2738
Vhttp://www.beckett.com/basketball/1999-00/upper-deck-bronze/260-kurt-thomas-3186787
p2739
asg17
g18
sg19
(lp2740
Vhttp://img.beckett.com/images/items_stock/185226/3186514/3186787/front.jpg
p2741
asg22
V#260
p2742
sg24
V1999-00
p2743
sg26
g27
sg28
(lp2744
VKurt Thomas
p2745
assbag1
(g2
g3
Ntp2746
Rp2747
(dp2748
g7
(dp2749
g9
V1999-00 Upper Deck Bronze #261 Charlie Ward
p2750
sg11
I100
sg12
VUpper Deck Bronze
p2751
sg14
(lp2752
Vhttp://www.beckett.com/basketball/1999-00/upper-deck-bronze/261-charlie-ward-3186788
p2753
asg17
g18
sg19
(lp2754
Vhttp://img.beckett.com/images/no-image.jpg
p2755
asg22
V#261
p2756
sg24
V1999-00
p2757
sg26
g27
sg28
(lp2758
VCharlie Ward
p2759
assbag1
(g2
g3
Ntp2760
Rp2761
(dp2762
g7
(dp2763
g9
V1999-00 Upper Deck Bronze #262 Chris Dudley
p2764
sg11
I100
sg12
VUpper Deck Bronze
p2765
sg14
(lp2766
Vhttp://www.beckett.com/basketball/1999-00/upper-deck-bronze/262-chris-dudley-3186789
p2767
asg17
g18
sg19
(lp2768
Vhttp://img.beckett.com/images/items_stock/185226/3186514/3186789/front.jpg
p2769
asg22
V#262
p2770
sg24
V1999-00
p2771
sg26
g27
sg28
(lp2772
VChris Dudley
p2773
assbag1
(g2
g3
Ntp2774
Rp2775
(dp2776
g7
(dp2777
g9
V1999-00 Upper Deck Gold #79 Patrick Ewing
p2778
sg11
I1
sg12
VUpper Deck Gold
p2779
sg14
(lp2780
Vhttp://www.beckett.com/basketball/1999-00/upper-deck-gold/79-patrick-ewing-3186971
p2781
asg17
g18
sg19
(lp2782
Vhttp://img.beckett.com/images/no-image.jpg
p2783
asg22
V#79
p2784
sg24
V1999-00
p2785
sg26
g27
sg28
(lp2786
VPatrick Ewing
p2787
assbag1
(g2
g3
Ntp2788
Rp2789
(dp2790
g7
(dp2791
g9
V1999-00 Upper Deck Gold #80 Allan Houston
p2792
sg11
I1
sg12
VUpper Deck Gold
p2793
sg14
(lp2794
Vhttp://www.beckett.com/basketball/1999-00/upper-deck-gold/80-allan-houston-3186972
p2795
asg17
g18
sg19
(lp2796
Vhttp://img.beckett.com/images/no-image.jpg
p2797
asg22
V#80
p2798
sg24
V1999-00
p2799
sg26
g27
sg28
(lp2800
VAllan Houston
p2801
assbag1
(g2
g3
Ntp2802
Rp2803
(dp2804
g7
(dp2805
g9
V1999-00 Upper Deck Gold #81 Latrell Sprewell
p2806
sg11
I1
sg12
VUpper Deck Gold
p2807
sg14
(lp2808
Vhttp://www.beckett.com/basketball/1999-00/upper-deck-gold/81-latrell-sprewell-3186973
p2809
asg17
g18
sg19
(lp2810
Vhttp://img.beckett.com/images/no-image.jpg
p2811
asg22
V#81
p2812
sg24
V1999-00
p2813
sg26
g27
sg28
(lp2814
VLatrell Sprewell
p2815
assbag1
(g2
g3
Ntp2816
Rp2817
(dp2818
g7
(dp2819
g9
V1999-00 Upper Deck Gold #82 Larry Johnson
p2820
sg11
I1
sg12
VUpper Deck Gold
p2821
sg14
(lp2822
Vhttp://www.beckett.com/basketball/1999-00/upper-deck-gold/82-larry-johnson-3186974
p2823
asg17
g18
sg19
(lp2824
Vhttp://img.beckett.com/images/no-image.jpg
p2825
asg22
V#82
p2826
sg24
V1999-00
p2827
sg26
g27
sg28
(lp2828
VLarry Johnson
p2829
assbag1
(g2
g3
Ntp2830
Rp2831
(dp2832
g7
(dp2833
g9
V1999-00 Upper Deck Gold #83 Marcus Camby
p2834
sg11
I1
sg12
VUpper Deck Gold
p2835
sg14
(lp2836
Vhttp://www.beckett.com/basketball/1999-00/upper-deck-gold/83-marcus-camby-3186975
p2837
asg17
g18
sg19
(lp2838
Vhttp://img.beckett.com/images/no-image.jpg
p2839
asg22
V#83
p2840
sg24
V1999-00
p2841
sg26
g27
sg28
(lp2842
VMarcus Camby
p2843
assbag1
(g2
g3
Ntp2844
Rp2845
(dp2846
g7
(dp2847
g9
V1999-00 Upper Deck Gold #259 Chris Childs
p2848
sg11
I1
sg12
VUpper Deck Gold
p2849
sg14
(lp2850
Vhttp://www.beckett.com/basketball/1999-00/upper-deck-gold/259-chris-childs-3187151
p2851
asg17
g18
sg19
(lp2852
Vhttp://img.beckett.com/images/no-image.jpg
p2853
asg22
V#259
p2854
sg24
V1999-00
p2855
sg26
g27
sg28
(lp2856
VChris Childs
p2857
assbag1
(g2
g3
Ntp2858
Rp2859
(dp2860
g7
(dp2861
g9
V1999-00 Upper Deck Gold #260 Kurt Thomas
p2862
sg11
I1
sg12
VUpper Deck Gold
p2863
sg14
(lp2864
Vhttp://www.beckett.com/basketball/1999-00/upper-deck-gold/260-kurt-thomas-3187152
p2865
asg17
g18
sg19
(lp2866
Vhttp://img.beckett.com/images/no-image.jpg
p2867
asg22
V#260
p2868
sg24
V1999-00
p2869
sg26
g27
sg28
(lp2870
VKurt Thomas
p2871
assbag1
(g2
g3
Ntp2872
Rp2873
(dp2874
g7
(dp2875
g9
V1999-00 Upper Deck Gold #261 Charlie Ward
p2876
sg11
I1
sg12
VUpper Deck Gold
p2877
sg14
(lp2878
Vhttp://www.beckett.com/basketball/1999-00/upper-deck-gold/261-charlie-ward-3187153
p2879
asg17
g18
sg19
(lp2880
Vhttp://img.beckett.com/images/no-image.jpg
p2881
asg22
V#261
p2882
sg24
V1999-00
p2883
sg26
g27
sg28
(lp2884
VCharlie Ward
p2885
assbag1
(g2
g3
Ntp2886
Rp2887
(dp2888
g7
(dp2889
g9
V1999-00 Upper Deck Gold #262 Chris Dudley
p2890
sg11
I1
sg12
VUpper Deck Gold
p2891
sg14
(lp2892
Vhttp://www.beckett.com/basketball/1999-00/upper-deck-gold/262-chris-dudley-3187154
p2893
asg17
g18
sg19
(lp2894
Vhttp://img.beckett.com/images/no-image.jpg
p2895
asg22
V#262
p2896
sg24
V1999-00
p2897
sg26
g27
sg28
(lp2898
VChris Dudley
p2899
assbag1
(g2
g3
Ntp2900
Rp2901
(dp2902
g7
(dp2903
g9
V1999-00 Upper Deck Hardcourt Baseline Grooves Gold #35 Latrell Sprewell
p2904
sg11
I1
sg12
VUpper Deck Hardcourt Baseline Grooves Gold
p2905
sg14
(lp2906
Vhttp://www.beckett.com/basketball/1999-00/upper-deck-hardcourt-baseline-grooves-gold/35-latrell-sprewell-3183875
p2907
asg17
g18
sg19
(lp2908
Vhttp://img.beckett.com/images/no-image.jpg
p2909
asg22
V#35
p2910
sg24
V1999-00
p2911
sg26
g27
sg28
(lp2912
VLatrell Sprewell
p2913
assbag1
(g2
g3
Ntp2914
Rp2915
(dp2916
g7
(dp2917
g9
V1999-00 Upper Deck Hardcourt Baseline Grooves Gold #36 Allan Houston
p2918
sg11
I1
sg12
VUpper Deck Hardcourt Baseline Grooves Gold
p2919
sg14
(lp2920
Vhttp://www.beckett.com/basketball/1999-00/upper-deck-hardcourt-baseline-grooves-gold/36-allan-houston-3183876
p2921
asg17
g18
sg19
(lp2922
Vhttp://img.beckett.com/images/no-image.jpg
p2923
asg22
V#36
p2924
sg24
V1999-00
p2925
sg26
g27
sg28
(lp2926
VAllan Houston
p2927
assbag1
(g2
g3
Ntp2928
Rp2929
(dp2930
g7
(dp2931
g9
V1999-00 Upper Deck Hardcourt Baseline Grooves Gold #37 Patrick Ewing
p2932
sg11
I1
sg12
VUpper Deck Hardcourt Baseline Grooves Gold
p2933
sg14
(lp2934
Vhttp://www.beckett.com/basketball/1999-00/upper-deck-hardcourt-baseline-grooves-gold/37-patrick-ewing-3183877
p2935
asg17
g18
sg19
(lp2936
Vhttp://img.beckett.com/images/no-image.jpg
p2937
asg22
V#37
p2938
sg24
V1999-00
p2939
sg26
g27
sg28
(lp2940
VPatrick Ewing
p2941
assbag1
(g2
g3
Ntp2942
Rp2943
(dp2944
g7
(dp2945
g9
V1999-00 Upper Deck Hardcourt Baseline Grooves Rainbow #35 Latrell Sprewell
p2946
sg11
I500
sg12
VUpper Deck Hardcourt Baseline Grooves Rainbow
p2947
sg14
(lp2948
Vhttp://www.beckett.com/basketball/1999-00/upper-deck-hardcourt-baseline-grooves-rainbow/35-latrell-sprewell-3183782
p2949
asg17
g18
sg19
(lp2950
Vhttp://img.beckett.com/images/no-image.jpg
p2951
asg22
V#35
p2952
sg24
V1999-00
p2953
sg26
g27
sg28
(lp2954
VLatrell Sprewell
p2955
assbag1
(g2
g3
Ntp2956
Rp2957
(dp2958
g7
(dp2959
g9
V1999-00 Upper Deck Hardcourt Baseline Grooves Rainbow #36 Allan Houston
p2960
sg11
I500
sg12
VUpper Deck Hardcourt Baseline Grooves Rainbow
p2961
sg14
(lp2962
Vhttp://www.beckett.com/basketball/1999-00/upper-deck-hardcourt-baseline-grooves-rainbow/36-allan-houston-3183783
p2963
asg17
g18
sg19
(lp2964
Vhttp://img.beckett.com/images/items_stock/185226/3183740/3183783/front.jpg
p2965
asg22
V#36
p2966
sg24
V1999-00
p2967
sg26
g27
sg28
(lp2968
VAllan Houston
p2969
assbag1
(g2
g3
Ntp2970
Rp2971
(dp2972
g7
(dp2973
g9
V1999-00 Upper Deck Hardcourt Baseline Grooves Rainbow #37 Patrick Ewing
p2974
sg11
I500
sg12
VUpper Deck Hardcourt Baseline Grooves Rainbow
p2975
sg14
(lp2976
Vhttp://www.beckett.com/basketball/1999-00/upper-deck-hardcourt-baseline-grooves-rainbow/37-patrick-ewing-3183784
p2977
asg17
g18
sg19
(lp2978
Vhttp://img.beckett.com/images/no-image.jpg
p2979
asg22
V#37
p2980
sg24
V1999-00
p2981
sg26
g27
sg28
(lp2982
VPatrick Ewing
p2983
assbag1
(g2
g3
Ntp2984
Rp2985
(dp2986
g7
(dp2987
g9
V1999-00 Upper Deck Hardcourt Baseline Grooves Silver #35 Latrell Sprewell
p2988
sg11
I50
sg12
VUpper Deck Hardcourt Baseline Grooves Silver
p2989
sg14
(lp2990
Vhttp://www.beckett.com/basketball/1999-00/upper-deck-hardcourt-baseline-grooves-silver/35-latrell-sprewell-3183975
p2991
asg17
g18
sg19
(lp2992
Vhttp://img.beckett.com/images/no-image.jpg
p2993
asg22
V#35
p2994
sg24
V1999-00
p2995
sg26
g27
sg28
(lp2996
VLatrell Sprewell
p2997
assbag1
(g2
g3
Ntp2998
Rp2999
(dp3000
g7
(dp3001
g9
V1999-00 Upper Deck Hardcourt Baseline Grooves Silver #36 Allan Houston
p3002
sg11
I50
sg12
VUpper Deck Hardcourt Baseline Grooves Silver
p3003
sg14
(lp3004
Vhttp://www.beckett.com/basketball/1999-00/upper-deck-hardcourt-baseline-grooves-silver/36-allan-houston-3183976
p3005
asg17
g18
sg19
(lp3006
Vhttp://img.beckett.com/images/no-image.jpg
p3007
asg22
V#36
p3008
sg24
V1999-00
p3009
sg26
g27
sg28
(lp3010
VAllan Houston
p3011
assbag1
(g2
g3
Ntp3012
Rp3013
(dp3014
g7
(dp3015
g9
V1999-00 Upper Deck Hardcourt Baseline Grooves Silver #37 Patrick Ewing
p3016
sg11
I50
sg12
VUpper Deck Hardcourt Baseline Grooves Silver
p3017
sg14
(lp3018
Vhttp://www.beckett.com/basketball/1999-00/upper-deck-hardcourt-baseline-grooves-silver/37-patrick-ewing-3183977
p3019
asg17
g18
sg19
(lp3020
Vhttp://img.beckett.com/images/no-image.jpg
p3021
asg22
V#37
p3022
sg24
V1999-00
p3023
sg26
g27
sg28
(lp3024
VPatrick Ewing
p3025
assbag1
(g2
g3
Ntp3026
Rp3027
(dp3028
g7
(dp3029
g9
V1999-00 Upper Deck MVP Gold Script #105 Patrick Ewing
p3030
sg11
I100
sg12
VUpper Deck MVP Gold Script
p3031
sg14
(lp3032
Vhttp://www.beckett.com/basketball/1999-00/upper-deck-mvp-gold-script/105-patrick-ewing-3182738
p3033
asg17
g18
sg19
(lp3034
Vhttp://img.beckett.com/images/no-image.jpg
p3035
asg22
V#105
p3036
sg24
V1999-00
p3037
sg26
g27
sg28
(lp3038
VPatrick Ewing
p3039
assbag1
(g2
g3
Ntp3040
Rp3041
(dp3042
g7
(dp3043
g9
V1999-00 Upper Deck MVP Gold Script #106 Allan Houston
p3044
sg11
I100
sg12
VUpper Deck MVP Gold Script
p3045
sg14
(lp3046
Vhttp://www.beckett.com/basketball/1999-00/upper-deck-mvp-gold-script/106-allan-houston-3182739
p3047
asg17
g18
sg19
(lp3048
Vhttp://img.beckett.com/images/no-image.jpg
p3049
asg22
V#106
p3050
sg24
V1999-00
p3051
sg26
g27
sg28
(lp3052
VAllan Houston
p3053
assbag1
(g2
g3
Ntp3054
Rp3055
(dp3056
g7
(dp3057
g9
V1999-00 Upper Deck MVP Gold Script #107 Latrell Sprewell
p3058
sg11
I100
sg12
VUpper Deck MVP Gold Script
p3059
sg14
(lp3060
Vhttp://www.beckett.com/basketball/1999-00/upper-deck-mvp-gold-script/107-latrell-sprewell-3182740
p3061
asg17
g18
sg19
(lp3062
Vhttp://img.beckett.com/images/no-image.jpg
p3063
asg22
V#107
p3064
sg24
V1999-00
p3065
sg26
g27
sg28
(lp3066
VLatrell Sprewell
p3067
assbag1
(g2
g3
Ntp3068
Rp3069
(dp3070
g7
(dp3071
g9
V1999-00 Upper Deck MVP Gold Script #108 Larry Johnson
p3072
sg11
I100
sg12
VUpper Deck MVP Gold Script
p3073
sg14
(lp3074
Vhttp://www.beckett.com/basketball/1999-00/upper-deck-mvp-gold-script/108-larry-johnson-3182741
p3075
asg17
g18
sg19
(lp3076
Vhttp://img.beckett.com/images/no-image.jpg
p3077
asg22
V#108
p3078
sg24
V1999-00
p3079
sg26
g27
sg28
(lp3080
VLarry Johnson
p3081
assbag1
(g2
g3
Ntp3082
Rp3083
(dp3084
g7
(dp3085
g9
V1999-00 Upper Deck MVP Gold Script #109 Marcus Camby
p3086
sg11
I100
sg12
VUpper Deck MVP Gold Script
p3087
sg14
(lp3088
Vhttp://www.beckett.com/basketball/1999-00/upper-deck-mvp-gold-script/109-marcus-camby-3182742
p3089
asg17
g18
sg19
(lp3090
Vhttp://img.beckett.com/images/no-image.jpg
p3091
asg22
V#109
p3092
sg24
V1999-00
p3093
sg26
g27
sg28
(lp3094
VMarcus Camby
p3095
assbag1
(g2
g3
Ntp3096
Rp3097
(dp3098
g7
(dp3099
g9
V1999-00 Upper Deck MVP Gold Script #110 Charlie Ward
p3100
sg11
I100
sg12
VUpper Deck MVP Gold Script
p3101
sg14
(lp3102
Vhttp://www.beckett.com/basketball/1999-00/upper-deck-mvp-gold-script/110-charlie-ward-3182743
p3103
asg17
g18
sg19
(lp3104
Vhttp://img.beckett.com/images/no-image.jpg
p3105
asg22
V#110
p3106
sg24
V1999-00
p3107
sg26
g27
sg28
(lp3108
VCharlie Ward
p3109
assbag1
(g2
g3
Ntp3110
Rp3111
(dp3112
g7
(dp3113
g9
V1999-00 Upper Deck MVP Super Script #105 Patrick Ewing
p3114
sg11
I25
sg12
VUpper Deck MVP Super Script
p3115
sg14
(lp3116
Vhttp://www.beckett.com/basketball/1999-00/upper-deck-mvp-super-script/105-patrick-ewing-3182968
p3117
asg17
g18
sg19
(lp3118
Vhttp://img.beckett.com/images/no-image.jpg
p3119
asg22
V#105
p3120
sg24
V1999-00
p3121
sg26
g27
sg28
(lp3122
VPatrick Ewing
p3123
assbag1
(g2
g3
Ntp3124
Rp3125
(dp3126
g7
(dp3127
g9
V1999-00 Upper Deck MVP Super Script #106 Allan Houston
p3128
sg11
I25
sg12
VUpper Deck MVP Super Script
p3129
sg14
(lp3130
Vhttp://www.beckett.com/basketball/1999-00/upper-deck-mvp-super-script/106-allan-houston-3182969
p3131
asg17
g18
sg19
(lp3132
Vhttp://img.beckett.com/images/no-image.jpg
p3133
asg22
V#106
p3134
sg24
V1999-00
p3135
sg26
g27
sg28
(lp3136
VAllan Houston
p3137
assbag1
(g2
g3
Ntp3138
Rp3139
(dp3140
g7
(dp3141
g9
V1999-00 Upper Deck MVP Super Script #107 Latrell Sprewell
p3142
sg11
I25
sg12
VUpper Deck MVP Super Script
p3143
sg14
(lp3144
Vhttp://www.beckett.com/basketball/1999-00/upper-deck-mvp-super-script/107-latrell-sprewell-3182970
p3145
asg17
g18
sg19
(lp3146
Vhttp://img.beckett.com/images/no-image.jpg
p3147
asg22
V#107
p3148
sg24
V1999-00
p3149
sg26
g27
sg28
(lp3150
VLatrell Sprewell
p3151
assbag1
(g2
g3
Ntp3152
Rp3153
(dp3154
g7
(dp3155
g9
V1999-00 Upper Deck MVP Super Script #108 Larry Johnson
p3156
sg11
I25
sg12
VUpper Deck MVP Super Script
p3157
sg14
(lp3158
Vhttp://www.beckett.com/basketball/1999-00/upper-deck-mvp-super-script/108-larry-johnson-3182971
p3159
asg17
g18
sg19
(lp3160
Vhttp://img.beckett.com/images/no-image.jpg
p3161
asg22
V#108
p3162
sg24
V1999-00
p3163
sg26
g27
sg28
(lp3164
VLarry Johnson
p3165
assbag1
(g2
g3
Ntp3166
Rp3167
(dp3168
g7
(dp3169
g9
V1999-00 Upper Deck MVP Super Script #109 Marcus Camby
p3170
sg11
I25
sg12
VUpper Deck MVP Super Script
p3171
sg14
(lp3172
Vhttp://www.beckett.com/basketball/1999-00/upper-deck-mvp-super-script/109-marcus-camby-3182972
p3173
asg17
g18
sg19
(lp3174
Vhttp://img.beckett.com/images/no-image.jpg
p3175
asg22
V#109
p3176
sg24
V1999-00
p3177
sg26
g27
sg28
(lp3178
VMarcus Camby
p3179
assbag1
(g2
g3
Ntp3180
Rp3181
(dp3182
g7
(dp3183
g9
V1999-00 Upper Deck MVP Super Script #110 Charlie Ward
p3184
sg11
I25
sg12
VUpper Deck MVP Super Script
p3185
sg14
(lp3186
Vhttp://www.beckett.com/basketball/1999-00/upper-deck-mvp-super-script/110-charlie-ward-3182973
p3187
asg17
g18
sg19
(lp3188
Vhttp://img.beckett.com/images/no-image.jpg
p3189
asg22
V#110
p3190
sg24
V1999-00
p3191
sg26
g27
sg28
(lp3192
VCharlie Ward
p3193
assbag1
(g2
g3
Ntp3194
Rp3195
(dp3196
g7
(dp3197
g9
V1999-00 Upper Deck Ovation Standing Ovation #18 John Starks
p3198
sg11
I50
sg12
VUpper Deck Ovation Standing Ovation
p3199
sg14
(lp3200
Vhttp://www.beckett.com/basketball/1999-00/upper-deck-ovation-standing-ovation/18-john-starks-3181151
p3201
asg17
g18
sg19
(lp3202
Vhttp://img.beckett.com/images/no-image.jpg
p3203
asg22
V#18
p3204
sg24
V1999-00
p3205
sg26
g27
sg28
(lp3206
VJohn Starks
p3207
assbag1
(g2
g3
Ntp3208
Rp3209
(dp3210
g7
(dp3211
g9
V1999-00 Upper Deck Ovation Standing Ovation #36 Patrick Ewing
p3212
sg11
I50
sg12
VUpper Deck Ovation Standing Ovation
p3213
sg14
(lp3214
Vhttp://www.beckett.com/basketball/1999-00/upper-deck-ovation-standing-ovation/36-patrick-ewing-3181169
p3215
asg17
g18
sg19
(lp3216
Vhttp://img.beckett.com/images/no-image.jpg
p3217
asg22
V#36
p3218
sg24
V1999-00
p3219
sg26
g27
sg28
(lp3220
VPatrick Ewing
p3221
assbag1
(g2
g3
Ntp3222
Rp3223
(dp3224
g7
(dp3225
g9
V1999-00 Upper Deck Ovation Standing Ovation #37 Latrell Sprewell
p3226
sg11
I50
sg12
VUpper Deck Ovation Standing Ovation
p3227
sg14
(lp3228
Vhttp://www.beckett.com/basketball/1999-00/upper-deck-ovation-standing-ovation/37-latrell-sprewell-3181170
p3229
asg17
g18
sg19
(lp3230
Vhttp://img.beckett.com/images/no-image.jpg
p3231
asg22
V#37
p3232
sg24
V1999-00
p3233
sg26
g27
sg28
(lp3234
VLatrell Sprewell
p3235
assbag1
(g2
g3
Ntp3236
Rp3237
(dp3238
g7
(dp3239
g9
V1999-00 Upper Deck Retro Gold #15 Dave DeBusschere
p3240
sg11
I250
sg12
VUpper Deck Retro Gold
p3241
sg14
(lp3242
Vhttp://www.beckett.com/basketball/1999-00/upper-deck-retro-gold/15-dave-debusschere-3181522
p3243
asg17
g18
sg19
(lp3244
Vhttp://img.beckett.com/images/no-image.jpg
p3245
asg22
V#15
p3246
sg24
V1999-00
p3247
sg26
g27
sg28
(lp3248
VDave DeBusschere
p3249
assbag1
(g2
g3
Ntp3250
Rp3251
(dp3252
g7
(dp3253
g9
V1999-00 Upper Deck Retro Gold #17 Allan Houston
p3254
sg11
I250
sg12
VUpper Deck Retro Gold
p3255
sg14
(lp3256
Vhttp://www.beckett.com/basketball/1999-00/upper-deck-retro-gold/17-allan-houston-3181524
p3257
asg17
g18
sg19
(lp3258
Vhttp://img.beckett.com/images/items_stock/185226/3181499/3181524/front.jpg
p3259
asg22
V#17
p3260
sg24
V1999-00
p3261
sg26
g27
sg28
(lp3262
VAllan Houston
p3263
assbag1
(g2
g3
Ntp3264
Rp3265
(dp3266
g7
(dp3267
g9
V1999-00 Upper Deck Retro Gold #47 John Starks
p3268
sg11
I250
sg12
VUpper Deck Retro Gold
p3269
sg14
(lp3270
Vhttp://www.beckett.com/basketball/1999-00/upper-deck-retro-gold/47-john-starks-3181554
p3271
asg17
g18
sg19
(lp3272
Vhttp://img.beckett.com/images/no-image.jpg
p3273
asg22
V#47
p3274
sg24
V1999-00
p3275
sg26
g27
sg28
(lp3276
VJohn Starks
p3277
assbag1
(g2
g3
Ntp3278
Rp3279
(dp3280
g7
(dp3281
g9
V1999-00 Upper Deck Retro Gold #48 Earl Monroe
p3282
sg11
I250
sg12
VUpper Deck Retro Gold
p3283
sg14
(lp3284
Vhttp://www.beckett.com/basketball/1999-00/upper-deck-retro-gold/48-earl-monroe-3181555
p3285
asg17
g18
sg19
(lp3286
Vhttp://img.beckett.com/images/items_stock/185226/3181499/3181555/front.jpg
p3287
asg22
V#48
p3288
sg24
V1999-00
p3289
sg26
g27
sg28
(lp3290
VEarl Monroe
p3291
assbag1
(g2
g3
Ntp3292
Rp3293
(dp3294
g7
(dp3295
g9
V1999-00 Upper Deck Retro Gold #56 Willis Reed
p3296
sg11
I250
sg12
VUpper Deck Retro Gold
p3297
sg14
(lp3298
Vhttp://www.beckett.com/basketball/1999-00/upper-deck-retro-gold/56-willis-reed-3181563
p3299
asg17
g18
sg19
(lp3300
Vhttp://img.beckett.com/images/no-image.jpg
p3301
asg22
V#56
p3302
sg24
V1999-00
p3303
sg26
g27
sg28
(lp3304
VWillis Reed
p3305
assbag1
(g2
g3
Ntp3306
Rp3307
(dp3308
g7
(dp3309
g9
V1999-00 Upper Deck Retro Gold #71 Nate Archibald
p3310
sg11
I250
sg12
VUpper Deck Retro Gold
p3311
sg14
(lp3312
Vhttp://www.beckett.com/basketball/1999-00/upper-deck-retro-gold/71-nate-archibald-3181578
p3313
asg17
g18
sg19
(lp3314
Vhttp://img.beckett.com/images/items_stock/185226/3181499/3181578/front.jpg
p3315
asg22
V#71
p3316
sg24
V1999-00
p3317
sg26
g27
sg28
(lp3318
VNate Archibald
p3319
assbag1
(g2
g3
Ntp3320
Rp3321
(dp3322
g7
(dp3323
g9
V1999-00 Upper Deck Retro Gold #88 Walt Frazier
p3324
sg11
I250
sg12
VUpper Deck Retro Gold
p3325
sg14
(lp3326
Vhttp://www.beckett.com/basketball/1999-00/upper-deck-retro-gold/88-walt-frazier-3181595
p3327
asg17
g18
sg19
(lp3328
Vhttp://img.beckett.com/images/items_stock/185226/3181499/3181595/front.jpg
p3329
asg22
V#88
p3330
sg24
V1999-00
p3331
sg26
g27
sg28
(lp3332
VWalt Frazier
p3333
assbag1
(g2
g3
Ntp3334
Rp3335
(dp3336
g7
(dp3337
g9
V1999-00 Upper Deck Retro Gold #94 Patrick Ewing
p3338
sg11
I250
sg12
VUpper Deck Retro Gold
p3339
sg14
(lp3340
Vhttp://www.beckett.com/basketball/1999-00/upper-deck-retro-gold/94-patrick-ewing-3181601
p3341
asg17
g18
sg19
(lp3342
Vhttp://img.beckett.com/images/no-image.jpg
p3343
asg22
V#94
p3344
sg24
V1999-00
p3345
sg26
g27
sg28
(lp3346
VPatrick Ewing
p3347
assbag1
(g2
g3
Ntp3348
Rp3349
(dp3350
g7
(dp3351
g9
V1999-00 Upper Deck Retro Platinum #15 Dave DeBusschere
p3352
sg11
I1
sg12
VUpper Deck Retro Platinum
p3353
sg14
(lp3354
Vhttp://www.beckett.com/basketball/1999-00/upper-deck-retro-platinum/15-dave-debusschere-3181637
p3355
asg17
g18
sg19
(lp3356
Vhttp://img.beckett.com/images/no-image.jpg
p3357
asg22
V#15
p3358
sg24
V1999-00
p3359
sg26
g27
sg28
(lp3360
VDave DeBusschere
p3361
assbag1
(g2
g3
Ntp3362
Rp3363
(dp3364
g7
(dp3365
g9
V1999-00 Upper Deck Retro Platinum #17 Allan Houston
p3366
sg11
I1
sg12
VUpper Deck Retro Platinum
p3367
sg14
(lp3368
Vhttp://www.beckett.com/basketball/1999-00/upper-deck-retro-platinum/17-allan-houston-3181639
p3369
asg17
g18
sg19
(lp3370
Vhttp://img.beckett.com/images/no-image.jpg
p3371
asg22
V#17
p3372
sg24
V1999-00
p3373
sg26
g27
sg28
(lp3374
VAllan Houston
p3375
assbag1
(g2
g3
Ntp3376
Rp3377
(dp3378
g7
(dp3379
g9
V1999-00 Upper Deck Retro Platinum #47 John Starks
p3380
sg11
I1
sg12
VUpper Deck Retro Platinum
p3381
sg14
(lp3382
Vhttp://www.beckett.com/basketball/1999-00/upper-deck-retro-platinum/47-john-starks-3181669
p3383
asg17
g18
sg19
(lp3384
Vhttp://img.beckett.com/images/no-image.jpg
p3385
asg22
V#47
p3386
sg24
V1999-00
p3387
sg26
g27
sg28
(lp3388
VJohn Starks
p3389
assbag1
(g2
g3
Ntp3390
Rp3391
(dp3392
g7
(dp3393
g9
V1999-00 Upper Deck Retro Platinum #48 Earl Monroe
p3394
sg11
I1
sg12
VUpper Deck Retro Platinum
p3395
sg14
(lp3396
Vhttp://www.beckett.com/basketball/1999-00/upper-deck-retro-platinum/48-earl-monroe-3181670
p3397
asg17
g18
sg19
(lp3398
Vhttp://img.beckett.com/images/no-image.jpg
p3399
asg22
V#48
p3400
sg24
V1999-00
p3401
sg26
g27
sg28
(lp3402
VEarl Monroe
p3403
assbag1
(g2
g3
Ntp3404
Rp3405
(dp3406
g7
(dp3407
g9
V1999-00 Upper Deck Retro Platinum #56 Willis Reed
p3408
sg11
I1
sg12
VUpper Deck Retro Platinum
p3409
sg14
(lp3410
Vhttp://www.beckett.com/basketball/1999-00/upper-deck-retro-platinum/56-willis-reed-3181678
p3411
asg17
g18
sg19
(lp3412
Vhttp://img.beckett.com/images/no-image.jpg
p3413
asg22
V#56
p3414
sg24
V1999-00
p3415
sg26
g27
sg28
(lp3416
VWillis Reed
p3417
assbag1
(g2
g3
Ntp3418
Rp3419
(dp3420
g7
(dp3421
g9
V1999-00 Upper Deck Retro Platinum #71 Nate Archibald
p3422
sg11
I1
sg12
VUpper Deck Retro Platinum
p3423
sg14
(lp3424
Vhttp://www.beckett.com/basketball/1999-00/upper-deck-retro-platinum/71-nate-archibald-3181693
p3425
asg17
g18
sg19
(lp3426
Vhttp://img.beckett.com/images/no-image.jpg
p3427
asg22
V#71
p3428
sg24
V1999-00
p3429
sg26
g27
sg28
(lp3430
VNate Archibald
p3431
assbag1
(g2
g3
Ntp3432
Rp3433
(dp3434
g7
(dp3435
g9
V1999-00 Upper Deck Retro Platinum #88 Walt Frazier
p3436
sg11
I1
sg12
VUpper Deck Retro Platinum
p3437
sg14
(lp3438
Vhttp://www.beckett.com/basketball/1999-00/upper-deck-retro-platinum/88-walt-frazier-3181710
p3439
asg17
g18
sg19
(lp3440
Vhttp://img.beckett.com/images/no-image.jpg
p3441
asg22
V#88
p3442
sg24
V1999-00
p3443
sg26
g27
sg28
(lp3444
VWalt Frazier
p3445
assbag1
(g2
g3
Ntp3446
Rp3447
(dp3448
g7
(dp3449
g9
V1999-00 Upper Deck Retro Platinum #94 Patrick Ewing
p3450
sg11
I1
sg12
VUpper Deck Retro Platinum
p3451
sg14
(lp3452
Vhttp://www.beckett.com/basketball/1999-00/upper-deck-retro-platinum/94-patrick-ewing-3181716
p3453
asg17
g18
sg19
(lp3454
Vhttp://img.beckett.com/images/no-image.jpg
p3455
asg22
V#94
p3456
sg24
V1999-00
p3457
sg26
g27
sg28
(lp3458
VPatrick Ewing
p3459
assbag1
(g2
g3
Ntp3460
Rp3461
(dp3462
g7
(dp3463
g9
V1999-00 SkyBox Premium Genuine Coverage #3 Patrick Ewing/450
p3464
sg11
I450
sg12
VSkyBox Premium Genuine Coverage
p3465
sg14
(lp3466
Vhttp://www.beckett.com/basketball/1999-00/skybox-premium-genuine-coverage/3-patrick-ewing450-3196026
p3467
asg17
g18
sS'memorabilia'
p3468
I1
sg19
(lp3469
Vhttp://img.beckett.com/images/no-image.jpg
p3470
asg22
V#3
p3471
sg24
V1999-00
p3472
sg26
g27
sg28
(lp3473
VPatrick Ewing
p3474
assbag1
(g2
g3
Ntp3475
Rp3476
(dp3477
g7
(dp3478
g9
V1999-00 Black Diamond A Piece of History Triple #AH Allan Houston H/R
p3479
sg11
I25
sg12
VBlack Diamond A Piece of History Triple
p3480
sg14
(lp3481
Vhttp://www.beckett.com/basketball/1999-00/black-diamond-a-piece-of-history-triple/ah-allan-houston-hr-3205872
p3482
asg17
g18
sg3468
I1
sg19
(lp3483
Vhttp://img.beckett.com/images/no-image.jpg
p3484
asg22
V#AH
p3485
sg24
V1999-00
p3486
sg26
g27
sg28
(lp3487
VAllan Houston
p3488
assbag1
(g2
g3
Ntp3489
Rp3490
(dp3491
g7
(dp3492
g9
V1999-00 E-X Essential Credentials Future #3 Patrick Ewing/58
p3493
sg11
I58
sg12
VE-X Essential Credentials Future
p3494
sg14
(lp3495
Vhttp://www.beckett.com/basketball/1999-00/e-x-essential-credentials-future/3-patrick-ewing58-3205164
p3496
asg17
g18
sg19
(lp3497
Vhttp://img.beckett.com/images/no-image.jpg
p3498
asg22
V#3
p3499
sg24
V1999-00
p3500
sg26
g27
sg28
(lp3501
VPatrick Ewing
p3502
assbag1
(g2
g3
Ntp3503
Rp3504
(dp3505
g7
(dp3506
g9
V1999-00 E-X Essential Credentials Future #6 Marcus Camby/55
p3507
sg11
I55
sg12
VE-X Essential Credentials Future
p3508
sg14
(lp3509
Vhttp://www.beckett.com/basketball/1999-00/e-x-essential-credentials-future/6-marcus-camby55-3205167
p3510
asg17
g18
sg19
(lp3511
Vhttp://img.beckett.com/images/no-image.jpg
p3512
asg22
V#6
p3513
sg24
V1999-00
p3514
sg26
g27
sg28
(lp3515
VMarcus Camby
p3516
assbag1
(g2
g3
Ntp3517
Rp3518
(dp3519
g7
(dp3520
g9
V1999-00 E-X Essential Credentials Future #46 Latrell Sprewell/15
p3521
sg11
I15
sg12
VE-X Essential Credentials Future
p3522
sg14
(lp3523
Vhttp://www.beckett.com/basketball/1999-00/e-x-essential-credentials-future/46-latrell-sprewell15-3205207
p3524
asg17
g18
sg19
(lp3525
Vhttp://img.beckett.com/images/no-image.jpg
p3526
asg22
V#46
p3527
sg24
V1999-00
p3528
sg26
g27
sg28
(lp3529
VLatrell Sprewell
p3530
assbag1
(g2
g3
Ntp3531
Rp3532
(dp3533
g7
(dp3534
g9
V1999-00 E-X Essential Credentials Now #3 Patrick Ewing/3
p3535
sg11
I3
sg12
VE-X Essential Credentials Now
p3536
sg14
(lp3537
Vhttp://www.beckett.com/basketball/1999-00/e-x-essential-credentials-now/3-patrick-ewing3-3205261
p3538
asg17
g18
sg19
(lp3539
Vhttp://img.beckett.com/images/no-image.jpg
p3540
asg22
V#3
p3541
sg24
V1999-00
p3542
sg26
g27
sg28
(lp3543
VPatrick Ewing
p3544
assbag1
(g2
g3
Ntp3545
Rp3546
(dp3547
g7
(dp3548
g9
V1999-00 E-X Essential Credentials Now #6 Marcus Camby/6
p3549
sg11
I6
sg12
VE-X Essential Credentials Now
p3550
sg14
(lp3551
Vhttp://www.beckett.com/basketball/1999-00/e-x-essential-credentials-now/6-marcus-camby6-3205264
p3552
asg17
g18
sg19
(lp3553
Vhttp://img.beckett.com/images/no-image.jpg
p3554
asg22
V#6
p3555
sg24
V1999-00
p3556
sg26
g27
sg28
(lp3557
VMarcus Camby
p3558
assbag1
(g2
g3
Ntp3559
Rp3560
(dp3561
g7
(dp3562
g9
V1999-00 E-X Essential Credentials Now #46 Latrell Sprewell/46
p3563
sg11
I46
sg12
VE-X Essential Credentials Now
p3564
sg14
(lp3565
Vhttp://www.beckett.com/basketball/1999-00/e-x-essential-credentials-now/46-latrell-sprewell46-3205304
p3566
asg17
g18
sg19
(lp3567
Vhttp://img.beckett.com/images/no-image.jpg
p3568
asg22
V#46
p3569
sg24
V1999-00
p3570
sg26
g27
sg28
(lp3571
VLatrell Sprewell
p3572
assbag1
(g2
g3
Ntp3573
Rp3574
(dp3575
g7
(dp3576
g9
V1999-00 SkyBox APEX Cutting Edge Warp Tek #11 Marcus Camby
p3577
sg11
I25
sg12
VSkyBox APEX Cutting Edge Warp Tek
p3578
sg14
(lp3579
Vhttp://www.beckett.com/basketball/1999-00/skybox-apex-cutting-edge-warp-tek/11-marcus-camby-3196731
p3580
asg17
g18
sg19
(lp3581
Vhttp://img.beckett.com/images/no-image.jpg
p3582
asg22
V#11
p3583
sg24
V1999-00
p3584
sg26
g27
sg28
(lp3585
VMarcus Camby
p3586
assbag1
(g2
g3
Ntp3587
Rp3588
(dp3589
g7
(dp3590
g9
V1999-00 SkyBox Premium Autographics Blue #16 Marcus Camby
p3591
sg11
I50
sg12
VSkyBox Premium Autographics Blue
p3592
sg14
(lp3593
Vhttp://www.beckett.com/basketball/1999-00/skybox-premium-autographics-blue/16-marcus-camby-3195880
p3594
asg17
g18
sg19
(lp3595
Vhttp://img.beckett.com/images/no-image.jpg
p3596
asg22
V#16
p3597
sS'autograph'
p3598
I1
sg24
V1999-00
p3599
sg26
g27
sg28
(lp3600
VMarcus Camby
p3601
assbag1
(g2
g3
Ntp3602
Rp3603
(dp3604
g7
(dp3605
g9
V1999-00 Topps Gold Label Quest for the Gold One to One #Q1 Allan Houston
p3606
sg11
I1
sg12
VTopps Gold Label Quest for the Gold One to One
p3607
sg14
(lp3608
Vhttp://www.beckett.com/basketball/1999-00/topps-gold-label-quest-for-the-gold-one-to-one/q1-allan-houston-3187743
p3609
asg17
g18
sg19
(lp3610
Vhttp://img.beckett.com/images/no-image.jpg
p3611
asg22
V#Q1
p3612
sg24
V1999-00
p3613
sg26
g27
sg28
(lp3614
VAllan Houston
p3615
assbag1
(g2
g3
Ntp3616
Rp3617
(dp3618
g7
(dp3619
g9
V1999-00 Topps Gold Label Quest for the Gold Red Label #Q1 Allan Houston
p3620
sg11
I25
sg12
VTopps Gold Label Quest for the Gold Red Label
p3621
sg14
(lp3622
Vhttp://www.beckett.com/basketball/1999-00/topps-gold-label-quest-for-the-gold-red-label/q1-allan-houston-3187760
p3623
asg17
g18
sg19
(lp3624
Vhttp://img.beckett.com/images/no-image.jpg
p3625
asg22
V#Q1
p3626
sg24
V1999-00
p3627
sg26
g27
sg28
(lp3628
VAllan Houston
p3629
assbag1
(g2
g3
Ntp3630
Rp3631
(dp3632
g7
(dp3633
g9
V1999-00 Upper Deck BioGraphics Level 1 #B30 Allan Houston
p3634
sg11
I100
sg12
VUpper Deck BioGraphics Level 1
p3635
sg14
(lp3636
Vhttp://www.beckett.com/basketball/1999-00/upper-deck-biographics-level-1/b30-allan-houston-3187336
p3637
asg17
g18
sg19
(lp3638
Vhttp://img.beckett.com/images/no-image.jpg
p3639
asg22
V#B30
p3640
sg24
V1999-00
p3641
sg26
g27
sg28
(lp3642
VAllan Houston
p3643
assbag1
(g2
g3
Ntp3644
Rp3645
(dp3646
g7
(dp3647
g9
V1999-00 Upper Deck BioGraphics Level 2 #B30 Allan Houston
p3648
sg11
I25
sg12
VUpper Deck BioGraphics Level 2
p3649
sg14
(lp3650
Vhttp://www.beckett.com/basketball/1999-00/upper-deck-biographics-level-2/b30-allan-houston-3187374
p3651
asg17
g18
sg19
(lp3652
Vhttp://img.beckett.com/images/no-image.jpg
p3653
asg22
V#B30
p3654
sg24
V1999-00
p3655
sg26
g27
sg28
(lp3656
VAllan Houston
p3657
assbag1
(g2
g3
Ntp3658
Rp3659
(dp3660
g7
(dp3661
g9
V1999-00 Upper Deck High Definition Level 1 #HD5 Patrick Ewing
p3662
sg11
I100
sg12
VUpper Deck High Definition Level 1
p3663
sg14
(lp3664
Vhttp://www.beckett.com/basketball/1999-00/upper-deck-high-definition-level-1/hd5-patrick-ewing-3185194
p3665
asg17
g18
sg19
(lp3666
Vhttp://img.beckett.com/images/no-image.jpg
p3667
asg22
V#HD5
p3668
sg24
V1999-00
p3669
sg26
g27
sg28
(lp3670
VPatrick Ewing
p3671
assbag1
(g2
g3
Ntp3672
Rp3673
(dp3674
g7
(dp3675
g9
V1999-00 Upper Deck High Definition Level 1 #HD15 Allan Houston
p3676
sg11
I100
sg12
VUpper Deck High Definition Level 1
p3677
sg14
(lp3678
Vhttp://www.beckett.com/basketball/1999-00/upper-deck-high-definition-level-1/hd15-allan-houston-3185204
p3679
asg17
g18
sg19
(lp3680
Vhttp://img.beckett.com/images/no-image.jpg
p3681
asg22
V#HD15
p3682
sg24
V1999-00
p3683
sg26
g27
sg28
(lp3684
VAllan Houston
p3685
assbag1
(g2
g3
Ntp3686
Rp3687
(dp3688
g7
(dp3689
g9
V1999-00 Upper Deck High Definition Level 2 #HD5 Patrick Ewing
p3690
sg11
I25
sg12
VUpper Deck High Definition Level 2
p3691
sg14
(lp3692
Vhttp://www.beckett.com/basketball/1999-00/upper-deck-high-definition-level-2/hd5-patrick-ewing-3185222
p3693
asg17
g18
sg19
(lp3694
Vhttp://img.beckett.com/images/no-image.jpg
p3695
asg22
V#HD5
p3696
sg24
V1999-00
p3697
sg26
g27
sg28
(lp3698
VPatrick Ewing
p3699
assbag1
(g2
g3
Ntp3700
Rp3701
(dp3702
g7
(dp3703
g9
V1999-00 Upper Deck High Definition Level 2 #HD15 Allan Houston
p3704
sg11
I25
sg12
VUpper Deck High Definition Level 2
p3705
sg14
(lp3706
Vhttp://www.beckett.com/basketball/1999-00/upper-deck-high-definition-level-2/hd15-allan-houston-3185232
p3707
asg17
g18
sg19
(lp3708
Vhttp://img.beckett.com/images/no-image.jpg
p3709
asg22
V#HD15
p3710
sg24
V1999-00
p3711
sg26
g27
sg28
(lp3712
VAllan Houston
p3713
assbag1
(g2
g3
Ntp3714
Rp3715
(dp3716
g7
(dp3717
g9
V1999-00 Upper Deck History Class Level 1 #HC6 Nate Archibald
p3718
sg11
I100
sg12
VUpper Deck History Class Level 1
p3719
sg14
(lp3720
Vhttp://www.beckett.com/basketball/1999-00/upper-deck-history-class-level-1/hc6-nate-archibald-3185281
p3721
asg17
g18
sg19
(lp3722
Vhttp://img.beckett.com/images/no-image.jpg
p3723
asg22
V#HC6
p3724
sg24
V1999-00
p3725
sg26
g27
sg28
(lp3726
VNate Archibald
p3727
assbag1
(g2
g3
Ntp3728
Rp3729
(dp3730
g7
(dp3731
g9
V1999-00 Upper Deck History Class Level 1 #HC8 Dave DeBusschere
p3732
sg11
I100
sg12
VUpper Deck History Class Level 1
p3733
sg14
(lp3734
Vhttp://www.beckett.com/basketball/1999-00/upper-deck-history-class-level-1/hc8-dave-debusschere-3185283
p3735
asg17
g18
sg19
(lp3736
Vhttp://img.beckett.com/images/no-image.jpg
p3737
asg22
V#HC8
p3738
sg24
V1999-00
p3739
sg26
g27
sg28
(lp3740
VDave DeBusschere
p3741
assbag1
(g2
g3
Ntp3742
Rp3743
(dp3744
g7
(dp3745
g9
V1999-00 Upper Deck History Class Level 1 #HC12 Walt Frazier
p3746
sg11
I100
sg12
VUpper Deck History Class Level 1
p3747
sg14
(lp3748
Vhttp://www.beckett.com/basketball/1999-00/upper-deck-history-class-level-1/hc12-walt-frazier-3185287
p3749
asg17
g18
sg19
(lp3750
Vhttp://img.beckett.com/images/no-image.jpg
p3751
asg22
V#HC12
p3752
sg24
V1999-00
p3753
sg26
g27
sg28
(lp3754
VWalt Frazier
p3755
assbag1
(g2
g3
Ntp3756
Rp3757
(dp3758
g7
(dp3759
g9
V1999-00 Upper Deck History Class Level 1 #HC16 Earl Monroe
p3760
sg11
I100
sg12
VUpper Deck History Class Level 1
p3761
sg14
(lp3762
Vhttp://www.beckett.com/basketball/1999-00/upper-deck-history-class-level-1/hc16-earl-monroe-3185291
p3763
asg17
g18
sg19
(lp3764
Vhttp://img.beckett.com/images/no-image.jpg
p3765
asg22
V#HC16
p3766
sg24
V1999-00
p3767
sg26
g27
sg28
(lp3768
VEarl Monroe
p3769
assbag1
(g2
g3
Ntp3770
Rp3771
(dp3772
g7
(dp3773
g9
V1999-00 Upper Deck History Class Level 2 #HC6 Nate Archibald
p3774
sg11
I25
sg12
VUpper Deck History Class Level 2
p3775
sg14
(lp3776
Vhttp://www.beckett.com/basketball/1999-00/upper-deck-history-class-level-2/hc6-nate-archibald-3185309
p3777
asg17
g18
sg19
(lp3778
Vhttp://img.beckett.com/images/no-image.jpg
p3779
asg22
V#HC6
p3780
sg24
V1999-00
p3781
sg26
g27
sg28
(lp3782
VNate Archibald
p3783
assbag1
(g2
g3
Ntp3784
Rp3785
(dp3786
g7
(dp3787
g9
V1999-00 Upper Deck History Class Level 2 #HC8 Dave DeBusschere
p3788
sg11
I25
sg12
VUpper Deck History Class Level 2
p3789
sg14
(lp3790
Vhttp://www.beckett.com/basketball/1999-00/upper-deck-history-class-level-2/hc8-dave-debusschere-3185311
p3791
asg17
g18
sg19
(lp3792
Vhttp://img.beckett.com/images/no-image.jpg
p3793
asg22
V#HC8
p3794
sg24
V1999-00
p3795
sg26
g27
sg28
(lp3796
VDave DeBusschere
p3797
assbag1
(g2
g3
Ntp3798
Rp3799
(dp3800
g7
(dp3801
g9
V1999-00 Upper Deck History Class Level 2 #HC12 Walt Frazier
p3802
sg11
I25
sg12
VUpper Deck History Class Level 2
p3803
sg14
(lp3804
Vhttp://www.beckett.com/basketball/1999-00/upper-deck-history-class-level-2/hc12-walt-frazier-3185315
p3805
asg17
g18
sg19
(lp3806
Vhttp://img.beckett.com/images/no-image.jpg
p3807
asg22
V#HC12
p3808
sg24
V1999-00
p3809
sg26
g27
sg28
(lp3810
VWalt Frazier
p3811
assbag1
(g2
g3
Ntp3812
Rp3813
(dp3814
g7
(dp3815
g9
V1999-00 Upper Deck History Class Level 2 #HC16 Earl Monroe
p3816
sg11
I25
sg12
VUpper Deck History Class Level 2
p3817
sg14
(lp3818
Vhttp://www.beckett.com/basketball/1999-00/upper-deck-history-class-level-2/hc16-earl-monroe-3185319
p3819
asg17
g18
sg19
(lp3820
Vhttp://img.beckett.com/images/no-image.jpg
p3821
asg22
V#HC16
p3822
sg24
V1999-00
p3823
sg26
g27
sg28
(lp3824
VEarl Monroe
p3825
assbag1
(g2
g3
Ntp3826
Rp3827
(dp3828
g7
(dp3829
g9
V1999-00 Upper Deck Jamboree Level 1 #J7 Marcus Camby
p3830
sg11
I100
sg12
VUpper Deck Jamboree Level 1
p3831
sg14
(lp3832
Vhttp://www.beckett.com/basketball/1999-00/upper-deck-jamboree-level-1/j7-marcus-camby-3185367
p3833
asg17
g18
sg19
(lp3834
Vhttp://img.beckett.com/images/no-image.jpg
p3835
asg22
V#J7
p3836
sg24
V1999-00
p3837
sg26
g27
sg28
(lp3838
VMarcus Camby
p3839
assbag1
(g2
g3
Ntp3840
Rp3841
(dp3842
g7
(dp3843
g9
V1999-00 Upper Deck Jamboree Level 2 #J7 Marcus Camby
p3844
sg11
I25
sg12
VUpper Deck Jamboree Level 2
p3845
sg14
(lp3846
Vhttp://www.beckett.com/basketball/1999-00/upper-deck-jamboree-level-2/j7-marcus-camby-3185390
p3847
asg17
g18
sg19
(lp3848
Vhttp://img.beckett.com/images/no-image.jpg
p3849
asg22
V#J7
p3850
sg24
V1999-00
p3851
sg26
g27
sg28
(lp3852
VMarcus Camby
p3853
assbag1
(g2
g3
Ntp3854
Rp3855
(dp3856
g7
(dp3857
g9
V1999-00 Upper Deck Now Showing Level 1 #NS18 Marcus Camby
p3858
sg11
I100
sg12
VUpper Deck Now Showing Level 1
p3859
sg14
(lp3860
Vhttp://www.beckett.com/basketball/1999-00/upper-deck-now-showing-level-1/ns18-marcus-camby-3184287
p3861
asg17
g18
sg19
(lp3862
Vhttp://img.beckett.com/images/no-image.jpg
p3863
asg22
V#NS18
p3864
sg24
V1999-00
p3865
sg26
g27
sg28
(lp3866
VMarcus Camby
p3867
assbag1
(g2
g3
Ntp3868
Rp3869
(dp3870
g7
(dp3871
g9
V1999-00 Upper Deck Now Showing Level 2 #NS18 Marcus Camby
p3872
sg11
I25
sg12
VUpper Deck Now Showing Level 2
p3873
sg14
(lp3874
Vhttp://www.beckett.com/basketball/1999-00/upper-deck-now-showing-level-2/ns18-marcus-camby-3184325
p3875
asg17
g18
sg19
(lp3876
Vhttp://img.beckett.com/images/no-image.jpg
p3877
asg22
V#NS18
p3878
sg24
V1999-00
p3879
sg26
g27
sg28
(lp3880
VMarcus Camby
p3881
assbag1
(g2
g3
Ntp3882
Rp3883
(dp3884
g7
(dp3885
g9
V1999-00 Upper Deck Encore Electric Currents F/X #EC4 Allan Houston
p3886
sg11
I150
sg12
VUpper Deck Encore Electric Currents F/X
p3887
sg14
(lp3888
Vhttp://www.beckett.com/basketball/1999-00/upper-deck-encore-electric-currents-fx/ec4-allan-houston-3184772
p3889
asg17
g18
sg19
(lp3890
Vhttp://img.beckett.com/images/no-image.jpg
p3891
asg22
V#EC4
p3892
sg24
V1999-00
p3893
sg26
g27
sg28
(lp3894
VAllan Houston
p3895
assbag1
(g2
g3
Ntp3896
Rp3897
(dp3898
g7
(dp3899
g9
V1999-00 Upper Deck Retro Inkredible Level 2 #NA Nate Archibald/7
p3900
sg11
I7
sg12
VUpper Deck Retro Inkredible Level 2
p3901
sg14
(lp3902
Vhttp://www.beckett.com/basketball/1999-00/upper-deck-retro-inkredible-level-2/na-nate-archibald7-3180095
p3903
asg17
g18
sg19
(lp3904
Vhttp://img.beckett.com/images/no-image.jpg
p3905
asg22
V#NA
p3906
sg3598
I1
sg24
V1999-00
p3907
sg26
g27
sg28
(lp3908
VNate Archibald
p3909
assbag1
(g2
g3
Ntp3910
Rp3911
(dp3912
g7
(dp3913
g9
V1999-00 Upper Deck Retro Inkredible Level 2 #WF Walt Frazier/10
p3914
sg11
I10
sg12
VUpper Deck Retro Inkredible Level 2
p3915
sg14
(lp3916
Vhttp://www.beckett.com/basketball/1999-00/upper-deck-retro-inkredible-level-2/wf-walt-frazier10-3180101
p3917
asg17
g18
sg19
(lp3918
Vhttp://img.beckett.com/images/no-image.jpg
p3919
asg22
V#WF
p3920
sg3598
I1
sg24
V1999-00
p3921
sg26
g27
sg28
(lp3922
VWalt Frazier
p3923
assbag1
(g2
g3
Ntp3924
Rp3925
(dp3926
g7
(dp3927
g9
V1999-00 Upper Deck Retro Old School/New School Parallel #S8 Earl Monroe
p3928
sg11
I500
sg12
VUpper Deck Retro Old School/New School Parallel
p3929
sg14
(lp3930
Vhttp://www.beckett.com/basketball/1999-00/upper-deck-retro-old-schoolnew-school-parallel/s8-earl-monroe-3180173
p3931
asg17
g18
sg19
(lp3932
Vhttp://img.beckett.com/images/no-image.jpg
p3933
asg22
V#S8
p3934
sg24
V1999-00
p3935
sg26
g27
sg28
(lp3936
VEarl Monroe
p3937
assba.