(lp0
Naccopy_reg
_reconstructor
p1
(ctutorial.items
BeckettItem
p2
c__builtin__
object
p3
Ntp4
Rp5
(dp6
S'_values'
p7
(dp8
S'originalItemDescription'
p9
V1999 Upper Deck Century Legends Century Collection #13 Julius Erving
p10
sS'serialNumber'
p11
I100
sS'setName'
p12
VUpper Deck Century Legends Century Collection
p13
sS'beckettLink'
p14
(lp15
Vhttp://www.beckett.com/basketball/1999/upper-deck-century-legends-century-collection/13-julius-erving-3175443
p16
asS'team'
p17
S'Philadelphia 76ers'
p18
sS'imageLink'
p19
(lp20
Vhttp://img.beckett.com/images/items_stock/185226/3175420/3175443/front.jpg
p21
asS'cardNumber'
p22
V#13
p23
sS'year'
p24
V1999
p25
sS'sport'
p26
S'Basketball'
p27
sS'playerNames'
p28
(lp29
VJulius Erving
p30
assbag1
(g2
g3
Ntp31
Rp32
(dp33
g7
(dp34
g9
V1999 Upper Deck Century Legends Century Collection #54 Allen Iverson
p35
sg11
I100
sg12
VUpper Deck Century Legends Century Collection
p36
sg14
(lp37
Vhttp://www.beckett.com/basketball/1999/upper-deck-century-legends-century-collection/54-allen-iverson-3175484
p38
asg17
g18
sg19
(lp39
Vhttp://img.beckett.com/images/no-image.jpg
p40
asg22
V#54
p41
sg24
V1999
p42
sg26
g27
sg28
(lp43
VAllen Iverson
p44
assbag1
(g2
g3
Ntp45
Rp46
(dp47
g7
(dp48
g9
V1999 Upper Deck Century Legends Jerseys of the Century #DRA Julius Erving AU/6
p49
sg11
I6
sg12
VUpper Deck Century Legends Jerseys of the Century
p50
sg14
(lp51
Vhttp://www.beckett.com/basketball/1999/upper-deck-century-legends-jerseys-of-the-century/dra-julius-erving-au6-3175676
p52
asg17
g18
sS'memorabilia'
p53
I1
sg19
(lp54
Vhttp://img.beckett.com/images/no-image.jpg
p55
asg22
V#DRA
p56
sS'autograph'
p57
I1
sg24
V1999
p58
sg26
g27
sg28
(lp59
VJulius Erving
p60
assbag1
(g2
g3
Ntp61
Rp62
(dp63
g7
(dp64
g9
V1999 Upper Deck Century Legends Epic Signatures Century #AI Allen Iverson/100
p65
sg11
I100
sg12
VUpper Deck Century Legends Epic Signatures Century
p66
sg14
(lp67
Vhttp://www.beckett.com/basketball/1999/upper-deck-century-legends-epic-signatures-century/ai-allen-iverson100-3175610
p68
asg17
g18
sg19
(lp69
Vhttp://img.beckett.com/images/no-image.jpg
p70
asg22
V#AI
p71
sg57
I1
sg24
V1999
p72
sg26
g27
sg28
(lp73
VAllen Iverson
p74
assbag1
(g2
g3
Ntp75
Rp76
(dp77
g7
(dp78
g9
V1999-00 E-X #90 Jumaine Jones RC
p79
sg11
I3499
sg12
VE-X
p80
sg14
(lp81
Vhttp://www.beckett.com/basketball/1999-00/e-x/90-jumaine-jones-rc-3205151
p82
asg17
g18
sS'rookieCard'
p83
I1
sg19
(lp84
Vhttp://img.beckett.com/images/no-image.jpg
p85
asg22
V#90
p86
sg24
V1999-00
p87
sg26
g27
sg28
(lp88
VJumaine Jones
p89
assbag1
(g2
g3
Ntp90
Rp91
(dp92
g7
(dp93
g9
V1999-00 Flair Showcase #124 Jumaine Jones RC
p94
sg11
I2000
sg12
VFlair Showcase
p95
sg14
(lp96
Vhttp://www.beckett.com/basketball/1999-00/flair-showcase/124-jumaine-jones-rc-3202908
p97
asg17
g18
sg83
I1
sg19
(lp98
Vhttp://img.beckett.com/images/no-image.jpg
p99
asg22
V#124
p100
sg24
V1999-00
p101
sg26
g27
sg28
(lp102
VJumaine Jones
p103
assbag1
(g2
g3
Ntp104
Rp105
(dp106
g7
(dp107
g9
V1999-00 Fleer Focus #126 Jumaine Jones RC
p108
sg11
I3000
sg12
VFleer Focus
p109
sg14
(lp110
Vhttp://www.beckett.com/basketball/1999-00/fleer-focus/126-jumaine-jones-rc-3202005
p111
asg17
g18
sg83
I1
sg19
(lp112
Vhttp://img.beckett.com/images/no-image.jpg
p113
asg22
V#126
p114
sg24
V1999-00
p115
sg26
g27
sg28
(lp116
VJumaine Jones
p117
assbag1
(g2
g3
Ntp118
Rp119
(dp120
g7
(dp121
g9
V1999-00 Fleer Focus #126A Jumaine Jones SP
p122
sg11
I999
sg12
VFleer Focus
p123
sg14
(lp124
Vhttp://www.beckett.com/basketball/1999-00/fleer-focus/126a-jumaine-jones-sp-3202006
p125
asg17
g18
sg19
(lp126
Vhttp://img.beckett.com/images/no-image.jpg
p127
asg22
V#126A
p128
sg24
V1999-00
p129
sS'subsetName'
p130
VSP
p131
sg26
g27
sg28
(lp132
VJumaine Jones
p133
assbag1
(g2
g3
Ntp134
Rp135
(dp136
g7
(dp137
g9
V1999-00 Fleer Focus #142 Todd MacCulloch RC
p138
sg11
I3000
sg12
VFleer Focus
p139
sg14
(lp140
Vhttp://www.beckett.com/basketball/1999-00/fleer-focus/142-todd-macculloch-rc-3202037
p141
asg17
g18
sg83
I1
sg19
(lp142
Vhttp://img.beckett.com/images/no-image.jpg
p143
asg22
V#142
p144
sg24
V1999-00
p145
sg26
g27
sg28
(lp146
VTodd MacCulloch
p147
assbag1
(g2
g3
Ntp148
Rp149
(dp150
g7
(dp151
g9
V1999-00 Fleer Focus #142A Todd MacCulloch SP
p152
sg11
I999
sg12
VFleer Focus
p153
sg14
(lp154
Vhttp://www.beckett.com/basketball/1999-00/fleer-focus/142a-todd-macculloch-sp-3202038
p155
asg17
g18
sg19
(lp156
Vhttp://img.beckett.com/images/no-image.jpg
p157
asg22
V#142A
p158
sg24
V1999-00
p159
sg130
VSP
p160
sg26
g27
sg28
(lp161
VTodd MacCulloch
p162
assbag1
(g2
g3
Ntp163
Rp164
(dp165
g7
(dp166
g9
V1999-00 Fleer Force #205 Jumaine Jones RC
p167
sg11
I1600
sg12
VFleer Force
p168
sg14
(lp169
Vhttp://www.beckett.com/basketball/1999-00/fleer-force/205-jumaine-jones-rc-3200279
p170
asg17
g18
sg83
I1
sg19
(lp171
Vhttp://img.beckett.com/images/items_stock/185226/3200062/3200279/front.jpg
p172
asg22
V#205
p173
sg24
V1999-00
p174
sg26
g27
sg28
(lp175
VJumaine Jones
p176
assbag1
(g2
g3
Ntp177
Rp178
(dp179
g7
(dp180
g9
V1999-00 Fleer Force #235 Todd MacCulloch RC
p181
sg11
I1600
sg12
VFleer Force
p182
sg14
(lp183
Vhttp://www.beckett.com/basketball/1999-00/fleer-force/235-todd-macculloch-rc-3200309
p184
asg17
g18
sg83
I1
sg19
(lp185
Vhttp://img.beckett.com/images/items_stock/185226/3200062/3200309/front.jpg
p186
asg22
V#235
p187
sg24
V1999-00
p188
sg26
g27
sg28
(lp189
VTodd MacCulloch
p190
assbag1
(g2
g3
Ntp191
Rp192
(dp193
g7
(dp194
g9
V1999-00 Fleer Mystique #111 Jumaine Jones RC
p195
sg11
I2999
sg12
VFleer Mystique
p196
sg14
(lp197
Vhttp://www.beckett.com/basketball/1999-00/fleer-mystique/111-jumaine-jones-rc-3198445
p198
asg17
g18
sg83
I1
sg19
(lp199
Vhttp://img.beckett.com/images/items_stock/185226/3198320/3198445/front.jpg
p200
asg22
V#111
p201
sg24
V1999-00
p202
sg26
g27
sg28
(lp203
VJumaine Jones
p204
assbag1
(g2
g3
Ntp205
Rp206
(dp207
g7
(dp208
g9
V1999-00 Fleer Mystique #140 Todd MacCulloch RC
p209
sg11
I2999
sg12
VFleer Mystique
p210
sg14
(lp211
Vhttp://www.beckett.com/basketball/1999-00/fleer-mystique/140-todd-macculloch-rc-3198474
p212
asg17
g18
sg83
I1
sg19
(lp213
Vhttp://img.beckett.com/images/items_stock/185226/3198320/3198474/front.jpg
p214
asg22
V#140
p215
sg24
V1999-00
p216
sg26
g27
sg28
(lp217
VTodd MacCulloch
p218
assbag1
(g2
g3
Ntp219
Rp220
(dp221
g7
(dp222
g9
V1999-00 Fleer Mystique #145 Allen Iverson STAR
p223
sg11
I2500
sg12
VFleer Mystique
p224
sg14
(lp225
Vhttp://www.beckett.com/basketball/1999-00/fleer-mystique/145-allen-iverson-star-3198479
p226
asg17
g18
sg19
(lp227
Vhttp://img.beckett.com/images/items_stock/185226/3198320/3198479/front.jpg
p228
asg22
V#145
p229
sg24
V1999-00
p230
sg130
VSTAR
p231
sg26
g27
sg28
(lp232
VAllen Iverson
p233
assbag1
(g2
g3
Ntp234
Rp235
(dp236
g7
(dp237
g9
V1999-00 SP Authentic #113 Jumaine Jones RC
p238
sg11
I1500
sg12
VSP Authentic
p239
sg14
(lp240
Vhttp://www.beckett.com/basketball/1999-00/sp-authentic/113-jumaine-jones-rc-3196258
p241
asg17
g18
sg83
I1
sg19
(lp242
Vhttp://img.beckett.com/images/no-image.jpg
p243
asg22
V#113
p244
sg24
V1999-00
p245
sg26
g27
sg28
(lp246
VJumaine Jones
p247
assbag1
(g2
g3
Ntp248
Rp249
(dp250
g7
(dp251
g9
V1999-00 SP Authentic #117 Todd MacCulloch RC
p252
sg11
I1500
sg12
VSP Authentic
p253
sg14
(lp254
Vhttp://www.beckett.com/basketball/1999-00/sp-authentic/117-todd-macculloch-rc-3196262
p255
asg17
g18
sg83
I1
sg19
(lp256
Vhttp://img.beckett.com/images/no-image.jpg
p257
asg22
V#117
p258
sg24
V1999-00
p259
sg26
g27
sg28
(lp260
VTodd MacCulloch
p261
assbag1
(g2
g3
Ntp262
Rp263
(dp264
g7
(dp265
g9
V1999-00 SPx #113 Jumaine Jones AU/2500 RC
p266
sg11
I2500
sg12
VSPx
p267
sg14
(lp268
Vhttp://www.beckett.com/basketball/1999-00/spx/113-jumaine-jones-au2500-rc-3193193
p269
asg17
g18
sg83
I1
sg19
(lp270
Vhttp://img.beckett.com/images/items_stock/185226/3193067/3193193/front.jpg
p271
asg22
V#113
p272
sg57
I1
sg24
V1999-00
p273
sg26
g27
sg28
(lp274
VJumaine Jones
p275
assbag1
(g2
g3
Ntp276
Rp277
(dp278
g7
(dp279
g9
V1999-00 UD Ionix #85 Jumaine Jones RC
p280
sg11
I3500
sg12
VUD Ionix
p281
sg14
(lp282
Vhttp://www.beckett.com/basketball/1999-00/ud-ionix/85-jumaine-jones-rc-3188015
p283
asg17
g18
sg83
I1
sg19
(lp284
Vhttp://img.beckett.com/images/items_stock/185226/3187919/3188015/front.jpg
p285
asg22
V#85
p286
sg24
V1999-00
p287
sg26
g27
sg28
(lp288
VJumaine Jones
p289
assbag1
(g2
g3
Ntp290
Rp291
(dp292
g7
(dp293
g9
V1999-00 UD Ionix #89 Todd MacCulloch RC
p294
sg11
I3500
sg12
VUD Ionix
p295
sg14
(lp296
Vhttp://www.beckett.com/basketball/1999-00/ud-ionix/89-todd-macculloch-rc-3188019
p297
asg17
g18
sg83
I1
sg19
(lp298
Vhttp://img.beckett.com/images/items_stock/185226/3187919/3188019/front.jpg
p299
asg22
V#89
p300
sg24
V1999-00
p301
sg26
g27
sg28
(lp302
VTodd MacCulloch
p303
assbag1
(g2
g3
Ntp304
Rp305
(dp306
g7
(dp307
g9
V1999-00 Upper Deck Encore #118 Todd MacCulloch RC
p308
sg11
I1999
sg12
VUpper Deck Encore
p309
sg14
(lp310
Vhttp://www.beckett.com/basketball/1999-00/upper-deck-encore/118-todd-macculloch-rc-3184727
p311
asg17
g18
sg83
I1
sg19
(lp312
Vhttp://img.beckett.com/images/items_stock/185226/3184598/3184727/front.jpg
p313
asg22
V#118
p314
sg24
V1999-00
p315
sg26
g27
sg28
(lp316
VTodd MacCulloch
p317
assbag1
(g2
g3
Ntp318
Rp319
(dp320
g7
(dp321
g9
V1999-00 Upper Deck Gold Reserve #265 Jumaine Jones RC
p322
sg11
I3500
sg12
VUpper Deck Gold Reserve
p323
sg14
(lp324
Vhttp://www.beckett.com/basketball/1999-00/upper-deck-gold-reserve/265-jumaine-jones-rc-3183569
p325
asg17
g18
sg83
I1
sg19
(lp326
Vhttp://img.beckett.com/images/items_stock/185226/3183293/3183569/front.jpg
p327
asg22
V#265
p328
sg24
V1999-00
p329
sg26
g27
sg28
(lp330
VJumaine Jones
p331
assbag1
(g2
g3
Ntp332
Rp333
(dp334
g7
(dp335
g9
V1999-00 Black Diamond Final Cut #60 Allen Iverson
p336
sg11
I100
sg12
VBlack Diamond Final Cut
p337
sg14
(lp338
Vhttp://www.beckett.com/basketball/1999-00/black-diamond-final-cut/60-allen-iverson-3205734
p339
asg17
g18
sg19
(lp340
Vhttp://img.beckett.com/images/no-image.jpg
p341
asg22
V#60
p342
sg24
V1999-00
p343
sg26
g27
sg28
(lp344
VAllen Iverson
p345
assbag1
(g2
g3
Ntp346
Rp347
(dp348
g7
(dp349
g9
V1999-00 Black Diamond Final Cut #61 Theo Ratliff
p350
sg11
I100
sg12
VBlack Diamond Final Cut
p351
sg14
(lp352
Vhttp://www.beckett.com/basketball/1999-00/black-diamond-final-cut/61-theo-ratliff-3205735
p353
asg17
g18
sg19
(lp354
Vhttp://img.beckett.com/images/no-image.jpg
p355
asg22
V#61
p356
sg24
V1999-00
p357
sg26
g27
sg28
(lp358
VTheo Ratliff
p359
assbag1
(g2
g3
Ntp360
Rp361
(dp362
g7
(dp363
g9
V1999-00 Black Diamond Final Cut #62 Larry Hughes
p364
sg11
I100
sg12
VBlack Diamond Final Cut
p365
sg14
(lp366
Vhttp://www.beckett.com/basketball/1999-00/black-diamond-final-cut/62-larry-hughes-3205736
p367
asg17
g18
sg19
(lp368
Vhttp://img.beckett.com/images/no-image.jpg
p369
asg22
V#62
p370
sg24
V1999-00
p371
sg26
g27
sg28
(lp372
VLarry Hughes
p373
assbag1
(g2
g3
Ntp374
Rp375
(dp376
g7
(dp377
g9
V1999-00 Black Diamond Final Cut #115 Jumaine Jones
p378
sg11
I50
sg12
VBlack Diamond Final Cut
p379
sg14
(lp380
Vhttp://www.beckett.com/basketball/1999-00/black-diamond-final-cut/115-jumaine-jones-3205789
p381
asg17
g18
sg19
(lp382
Vhttp://img.beckett.com/images/no-image.jpg
p383
asg22
V#115
p384
sg24
V1999-00
p385
sg26
g27
sg28
(lp386
VJumaine Jones
p387
assbag1
(g2
g3
Ntp388
Rp389
(dp390
g7
(dp391
g9
V1999-00 Bowman's Best Atomic Refractors #8 Theo Ratliff
p392
sg11
I100
sg12
VBowman's Best Atomic Refractors
p393
sg14
(lp394
Vhttp://www.beckett.com/basketball/1999-00/bowmans-best-atomic-refractors/8-theo-ratliff-3204795
p395
asg17
g18
sg19
(lp396
Vhttp://img.beckett.com/images/no-image.jpg
p397
asg22
V#8
p398
sg24
V1999-00
p399
sg26
g27
sg28
(lp400
VTheo Ratliff
p401
assbag1
(g2
g3
Ntp402
Rp403
(dp404
g7
(dp405
g9
V1999-00 Bowman's Best Atomic Refractors #29 Larry Hughes
p406
sg11
I100
sg12
VBowman's Best Atomic Refractors
p407
sg14
(lp408
Vhttp://www.beckett.com/basketball/1999-00/bowmans-best-atomic-refractors/29-larry-hughes-3204816
p409
asg17
g18
sg19
(lp410
Vhttp://img.beckett.com/images/items_stock/185226/3204779/3204816/front.jpg
p411
asg22
V#29
p412
sg24
V1999-00
p413
sg26
g27
sg28
(lp414
VLarry Hughes
p415
assbag1
(g2
g3
Ntp416
Rp417
(dp418
g7
(dp419
g9
V1999-00 Bowman's Best Atomic Refractors #75 Allen Iverson
p420
sg11
I100
sg12
VBowman's Best Atomic Refractors
p421
sg14
(lp422
Vhttp://www.beckett.com/basketball/1999-00/bowmans-best-atomic-refractors/75-allen-iverson-3204862
p423
asg17
g18
sg19
(lp424
Vhttp://img.beckett.com/images/no-image.jpg
p425
asg22
V#75
p426
sg24
V1999-00
p427
sg26
g27
sg28
(lp428
VAllen Iverson
p429
assbag1
(g2
g3
Ntp430
Rp431
(dp432
g7
(dp433
g9
V1999-00 Bowman's Best Atomic Refractors #91 Allen Iverson BP
p434
sg11
I100
sg12
VBowman's Best Atomic Refractors
p435
sg14
(lp436
Vhttp://www.beckett.com/basketball/1999-00/bowmans-best-atomic-refractors/91-allen-iverson-bp-3204878
p437
asg17
g18
sg19
(lp438
Vhttp://img.beckett.com/images/no-image.jpg
p439
asg22
V#91
p440
sg24
V1999-00
p441
sg130
VBP
p442
sg26
g27
sg28
(lp443
VAllen Iverson
p444
assbag1
(g2
g3
Ntp445
Rp446
(dp447
g7
(dp448
g9
V1999-00 Bowman's Best Atomic Refractors #126 Jumaine Jones
p449
sg11
I100
sg12
VBowman's Best Atomic Refractors
p450
sg14
(lp451
Vhttp://www.beckett.com/basketball/1999-00/bowmans-best-atomic-refractors/126-jumaine-jones-3204913
p452
asg17
g18
sg19
(lp453
Vhttp://img.beckett.com/images/no-image.jpg
p454
asg22
V#126
p455
sg24
V1999-00
p456
sg26
g27
sg28
(lp457
VJumaine Jones
p458
assbag1
(g2
g3
Ntp459
Rp460
(dp461
g7
(dp462
g9
V1999-00 Bowman's Best Atomic Refractors #130 Todd MacCulloch
p463
sg11
I100
sg12
VBowman's Best Atomic Refractors
p464
sg14
(lp465
Vhttp://www.beckett.com/basketball/1999-00/bowmans-best-atomic-refractors/130-todd-macculloch-3204917
p466
asg17
g18
sg19
(lp467
Vhttp://img.beckett.com/images/no-image.jpg
p468
asg22
V#130
p469
sg24
V1999-00
p470
sg26
g27
sg28
(lp471
VTodd MacCulloch
p472
assbag1
(g2
g3
Ntp473
Rp474
(dp475
g7
(dp476
g9
V1999-00 Bowman's Best Refractors #8 Theo Ratliff
p477
sg11
I400
sg12
VBowman's Best Refractors
p478
sg14
(lp479
Vhttp://www.beckett.com/basketball/1999-00/bowmans-best-refractors/8-theo-ratliff-3204653
p480
asg17
g18
sg19
(lp481
Vhttp://img.beckett.com/images/items_stock/185226/3204637/3204653/front.jpg
p482
asg22
V#8
p483
sg24
V1999-00
p484
sg26
g27
sg28
(lp485
VTheo Ratliff
p486
assbag1
(g2
g3
Ntp487
Rp488
(dp489
g7
(dp490
g9
V1999-00 Bowman's Best Refractors #29 Larry Hughes
p491
sg11
I400
sg12
VBowman's Best Refractors
p492
sg14
(lp493
Vhttp://www.beckett.com/basketball/1999-00/bowmans-best-refractors/29-larry-hughes-3204674
p494
asg17
g18
sg19
(lp495
Vhttp://img.beckett.com/images/items_stock/185226/3204637/3204674/front.jpg
p496
asg22
V#29
p497
sg24
V1999-00
p498
sg26
g27
sg28
(lp499
VLarry Hughes
p500
assbag1
(g2
g3
Ntp501
Rp502
(dp503
g7
(dp504
g9
V1999-00 Bowman's Best Refractors #75 Allen Iverson
p505
sg11
I400
sg12
VBowman's Best Refractors
p506
sg14
(lp507
Vhttp://www.beckett.com/basketball/1999-00/bowmans-best-refractors/75-allen-iverson-3204720
p508
asg17
g18
sg19
(lp509
Vhttp://img.beckett.com/images/items_stock/185226/3204637/3204720/front.jpg
p510
asg22
V#75
p511
sg24
V1999-00
p512
sg26
g27
sg28
(lp513
VAllen Iverson
p514
assbag1
(g2
g3
Ntp515
Rp516
(dp517
g7
(dp518
g9
V1999-00 Bowman's Best Refractors #91 Allen Iverson BP
p519
sg11
I400
sg12
VBowman's Best Refractors
p520
sg14
(lp521
Vhttp://www.beckett.com/basketball/1999-00/bowmans-best-refractors/91-allen-iverson-bp-3204736
p522
asg17
g18
sg19
(lp523
Vhttp://img.beckett.com/images/items_stock/185226/3204637/3204736/front.jpg
p524
asg22
V#91
p525
sg24
V1999-00
p526
sg130
VBP
p527
sg26
g27
sg28
(lp528
VAllen Iverson
p529
assbag1
(g2
g3
Ntp530
Rp531
(dp532
g7
(dp533
g9
V1999-00 Bowman's Best Refractors #126 Jumaine Jones
p534
sg11
I400
sg12
VBowman's Best Refractors
p535
sg14
(lp536
Vhttp://www.beckett.com/basketball/1999-00/bowmans-best-refractors/126-jumaine-jones-3204771
p537
asg17
g18
sg19
(lp538
Vhttp://img.beckett.com/images/items_stock/185226/3204637/3204771/front.jpg
p539
asg22
V#126
p540
sg24
V1999-00
p541
sg26
g27
sg28
(lp542
VJumaine Jones
p543
assbag1
(g2
g3
Ntp544
Rp545
(dp546
g7
(dp547
g9
V1999-00 Bowman's Best Refractors #130 Todd MacCulloch
p548
sg11
I400
sg12
VBowman's Best Refractors
p549
sg14
(lp550
Vhttp://www.beckett.com/basketball/1999-00/bowmans-best-refractors/130-todd-macculloch-3204775
p551
asg17
g18
sg19
(lp552
Vhttp://img.beckett.com/images/items_stock/185226/3204637/3204775/front.jpg
p553
asg22
V#130
p554
sg24
V1999-00
p555
sg26
g27
sg28
(lp556
VTodd MacCulloch
p557
assbag1
(g2
g3
Ntp558
Rp559
(dp560
g7
(dp561
g9
V1999-00 Finest Refractors Gold #50 Matt Geiger
p562
sg11
I100
sg12
VFinest Refractors Gold
p563
sg14
(lp564
Vhttp://www.beckett.com/basketball/1999-00/finest-refractors-gold/50-matt-geiger-3203962
p565
asg17
g18
sg19
(lp566
Vhttp://img.beckett.com/images/items_stock/185226/3203898/3203962/front.jpg
p567
asg22
V#50
p568
sg24
V1999-00
p569
sg26
g27
sg28
(lp570
VMatt Geiger
p571
assbag1
(g2
g3
Ntp572
Rp573
(dp574
g7
(dp575
g9
V1999-00 Finest Refractors Gold #51 Larry Hughes
p576
sg11
I100
sg12
VFinest Refractors Gold
p577
sg14
(lp578
Vhttp://www.beckett.com/basketball/1999-00/finest-refractors-gold/51-larry-hughes-3203963
p579
asg17
g18
sg19
(lp580
Vhttp://img.beckett.com/images/items_stock/185226/3203898/3203963/front.jpg
p581
asg22
V#51
p582
sg24
V1999-00
p583
sg26
g27
sg28
(lp584
VLarry Hughes
p585
assbag1
(g2
g3
Ntp586
Rp587
(dp588
g7
(dp589
g9
V1999-00 Finest Refractors Gold #78 Allen Iverson
p590
sg11
I100
sg12
VFinest Refractors Gold
p591
sg14
(lp592
Vhttp://www.beckett.com/basketball/1999-00/finest-refractors-gold/78-allen-iverson-3203990
p593
asg17
g18
sg19
(lp594
Vhttp://img.beckett.com/images/no-image.jpg
p595
asg22
V#78
p596
sg24
V1999-00
p597
sg26
g27
sg28
(lp598
VAllen Iverson
p599
assbag1
(g2
g3
Ntp600
Rp601
(dp602
g7
(dp603
g9
V1999-00 Finest Refractors Gold #91 Theo Ratliff
p604
sg11
I100
sg12
VFinest Refractors Gold
p605
sg14
(lp606
Vhttp://www.beckett.com/basketball/1999-00/finest-refractors-gold/91-theo-ratliff-3204003
p607
asg17
g18
sg19
(lp608
Vhttp://img.beckett.com/images/items_stock/185226/3203898/3204003/front.jpg
p609
asg22
V#91
p610
sg24
V1999-00
p611
sg26
g27
sg28
(lp612
VTheo Ratliff
p613
assbag1
(g2
g3
Ntp614
Rp615
(dp616
g7
(dp617
g9
V1999-00 Finest Refractors Gold #114 Jumaine Jones
p618
sg11
I100
sg12
VFinest Refractors Gold
p619
sg14
(lp620
Vhttp://www.beckett.com/basketball/1999-00/finest-refractors-gold/114-jumaine-jones-3204026
p621
asg17
g18
sg19
(lp622
Vhttp://img.beckett.com/images/no-image.jpg
p623
asg22
V#114
p624
sg24
V1999-00
p625
sg26
g27
sg28
(lp626
VJumaine Jones
p627
assbag1
(g2
g3
Ntp628
Rp629
(dp630
g7
(dp631
g9
V1999-00 Finest Refractors Gold #159 George Lynch
p632
sg11
I100
sg12
VFinest Refractors Gold
p633
sg14
(lp634
Vhttp://www.beckett.com/basketball/1999-00/finest-refractors-gold/159-george-lynch-3204071
p635
asg17
g18
sg19
(lp636
Vhttp://img.beckett.com/images/no-image.jpg
p637
asg22
V#159
p638
sg24
V1999-00
p639
sg26
g27
sg28
(lp640
VGeorge Lynch
p641
assbag1
(g2
g3
Ntp642
Rp643
(dp644
g7
(dp645
g9
V1999-00 Finest Refractors Gold #183 Eric Snow
p646
sg11
I100
sg12
VFinest Refractors Gold
p647
sg14
(lp648
Vhttp://www.beckett.com/basketball/1999-00/finest-refractors-gold/183-eric-snow-3204095
p649
asg17
g18
sg19
(lp650
Vhttp://img.beckett.com/images/no-image.jpg
p651
asg22
V#183
p652
sg24
V1999-00
p653
sg26
g27
sg28
(lp654
VEric Snow
p655
assbag1
(g2
g3
Ntp656
Rp657
(dp658
g7
(dp659
g9
V1999-00 Finest Refractors Gold #208 Tyrone Hill
p660
sg11
I100
sg12
VFinest Refractors Gold
p661
sg14
(lp662
Vhttp://www.beckett.com/basketball/1999-00/finest-refractors-gold/208-tyrone-hill-3204120
p663
asg17
g18
sg19
(lp664
Vhttp://img.beckett.com/images/no-image.jpg
p665
asg22
V#208
p666
sg24
V1999-00
p667
sg26
g27
sg28
(lp668
VTyrone Hill
p669
assbag1
(g2
g3
Ntp670
Rp671
(dp672
g7
(dp673
g9
V1999-00 Flair Showcase Legacy Collection #11 Larry Hughes
p674
sg11
I20
sg12
VFlair Showcase Legacy Collection
p675
sg14
(lp676
Vhttp://www.beckett.com/basketball/1999-00/flair-showcase-legacy-collection/11-larry-hughes-3202935
p677
asg17
g18
sg19
(lp678
Vhttp://img.beckett.com/images/no-image.jpg
p679
asg22
V#11
p680
sg24
V1999-00
p681
sg26
g27
sg28
(lp682
VLarry Hughes
p683
assbag1
(g2
g3
Ntp684
Rp685
(dp686
g7
(dp687
g9
V1999-00 Flair Showcase Legacy Collection #32 Matt Geiger
p688
sg11
I20
sg12
VFlair Showcase Legacy Collection
p689
sg14
(lp690
Vhttp://www.beckett.com/basketball/1999-00/flair-showcase-legacy-collection/32-matt-geiger-3202956
p691
asg17
g18
sg19
(lp692
Vhttp://img.beckett.com/images/no-image.jpg
p693
asg22
V#32
p694
sg24
V1999-00
p695
sg26
g27
sg28
(lp696
VMatt Geiger
p697
assbag1
(g2
g3
Ntp698
Rp699
(dp700
g7
(dp701
g9
V1999-00 Flair Showcase Legacy Collection #67 Allen Iverson
p702
sg11
I20
sg12
VFlair Showcase Legacy Collection
p703
sg14
(lp704
Vhttp://www.beckett.com/basketball/1999-00/flair-showcase-legacy-collection/67-allen-iverson-3202991
p705
asg17
g18
sg19
(lp706
Vhttp://img.beckett.com/images/no-image.jpg
p707
asg22
V#67
p708
sg24
V1999-00
p709
sg26
g27
sg28
(lp710
VAllen Iverson
p711
assbag1
(g2
g3
Ntp712
Rp713
(dp714
g7
(dp715
g9
V1999-00 Flair Showcase Legacy Collection #124 Jumaine Jones
p716
sg11
I20
sg12
VFlair Showcase Legacy Collection
p717
sg14
(lp718
Vhttp://www.beckett.com/basketball/1999-00/flair-showcase-legacy-collection/124-jumaine-jones-3203048
p719
asg17
g18
sg19
(lp720
Vhttp://img.beckett.com/images/no-image.jpg
p721
asg22
V#124
p722
sg24
V1999-00
p723
sg26
g27
sg28
(lp724
VJumaine Jones
p725
assbag1
(g2
g3
Ntp726
Rp727
(dp728
g7
(dp729
g9
V1999-00 Flair Showcase Masterpiece #11 Larry Hughes
p730
sg11
I1
sg12
VFlair Showcase Masterpiece
p731
sg14
(lp732
Vhttp://www.beckett.com/basketball/1999-00/flair-showcase-masterpiece/11-larry-hughes-3203070
p733
asg17
g18
sg19
(lp734
Vhttp://img.beckett.com/images/no-image.jpg
p735
asg22
V#11
p736
sg24
V1999-00
p737
sg26
g27
sg28
(lp738
VLarry Hughes
p739
assbag1
(g2
g3
Ntp740
Rp741
(dp742
g7
(dp743
g9
V1999-00 Flair Showcase Masterpiece #32 Matt Geiger
p744
sg11
I1
sg12
VFlair Showcase Masterpiece
p745
sg14
(lp746
Vhttp://www.beckett.com/basketball/1999-00/flair-showcase-masterpiece/32-matt-geiger-3203091
p747
asg17
g18
sg19
(lp748
Vhttp://img.beckett.com/images/no-image.jpg
p749
asg22
V#32
p750
sg24
V1999-00
p751
sg26
g27
sg28
(lp752
VMatt Geiger
p753
assbag1
(g2
g3
Ntp754
Rp755
(dp756
g7
(dp757
g9
V1999-00 Flair Showcase Masterpiece #67 Allen Iverson
p758
sg11
I1
sg12
VFlair Showcase Masterpiece
p759
sg14
(lp760
Vhttp://www.beckett.com/basketball/1999-00/flair-showcase-masterpiece/67-allen-iverson-3203126
p761
asg17
g18
sg19
(lp762
Vhttp://img.beckett.com/images/no-image.jpg
p763
asg22
V#67
p764
sg24
V1999-00
p765
sg26
g27
sg28
(lp766
VAllen Iverson
p767
assbag1
(g2
g3
Ntp768
Rp769
(dp770
g7
(dp771
g9
V1999-00 Flair Showcase Masterpiece #124 Jumaine Jones
p772
sg11
I1
sg12
VFlair Showcase Masterpiece
p773
sg14
(lp774
Vhttp://www.beckett.com/basketball/1999-00/flair-showcase-masterpiece/124-jumaine-jones-3203183
p775
asg17
g18
sg19
(lp776
Vhttp://img.beckett.com/images/no-image.jpg
p777
asg22
V#124
p778
sg24
V1999-00
p779
sg26
g27
sg28
(lp780
VJumaine Jones
p781
assbag1
(g2
g3
Ntp782
Rp783
(dp784
g7
(dp785
g9
V1999-00 Fleer Supreme Court Collection #34 Matt Geiger
p786
sg11
I20
sg12
VFleer Supreme Court Collection
p787
sg14
(lp788
Vhttp://www.beckett.com/basketball/1999-00/fleer-supreme-court-collection/34-matt-geiger-3201540
p789
asg17
g18
sg19
(lp790
Vhttp://img.beckett.com/images/no-image.jpg
p791
asg22
V#34
p792
sg24
V1999-00
p793
sg26
g27
sg28
(lp794
VMatt Geiger
p795
assbag1
(g2
g3
Ntp796
Rp797
(dp798
g7
(dp799
g9
V1999-00 Fleer Supreme Court Collection #64 Tyrone Hill
p800
sg11
I20
sg12
VFleer Supreme Court Collection
p801
sg14
(lp802
Vhttp://www.beckett.com/basketball/1999-00/fleer-supreme-court-collection/64-tyrone-hill-3201570
p803
asg17
g18
sg19
(lp804
Vhttp://img.beckett.com/images/no-image.jpg
p805
asg22
V#64
p806
sg24
V1999-00
p807
sg26
g27
sg28
(lp808
VTyrone Hill
p809
assbag1
(g2
g3
Ntp810
Rp811
(dp812
g7
(dp813
g9
V1999-00 Fleer Supreme Court Collection #94 Larry Hughes
p814
sg11
I20
sg12
VFleer Supreme Court Collection
p815
sg14
(lp816
Vhttp://www.beckett.com/basketball/1999-00/fleer-supreme-court-collection/94-larry-hughes-3201600
p817
asg17
g18
sg19
(lp818
Vhttp://img.beckett.com/images/no-image.jpg
p819
asg22
V#94
p820
sg24
V1999-00
p821
sg26
g27
sg28
(lp822
VLarry Hughes
p823
assbag1
(g2
g3
Ntp824
Rp825
(dp826
g7
(dp827
g9
V1999-00 Fleer Supreme Court Collection #123 Allen Iverson
p828
sg11
I20
sg12
VFleer Supreme Court Collection
p829
sg14
(lp830
Vhttp://www.beckett.com/basketball/1999-00/fleer-supreme-court-collection/123-allen-iverson-3201629
p831
asg17
g18
sg19
(lp832
Vhttp://img.beckett.com/images/no-image.jpg
p833
asg22
V#123
p834
sg24
V1999-00
p835
sg26
g27
sg28
(lp836
VAllen Iverson
p837
assbag1
(g2
g3
Ntp838
Rp839
(dp840
g7
(dp841
g9
V1999-00 Fleer Supreme Court Collection #152 George Lynch
p842
sg11
I20
sg12
VFleer Supreme Court Collection
p843
sg14
(lp844
Vhttp://www.beckett.com/basketball/1999-00/fleer-supreme-court-collection/152-george-lynch-3201658
p845
asg17
g18
sg19
(lp846
Vhttp://img.beckett.com/images/no-image.jpg
p847
asg22
V#152
p848
sg24
V1999-00
p849
sg26
g27
sg28
(lp850
VGeorge Lynch
p851
assbag1
(g2
g3
Ntp852
Rp853
(dp854
g7
(dp855
g9
V1999-00 Fleer Supreme Court Collection #180 Nazr Mohammed
p856
sg11
I20
sg12
VFleer Supreme Court Collection
p857
sg14
(lp858
Vhttp://www.beckett.com/basketball/1999-00/fleer-supreme-court-collection/180-nazr-mohammed-3201686
p859
asg17
g18
sg19
(lp860
Vhttp://img.beckett.com/images/items_stock/185226/3201498/3201686/front.jpg
p861
asg22
V#180
p862
sg24
V1999-00
p863
sg26
g27
sg28
(lp864
VNazr Mohammed
p865
assbag1
(g2
g3
Ntp866
Rp867
(dp868
g7
(dp869
g9
V1999-00 Fleer Supreme Court Collection #199 Theo Ratliff
p870
sg11
I20
sg12
VFleer Supreme Court Collection
p871
sg14
(lp872
Vhttp://www.beckett.com/basketball/1999-00/fleer-supreme-court-collection/199-theo-ratliff-3201705
p873
asg17
g18
sg19
(lp874
Vhttp://img.beckett.com/images/no-image.jpg
p875
asg22
V#199
p876
sg24
V1999-00
p877
sg26
g27
sg28
(lp878
VTheo Ratliff
p879
assbag1
(g2
g3
Ntp880
Rp881
(dp882
g7
(dp883
g9
V1999-00 Fleer Supreme Court Collection #205 Jumaine Jones
p884
sg11
I20
sg12
VFleer Supreme Court Collection
p885
sg14
(lp886
Vhttp://www.beckett.com/basketball/1999-00/fleer-supreme-court-collection/205-jumaine-jones-3201711
p887
asg17
g18
sg19
(lp888
Vhttp://img.beckett.com/images/no-image.jpg
p889
asg22
V#205
p890
sg24
V1999-00
p891
sg26
g27
sg28
(lp892
VJumaine Jones
p893
assbag1
(g2
g3
Ntp894
Rp895
(dp896
g7
(dp897
g9
V1999-00 Fleer Focus Masterpiece Mania #18 Allen Iverson
p898
sg11
I300
sg12
VFleer Focus Masterpiece Mania
p899
sg14
(lp900
Vhttp://www.beckett.com/basketball/1999-00/fleer-focus-masterpiece-mania/18-allen-iverson-3202237
p901
asg17
g18
sg19
(lp902
Vhttp://img.beckett.com/images/items_stock/185226/3202210/3202237/front.jpg
p903
asg22
V#18
p904
sg24
V1999-00
p905
sg26
g27
sg28
(lp906
VAllen Iverson
p907
assbag1
(g2
g3
Ntp908
Rp909
(dp910
g7
(dp911
g9
V1999-00 Fleer Focus Masterpiece Mania #63 Larry Hughes
p912
sg11
I300
sg12
VFleer Focus Masterpiece Mania
p913
sg14
(lp914
Vhttp://www.beckett.com/basketball/1999-00/fleer-focus-masterpiece-mania/63-larry-hughes-3202282
p915
asg17
g18
sg19
(lp916
Vhttp://img.beckett.com/images/items_stock/185226/3202210/3202282/front.jpg
p917
asg22
V#63
p918
sg24
V1999-00
p919
sg26
g27
sg28
(lp920
VLarry Hughes
p921
assbag1
(g2
g3
Ntp922
Rp923
(dp924
g7
(dp925
g9
V1999-00 Fleer Focus Masterpiece Mania #73 Matt Geiger
p926
sg11
I300
sg12
VFleer Focus Masterpiece Mania
p927
sg14
(lp928
Vhttp://www.beckett.com/basketball/1999-00/fleer-focus-masterpiece-mania/73-matt-geiger-3202292
p929
asg17
g18
sg19
(lp930
Vhttp://img.beckett.com/images/items_stock/185226/3202210/3202292/front.jpg
p931
asg22
V#73
p932
sg24
V1999-00
p933
sg26
g27
sg28
(lp934
VMatt Geiger
p935
assbag1
(g2
g3
Ntp936
Rp937
(dp938
g7
(dp939
g9
V1999-00 Fleer Focus Masterpiece Mania #126 Jumaine Jones
p940
sg11
I300
sg12
VFleer Focus Masterpiece Mania
p941
sg14
(lp942
Vhttp://www.beckett.com/basketball/1999-00/fleer-focus-masterpiece-mania/126-jumaine-jones-3202345
p943
asg17
g18
sg19
(lp944
Vhttp://img.beckett.com/images/items_stock/185226/3202210/3202345/front.jpg
p945
asg22
V#126
p946
sg24
V1999-00
p947
sg26
g27
sg28
(lp948
VJumaine Jones
p949
assbag1
(g2
g3
Ntp950
Rp951
(dp952
g7
(dp953
g9
V1999-00 Fleer Focus Masterpiece Mania #142 Todd MacCulloch
p954
sg11
I300
sg12
VFleer Focus Masterpiece Mania
p955
sg14
(lp956
Vhttp://www.beckett.com/basketball/1999-00/fleer-focus-masterpiece-mania/142-todd-macculloch-3202361
p957
asg17
g18
sg19
(lp958
Vhttp://img.beckett.com/images/no-image.jpg
p959
asg22
V#142
p960
sg24
V1999-00
p961
sg26
g27
sg28
(lp962
VTodd MacCulloch
p963
assbag1
(g2
g3
Ntp964
Rp965
(dp966
g7
(dp967
g9
V1999-00 Fleer Focus Masterpieces #18 Allen Iverson
p968
sg11
I1
sg12
VFleer Focus Masterpieces
p969
sg14
(lp970
Vhttp://www.beckett.com/basketball/1999-00/fleer-focus-masterpieces/18-allen-iverson-3202077
p971
asg17
g18
sg19
(lp972
Vhttp://img.beckett.com/images/no-image.jpg
p973
asg22
V#18
p974
sg24
V1999-00
p975
sg26
g27
sg28
(lp976
VAllen Iverson
p977
assbag1
(g2
g3
Ntp978
Rp979
(dp980
g7
(dp981
g9
V1999-00 Fleer Focus Masterpieces #63 Larry Hughes
p982
sg11
I1
sg12
VFleer Focus Masterpieces
p983
sg14
(lp984
Vhttp://www.beckett.com/basketball/1999-00/fleer-focus-masterpieces/63-larry-hughes-3202122
p985
asg17
g18
sg19
(lp986
Vhttp://img.beckett.com/images/no-image.jpg
p987
asg22
V#63
p988
sg24
V1999-00
p989
sg26
g27
sg28
(lp990
VLarry Hughes
p991
assbag1
(g2
g3
Ntp992
Rp993
(dp994
g7
(dp995
g9
V1999-00 Fleer Focus Masterpieces #73 Matt Geiger
p996
sg11
I1
sg12
VFleer Focus Masterpieces
p997
sg14
(lp998
Vhttp://www.beckett.com/basketball/1999-00/fleer-focus-masterpieces/73-matt-geiger-3202132
p999
asg17
g18
sg19
(lp1000
Vhttp://img.beckett.com/images/no-image.jpg
p1001
asg22
V#73
p1002
sg24
V1999-00
p1003
sg26
g27
sg28
(lp1004
VMatt Geiger
p1005
assbag1
(g2
g3
Ntp1006
Rp1007
(dp1008
g7
(dp1009
g9
V1999-00 Fleer Focus Masterpieces #126 Jumaine Jones
p1010
sg11
I1
sg12
VFleer Focus Masterpieces
p1011
sg14
(lp1012
Vhttp://www.beckett.com/basketball/1999-00/fleer-focus-masterpieces/126-jumaine-jones-3202185
p1013
asg17
g18
sg19
(lp1014
Vhttp://img.beckett.com/images/no-image.jpg
p1015
asg22
V#126
p1016
sg24
V1999-00
p1017
sg26
g27
sg28
(lp1018
VJumaine Jones
p1019
assbag1
(g2
g3
Ntp1020
Rp1021
(dp1022
g7
(dp1023
g9
V1999-00 Fleer Focus Masterpieces #142 Todd MacCulloch
p1024
sg11
I1
sg12
VFleer Focus Masterpieces
p1025
sg14
(lp1026
Vhttp://www.beckett.com/basketball/1999-00/fleer-focus-masterpieces/142-todd-macculloch-3202201
p1027
asg17
g18
sg19
(lp1028
Vhttp://img.beckett.com/images/no-image.jpg
p1029
asg22
V#142
p1030
sg24
V1999-00
p1031
sg26
g27
sg28
(lp1032
VTodd MacCulloch
p1033
assbag1
(g2
g3
Ntp1034
Rp1035
(dp1036
g7
(dp1037
g9
V1999-00 Fleer Force Forcefield #205 Jumaine Jones
p1038
sg11
I100
sg12
VFleer Force Forcefield
p1039
sg14
(lp1040
Vhttp://www.beckett.com/basketball/1999-00/fleer-force-forcefield/205-jumaine-jones-3200527
p1041
asg17
g18
sg19
(lp1042
Vhttp://img.beckett.com/images/no-image.jpg
p1043
asg22
V#205
p1044
sg24
V1999-00
p1045
sg26
g27
sg28
(lp1046
VJumaine Jones
p1047
assbag1
(g2
g3
Ntp1048
Rp1049
(dp1050
g7
(dp1051
g9
V1999-00 Fleer Force Forcefield #235 Todd MacCulloch
p1052
sg11
I100
sg12
VFleer Force Forcefield
p1053
sg14
(lp1054
Vhttp://www.beckett.com/basketball/1999-00/fleer-force-forcefield/235-todd-macculloch-3200557
p1055
asg17
g18
sg19
(lp1056
Vhttp://img.beckett.com/images/no-image.jpg
p1057
asg22
V#235
p1058
sg24
V1999-00
p1059
sg26
g27
sg28
(lp1060
VTodd MacCulloch
p1061
assbag1
(g2
g3
Ntp1062
Rp1063
(dp1064
g7
(dp1065
g9
V1999-00 Fleer Mystique Masterpiece #1 Allen Iverson
p1066
sg11
I1
sg12
VFleer Mystique Masterpiece
p1067
sg14
(lp1068
Vhttp://www.beckett.com/basketball/1999-00/fleer-mystique-masterpiece/1-allen-iverson-3198597
p1069
asg17
g18
sg19
(lp1070
Vhttp://img.beckett.com/images/no-image.jpg
p1071
asg22
V#1
p1072
sg24
V1999-00
p1073
sg26
g27
sg28
(lp1074
VAllen Iverson
p1075
assbag1
(g2
g3
Ntp1076
Rp1077
(dp1078
g7
(dp1079
g9
V1999-00 Fleer Mystique Masterpiece #97 Larry Hughes
p1080
sg11
I1
sg12
VFleer Mystique Masterpiece
p1081
sg14
(lp1082
Vhttp://www.beckett.com/basketball/1999-00/fleer-mystique-masterpiece/97-larry-hughes-3198693
p1083
asg17
g18
sg19
(lp1084
Vhttp://img.beckett.com/images/no-image.jpg
p1085
asg22
V#97
p1086
sg24
V1999-00
p1087
sg26
g27
sg28
(lp1088
VLarry Hughes
p1089
assbag1
(g2
g3
Ntp1090
Rp1091
(dp1092
g7
(dp1093
g9
V1999-00 Fleer Mystique Masterpiece #111 Jumaine Jones
p1094
sg11
I1
sg12
VFleer Mystique Masterpiece
p1095
sg14
(lp1096
Vhttp://www.beckett.com/basketball/1999-00/fleer-mystique-masterpiece/111-jumaine-jones-3198707
p1097
asg17
g18
sg19
(lp1098
Vhttp://img.beckett.com/images/no-image.jpg
p1099
asg22
V#111
p1100
sg24
V1999-00
p1101
sg26
g27
sg28
(lp1102
VJumaine Jones
p1103
assbag1
(g2
g3
Ntp1104
Rp1105
(dp1106
g7
(dp1107
g9
V1999-00 Fleer Mystique Masterpiece #140 Todd MacCulloch
p1108
sg11
I1
sg12
VFleer Mystique Masterpiece
p1109
sg14
(lp1110
Vhttp://www.beckett.com/basketball/1999-00/fleer-mystique-masterpiece/140-todd-macculloch-3198736
p1111
asg17
g18
sg19
(lp1112
Vhttp://img.beckett.com/images/no-image.jpg
p1113
asg22
V#140
p1114
sg24
V1999-00
p1115
sg26
g27
sg28
(lp1116
VTodd MacCulloch
p1117
assbag1
(g2
g3
Ntp1118
Rp1119
(dp1120
g7
(dp1121
g9
V1999-00 Fleer Mystique Masterpiece #145 Allen Iverson STAR
p1122
sg11
I1
sg12
VFleer Mystique Masterpiece
p1123
sg14
(lp1124
Vhttp://www.beckett.com/basketball/1999-00/fleer-mystique-masterpiece/145-allen-iverson-star-3198741
p1125
asg17
g18
sg19
(lp1126
Vhttp://img.beckett.com/images/no-image.jpg
p1127
asg22
V#145
p1128
sg24
V1999-00
p1129
sg130
VSTAR
p1130
sg26
g27
sg28
(lp1131
VAllen Iverson
p1132
assbag1
(g2
g3
Ntp1133
Rp1134
(dp1135
g7
(dp1136
g9
V1999-00 Hoops Starting Five #40 Matt Geiger
p1137
sg11
I5
sg12
VHoops Starting Five
p1138
sg14
(lp1139
Vhttp://www.beckett.com/basketball/1999-00/hoops-starting-five/40-matt-geiger-3199102
p1140
asg17
g18
sg19
(lp1141
Vhttp://img.beckett.com/images/no-image.jpg
p1142
asg22
V#40
p1143
sg24
V1999-00
p1144
sg26
g27
sg28
(lp1145
VMatt Geiger
p1146
assbag1
(g2
g3
Ntp1147
Rp1148
(dp1149
g7
(dp1150
g9
V1999-00 Hoops Starting Five #46 George Lynch
p1151
sg11
I5
sg12
VHoops Starting Five
p1152
sg14
(lp1153
Vhttp://www.beckett.com/basketball/1999-00/hoops-starting-five/46-george-lynch-3199108
p1154
asg17
g18
sg19
(lp1155
Vhttp://img.beckett.com/images/no-image.jpg
p1156
asg22
V#46
p1157
sg24
V1999-00
p1158
sg26
g27
sg28
(lp1159
VGeorge Lynch
p1160
assbag1
(g2
g3
Ntp1161
Rp1162
(dp1163
g7
(dp1164
g9
V1999-00 Hoops Starting Five #71 Theo Ratliff
p1165
sg11
I5
sg12
VHoops Starting Five
p1166
sg14
(lp1167
Vhttp://www.beckett.com/basketball/1999-00/hoops-starting-five/71-theo-ratliff-3199133
p1168
asg17
g18
sg19
(lp1169
Vhttp://img.beckett.com/images/no-image.jpg
p1170
asg22
V#71
p1171
sg24
V1999-00
p1172
sg26
g27
sg28
(lp1173
VTheo Ratliff
p1174
assbag1
(g2
g3
Ntp1175
Rp1176
(dp1177
g7
(dp1178
g9
V1999-00 Hoops Starting Five #87 Allen Iverson
p1179
sg11
I5
sg12
VHoops Starting Five
p1180
sg14
(lp1181
Vhttp://www.beckett.com/basketball/1999-00/hoops-starting-five/87-allen-iverson-3199149
p1182
asg17
g18
sg19
(lp1183
Vhttp://img.beckett.com/images/no-image.jpg
p1184
asg22
V#87
p1185
sg24
V1999-00
p1186
sg26
g27
sg28
(lp1187
VAllen Iverson
p1188
assbag1
(g2
g3
Ntp1189
Rp1190
(dp1191
g7
(dp1192
g9
V1999-00 Hoops Starting Five #90 Larry Hughes
p1193
sg11
I5
sg12
VHoops Starting Five
p1194
sg14
(lp1195
Vhttp://www.beckett.com/basketball/1999-00/hoops-starting-five/90-larry-hughes-3199152
p1196
asg17
g18
sg19
(lp1197
Vhttp://img.beckett.com/images/items_stock/185226/3199056/3199152/front.jpg
p1198
asg22
V#90
p1199
sg24
V1999-00
p1200
sg26
g27
sg28
(lp1201
VLarry Hughes
p1202
assbag1
(g2
g3
Ntp1203
Rp1204
(dp1205
g7
(dp1206
g9
V1999-00 Hoops Starting Five #147 Nazr Mohammed
p1207
sg11
I5
sg12
VHoops Starting Five
p1208
sg14
(lp1209
Vhttp://www.beckett.com/basketball/1999-00/hoops-starting-five/147-nazr-mohammed-3199209
p1210
asg17
g18
sg19
(lp1211
Vhttp://img.beckett.com/images/no-image.jpg
p1212
asg22
V#147
p1213
sg24
V1999-00
p1214
sg26
g27
sg28
(lp1215
VNazr Mohammed
p1216
assbag1
(g2
g3
Ntp1217
Rp1218
(dp1219
g7
(dp1220
g9
V1999-00 Hoops Starting Five #171 Jumaine Jones
p1221
sg11
I5
sg12
VHoops Starting Five
p1222
sg14
(lp1223
Vhttp://www.beckett.com/basketball/1999-00/hoops-starting-five/171-jumaine-jones-3199233
p1224
asg17
g18
sg19
(lp1225
Vhttp://img.beckett.com/images/no-image.jpg
p1226
asg22
V#171
p1227
sg24
V1999-00
p1228
sg26
g27
sg28
(lp1229
VJumaine Jones
p1230
assbag1
(g2
g3
Ntp1231
Rp1232
(dp1233
g7
(dp1234
g9
V1999-00 SkyBox APEX Xtra #87 Larry Hughes
p1235
sg11
I50
sg12
VSkyBox APEX Xtra
p1236
sg14
(lp1237
Vhttp://www.beckett.com/basketball/1999-00/skybox-apex-xtra/87-larry-hughes-3198221
p1238
asg17
g18
sg19
(lp1239
Vhttp://img.beckett.com/images/no-image.jpg
p1240
asg22
V#87
p1241
sg24
V1999-00
p1242
sg26
g27
sg28
(lp1243
VLarry Hughes
p1244
assbag1
(g2
g3
Ntp1245
Rp1246
(dp1247
g7
(dp1248
g9
V1999-00 SkyBox APEX Xtra #100 Matt Geiger
p1249
sg11
I50
sg12
VSkyBox APEX Xtra
p1250
sg14
(lp1251
Vhttp://www.beckett.com/basketball/1999-00/skybox-apex-xtra/100-matt-geiger-3198234
p1252
asg17
g18
sg19
(lp1253
Vhttp://img.beckett.com/images/no-image.jpg
p1254
asg22
V#100
p1255
sg24
V1999-00
p1256
sg26
g27
sg28
(lp1257
VMatt Geiger
p1258
assbag1
(g2
g3
Ntp1259
Rp1260
(dp1261
g7
(dp1262
g9
V1999-00 SkyBox APEX Xtra #109 Theo Ratliff
p1263
sg11
I50
sg12
VSkyBox APEX Xtra
p1264
sg14
(lp1265
Vhttp://www.beckett.com/basketball/1999-00/skybox-apex-xtra/109-theo-ratliff-3198243
p1266
asg17
g18
sg19
(lp1267
Vhttp://img.beckett.com/images/no-image.jpg
p1268
asg22
V#109
p1269
sg24
V1999-00
p1270
sg26
g27
sg28
(lp1271
VTheo Ratliff
p1272
assbag1
(g2
g3
Ntp1273
Rp1274
(dp1275
g7
(dp1276
g9
V1999-00 SkyBox APEX Xtra #126 Allen Iverson
p1277
sg11
I50
sg12
VSkyBox APEX Xtra
p1278
sg14
(lp1279
Vhttp://www.beckett.com/basketball/1999-00/skybox-apex-xtra/126-allen-iverson-3198260
p1280
asg17
g18
sg19
(lp1281
Vhttp://img.beckett.com/images/no-image.jpg
p1282
asg22
V#126
p1283
sg24
V1999-00
p1284
sg26
g27
sg28
(lp1285
VAllen Iverson
p1286
assbag1
(g2
g3
Ntp1287
Rp1288
(dp1289
g7
(dp1290
g9
V1999-00 SkyBox APEX Xtra #140 Eric Snow
p1291
sg11
I50
sg12
VSkyBox APEX Xtra
p1292
sg14
(lp1293
Vhttp://www.beckett.com/basketball/1999-00/skybox-apex-xtra/140-eric-snow-3198274
p1294
asg17
g18
sg19
(lp1295
Vhttp://img.beckett.com/images/no-image.jpg
p1296
asg22
V#140
p1297
sg24
V1999-00
p1298
sg26
g27
sg28
(lp1299
VEric Snow
p1300
assbag1
(g2
g3
Ntp1301
Rp1302
(dp1303
g7
(dp1304
g9
V1999-00 SkyBox APEX Xtreme #87 Larry Hughes
p1305
sg11
I1
sg12
VSkyBox APEX Xtreme
p1306
sg14
(lp1307
Vhttp://www.beckett.com/basketball/1999-00/skybox-apex-xtreme/87-larry-hughes-3196563
p1308
asg17
g18
sg19
(lp1309
Vhttp://img.beckett.com/images/no-image.jpg
p1310
asg22
V#87
p1311
sg24
V1999-00
p1312
sg26
g27
sg28
(lp1313
VLarry Hughes
p1314
assbag1
(g2
g3
Ntp1315
Rp1316
(dp1317
g7
(dp1318
g9
V1999-00 SkyBox APEX Xtreme #100 Matt Geiger
p1319
sg11
I1
sg12
VSkyBox APEX Xtreme
p1320
sg14
(lp1321
Vhttp://www.beckett.com/basketball/1999-00/skybox-apex-xtreme/100-matt-geiger-3196576
p1322
asg17
g18
sg19
(lp1323
Vhttp://img.beckett.com/images/no-image.jpg
p1324
asg22
V#100
p1325
sg24
V1999-00
p1326
sg26
g27
sg28
(lp1327
VMatt Geiger
p1328
assbag1
(g2
g3
Ntp1329
Rp1330
(dp1331
g7
(dp1332
g9
V1999-00 SkyBox APEX Xtreme #109 Theo Ratliff
p1333
sg11
I1
sg12
VSkyBox APEX Xtreme
p1334
sg14
(lp1335
Vhttp://www.beckett.com/basketball/1999-00/skybox-apex-xtreme/109-theo-ratliff-3196585
p1336
asg17
g18
sg19
(lp1337
Vhttp://img.beckett.com/images/no-image.jpg
p1338
asg22
V#109
p1339
sg24
V1999-00
p1340
sg26
g27
sg28
(lp1341
VTheo Ratliff
p1342
assbag1
(g2
g3
Ntp1343
Rp1344
(dp1345
g7
(dp1346
g9
V1999-00 SkyBox APEX Xtreme #126 Allen Iverson
p1347
sg11
I1
sg12
VSkyBox APEX Xtreme
p1348
sg14
(lp1349
Vhttp://www.beckett.com/basketball/1999-00/skybox-apex-xtreme/126-allen-iverson-3196602
p1350
asg17
g18
sg19
(lp1351
Vhttp://img.beckett.com/images/no-image.jpg
p1352
asg22
V#126
p1353
sg24
V1999-00
p1354
sg26
g27
sg28
(lp1355
VAllen Iverson
p1356
assbag1
(g2
g3
Ntp1357
Rp1358
(dp1359
g7
(dp1360
g9
V1999-00 SkyBox APEX Xtreme #140 Eric Snow
p1361
sg11
I1
sg12
VSkyBox APEX Xtreme
p1362
sg14
(lp1363
Vhttp://www.beckett.com/basketball/1999-00/skybox-apex-xtreme/140-eric-snow-3196616
p1364
asg17
g18
sg19
(lp1365
Vhttp://img.beckett.com/images/no-image.jpg
p1366
asg22
V#140
p1367
sg24
V1999-00
p1368
sg26
g27
sg28
(lp1369
VEric Snow
p1370
assbag1
(g2
g3
Ntp1371
Rp1372
(dp1373
g7
(dp1374
g9
V1999-00 SkyBox Premium Star Rubies #22 Larry Hughes
p1375
sg11
I45
sg12
VSkyBox Premium Star Rubies
p1376
sg14
(lp1377
Vhttp://www.beckett.com/basketball/1999-00/skybox-premium-star-rubies/22-larry-hughes-3195600
p1378
asg17
g18
sg19
(lp1379
Vhttp://img.beckett.com/images/no-image.jpg
p1380
asg22
V#22
p1381
sg24
V1999-00
p1382
sg26
g27
sg28
(lp1383
VLarry Hughes
p1384
assbag1
(g2
g3
Ntp1385
Rp1386
(dp1387
g7
(dp1388
g9
V1999-00 SkyBox Premium Star Rubies #32 Theo Ratliff
p1389
sg11
I45
sg12
VSkyBox Premium Star Rubies
p1390
sg14
(lp1391
Vhttp://www.beckett.com/basketball/1999-00/skybox-premium-star-rubies/32-theo-ratliff-3195610
p1392
asg17
g18
sg19
(lp1393
Vhttp://img.beckett.com/images/no-image.jpg
p1394
asg22
V#32
p1395
sg24
V1999-00
p1396
sg26
g27
sg28
(lp1397
VTheo Ratliff
p1398
assbag1
(g2
g3
Ntp1399
Rp1400
(dp1401
g7
(dp1402
g9
V1999-00 SkyBox Premium Star Rubies #86 Matt Geiger
p1403
sg11
I45
sg12
VSkyBox Premium Star Rubies
p1404
sg14
(lp1405
Vhttp://www.beckett.com/basketball/1999-00/skybox-premium-star-rubies/86-matt-geiger-3195664
p1406
asg17
g18
sg19
(lp1407
Vhttp://img.beckett.com/images/no-image.jpg
p1408
asg22
V#86
p1409
sg24
V1999-00
p1410
sg26
g27
sg28
(lp1411
VMatt Geiger
p1412
assbag1
(g2
g3
Ntp1413
Rp1414
(dp1415
g7
(dp1416
g9
V1999-00 SkyBox Premium Star Rubies #100 Allen Iverson
p1417
sg11
I45
sg12
VSkyBox Premium Star Rubies
p1418
sg14
(lp1419
Vhttp://www.beckett.com/basketball/1999-00/skybox-premium-star-rubies/100-allen-iverson-3195678
p1420
asg17
g18
sg19
(lp1421
Vhttp://img.beckett.com/images/no-image.jpg
p1422
asg22
V#100
p1423
sg24
V1999-00
p1424
sg26
g27
sg28
(lp1425
VAllen Iverson
p1426
assbag1
(g2
g3
Ntp1427
Rp1428
(dp1429
g7
(dp1430
g9
V1999-00 SPx Radiance #59 Allen Iverson
p1431
sg11
I100
sg12
VSPx Radiance
p1432
sg14
(lp1433
Vhttp://www.beckett.com/basketball/1999-00/spx-radiance/59-allen-iverson-3193272
p1434
asg17
g18
sg19
(lp1435
Vhttp://img.beckett.com/images/no-image.jpg
p1436
asg22
V#59
p1437
sg24
V1999-00
p1438
sg26
g27
sg28
(lp1439
VAllen Iverson
p1440
assbag1
(g2
g3
Ntp1441
Rp1442
(dp1443
g7
(dp1444
g9
V1999-00 SPx Radiance #60 Theo Ratliff
p1445
sg11
I100
sg12
VSPx Radiance
p1446
sg14
(lp1447
Vhttp://www.beckett.com/basketball/1999-00/spx-radiance/60-theo-ratliff-3193273
p1448
asg17
g18
sg19
(lp1449
Vhttp://img.beckett.com/images/items_stock/185226/3193202/3193273/front.jpg
p1450
asg22
V#60
p1451
sg24
V1999-00
p1452
sg26
g27
sg28
(lp1453
VTheo Ratliff
p1454
assbag1
(g2
g3
Ntp1455
Rp1456
(dp1457
g7
(dp1458
g9
V1999-00 SPx Radiance #61 Larry Hughes
p1459
sg11
I100
sg12
VSPx Radiance
p1460
sg14
(lp1461
Vhttp://www.beckett.com/basketball/1999-00/spx-radiance/61-larry-hughes-3193274
p1462
asg17
g18
sg19
(lp1463
Vhttp://img.beckett.com/images/items_stock/185226/3193202/3193274/front.jpg
p1464
asg22
V#61
p1465
sg24
V1999-00
p1466
sg26
g27
sg28
(lp1467
VLarry Hughes
p1468
assbag1
(g2
g3
Ntp1469
Rp1470
(dp1471
g7
(dp1472
g9
V1999-00 SPx Radiance #113 Jumaine Jones
p1473
sg11
I100
sg12
VSPx Radiance
p1474
sg14
(lp1475
Vhttp://www.beckett.com/basketball/1999-00/spx-radiance/113-jumaine-jones-3193326
p1476
asg17
g18
sg19
(lp1477
Vhttp://img.beckett.com/images/items_stock/185226/3193202/3193326/front.jpg
p1478
asg22
V#113
p1479
sg24
V1999-00
p1480
sg26
g27
sg28
(lp1481
VJumaine Jones
p1482
assbag1
(g2
g3
Ntp1483
Rp1484
(dp1485
g7
(dp1486
g9
V1999-00 SPx Spectrum #59 Allen Iverson
p1487
sg11
I1
sg12
VSPx Spectrum
p1488
sg14
(lp1489
Vhttp://www.beckett.com/basketball/1999-00/spx-spectrum/59-allen-iverson-3193397
p1490
asg17
g18
sg19
(lp1491
Vhttp://img.beckett.com/images/no-image.jpg
p1492
asg22
V#59
p1493
sg24
V1999-00
p1494
sg26
g27
sg28
(lp1495
VAllen Iverson
p1496
assbag1
(g2
g3
Ntp1497
Rp1498
(dp1499
g7
(dp1500
g9
V1999-00 SPx Spectrum #60 Theo Ratliff
p1501
sg11
I1
sg12
VSPx Spectrum
p1502
sg14
(lp1503
Vhttp://www.beckett.com/basketball/1999-00/spx-spectrum/60-theo-ratliff-3193398
p1504
asg17
g18
sg19
(lp1505
Vhttp://img.beckett.com/images/no-image.jpg
p1506
asg22
V#60
p1507
sg24
V1999-00
p1508
sg26
g27
sg28
(lp1509
VTheo Ratliff
p1510
assbag1
(g2
g3
Ntp1511
Rp1512
(dp1513
g7
(dp1514
g9
V1999-00 SPx Spectrum #61 Larry Hughes
p1515
sg11
I1
sg12
VSPx Spectrum
p1516
sg14
(lp1517
Vhttp://www.beckett.com/basketball/1999-00/spx-spectrum/61-larry-hughes-3193399
p1518
asg17
g18
sg19
(lp1519
Vhttp://img.beckett.com/images/no-image.jpg
p1520
asg22
V#61
p1521
sg24
V1999-00
p1522
sg26
g27
sg28
(lp1523
VLarry Hughes
p1524
assbag1
(g2
g3
Ntp1525
Rp1526
(dp1527
g7
(dp1528
g9
V1999-00 SPx Spectrum #113 Jumaine Jones
p1529
sg11
I1
sg12
VSPx Spectrum
p1530
sg14
(lp1531
Vhttp://www.beckett.com/basketball/1999-00/spx-spectrum/113-jumaine-jones-3193451
p1532
asg17
g18
sg19
(lp1533
Vhttp://img.beckett.com/images/no-image.jpg
p1534
asg22
V#113
p1535
sg24
V1999-00
p1536
sg26
g27
sg28
(lp1537
VJumaine Jones
p1538
assbag1
(g2
g3
Ntp1539
Rp1540
(dp1541
g7
(dp1542
g9
V1999-00 Stadium Club First Day Issue #1 Allen Iverson
p1543
sg11
I150
sg12
VStadium Club First Day Issue
p1544
sg14
(lp1545
Vhttp://www.beckett.com/basketball/1999-00/stadium-club-first-day-issue/1-allen-iverson-3193835
p1546
asg17
g18
sg19
(lp1547
Vhttp://img.beckett.com/images/items_stock/185226/3193824/3193835/front.jpg
p1548
asg22
V#1
p1549
sg24
V1999-00
p1550
sg26
g27
sg28
(lp1551
VAllen Iverson
p1552
assbag1
(g2
g3
Ntp1553
Rp1554
(dp1555
g7
(dp1556
g9
V1999-00 Stadium Club First Day Issue #31 Tyrone Hill
p1557
sg11
I150
sg12
VStadium Club First Day Issue
p1558
sg14
(lp1559
Vhttp://www.beckett.com/basketball/1999-00/stadium-club-first-day-issue/31-tyrone-hill-3193865
p1560
asg17
g18
sg19
(lp1561
Vhttp://img.beckett.com/images/no-image.jpg
p1562
asg22
V#31
p1563
sg24
V1999-00
p1564
sg26
g27
sg28
(lp1565
VTyrone Hill
p1566
assbag1
(g2
g3
Ntp1567
Rp1568
(dp1569
g7
(dp1570
g9
V1999-00 Stadium Club First Day Issue #49 Larry Hughes
p1571
sg11
I150
sg12
VStadium Club First Day Issue
p1572
sg14
(lp1573
Vhttp://www.beckett.com/basketball/1999-00/stadium-club-first-day-issue/49-larry-hughes-3193883
p1574
asg17
g18
sg19
(lp1575
Vhttp://img.beckett.com/images/no-image.jpg
p1576
asg22
V#49
p1577
sg24
V1999-00
p1578
sg26
g27
sg28
(lp1579
VLarry Hughes
p1580
assbag1
(g2
g3
Ntp1581
Rp1582
(dp1583
g7
(dp1584
g9
V1999-00 Stadium Club First Day Issue #80 Matt Geiger
p1585
sg11
I150
sg12
VStadium Club First Day Issue
p1586
sg14
(lp1587
Vhttp://www.beckett.com/basketball/1999-00/stadium-club-first-day-issue/80-matt-geiger-3193914
p1588
asg17
g18
sg19
(lp1589
Vhttp://img.beckett.com/images/items_stock/185226/3193824/3193914/front.jpg
p1590
asg22
V#80
p1591
sg24
V1999-00
p1592
sg26
g27
sg28
(lp1593
VMatt Geiger
p1594
assbag1
(g2
g3
Ntp1595
Rp1596
(dp1597
g7
(dp1598
g9
V1999-00 Stadium Club First Day Issue #108 Eric Snow
p1599
sg11
I150
sg12
VStadium Club First Day Issue
p1600
sg14
(lp1601
Vhttp://www.beckett.com/basketball/1999-00/stadium-club-first-day-issue/108-eric-snow-3193942
p1602
asg17
g18
sg19
(lp1603
Vhttp://img.beckett.com/images/no-image.jpg
p1604
asg22
V#108
p1605
sg24
V1999-00
p1606
sg26
g27
sg28
(lp1607
VEric Snow
p1608
assbag1
(g2
g3
Ntp1609
Rp1610
(dp1611
g7
(dp1612
g9
V1999-00 Stadium Club First Day Issue #131 Theo Ratliff
p1613
sg11
I150
sg12
VStadium Club First Day Issue
p1614
sg14
(lp1615
Vhttp://www.beckett.com/basketball/1999-00/stadium-club-first-day-issue/131-theo-ratliff-3193965
p1616
asg17
g18
sg19
(lp1617
Vhttp://img.beckett.com/images/no-image.jpg
p1618
asg22
V#131
p1619
sg24
V1999-00
p1620
sg26
g27
sg28
(lp1621
VTheo Ratliff
p1622
assbag1
(g2
g3
Ntp1623
Rp1624
(dp1625
g7
(dp1626
g9
V1999-00 Stadium Club First Day Issue #201 Jumaine Jones
p1627
sg11
I150
sg12
VStadium Club First Day Issue
p1628
sg14
(lp1629
Vhttp://www.beckett.com/basketball/1999-00/stadium-club-first-day-issue/201-jumaine-jones-3194035
p1630
asg17
g18
sg19
(lp1631
Vhttp://img.beckett.com/images/no-image.jpg
p1632
asg22
V#201
p1633
sg24
V1999-00
p1634
sg26
g27
sg28
(lp1635
VJumaine Jones
p1636
assbag1
(g2
g3
Ntp1637
Rp1638
(dp1639
g7
(dp1640
g9
V1999-00 Stadium Club One of a Kind #1 Allen Iverson
p1641
sg11
I150
sg12
VStadium Club One of a Kind
p1642
sg14
(lp1643
Vhttp://www.beckett.com/basketball/1999-00/stadium-club-one-of-a-kind/1-allen-iverson-3194047
p1644
asg17
g18
sg19
(lp1645
Vhttp://img.beckett.com/images/no-image.jpg
p1646
asg22
V#1
p1647
sg24
V1999-00
p1648
sg26
g27
sg28
(lp1649
VAllen Iverson
p1650
assbag1
(g2
g3
Ntp1651
Rp1652
(dp1653
g7
(dp1654
g9
V1999-00 Stadium Club One of a Kind #31 Tyrone Hill
p1655
sg11
I150
sg12
VStadium Club One of a Kind
p1656
sg14
(lp1657
Vhttp://www.beckett.com/basketball/1999-00/stadium-club-one-of-a-kind/31-tyrone-hill-3194077
p1658
asg17
g18
sg19
(lp1659
Vhttp://img.beckett.com/images/items_stock/185226/3194036/3194077/front.jpg
p1660
asg22
V#31
p1661
sg24
V1999-00
p1662
sg26
g27
sg28
(lp1663
VTyrone Hill
p1664
assbag1
(g2
g3
Ntp1665
Rp1666
(dp1667
g7
(dp1668
g9
V1999-00 Stadium Club One of a Kind #49 Larry Hughes
p1669
sg11
I150
sg12
VStadium Club One of a Kind
p1670
sg14
(lp1671
Vhttp://www.beckett.com/basketball/1999-00/stadium-club-one-of-a-kind/49-larry-hughes-3194095
p1672
asg17
g18
sg19
(lp1673
Vhttp://img.beckett.com/images/items_stock/185226/3194036/3194095/front.jpg
p1674
asg22
V#49
p1675
sg24
V1999-00
p1676
sg26
g27
sg28
(lp1677
VLarry Hughes
p1678
assbag1
(g2
g3
Ntp1679
Rp1680
(dp1681
g7
(dp1682
g9
V1999-00 Stadium Club One of a Kind #80 Matt Geiger
p1683
sg11
I150
sg12
VStadium Club One of a Kind
p1684
sg14
(lp1685
Vhttp://www.beckett.com/basketball/1999-00/stadium-club-one-of-a-kind/80-matt-geiger-3194126
p1686
asg17
g18
sg19
(lp1687
Vhttp://img.beckett.com/images/no-image.jpg
p1688
asg22
V#80
p1689
sg24
V1999-00
p1690
sg26
g27
sg28
(lp1691
VMatt Geiger
p1692
assbag1
(g2
g3
Ntp1693
Rp1694
(dp1695
g7
(dp1696
g9
V1999-00 Stadium Club One of a Kind #108 Eric Snow
p1697
sg11
I150
sg12
VStadium Club One of a Kind
p1698
sg14
(lp1699
Vhttp://www.beckett.com/basketball/1999-00/stadium-club-one-of-a-kind/108-eric-snow-3194154
p1700
asg17
g18
sg19
(lp1701
Vhttp://img.beckett.com/images/no-image.jpg
p1702
asg22
V#108
p1703
sg24
V1999-00
p1704
sg26
g27
sg28
(lp1705
VEric Snow
p1706
assbag1
(g2
g3
Ntp1707
Rp1708
(dp1709
g7
(dp1710
g9
V1999-00 Stadium Club One of a Kind #131 Theo Ratliff
p1711
sg11
I150
sg12
VStadium Club One of a Kind
p1712
sg14
(lp1713
Vhttp://www.beckett.com/basketball/1999-00/stadium-club-one-of-a-kind/131-theo-ratliff-3194177
p1714
asg17
g18
sg19
(lp1715
Vhttp://img.beckett.com/images/no-image.jpg
p1716
asg22
V#131
p1717
sg24
V1999-00
p1718
sg26
g27
sg28
(lp1719
VTheo Ratliff
p1720
assbag1
(g2
g3
Ntp1721
Rp1722
(dp1723
g7
(dp1724
g9
V1999-00 Stadium Club One of a Kind #201 Jumaine Jones
p1725
sg11
I150
sg12
VStadium Club One of a Kind
p1726
sg14
(lp1727
Vhttp://www.beckett.com/basketball/1999-00/stadium-club-one-of-a-kind/201-jumaine-jones-3194247
p1728
asg17
g18
sg19
(lp1729
Vhttp://img.beckett.com/images/no-image.jpg
p1730
asg22
V#201
p1731
sg24
V1999-00
p1732
sg26
g27
sg28
(lp1733
VJumaine Jones
p1734
assbag1
(g2
g3
Ntp1735
Rp1736
(dp1737
g7
(dp1738
g9
V1999-00 Stadium Club Printing Plates #1A Allen Iverson Black
p1739
sg11
I1
sg12
VStadium Club Printing Plates
p1740
sg14
(lp1741
Vhttp://www.beckett.com/basketball/1999-00/stadium-club-printing-plates/1a-allen-iverson-black-3194254
p1742
asg17
g18
sg19
(lp1743
Vhttp://img.beckett.com/images/no-image.jpg
p1744
asg22
V#1A
p1745
sg24
V1999-00
p1746
sg26
g27
sg28
(lp1747
VAllen Iverson
p1748
assbag1
(g2
g3
Ntp1749
Rp1750
(dp1751
g7
(dp1752
g9
V1999-00 Stadium Club Printing Plates #1B Allen Iverson Cyan
p1753
sg11
I1
sg12
VStadium Club Printing Plates
p1754
sg14
(lp1755
Vhttp://www.beckett.com/basketball/1999-00/stadium-club-printing-plates/1b-allen-iverson-cyan-3194255
p1756
asg17
g18
sg19
(lp1757
Vhttp://img.beckett.com/images/no-image.jpg
p1758
asg22
V#1B
p1759
sg24
V1999-00
p1760
sg26
g27
sg28
(lp1761
g1748
assbag1
(g2
g3
Ntp1762
Rp1763
(dp1764
g7
(dp1765
g9
V1999-00 Stadium Club Printing Plates #1C Allen Iverson Magenta
p1766
sg11
I1
sg12
VStadium Club Printing Plates
p1767
sg14
(lp1768
Vhttp://www.beckett.com/basketball/1999-00/stadium-club-printing-plates/1c-allen-iverson-magenta-3194256
p1769
asg17
g18
sg19
(lp1770
Vhttp://img.beckett.com/images/no-image.jpg
p1771
asg22
V#1C
p1772
sg24
V1999-00
p1773
sg26
g27
sg28
(lp1774
g1748
assbag1
(g2
g3
Ntp1775
Rp1776
(dp1777
g7
(dp1778
g9
V1999-00 Stadium Club Printing Plates #1D Allen Iverson Yellow
p1779
sg11
I1
sg12
VStadium Club Printing Plates
p1780
sg14
(lp1781
Vhttp://www.beckett.com/basketball/1999-00/stadium-club-printing-plates/1d-allen-iverson-yellow-3194257
p1782
asg17
g18
sg19
(lp1783
Vhttp://img.beckett.com/images/no-image.jpg
p1784
asg22
V#1D
p1785
sg24
V1999-00
p1786
sg26
g27
sg28
(lp1787
g1748
assbag1
(g2
g3
Ntp1788
Rp1789
(dp1790
g7
(dp1791
g9
V1999-00 Stadium Club Printing Plates #31A Tyrone Hill Black
p1792
sg11
I1
sg12
VStadium Club Printing Plates
p1793
sg14
(lp1794
Vhttp://www.beckett.com/basketball/1999-00/stadium-club-printing-plates/31a-tyrone-hill-black-3194374
p1795
asg17
g18
sg19
(lp1796
Vhttp://img.beckett.com/images/no-image.jpg
p1797
asg22
V#31A
p1798
sg24
V1999-00
p1799
sg26
g27
sg28
(lp1800
VTyrone Hill
p1801
assbag1
(g2
g3
Ntp1802
Rp1803
(dp1804
g7
(dp1805
g9
V1999-00 Stadium Club Printing Plates #31B Tyrone Hill Cyan
p1806
sg11
I1
sg12
VStadium Club Printing Plates
p1807
sg14
(lp1808
Vhttp://www.beckett.com/basketball/1999-00/stadium-club-printing-plates/31b-tyrone-hill-cyan-3194375
p1809
asg17
g18
sg19
(lp1810
Vhttp://img.beckett.com/images/no-image.jpg
p1811
asg22
V#31B
p1812
sg24
V1999-00
p1813
sg26
g27
sg28
(lp1814
g1801
assbag1
(g2
g3
Ntp1815
Rp1816
(dp1817
g7
(dp1818
g9
V1999-00 Stadium Club Printing Plates #31C Tyrone Hill Magenta
p1819
sg11
I1
sg12
VStadium Club Printing Plates
p1820
sg14
(lp1821
Vhttp://www.beckett.com/basketball/1999-00/stadium-club-printing-plates/31c-tyrone-hill-magenta-3194376
p1822
asg17
g18
sg19
(lp1823
Vhttp://img.beckett.com/images/no-image.jpg
p1824
asg22
V#31C
p1825
sg24
V1999-00
p1826
sg26
g27
sg28
(lp1827
g1801
assbag1
(g2
g3
Ntp1828
Rp1829
(dp1830
g7
(dp1831
g9
V1999-00 Stadium Club Printing Plates #31D Tyrone Hill Yellow
p1832
sg11
I1
sg12
VStadium Club Printing Plates
p1833
sg14
(lp1834
Vhttp://www.beckett.com/basketball/1999-00/stadium-club-printing-plates/31d-tyrone-hill-yellow-3194377
p1835
asg17
g18
sg19
(lp1836
Vhttp://img.beckett.com/images/no-image.jpg
p1837
asg22
V#31D
p1838
sg24
V1999-00
p1839
sg26
g27
sg28
(lp1840
g1801
assbag1
(g2
g3
Ntp1841
Rp1842
(dp1843
g7
(dp1844
g9
V1999-00 Stadium Club Printing Plates #49A Larry Hughes Black
p1845
sg11
I1
sg12
VStadium Club Printing Plates
p1846
sg14
(lp1847
Vhttp://www.beckett.com/basketball/1999-00/stadium-club-printing-plates/49a-larry-hughes-black-3194446
p1848
asg17
g18
sg19
(lp1849
Vhttp://img.beckett.com/images/no-image.jpg
p1850
asg22
V#49A
p1851
sg24
V1999-00
p1852
sg26
g27
sg28
(lp1853
VLarry Hughes
p1854
assbag1
(g2
g3
Ntp1855
Rp1856
(dp1857
g7
(dp1858
g9
V1999-00 Stadium Club Printing Plates #49B Larry Hughes Cyan
p1859
sg11
I1
sg12
VStadium Club Printing Plates
p1860
sg14
(lp1861
Vhttp://www.beckett.com/basketball/1999-00/stadium-club-printing-plates/49b-larry-hughes-cyan-3194447
p1862
asg17
g18
sg19
(lp1863
Vhttp://img.beckett.com/images/no-image.jpg
p1864
asg22
V#49B
p1865
sg24
V1999-00
p1866
sg26
g27
sg28
(lp1867
g1854
assbag1
(g2
g3
Ntp1868
Rp1869
(dp1870
g7
(dp1871
g9
V1999-00 Stadium Club Printing Plates #49C Larry Hughes Magenta
p1872
sg11
I1
sg12
VStadium Club Printing Plates
p1873
sg14
(lp1874
Vhttp://www.beckett.com/basketball/1999-00/stadium-club-printing-plates/49c-larry-hughes-magenta-3194448
p1875
asg17
g18
sg19
(lp1876
Vhttp://img.beckett.com/images/no-image.jpg
p1877
asg22
V#49C
p1878
sg24
V1999-00
p1879
sg26
g27
sg28
(lp1880
g1854
assbag1
(g2
g3
Ntp1881
Rp1882
(dp1883
g7
(dp1884
g9
V1999-00 Stadium Club Printing Plates #49D Larry Hughes Yellow
p1885
sg11
I1
sg12
VStadium Club Printing Plates
p1886
sg14
(lp1887
Vhttp://www.beckett.com/basketball/1999-00/stadium-club-printing-plates/49d-larry-hughes-yellow-3194449
p1888
asg17
g18
sg19
(lp1889
Vhttp://img.beckett.com/images/no-image.jpg
p1890
asg22
V#49D
p1891
sg24
V1999-00
p1892
sg26
g27
sg28
(lp1893
g1854
assbag1
(g2
g3
Ntp1894
Rp1895
(dp1896
g7
(dp1897
g9
V1999-00 Stadium Club Printing Plates #80A Matt Geiger Black
p1898
sg11
I1
sg12
VStadium Club Printing Plates
p1899
sg14
(lp1900
Vhttp://www.beckett.com/basketball/1999-00/stadium-club-printing-plates/80a-matt-geiger-black-3194570
p1901
asg17
g18
sg19
(lp1902
Vhttp://img.beckett.com/images/no-image.jpg
p1903
asg22
V#80A
p1904
sg24
V1999-00
p1905
sg26
g27
sg28
(lp1906
VMatt Geiger
p1907
assbag1
(g2
g3
Ntp1908
Rp1909
(dp1910
g7
(dp1911
g9
V1999-00 Stadium Club Printing Plates #80B Matt Geiger Cyan
p1912
sg11
I1
sg12
VStadium Club Printing Plates
p1913
sg14
(lp1914
Vhttp://www.beckett.com/basketball/1999-00/stadium-club-printing-plates/80b-matt-geiger-cyan-3194571
p1915
asg17
g18
sg19
(lp1916
Vhttp://img.beckett.com/images/no-image.jpg
p1917
asg22
V#80B
p1918
sg24
V1999-00
p1919
sg26
g27
sg28
(lp1920
g1907
assbag1
(g2
g3
Ntp1921
Rp1922
(dp1923
g7
(dp1924
g9
V1999-00 Stadium Club Printing Plates #80C Matt Geiger Magenta
p1925
sg11
I1
sg12
VStadium Club Printing Plates
p1926
sg14
(lp1927
Vhttp://www.beckett.com/basketball/1999-00/stadium-club-printing-plates/80c-matt-geiger-magenta-3194572
p1928
asg17
g18
sg19
(lp1929
Vhttp://img.beckett.com/images/no-image.jpg
p1930
asg22
V#80C
p1931
sg24
V1999-00
p1932
sg26
g27
sg28
(lp1933
g1907
assbag1
(g2
g3
Ntp1934
Rp1935
(dp1936
g7
(dp1937
g9
V1999-00 Stadium Club Printing Plates #80D Matt Geiger Yellow
p1938
sg11
I1
sg12
VStadium Club Printing Plates
p1939
sg14
(lp1940
Vhttp://www.beckett.com/basketball/1999-00/stadium-club-printing-plates/80d-matt-geiger-yellow-3194573
p1941
asg17
g18
sg19
(lp1942
Vhttp://img.beckett.com/images/no-image.jpg
p1943
asg22
V#80D
p1944
sg24
V1999-00
p1945
sg26
g27
sg28
(lp1946
g1907
assbag1
(g2
g3
Ntp1947
Rp1948
(dp1949
g7
(dp1950
g9
V1999-00 Stadium Club Printing Plates #108A Eric Snow Black
p1951
sg11
I1
sg12
VStadium Club Printing Plates
p1952
sg14
(lp1953
Vhttp://www.beckett.com/basketball/1999-00/stadium-club-printing-plates/108a-eric-snow-black-3194682
p1954
asg17
g18
sg19
(lp1955
Vhttp://img.beckett.com/images/no-image.jpg
p1956
asg22
V#108A
p1957
sg24
V1999-00
p1958
sg26
g27
sg28
(lp1959
VEric Snow
p1960
assbag1
(g2
g3
Ntp1961
Rp1962
(dp1963
g7
(dp1964
g9
V1999-00 Stadium Club Printing Plates #108B Eric Snow Cyan
p1965
sg11
I1
sg12
VStadium Club Printing Plates
p1966
sg14
(lp1967
Vhttp://www.beckett.com/basketball/1999-00/stadium-club-printing-plates/108b-eric-snow-cyan-3194683
p1968
asg17
g18
sg19
(lp1969
Vhttp://img.beckett.com/images/no-image.jpg
p1970
asg22
V#108B
p1971
sg24
V1999-00
p1972
sg26
g27
sg28
(lp1973
g1960
assbag1
(g2
g3
Ntp1974
Rp1975
(dp1976
g7
(dp1977
g9
V1999-00 Stadium Club Printing Plates #108C Eric Snow Magenta
p1978
sg11
I1
sg12
VStadium Club Printing Plates
p1979
sg14
(lp1980
Vhttp://www.beckett.com/basketball/1999-00/stadium-club-printing-plates/108c-eric-snow-magenta-3194684
p1981
asg17
g18
sg19
(lp1982
Vhttp://img.beckett.com/images/no-image.jpg
p1983
asg22
V#108C
p1984
sg24
V1999-00
p1985
sg26
g27
sg28
(lp1986
g1960
assbag1
(g2
g3
Ntp1987
Rp1988
(dp1989
g7
(dp1990
g9
V1999-00 Stadium Club Printing Plates #108D Eric Snow Yellow
p1991
sg11
I1
sg12
VStadium Club Printing Plates
p1992
sg14
(lp1993
Vhttp://www.beckett.com/basketball/1999-00/stadium-club-printing-plates/108d-eric-snow-yellow-3194685
p1994
asg17
g18
sg19
(lp1995
Vhttp://img.beckett.com/images/no-image.jpg
p1996
asg22
V#108D
p1997
sg24
V1999-00
p1998
sg26
g27
sg28
(lp1999
g1960
assbag1
(g2
g3
Ntp2000
Rp2001
(dp2002
g7
(dp2003
g9
V1999-00 Stadium Club Printing Plates #131A Theo Ratliff Black
p2004
sg11
I1
sg12
VStadium Club Printing Plates
p2005
sg14
(lp2006
Vhttp://www.beckett.com/basketball/1999-00/stadium-club-printing-plates/131a-theo-ratliff-black-3194774
p2007
asg17
g18
sg19
(lp2008
Vhttp://img.beckett.com/images/no-image.jpg
p2009
asg22
V#131A
p2010
sg24
V1999-00
p2011
sg26
g27
sg28
(lp2012
VTheo Ratliff
p2013
assbag1
(g2
g3
Ntp2014
Rp2015
(dp2016
g7
(dp2017
g9
V1999-00 Stadium Club Printing Plates #131B Theo Ratliff Cyan
p2018
sg11
I1
sg12
VStadium Club Printing Plates
p2019
sg14
(lp2020
Vhttp://www.beckett.com/basketball/1999-00/stadium-club-printing-plates/131b-theo-ratliff-cyan-3194775
p2021
asg17
g18
sg19
(lp2022
Vhttp://img.beckett.com/images/no-image.jpg
p2023
asg22
V#131B
p2024
sg24
V1999-00
p2025
sg26
g27
sg28
(lp2026
g2013
assbag1
(g2
g3
Ntp2027
Rp2028
(dp2029
g7
(dp2030
g9
V1999-00 Stadium Club Printing Plates #131C Theo Ratliff Magenta
p2031
sg11
I1
sg12
VStadium Club Printing Plates
p2032
sg14
(lp2033
Vhttp://www.beckett.com/basketball/1999-00/stadium-club-printing-plates/131c-theo-ratliff-magenta-3194776
p2034
asg17
g18
sg19
(lp2035
Vhttp://img.beckett.com/images/no-image.jpg
p2036
asg22
V#131C
p2037
sg24
V1999-00
p2038
sg26
g27
sg28
(lp2039
g2013
assbag1
(g2
g3
Ntp2040
Rp2041
(dp2042
g7
(dp2043
g9
V1999-00 Stadium Club Printing Plates #131D Theo Ratliff Yellow
p2044
sg11
I1
sg12
VStadium Club Printing Plates
p2045
sg14
(lp2046
Vhttp://www.beckett.com/basketball/1999-00/stadium-club-printing-plates/131d-theo-ratliff-yellow-3194777
p2047
asg17
g18
sg19
(lp2048
Vhttp://img.beckett.com/images/no-image.jpg
p2049
asg22
V#131D
p2050
sg24
V1999-00
p2051
sg26
g27
sg28
(lp2052
g2013
assbag1
(g2
g3
Ntp2053
Rp2054
(dp2055
g7
(dp2056
g9
V1999-00 Stadium Club Printing Plates #201A Jumaine Jones Black
p2057
sg11
I1
sg12
VStadium Club Printing Plates
p2058
sg14
(lp2059
Vhttp://www.beckett.com/basketball/1999-00/stadium-club-printing-plates/201a-jumaine-jones-black-3195054
p2060
asg17
g18
sg19
(lp2061
Vhttp://img.beckett.com/images/no-image.jpg
p2062
asg22
V#201A
p2063
sg24
V1999-00
p2064
sg26
g27
sg28
(lp2065
VJumaine Jones
p2066
assbag1
(g2
g3
Ntp2067
Rp2068
(dp2069
g7
(dp2070
g9
V1999-00 Stadium Club Printing Plates #201B Jumaine Jones Cyan
p2071
sg11
I1
sg12
VStadium Club Printing Plates
p2072
sg14
(lp2073
Vhttp://www.beckett.com/basketball/1999-00/stadium-club-printing-plates/201b-jumaine-jones-cyan-3195055
p2074
asg17
g18
sg19
(lp2075
Vhttp://img.beckett.com/images/no-image.jpg
p2076
asg22
V#201B
p2077
sg24
V1999-00
p2078
sg26
g27
sg28
(lp2079
g2066
assbag1
(g2
g3
Ntp2080
Rp2081
(dp2082
g7
(dp2083
g9
V1999-00 Stadium Club Printing Plates #201C Jumaine Jones Magenta
p2084
sg11
I1
sg12
VStadium Club Printing Plates
p2085
sg14
(lp2086
Vhttp://www.beckett.com/basketball/1999-00/stadium-club-printing-plates/201c-jumaine-jones-magenta-3195056
p2087
asg17
g18
sg19
(lp2088
Vhttp://img.beckett.com/images/no-image.jpg
p2089
asg22
V#201C
p2090
sg24
V1999-00
p2091
sg26
g27
sg28
(lp2092
g2066
assbag1
(g2
g3
Ntp2093
Rp2094
(dp2095
g7
(dp2096
g9
V1999-00 Stadium Club Printing Plates #201D Jumaine Jones Yellow
p2097
sg11
I1
sg12
VStadium Club Printing Plates
p2098
sg14
(lp2099
Vhttp://www.beckett.com/basketball/1999-00/stadium-club-printing-plates/201d-jumaine-jones-yellow-3195057
p2100
asg17
g18
sg19
(lp2101
Vhttp://img.beckett.com/images/no-image.jpg
p2102
asg22
V#201D
p2103
sg24
V1999-00
p2104
sg26
g27
sg28
(lp2105
g2066
assbag1
(g2
g3
Ntp2106
Rp2107
(dp2108
g7
(dp2109
g9
V1999-00 Stadium Club Chrome First Day Issue #1 Allen Iverson
p2110
sg11
I100
sg12
VStadium Club Chrome First Day Issue
p2111
sg14
(lp2112
Vhttp://www.beckett.com/basketball/1999-00/stadium-club-chrome-first-day-issue/1-allen-iverson-3192401
p2113
asg17
g18
sg19
(lp2114
Vhttp://img.beckett.com/images/no-image.jpg
p2115
asg22
V#1
p2116
sg24
V1999-00
p2117
sg26
g27
sg28
(lp2118
VAllen Iverson
p2119
assbag1
(g2
g3
Ntp2120
Rp2121
(dp2122
g7
(dp2123
g9
V1999-00 Stadium Club Chrome First Day Issue #35 Larry Hughes
p2124
sg11
I100
sg12
VStadium Club Chrome First Day Issue
p2125
sg14
(lp2126
Vhttp://www.beckett.com/basketball/1999-00/stadium-club-chrome-first-day-issue/35-larry-hughes-3192435
p2127
asg17
g18
sg19
(lp2128
Vhttp://img.beckett.com/images/no-image.jpg
p2129
asg22
V#35
p2130
sg24
V1999-00
p2131
sg26
g27
sg28
(lp2132
VLarry Hughes
p2133
assbag1
(g2
g3
Ntp2134
Rp2135
(dp2136
g7
(dp2137
g9
V1999-00 Stadium Club Chrome First Day Issue #57 Matt Geiger
p2138
sg11
I100
sg12
VStadium Club Chrome First Day Issue
p2139
sg14
(lp2140
Vhttp://www.beckett.com/basketball/1999-00/stadium-club-chrome-first-day-issue/57-matt-geiger-3192457
p2141
asg17
g18
sg19
(lp2142
Vhttp://img.beckett.com/images/items_stock/185226/3192391/3192457/front.jpg
p2143
asg22
V#57
p2144
sg24
V1999-00
p2145
sg26
g27
sg28
(lp2146
VMatt Geiger
p2147
assbag1
(g2
g3
Ntp2148
Rp2149
(dp2150
g7
(dp2151
g9
V1999-00 Stadium Club Chrome First Day Issue #79 Eric Snow
p2152
sg11
I100
sg12
VStadium Club Chrome First Day Issue
p2153
sg14
(lp2154
Vhttp://www.beckett.com/basketball/1999-00/stadium-club-chrome-first-day-issue/79-eric-snow-3192479
p2155
asg17
g18
sg19
(lp2156
Vhttp://img.beckett.com/images/no-image.jpg
p2157
asg22
V#79
p2158
sg24
V1999-00
p2159
sg26
g27
sg28
(lp2160
VEric Snow
p2161
assbag1
(g2
g3
Ntp2162
Rp2163
(dp2164
g7
(dp2165
g9
V1999-00 Stadium Club Chrome First Day Issue #100 Theo Ratliff
p2166
sg11
I100
sg12
VStadium Club Chrome First Day Issue
p2167
sg14
(lp2168
Vhttp://www.beckett.com/basketball/1999-00/stadium-club-chrome-first-day-issue/100-theo-ratliff-3192500
p2169
asg17
g18
sg19
(lp2170
Vhttp://img.beckett.com/images/no-image.jpg
p2171
asg22
V#100
p2172
sg24
V1999-00
p2173
sg26
g27
sg28
(lp2174
VTheo Ratliff
p2175
assbag1
(g2
g3
Ntp2176
Rp2177
(dp2178
g7
(dp2179
g9
V1999-00 Stadium Club Chrome First Day Issue Refractors #1 Allen Iverson
p2180
sg11
I25
sg12
VStadium Club Chrome First Day Issue Refractors
p2181
sg14
(lp2182
Vhttp://www.beckett.com/basketball/1999-00/stadium-club-chrome-first-day-issue-refractors/1-allen-iverson-3192561
p2183
asg17
g18
sg19
(lp2184
Vhttp://img.beckett.com/images/no-image.jpg
p2185
asg22
V#1
p2186
sg24
V1999-00
p2187
sg26
g27
sg28
(lp2188
VAllen Iverson
p2189
assbag1
(g2
g3
Ntp2190
Rp2191
(dp2192
g7
(dp2193
g9
V1999-00 Stadium Club Chrome First Day Issue Refractors #35 Larry Hughes
p2194
sg11
I25
sg12
VStadium Club Chrome First Day Issue Refractors
p2195
sg14
(lp2196
Vhttp://www.beckett.com/basketball/1999-00/stadium-club-chrome-first-day-issue-refractors/35-larry-hughes-3192595
p2197
asg17
g18
sg19
(lp2198
Vhttp://img.beckett.com/images/no-image.jpg
p2199
asg22
V#35
p2200
sg24
V1999-00
p2201
sg26
g27
sg28
(lp2202
VLarry Hughes
p2203
assbag1
(g2
g3
Ntp2204
Rp2205
(dp2206
g7
(dp2207
g9
V1999-00 Stadium Club Chrome First Day Issue Refractors #57 Matt Geiger
p2208
sg11
I25
sg12
VStadium Club Chrome First Day Issue Refractors
p2209
sg14
(lp2210
Vhttp://www.beckett.com/basketball/1999-00/stadium-club-chrome-first-day-issue-refractors/57-matt-geiger-3192617
p2211
asg17
g18
sg19
(lp2212
Vhttp://img.beckett.com/images/no-image.jpg
p2213
asg22
V#57
p2214
sg24
V1999-00
p2215
sg26
g27
sg28
(lp2216
VMatt Geiger
p2217
assbag1
(g2
g3
Ntp2218
Rp2219
(dp2220
g7
(dp2221
g9
V1999-00 Stadium Club Chrome First Day Issue Refractors #79 Eric Snow
p2222
sg11
I25
sg12
VStadium Club Chrome First Day Issue Refractors
p2223
sg14
(lp2224
Vhttp://www.beckett.com/basketball/1999-00/stadium-club-chrome-first-day-issue-refractors/79-eric-snow-3192639
p2225
asg17
g18
sg19
(lp2226
Vhttp://img.beckett.com/images/no-image.jpg
p2227
asg22
V#79
p2228
sg24
V1999-00
p2229
sg26
g27
sg28
(lp2230
VEric Snow
p2231
assbag1
(g2
g3
Ntp2232
Rp2233
(dp2234
g7
(dp2235
g9
V1999-00 Stadium Club Chrome First Day Issue Refractors #100 Theo Ratliff
p2236
sg11
I25
sg12
VStadium Club Chrome First Day Issue Refractors
p2237
sg14
(lp2238
Vhttp://www.beckett.com/basketball/1999-00/stadium-club-chrome-first-day-issue-refractors/100-theo-ratliff-3192660
p2239
asg17
g18
sg19
(lp2240
Vhttp://img.beckett.com/images/no-image.jpg
p2241
asg22
V#100
p2242
sg24
V1999-00
p2243
sg26
g27
sg28
(lp2244
VTheo Ratliff
p2245
assbag1
(g2
g3
Ntp2246
Rp2247
(dp2248
g7
(dp2249
g9
V1999-00 Topps Gallery Player's Private Issue #60 Allen Iverson
p2250
sg11
I250
sg12
VTopps Gallery Player's Private Issue
p2251
sg14
(lp2252
Vhttp://www.beckett.com/basketball/1999-00/topps-gallery-players-private-issue/60-allen-iverson-3190854
p2253
asg17
g18
sg19
(lp2254
Vhttp://img.beckett.com/images/no-image.jpg
p2255
asg22
V#60
p2256
sg24
V1999-00
p2257
sg26
g27
sg28
(lp2258
VAllen Iverson
p2259
assbag1
(g2
g3
Ntp2260
Rp2261
(dp2262
g7
(dp2263
g9
V1999-00 Topps Gallery Player's Private Issue #61 Eric Snow
p2264
sg11
I250
sg12
VTopps Gallery Player's Private Issue
p2265
sg14
(lp2266
Vhttp://www.beckett.com/basketball/1999-00/topps-gallery-players-private-issue/61-eric-snow-3190855
p2267
asg17
g18
sg19
(lp2268
Vhttp://img.beckett.com/images/items_stock/185226/3190784/3190855/front.jpg
p2269
asg22
V#61
p2270
sg24
V1999-00
p2271
sg26
g27
sg28
(lp2272
VEric Snow
p2273
assbag1
(g2
g3
Ntp2274
Rp2275
(dp2276
g7
(dp2277
g9
V1999-00 Topps Gallery Player's Private Issue #79 Larry Hughes
p2278
sg11
I250
sg12
VTopps Gallery Player's Private Issue
p2279
sg14
(lp2280
Vhttp://www.beckett.com/basketball/1999-00/topps-gallery-players-private-issue/79-larry-hughes-3190873
p2281
asg17
g18
sg19
(lp2282
Vhttp://img.beckett.com/images/items_stock/185226/3190784/3190873/front.jpg
p2283
asg22
V#79
p2284
sg24
V1999-00
p2285
sg26
g27
sg28
(lp2286
VLarry Hughes
p2287
assbag1
(g2
g3
Ntp2288
Rp2289
(dp2290
g7
(dp2291
g9
V1999-00 Topps Gallery Player's Private Issue #123 Allen Iverson ART
p2292
sg11
I250
sg12
VTopps Gallery Player's Private Issue
p2293
sg14
(lp2294
Vhttp://www.beckett.com/basketball/1999-00/topps-gallery-players-private-issue/123-allen-iverson-art-3190917
p2295
asg17
g18
sg19
(lp2296
Vhttp://img.beckett.com/images/no-image.jpg
p2297
asg22
V#123
p2298
sg24
V1999-00
p2299
sg130
VART
p2300
sg26
g27
sg28
(lp2301
VAllen Iverson
p2302
assbag1
(g2
g3
Ntp2303
Rp2304
(dp2305
g7
(dp2306
g9
V1999-00 Topps Gallery Player's Private Issue #145 Todd MacCulloch
p2307
sg11
I250
sg12
VTopps Gallery Player's Private Issue
p2308
sg14
(lp2309
Vhttp://www.beckett.com/basketball/1999-00/topps-gallery-players-private-issue/145-todd-macculloch-3190939
p2310
asg17
g18
sg19
(lp2311
Vhttp://img.beckett.com/images/items_stock/185226/3190784/3190939/front.jpg
p2312
asg22
V#145
p2313
sg24
V1999-00
p2314
sg26
g27
sg28
(lp2315
VTodd MacCulloch
p2316
assbag1
(g2
g3
Ntp2317
Rp2318
(dp2319
g7
(dp2320
g9
V1999-00 Topps Gallery Player's Private Issue #150 Jumaine Jones
p2321
sg11
I250
sg12
VTopps Gallery Player's Private Issue
p2322
sg14
(lp2323
Vhttp://www.beckett.com/basketball/1999-00/topps-gallery-players-private-issue/150-jumaine-jones-3190944
p2324
asg17
g18
sg19
(lp2325
Vhttp://img.beckett.com/images/no-image.jpg
p2326
asg22
V#150
p2327
sg24
V1999-00
p2328
sg26
g27
sg28
(lp2329
VJumaine Jones
p2330
assbag1
(g2
g3
Ntp2331
Rp2332
(dp2333
g7
(dp2334
g9
V1999-00 Topps Gallery Printing Plates Black #79 Larry Hughes
p2335
sg11
I1
sg12
VTopps Gallery Printing Plates Black
p2336
sg14
(lp2337
Vhttp://www.beckett.com/basketball/1999-00/topps-gallery-printing-plates-black/79-larry-hughes-3188272
p2338
asg17
g18
sg19
(lp2339
Vhttp://img.beckett.com/images/no-image.jpg
p2340
asg22
V#79
p2341
sg24
V1999-00
p2342
sg26
g27
sg28
(lp2343
VLarry Hughes
p2344
assbag1
(g2
g3
Ntp2345
Rp2346
(dp2347
g7
(dp2348
g9
V1999-00 Topps Gold Label Class 1 One to One #21 Allen Iverson
p2349
sg11
I1
sg12
VTopps Gold Label Class 1 One to One
p2350
sg14
(lp2351
Vhttp://www.beckett.com/basketball/1999-00/topps-gold-label-class-1-one-to-one/21-allen-iverson-3188739
p2352
asg17
g18
sg19
(lp2353
Vhttp://img.beckett.com/images/no-image.jpg
p2354
asg22
V#21
p2355
sg24
V1999-00
p2356
sg26
g27
sg28
(lp2357
VAllen Iverson
p2358
assbag1
(g2
g3
Ntp2359
Rp2360
(dp2361
g7
(dp2362
g9
V1999-00 Topps Gold Label Class 1 One to One #47 Larry Hughes
p2363
sg11
I1
sg12
VTopps Gold Label Class 1 One to One
p2364
sg14
(lp2365
Vhttp://www.beckett.com/basketball/1999-00/topps-gold-label-class-1-one-to-one/47-larry-hughes-3188765
p2366
asg17
g18
sg19
(lp2367
Vhttp://img.beckett.com/images/no-image.jpg
p2368
asg22
V#47
p2369
sg24
V1999-00
p2370
sg26
g27
sg28
(lp2371
VLarry Hughes
p2372
assbag1
(g2
g3
Ntp2373
Rp2374
(dp2375
g7
(dp2376
g9
V1999-00 Topps Gold Label Class 1 One to One #78 Matt Geiger
p2377
sg11
I1
sg12
VTopps Gold Label Class 1 One to One
p2378
sg14
(lp2379
Vhttp://www.beckett.com/basketball/1999-00/topps-gold-label-class-1-one-to-one/78-matt-geiger-3188796
p2380
asg17
g18
sg19
(lp2381
Vhttp://img.beckett.com/images/no-image.jpg
p2382
asg22
V#78
p2383
sg24
V1999-00
p2384
sg26
g27
sg28
(lp2385
VMatt Geiger
p2386
assbag1
(g2
g3
Ntp2387
Rp2388
(dp2389
g7
(dp2390
g9
V1999-00 Topps Gold Label Class 1 Red Label #21 Allen Iverson
p2391
sg11
I100
sg12
VTopps Gold Label Class 1 Red Label
p2392
sg14
(lp2393
Vhttp://www.beckett.com/basketball/1999-00/topps-gold-label-class-1-red-label/21-allen-iverson-3188849
p2394
asg17
g18
sg19
(lp2395
Vhttp://img.beckett.com/images/no-image.jpg
p2396
asg22
V#21
p2397
sg24
V1999-00
p2398
sg26
g27
sg28
(lp2399
VAllen Iverson
p2400
assbag1
(g2
g3
Ntp2401
Rp2402
(dp2403
g7
(dp2404
g9
V1999-00 Topps Gold Label Class 1 Red Label #47 Larry Hughes
p2405
sg11
I100
sg12
VTopps Gold Label Class 1 Red Label
p2406
sg14
(lp2407
Vhttp://www.beckett.com/basketball/1999-00/topps-gold-label-class-1-red-label/47-larry-hughes-3188875
p2408
asg17
g18
sg19
(lp2409
Vhttp://img.beckett.com/images/no-image.jpg
p2410
asg22
V#47
p2411
sg24
V1999-00
p2412
sg26
g27
sg28
(lp2413
VLarry Hughes
p2414
assbag1
(g2
g3
Ntp2415
Rp2416
(dp2417
g7
(dp2418
g9
V1999-00 Topps Gold Label Class 1 Red Label #78 Matt Geiger
p2419
sg11
I100
sg12
VTopps Gold Label Class 1 Red Label
p2420
sg14
(lp2421
Vhttp://www.beckett.com/basketball/1999-00/topps-gold-label-class-1-red-label/78-matt-geiger-3188906
p2422
asg17
g18
sg19
(lp2423
Vhttp://img.beckett.com/images/no-image.jpg
p2424
asg22
V#78
p2425
sg24
V1999-00
p2426
sg26
g27
sg28
(lp2427
VMatt Geiger
p2428
assbag1
(g2
g3
Ntp2429
Rp2430
(dp2431
g7
(dp2432
g9
V1999-00 Topps Gold Label Class 2 One to One #21 Allen Iverson
p2433
sg11
I1
sg12
VTopps Gold Label Class 2 One to One
p2434
sg14
(lp2435
Vhttp://www.beckett.com/basketball/1999-00/topps-gold-label-class-2-one-to-one/21-allen-iverson-3189185
p2436
asg17
g18
sg19
(lp2437
Vhttp://img.beckett.com/images/no-image.jpg
p2438
asg22
V#21
p2439
sg24
V1999-00
p2440
sg26
g27
sg28
(lp2441
VAllen Iverson
p2442
assbag1
(g2
g3
Ntp2443
Rp2444
(dp2445
g7
(dp2446
g9
V1999-00 Topps Gold Label Class 2 One to One #47 Larry Hughes
p2447
sg11
I1
sg12
VTopps Gold Label Class 2 One to One
p2448
sg14
(lp2449
Vhttp://www.beckett.com/basketball/1999-00/topps-gold-label-class-2-one-to-one/47-larry-hughes-3189211
p2450
asg17
g18
sg19
(lp2451
Vhttp://img.beckett.com/images/no-image.jpg
p2452
asg22
V#47
p2453
sg24
V1999-00
p2454
sg26
g27
sg28
(lp2455
VLarry Hughes
p2456
assbag1
(g2
g3
Ntp2457
Rp2458
(dp2459
g7
(dp2460
g9
V1999-00 Topps Gold Label Class 2 One to One #78 Matt Geiger
p2461
sg11
I1
sg12
VTopps Gold Label Class 2 One to One
p2462
sg14
(lp2463
Vhttp://www.beckett.com/basketball/1999-00/topps-gold-label-class-2-one-to-one/78-matt-geiger-3189242
p2464
asg17
g18
sg19
(lp2465
Vhttp://img.beckett.com/images/no-image.jpg
p2466
asg22
V#78
p2467
sg24
V1999-00
p2468
sg26
g27
sg28
(lp2469
VMatt Geiger
p2470
assbag1
(g2
g3
Ntp2471
Rp2472
(dp2473
g7
(dp2474
g9
V1999-00 Topps Gold Label Class 2 Red Label #21 Allen Iverson
p2475
sg11
I50
sg12
VTopps Gold Label Class 2 Red Label
p2476
sg14
(lp2477
Vhttp://www.beckett.com/basketball/1999-00/topps-gold-label-class-2-red-label/21-allen-iverson-3189295
p2478
asg17
g18
sg19
(lp2479
Vhttp://img.beckett.com/images/no-image.jpg
p2480
asg22
V#21
p2481
sg24
V1999-00
p2482
sg26
g27
sg28
(lp2483
VAllen Iverson
p2484
assbag1
(g2
g3
Ntp2485
Rp2486
(dp2487
g7
(dp2488
g9
V1999-00 Topps Gold Label Class 2 Red Label #47 Larry Hughes
p2489
sg11
I50
sg12
VTopps Gold Label Class 2 Red Label
p2490
sg14
(lp2491
Vhttp://www.beckett.com/basketball/1999-00/topps-gold-label-class-2-red-label/47-larry-hughes-3189321
p2492
asg17
g18
sg19
(lp2493
Vhttp://img.beckett.com/images/no-image.jpg
p2494
asg22
V#47
p2495
sg24
V1999-00
p2496
sg26
g27
sg28
(lp2497
VLarry Hughes
p2498
assbag1
(g2
g3
Ntp2499
Rp2500
(dp2501
g7
(dp2502
g9
V1999-00 Topps Gold Label Class 2 Red Label #78 Matt Geiger
p2503
sg11
I50
sg12
VTopps Gold Label Class 2 Red Label
p2504
sg14
(lp2505
Vhttp://www.beckett.com/basketball/1999-00/topps-gold-label-class-2-red-label/78-matt-geiger-3189352
p2506
asg17
g18
sg19
(lp2507
Vhttp://img.beckett.com/images/no-image.jpg
p2508
asg22
V#78
p2509
sg24
V1999-00
p2510
sg26
g27
sg28
(lp2511
VMatt Geiger
p2512
assbag1
(g2
g3
Ntp2513
Rp2514
(dp2515
g7
(dp2516
g9
V1999-00 Topps Gold Label Class 3 One to One #21 Allen Iverson
p2517
sg11
I1
sg12
VTopps Gold Label Class 3 One to One
p2518
sg14
(lp2519
Vhttp://www.beckett.com/basketball/1999-00/topps-gold-label-class-3-one-to-one/21-allen-iverson-3189631
p2520
asg17
g18
sg19
(lp2521
Vhttp://img.beckett.com/images/no-image.jpg
p2522
asg22
V#21
p2523
sg24
V1999-00
p2524
sg26
g27
sg28
(lp2525
VAllen Iverson
p2526
assbag1
(g2
g3
Ntp2527
Rp2528
(dp2529
g7
(dp2530
g9
V1999-00 Topps Gold Label Class 3 One to One #47 Larry Hughes
p2531
sg11
I1
sg12
VTopps Gold Label Class 3 One to One
p2532
sg14
(lp2533
Vhttp://www.beckett.com/basketball/1999-00/topps-gold-label-class-3-one-to-one/47-larry-hughes-3189657
p2534
asg17
g18
sg19
(lp2535
Vhttp://img.beckett.com/images/no-image.jpg
p2536
asg22
V#47
p2537
sg24
V1999-00
p2538
sg26
g27
sg28
(lp2539
VLarry Hughes
p2540
assbag1
(g2
g3
Ntp2541
Rp2542
(dp2543
g7
(dp2544
g9
V1999-00 Topps Gold Label Class 3 One to One #78 Matt Geiger
p2545
sg11
I1
sg12
VTopps Gold Label Class 3 One to One
p2546
sg14
(lp2547
Vhttp://www.beckett.com/basketball/1999-00/topps-gold-label-class-3-one-to-one/78-matt-geiger-3189688
p2548
asg17
g18
sg19
(lp2549
Vhttp://img.beckett.com/images/no-image.jpg
p2550
asg22
V#78
p2551
sg24
V1999-00
p2552
sg26
g27
sg28
(lp2553
VMatt Geiger
p2554
assbag1
(g2
g3
Ntp2555
Rp2556
(dp2557
g7
(dp2558
g9
V1999-00 Topps Gold Label Class 3 Red Label #21 Allen Iverson
p2559
sg11
I25
sg12
VTopps Gold Label Class 3 Red Label
p2560
sg14
(lp2561
Vhttp://www.beckett.com/basketball/1999-00/topps-gold-label-class-3-red-label/21-allen-iverson-3187442
p2562
asg17
g18
sg19
(lp2563
Vhttp://img.beckett.com/images/no-image.jpg
p2564
asg22
V#21
p2565
sg24
V1999-00
p2566
sg26
g27
sg28
(lp2567
VAllen Iverson
p2568
assbag1
(g2
g3
Ntp2569
Rp2570
(dp2571
g7
(dp2572
g9
V1999-00 Topps Gold Label Class 3 Red Label #47 Larry Hughes
p2573
sg11
I25
sg12
VTopps Gold Label Class 3 Red Label
p2574
sg14
(lp2575
Vhttp://www.beckett.com/basketball/1999-00/topps-gold-label-class-3-red-label/47-larry-hughes-3187468
p2576
asg17
g18
sg19
(lp2577
Vhttp://img.beckett.com/images/no-image.jpg
p2578
asg22
V#47
p2579
sg24
V1999-00
p2580
sg26
g27
sg28
(lp2581
VLarry Hughes
p2582
assbag1
(g2
g3
Ntp2583
Rp2584
(dp2585
g7
(dp2586
g9
V1999-00 Topps Gold Label Class 3 Red Label #78 Matt Geiger
p2587
sg11
I25
sg12
VTopps Gold Label Class 3 Red Label
p2588
sg14
(lp2589
Vhttp://www.beckett.com/basketball/1999-00/topps-gold-label-class-3-red-label/78-matt-geiger-3187499
p2590
asg17
g18
sg19
(lp2591
Vhttp://img.beckett.com/images/no-image.jpg
p2592
asg22
V#78
p2593
sg24
V1999-00
p2594
sg26
g27
sg28
(lp2595
VMatt Geiger
p2596
assbag1
(g2
g3
Ntp2597
Rp2598
(dp2599
g7
(dp2600
g9
V1999-00 UD Ionix Reciprocal #85 Jumaine Jones
p2601
sg11
I100
sg12
VUD Ionix Reciprocal
p2602
sg14
(lp2603
Vhttp://www.beckett.com/basketball/1999-00/ud-ionix-reciprocal/85-jumaine-jones-3188116
p2604
asg17
g18
sg19
(lp2605
Vhttp://img.beckett.com/images/no-image.jpg
p2606
asg22
V#85
p2607
sg24
V1999-00
p2608
sg26
g27
sg28
(lp2609
VJumaine Jones
p2610
assbag1
(g2
g3
Ntp2611
Rp2612
(dp2613
g7
(dp2614
g9
V1999-00 UD Ionix Reciprocal #89 Todd MacCulloch
p2615
sg11
I100
sg12
VUD Ionix Reciprocal
p2616
sg14
(lp2617
Vhttp://www.beckett.com/basketball/1999-00/ud-ionix-reciprocal/89-todd-macculloch-3188120
p2618
asg17
g18
sg19
(lp2619
Vhttp://img.beckett.com/images/no-image.jpg
p2620
asg22
V#89
p2621
sg24
V1999-00
p2622
sg26
g27
sg28
(lp2623
VTodd MacCulloch
p2624
assbag1
(g2
g3
Ntp2625
Rp2626
(dp2627
g7
(dp2628
g9
V1999-00 Ultimate Victory 1 of 1 #60 Allen Iverson
p2629
sg11
I1
sg12
VUltimate Victory 1 of 1
p2630
sg14
(lp2631
Vhttp://www.beckett.com/basketball/1999-00/ultimate-victory-1-of-1/60-allen-iverson-3180424
p2632
asg17
g18
sg19
(lp2633
Vhttp://img.beckett.com/images/no-image.jpg
p2634
asg22
V#60
p2635
sg24
V1999-00
p2636
sg26
g27
sg28
(lp2637
VAllen Iverson
p2638
assbag1
(g2
g3
Ntp2639
Rp2640
(dp2641
g7
(dp2642
g9
V1999-00 Ultimate Victory 1 of 1 #61 Theo Ratliff
p2643
sg11
I1
sg12
VUltimate Victory 1 of 1
p2644
sg14
(lp2645
Vhttp://www.beckett.com/basketball/1999-00/ultimate-victory-1-of-1/61-theo-ratliff-3180425
p2646
asg17
g18
sg19
(lp2647
Vhttp://img.beckett.com/images/no-image.jpg
p2648
asg22
V#61
p2649
sg24
V1999-00
p2650
sg26
g27
sg28
(lp2651
VTheo Ratliff
p2652
assbag1
(g2
g3
Ntp2653
Rp2654
(dp2655
g7
(dp2656
g9
V1999-00 Ultimate Victory 1 of 1 #62 Larry Hughes
p2657
sg11
I1
sg12
VUltimate Victory 1 of 1
p2658
sg14
(lp2659
Vhttp://www.beckett.com/basketball/1999-00/ultimate-victory-1-of-1/62-larry-hughes-3180426
p2660
asg17
g18
sg19
(lp2661
Vhttp://img.beckett.com/images/no-image.jpg
p2662
asg22
V#62
p2663
sg24
V1999-00
p2664
sg26
g27
sg28
(lp2665
VLarry Hughes
p2666
assbag1
(g2
g3
Ntp2667
Rp2668
(dp2669
g7
(dp2670
g9
V1999-00 Ultimate Victory 1 of 1 #145 Jumaine Jones
p2671
sg11
I1
sg12
VUltimate Victory 1 of 1
p2672
sg14
(lp2673
Vhttp://www.beckett.com/basketball/1999-00/ultimate-victory-1-of-1/145-jumaine-jones-3180509
p2674
asg17
g18
sg19
(lp2675
Vhttp://img.beckett.com/images/no-image.jpg
p2676
asg22
V#145
p2677
sg24
V1999-00
p2678
sg26
g27
sg28
(lp2679
VJumaine Jones
p2680
assbag1
(g2
g3
Ntp2681
Rp2682
(dp2683
g7
(dp2684
g9
V1999-00 Ultimate Victory Parallel 100 #60 Allen Iverson
p2685
sg11
I100
sg12
VUltimate Victory Parallel 100
p2686
sg14
(lp2687
Vhttp://www.beckett.com/basketball/1999-00/ultimate-victory-parallel-100/60-allen-iverson-3180746
p2688
asg17
g18
sg19
(lp2689
Vhttp://img.beckett.com/images/no-image.jpg
p2690
asg22
V#60
p2691
sg24
V1999-00
p2692
sg26
g27
sg28
(lp2693
VAllen Iverson
p2694
assbag1
(g2
g3
Ntp2695
Rp2696
(dp2697
g7
(dp2698
g9
V1999-00 Ultimate Victory Parallel 100 #61 Theo Ratliff
p2699
sg11
I100
sg12
VUltimate Victory Parallel 100
p2700
sg14
(lp2701
Vhttp://www.beckett.com/basketball/1999-00/ultimate-victory-parallel-100/61-theo-ratliff-3180747
p2702
asg17
g18
sg19
(lp2703
Vhttp://img.beckett.com/images/no-image.jpg
p2704
asg22
V#61
p2705
sg24
V1999-00
p2706
sg26
g27
sg28
(lp2707
VTheo Ratliff
p2708
assbag1
(g2
g3
Ntp2709
Rp2710
(dp2711
g7
(dp2712
g9
V1999-00 Ultimate Victory Parallel 100 #62 Larry Hughes
p2713
sg11
I100
sg12
VUltimate Victory Parallel 100
p2714
sg14
(lp2715
Vhttp://www.beckett.com/basketball/1999-00/ultimate-victory-parallel-100/62-larry-hughes-3180748
p2716
asg17
g18
sg19
(lp2717
Vhttp://img.beckett.com/images/no-image.jpg
p2718
asg22
V#62
p2719
sg24
V1999-00
p2720
sg26
g27
sg28
(lp2721
VLarry Hughes
p2722
assbag1
(g2
g3
Ntp2723
Rp2724
(dp2725
g7
(dp2726
g9
V1999-00 Ultimate Victory Parallel 100 #145 Jumaine Jones
p2727
sg11
I100
sg12
VUltimate Victory Parallel 100
p2728
sg14
(lp2729
Vhttp://www.beckett.com/basketball/1999-00/ultimate-victory-parallel-100/145-jumaine-jones-3180831
p2730
asg17
g18
sg19
(lp2731
Vhttp://img.beckett.com/images/no-image.jpg
p2732
asg22
V#145
p2733
sg24
V1999-00
p2734
sg26
g27
sg28
(lp2735
VJumaine Jones
p2736
assbag1
(g2
g3
Ntp2737
Rp2738
(dp2739
g7
(dp2740
g9
V1999-00 Ultra Masterpieces #18 Eric Snow
p2741
sg11
I1
sg12
VUltra Masterpieces
p2742
sg14
(lp2743
Vhttp://www.beckett.com/basketball/1999-00/ultra-masterpieces/18-eric-snow-3206009
p2744
asg17
g18
sg19
(lp2745
Vhttp://img.beckett.com/images/no-image.jpg
p2746
asg22
V#18
p2747
sg24
V1999-00
p2748
sg26
g27
sg28
(lp2749
VEric Snow
p2750
assbag1
(g2
g3
Ntp2751
Rp2752
(dp2753
g7
(dp2754
g9
V1999-00 Ultra Masterpieces #20 Allen Iverson
p2755
sg11
I1
sg12
VUltra Masterpieces
p2756
sg14
(lp2757
Vhttp://www.beckett.com/basketball/1999-00/ultra-masterpieces/20-allen-iverson-3206011
p2758
asg17
g18
sg19
(lp2759
Vhttp://img.beckett.com/images/no-image.jpg
p2760
asg22
V#20
p2761
sg24
V1999-00
p2762
sg26
g27
sg28
(lp2763
VAllen Iverson
p2764
assbag1
(g2
g3
Ntp2765
Rp2766
(dp2767
g7
(dp2768
g9
V1999-00 Ultra Masterpieces #31 Matt Geiger
p2769
sg11
I1
sg12
VUltra Masterpieces
p2770
sg14
(lp2771
Vhttp://www.beckett.com/basketball/1999-00/ultra-masterpieces/31-matt-geiger-3206022
p2772
asg17
g18
sg19
(lp2773
Vhttp://img.beckett.com/images/no-image.jpg
p2774
asg22
V#31
p2775
sg24
V1999-00
p2776
sg26
g27
sg28
(lp2777
VMatt Geiger
p2778
assbag1
(g2
g3
Ntp2779
Rp2780
(dp2781
g7
(dp2782
g9
V1999-00 Ultra Masterpieces #66 Larry Hughes
p2783
sg11
I1
sg12
VUltra Masterpieces
p2784
sg14
(lp2785
Vhttp://www.beckett.com/basketball/1999-00/ultra-masterpieces/66-larry-hughes-3206057
p2786
asg17
g18
sg19
(lp2787
Vhttp://img.beckett.com/images/no-image.jpg
p2788
asg22
V#66
p2789
sg24
V1999-00
p2790
sg26
g27
sg28
(lp2791
VLarry Hughes
p2792
assbag1
(g2
g3
Ntp2793
Rp2794
(dp2795
g7
(dp2796
g9
V1999-00 Ultra Masterpieces #106 Theo Ratliff
p2797
sg11
I1
sg12
VUltra Masterpieces
p2798
sg14
(lp2799
Vhttp://www.beckett.com/basketball/1999-00/ultra-masterpieces/106-theo-ratliff-3206097
p2800
asg17
g18
sg19
(lp2801
Vhttp://img.beckett.com/images/no-image.jpg
p2802
asg22
V#106
p2803
sg24
V1999-00
p2804
sg26
g27
sg28
(lp2805
VTheo Ratliff
p2806
assbag1
(g2
g3
Ntp2807
Rp2808
(dp2809
g7
(dp2810
g9
V1999-00 Ultra Masterpieces #139 Jumaine Jones
p2811
sg11
I1
sg12
VUltra Masterpieces
p2812
sg14
(lp2813
Vhttp://www.beckett.com/basketball/1999-00/ultra-masterpieces/139-jumaine-jones-3206130
p2814
asg17
g18
sg19
(lp2815
Vhttp://img.beckett.com/images/no-image.jpg
p2816
asg22
V#139
p2817
sg24
V1999-00
p2818
sg26
g27
sg28
(lp2819
VJumaine Jones
p2820
assbag1
(g2
g3
Ntp2821
Rp2822
(dp2823
g7
(dp2824
g9
V1999-00 Ultra Platinum Medallion #18 Eric Snow
p2825
sg11
I50
sg12
VUltra Platinum Medallion
p2826
sg14
(lp2827
Vhttp://www.beckett.com/basketball/1999-00/ultra-platinum-medallion/18-eric-snow-3185824
p2828
asg17
g18
sg19
(lp2829
Vhttp://img.beckett.com/images/no-image.jpg
p2830
asg22
V#18
p2831
sg24
V1999-00
p2832
sg26
g27
sg28
(lp2833
VEric Snow
p2834
assbag1
(g2
g3
Ntp2835
Rp2836
(dp2837
g7
(dp2838
g9
V1999-00 Ultra Platinum Medallion #20 Allen Iverson
p2839
sg11
I50
sg12
VUltra Platinum Medallion
p2840
sg14
(lp2841
Vhttp://www.beckett.com/basketball/1999-00/ultra-platinum-medallion/20-allen-iverson-3185826
p2842
asg17
g18
sg19
(lp2843
Vhttp://img.beckett.com/images/no-image.jpg
p2844
asg22
V#20
p2845
sg24
V1999-00
p2846
sg26
g27
sg28
(lp2847
VAllen Iverson
p2848
assbag1
(g2
g3
Ntp2849
Rp2850
(dp2851
g7
(dp2852
g9
V1999-00 Ultra Platinum Medallion #31 Matt Geiger
p2853
sg11
I50
sg12
VUltra Platinum Medallion
p2854
sg14
(lp2855
Vhttp://www.beckett.com/basketball/1999-00/ultra-platinum-medallion/31-matt-geiger-3185837
p2856
asg17
g18
sg19
(lp2857
Vhttp://img.beckett.com/images/items_stock/185226/3185794/3185837/front.jpg
p2858
asg22
V#31
p2859
sg24
V1999-00
p2860
sg26
g27
sg28
(lp2861
VMatt Geiger
p2862
assbag1
(g2
g3
Ntp2863
Rp2864
(dp2865
g7
(dp2866
g9
V1999-00 Ultra Platinum Medallion #66 Larry Hughes
p2867
sg11
I50
sg12
VUltra Platinum Medallion
p2868
sg14
(lp2869
Vhttp://www.beckett.com/basketball/1999-00/ultra-platinum-medallion/66-larry-hughes-3185872
p2870
asg17
g18
sg19
(lp2871
Vhttp://img.beckett.com/images/items_stock/185226/3185794/3185872/front.jpg
p2872
asg22
V#66
p2873
sg24
V1999-00
p2874
sg26
g27
sg28
(lp2875
VLarry Hughes
p2876
assbag1
(g2
g3
Ntp2877
Rp2878
(dp2879
g7
(dp2880
g9
V1999-00 Ultra Platinum Medallion #106 Theo Ratliff
p2881
sg11
I50
sg12
VUltra Platinum Medallion
p2882
sg14
(lp2883
Vhttp://www.beckett.com/basketball/1999-00/ultra-platinum-medallion/106-theo-ratliff-3185912
p2884
asg17
g18
sg19
(lp2885
Vhttp://img.beckett.com/images/no-image.jpg
p2886
asg22
V#106
p2887
sg24
V1999-00
p2888
sg26
g27
sg28
(lp2889
VTheo Ratliff
p2890
assbag1
(g2
g3
Ntp2891
Rp2892
(dp2893
g7
(dp2894
g9
V1999-00 Ultra Platinum Medallion #139 Jumaine Jones
p2895
sg11
I25
sg12
VUltra Platinum Medallion
p2896
sg14
(lp2897
Vhttp://www.beckett.com/basketball/1999-00/ultra-platinum-medallion/139-jumaine-jones-3185945
p2898
asg17
g18
sg19
(lp2899
Vhttp://img.beckett.com/images/no-image.jpg
p2900
asg22
V#139
p2901
sg24
V1999-00
p2902
sg26
g27
sg28
(lp2903
VJumaine Jones
p2904
assbag1
(g2
g3
Ntp2905
Rp2906
(dp2907
g7
(dp2908
g9
V1999-00 Upper Deck Bronze #89 Allen Iverson
p2909
sg11
I100
sg12
VUpper Deck Bronze
p2910
sg14
(lp2911
Vhttp://www.beckett.com/basketball/1999-00/upper-deck-bronze/89-allen-iverson-3186616
p2912
asg17
g18
sg19
(lp2913
Vhttp://img.beckett.com/images/items_stock/185226/3186514/3186616/front.jpg
p2914
asg22
V#89
p2915
sg24
V1999-00
p2916
sg26
g27
sg28
(lp2917
VAllen Iverson
p2918
assbag1
(g2
g3
Ntp2919
Rp2920
(dp2921
g7
(dp2922
g9
V1999-00 Upper Deck Bronze #90 Theo Ratliff
p2923
sg11
I100
sg12
VUpper Deck Bronze
p2924
sg14
(lp2925
Vhttp://www.beckett.com/basketball/1999-00/upper-deck-bronze/90-theo-ratliff-3186617
p2926
asg17
g18
sg19
(lp2927
Vhttp://img.beckett.com/images/no-image.jpg
p2928
asg22
V#90
p2929
sg24
V1999-00
p2930
sg26
g27
sg28
(lp2931
VTheo Ratliff
p2932
assbag1
(g2
g3
Ntp2933
Rp2934
(dp2935
g7
(dp2936
g9
V1999-00 Upper Deck Bronze #91 Larry Hughes
p2937
sg11
I100
sg12
VUpper Deck Bronze
p2938
sg14
(lp2939
Vhttp://www.beckett.com/basketball/1999-00/upper-deck-bronze/91-larry-hughes-3186618
p2940
asg17
g18
sg19
(lp2941
Vhttp://img.beckett.com/images/items_stock/185226/3186514/3186618/front.jpg
p2942
asg22
V#91
p2943
sg24
V1999-00
p2944
sg26
g27
sg28
(lp2945
VLarry Hughes
p2946
assbag1
(g2
g3
Ntp2947
Rp2948
(dp2949
g7
(dp2950
g9
V1999-00 Upper Deck Bronze #92 Eric Snow
p2951
sg11
I100
sg12
VUpper Deck Bronze
p2952
sg14
(lp2953
Vhttp://www.beckett.com/basketball/1999-00/upper-deck-bronze/92-eric-snow-3186619
p2954
asg17
g18
sg19
(lp2955
Vhttp://img.beckett.com/images/items_stock/185226/3186514/3186619/front.jpg
p2956
asg22
V#92
p2957
sg24
V1999-00
p2958
sg26
g27
sg28
(lp2959
VEric Snow
p2960
assbag1
(g2
g3
Ntp2961
Rp2962
(dp2963
g7
(dp2964
g9
V1999-00 Upper Deck Bronze #170 Jumaine Jones
p2965
sg11
I100
sg12
VUpper Deck Bronze
p2966
sg14
(lp2967
Vhttp://www.beckett.com/basketball/1999-00/upper-deck-bronze/170-jumaine-jones-3186697
p2968
asg17
g18
sg19
(lp2969
Vhttp://img.beckett.com/images/items_stock/185226/3186514/3186697/front.jpg
p2970
asg22
V#170
p2971
sg24
V1999-00
p2972
sg26
g27
sg28
(lp2973
VJumaine Jones
p2974
assbag1
(g2
g3
Ntp2975
Rp2976
(dp2977
g7
(dp2978
g9
V1999-00 Upper Deck Bronze #269 George Lynch
p2979
sg11
I100
sg12
VUpper Deck Bronze
p2980
sg14
(lp2981
Vhttp://www.beckett.com/basketball/1999-00/upper-deck-bronze/269-george-lynch-3186796
p2982
asg17
g18
sg19
(lp2983
Vhttp://img.beckett.com/images/items_stock/185226/3186514/3186796/front.jpg
p2984
asg22
V#269
p2985
sg24
V1999-00
p2986
sg26
g27
sg28
(lp2987
VGeorge Lynch
p2988
assbag1
(g2
g3
Ntp2989
Rp2990
(dp2991
g7
(dp2992
g9
V1999-00 Upper Deck Bronze #270 Tyrone Hill
p2993
sg11
I100
sg12
VUpper Deck Bronze
p2994
sg14
(lp2995
Vhttp://www.beckett.com/basketball/1999-00/upper-deck-bronze/270-tyrone-hill-3186797
p2996
asg17
g18
sg19
(lp2997
Vhttp://img.beckett.com/images/items_stock/185226/3186514/3186797/front.jpg
p2998
asg22
V#270
p2999
sg24
V1999-00
p3000
sg26
g27
sg28
(lp3001
VTyrone Hill
p3002
assbag1
(g2
g3
Ntp3003
Rp3004
(dp3005
g7
(dp3006
g9
V1999-00 Upper Deck Bronze #340 Jumaine Jones
p3007
sg11
I100
sg12
VUpper Deck Bronze
p3008
sg14
(lp3009
Vhttp://www.beckett.com/basketball/1999-00/upper-deck-bronze/340-jumaine-jones-3186867
p3010
asg17
g18
sg19
(lp3011
Vhttp://img.beckett.com/images/items_stock/185226/3186514/3186867/front.jpg
p3012
asg22
V#340
p3013
sg24
V1999-00
p3014
sg26
g27
sg28
(lp3015
VJumaine Jones
p3016
assbag1
(g2
g3
Ntp3017
Rp3018
(dp3019
g7
(dp3020
g9
V1999-00 Upper Deck Bronze #354 Todd MacCulloch
p3021
sg11
I100
sg12
VUpper Deck Bronze
p3022
sg14
(lp3023
Vhttp://www.beckett.com/basketball/1999-00/upper-deck-bronze/354-todd-macculloch-3186881
p3024
asg17
g18
sg19
(lp3025
Vhttp://img.beckett.com/images/items_stock/185226/3186514/3186881/front.jpg
p3026
asg22
V#354
p3027
sg24
V1999-00
p3028
sg26
g27
sg28
(lp3029
VTodd MacCulloch
p3030
assbag1
(g2
g3
Ntp3031
Rp3032
(dp3033
g7
(dp3034
g9
V1999-00 Upper Deck Gold #89 Allen Iverson
p3035
sg11
I1
sg12
VUpper Deck Gold
p3036
sg14
(lp3037
Vhttp://www.beckett.com/basketball/1999-00/upper-deck-gold/89-allen-iverson-3186981
p3038
asg17
g18
sg19
(lp3039
Vhttp://img.beckett.com/images/no-image.jpg
p3040
asg22
V#89
p3041
sg24
V1999-00
p3042
sg26
g27
sg28
(lp3043
VAllen Iverson
p3044
assbag1
(g2
g3
Ntp3045
Rp3046
(dp3047
g7
(dp3048
g9
V1999-00 Upper Deck Gold #90 Theo Ratliff
p3049
sg11
I1
sg12
VUpper Deck Gold
p3050
sg14
(lp3051
Vhttp://www.beckett.com/basketball/1999-00/upper-deck-gold/90-theo-ratliff-3186982
p3052
asg17
g18
sg19
(lp3053
Vhttp://img.beckett.com/images/no-image.jpg
p3054
asg22
V#90
p3055
sg24
V1999-00
p3056
sg26
g27
sg28
(lp3057
VTheo Ratliff
p3058
assbag1
(g2
g3
Ntp3059
Rp3060
(dp3061
g7
(dp3062
g9
V1999-00 Upper Deck Gold #91 Larry Hughes
p3063
sg11
I1
sg12
VUpper Deck Gold
p3064
sg14
(lp3065
Vhttp://www.beckett.com/basketball/1999-00/upper-deck-gold/91-larry-hughes-3186983
p3066
asg17
g18
sg19
(lp3067
Vhttp://img.beckett.com/images/no-image.jpg
p3068
asg22
V#91
p3069
sg24
V1999-00
p3070
sg26
g27
sg28
(lp3071
VLarry Hughes
p3072
assbag1
(g2
g3
Ntp3073
Rp3074
(dp3075
g7
(dp3076
g9
V1999-00 Upper Deck Gold #92 Eric Snow
p3077
sg11
I1
sg12
VUpper Deck Gold
p3078
sg14
(lp3079
Vhttp://www.beckett.com/basketball/1999-00/upper-deck-gold/92-eric-snow-3186984
p3080
asg17
g18
sg19
(lp3081
Vhttp://img.beckett.com/images/no-image.jpg
p3082
asg22
V#92
p3083
sg24
V1999-00
p3084
sg26
g27
sg28
(lp3085
VEric Snow
p3086
assbag1
(g2
g3
Ntp3087
Rp3088
(dp3089
g7
(dp3090
g9
V1999-00 Upper Deck Gold #170 Jumaine Jones
p3091
sg11
I1
sg12
VUpper Deck Gold
p3092
sg14
(lp3093
Vhttp://www.beckett.com/basketball/1999-00/upper-deck-gold/170-jumaine-jones-3187062
p3094
asg17
g18
sg19
(lp3095
Vhttp://img.beckett.com/images/no-image.jpg
p3096
asg22
V#170
p3097
sg24
V1999-00
p3098
sg26
g27
sg28
(lp3099
VJumaine Jones
p3100
assbag1
(g2
g3
Ntp3101
Rp3102
(dp3103
g7
(dp3104
g9
V1999-00 Upper Deck Gold #269 George Lynch
p3105
sg11
I1
sg12
VUpper Deck Gold
p3106
sg14
(lp3107
Vhttp://www.beckett.com/basketball/1999-00/upper-deck-gold/269-george-lynch-3187161
p3108
asg17
g18
sg19
(lp3109
Vhttp://img.beckett.com/images/no-image.jpg
p3110
asg22
V#269
p3111
sg24
V1999-00
p3112
sg26
g27
sg28
(lp3113
VGeorge Lynch
p3114
assbag1
(g2
g3
Ntp3115
Rp3116
(dp3117
g7
(dp3118
g9
V1999-00 Upper Deck Gold #270 Tyrone Hill
p3119
sg11
I1
sg12
VUpper Deck Gold
p3120
sg14
(lp3121
Vhttp://www.beckett.com/basketball/1999-00/upper-deck-gold/270-tyrone-hill-3187162
p3122
asg17
g18
sg19
(lp3123
Vhttp://img.beckett.com/images/no-image.jpg
p3124
asg22
V#270
p3125
sg24
V1999-00
p3126
sg26
g27
sg28
(lp3127
VTyrone Hill
p3128
assbag1
(g2
g3
Ntp3129
Rp3130
(dp3131
g7
(dp3132
g9
V1999-00 Upper Deck Gold #340 Jumaine Jones
p3133
sg11
I1
sg12
VUpper Deck Gold
p3134
sg14
(lp3135
Vhttp://www.beckett.com/basketball/1999-00/upper-deck-gold/340-jumaine-jones-3187232
p3136
asg17
g18
sg19
(lp3137
Vhttp://img.beckett.com/images/no-image.jpg
p3138
asg22
V#340
p3139
sg24
V1999-00
p3140
sg26
g27
sg28
(lp3141
VJumaine Jones
p3142
assbag1
(g2
g3
Ntp3143
Rp3144
(dp3145
g7
(dp3146
g9
V1999-00 Upper Deck Gold #354 Todd MacCulloch
p3147
sg11
I1
sg12
VUpper Deck Gold
p3148
sg14
(lp3149
Vhttp://www.beckett.com/basketball/1999-00/upper-deck-gold/354-todd-macculloch-3187246
p3150
asg17
g18
sg19
(lp3151
Vhttp://img.beckett.com/images/no-image.jpg
p3152
asg22
V#354
p3153
sg24
V1999-00
p3154
sg26
g27
sg28
(lp3155
VTodd MacCulloch
p3156
assbag1
(g2
g3
Ntp3157
Rp3158
(dp3159
g7
(dp3160
g9
V1999-00 Upper Deck Hardcourt Baseline Grooves Gold #40 Allen Iverson
p3161
sg11
I1
sg12
VUpper Deck Hardcourt Baseline Grooves Gold
p3162
sg14
(lp3163
Vhttp://www.beckett.com/basketball/1999-00/upper-deck-hardcourt-baseline-grooves-gold/40-allen-iverson-3183880
p3164
asg17
g18
sg19
(lp3165
Vhttp://img.beckett.com/images/no-image.jpg
p3166
asg22
V#40
p3167
sg24
V1999-00
p3168
sg26
g27
sg28
(lp3169
VAllen Iverson
p3170
assbag1
(g2
g3
Ntp3171
Rp3172
(dp3173
g7
(dp3174
g9
V1999-00 Upper Deck Hardcourt Baseline Grooves Gold #41 Larry Hughes
p3175
sg11
I1
sg12
VUpper Deck Hardcourt Baseline Grooves Gold
p3176
sg14
(lp3177
Vhttp://www.beckett.com/basketball/1999-00/upper-deck-hardcourt-baseline-grooves-gold/41-larry-hughes-3183881
p3178
asg17
g18
sg19
(lp3179
Vhttp://img.beckett.com/images/no-image.jpg
p3180
asg22
V#41
p3181
sg24
V1999-00
p3182
sg26
g27
sg28
(lp3183
VLarry Hughes
p3184
assbag1
(g2
g3
Ntp3185
Rp3186
(dp3187
g7
(dp3188
g9
V1999-00 Upper Deck Hardcourt Baseline Grooves Gold #74 Jumaine Jones
p3189
sg11
I1
sg12
VUpper Deck Hardcourt Baseline Grooves Gold
p3190
sg14
(lp3191
Vhttp://www.beckett.com/basketball/1999-00/upper-deck-hardcourt-baseline-grooves-gold/74-jumaine-jones-3183914
p3192
asg17
g18
sg19
(lp3193
Vhttp://img.beckett.com/images/no-image.jpg
p3194
asg22
V#74
p3195
sg24
V1999-00
p3196
sg26
g27
sg28
(lp3197
VJumaine Jones
p3198
assbag1
(g2
g3
Ntp3199
Rp3200
(dp3201
g7
(dp3202
g9
V1999-00 Upper Deck Hardcourt Baseline Grooves Rainbow #40 Allen Iverson
p3203
sg11
I500
sg12
VUpper Deck Hardcourt Baseline Grooves Rainbow
p3204
sg14
(lp3205
Vhttp://www.beckett.com/basketball/1999-00/upper-deck-hardcourt-baseline-grooves-rainbow/40-allen-iverson-3183787
p3206
asg17
g18
sg19
(lp3207
Vhttp://img.beckett.com/images/items_stock/185226/3183740/3183787/front.jpg
p3208
asg22
V#40
p3209
sg24
V1999-00
p3210
sg26
g27
sg28
(lp3211
VAllen Iverson
p3212
assbag1
(g2
g3
Ntp3213
Rp3214
(dp3215
g7
(dp3216
g9
V1999-00 Upper Deck Hardcourt Baseline Grooves Rainbow #41 Larry Hughes
p3217
sg11
I500
sg12
VUpper Deck Hardcourt Baseline Grooves Rainbow
p3218
sg14
(lp3219
Vhttp://www.beckett.com/basketball/1999-00/upper-deck-hardcourt-baseline-grooves-rainbow/41-larry-hughes-3183788
p3220
asg17
g18
sg19
(lp3221
Vhttp://img.beckett.com/images/items_stock/185226/3183740/3183788/front.jpg
p3222
asg22
V#41
p3223
sg24
V1999-00
p3224
sg26
g27
sg28
(lp3225
VLarry Hughes
p3226
assbag1
(g2
g3
Ntp3227
Rp3228
(dp3229
g7
(dp3230
g9
V1999-00 Upper Deck Hardcourt Baseline Grooves Rainbow #74 Jumaine Jones
p3231
sg11
I500
sg12
VUpper Deck Hardcourt Baseline Grooves Rainbow
p3232
sg14
(lp3233
Vhttp://www.beckett.com/basketball/1999-00/upper-deck-hardcourt-baseline-grooves-rainbow/74-jumaine-jones-3183821
p3234
asg17
g18
sg19
(lp3235
Vhttp://img.beckett.com/images/items_stock/185226/3183740/3183821/front.jpg
p3236
asg22
V#74
p3237
sg24
V1999-00
p3238
sg26
g27
sg28
(lp3239
VJumaine Jones
p3240
assbag1
(g2
g3
Ntp3241
Rp3242
(dp3243
g7
(dp3244
g9
V1999-00 Upper Deck Hardcourt Baseline Grooves Silver #40 Allen Iverson
p3245
sg11
I50
sg12
VUpper Deck Hardcourt Baseline Grooves Silver
p3246
sg14
(lp3247
Vhttp://www.beckett.com/basketball/1999-00/upper-deck-hardcourt-baseline-grooves-silver/40-allen-iverson-3183980
p3248
asg17
g18
sg19
(lp3249
Vhttp://img.beckett.com/images/no-image.jpg
p3250
asg22
V#40
p3251
sg24
V1999-00
p3252
sg26
g27
sg28
(lp3253
VAllen Iverson
p3254
assbag1
(g2
g3
Ntp3255
Rp3256
(dp3257
g7
(dp3258
g9
V1999-00 Upper Deck Hardcourt Baseline Grooves Silver #41 Larry Hughes
p3259
sg11
I50
sg12
VUpper Deck Hardcourt Baseline Grooves Silver
p3260
sg14
(lp3261
Vhttp://www.beckett.com/basketball/1999-00/upper-deck-hardcourt-baseline-grooves-silver/41-larry-hughes-3183981
p3262
asg17
g18
sg19
(lp3263
Vhttp://img.beckett.com/images/no-image.jpg
p3264
asg22
V#41
p3265
sg24
V1999-00
p3266
sg26
g27
sg28
(lp3267
VLarry Hughes
p3268
assbag1
(g2
g3
Ntp3269
Rp3270
(dp3271
g7
(dp3272
g9
V1999-00 Upper Deck Hardcourt Baseline Grooves Silver #74 Jumaine Jones
p3273
sg11
I50
sg12
VUpper Deck Hardcourt Baseline Grooves Silver
p3274
sg14
(lp3275
Vhttp://www.beckett.com/basketball/1999-00/upper-deck-hardcourt-baseline-grooves-silver/74-jumaine-jones-3184014
p3276
asg17
g18
sg19
(lp3277
Vhttp://img.beckett.com/images/no-image.jpg
p3278
asg22
V#74
p3279
sg24
V1999-00
p3280
sg26
g27
sg28
(lp3281
VJumaine Jones
p3282
assbag1
(g2
g3
Ntp3283
Rp3284
(dp3285
g7
(dp3286
g9
V1999-00 Upper Deck MVP Gold Script #118 Allen Iverson
p3287
sg11
I100
sg12
VUpper Deck MVP Gold Script
p3288
sg14
(lp3289
Vhttp://www.beckett.com/basketball/1999-00/upper-deck-mvp-gold-script/118-allen-iverson-3182751
p3290
asg17
g18
sg19
(lp3291
Vhttp://img.beckett.com/images/items_stock/185226/3182624/3182751/front.jpg
p3292
asg22
V#118
p3293
sg24
V1999-00
p3294
sg26
g27
sg28
(lp3295
VAllen Iverson
p3296
assbag1
(g2
g3
Ntp3297
Rp3298
(dp3299
g7
(dp3300
g9
V1999-00 Upper Deck MVP Gold Script #119 Theo Ratliff
p3301
sg11
I100
sg12
VUpper Deck MVP Gold Script
p3302
sg14
(lp3303
Vhttp://www.beckett.com/basketball/1999-00/upper-deck-mvp-gold-script/119-theo-ratliff-3182752
p3304
asg17
g18
sg19
(lp3305
Vhttp://img.beckett.com/images/no-image.jpg
p3306
asg22
V#119
p3307
sg24
V1999-00
p3308
sg26
g27
sg28
(lp3309
VTheo Ratliff
p3310
assbag1
(g2
g3
Ntp3311
Rp3312
(dp3313
g7
(dp3314
g9
V1999-00 Upper Deck MVP Gold Script #120 Matt Geiger
p3315
sg11
I100
sg12
VUpper Deck MVP Gold Script
p3316
sg14
(lp3317
Vhttp://www.beckett.com/basketball/1999-00/upper-deck-mvp-gold-script/120-matt-geiger-3182753
p3318
asg17
g18
sg19
(lp3319
Vhttp://img.beckett.com/images/items_stock/185226/3182624/3182753/front.jpg
p3320
asg22
V#120
p3321
sg24
V1999-00
p3322
sg26
g27
sg28
(lp3323
VMatt Geiger
p3324
assbag1
(g2
g3
Ntp3325
Rp3326
(dp3327
g7
(dp3328
g9
V1999-00 Upper Deck MVP Gold Script #121 Larry Hughes
p3329
sg11
I100
sg12
VUpper Deck MVP Gold Script
p3330
sg14
(lp3331
Vhttp://www.beckett.com/basketball/1999-00/upper-deck-mvp-gold-script/121-larry-hughes-3182754
p3332
asg17
g18
sg19
(lp3333
Vhttp://img.beckett.com/images/no-image.jpg
p3334
asg22
V#121
p3335
sg24
V1999-00
p3336
sg26
g27
sg28
(lp3337
VLarry Hughes
p3338
assbag1
(g2
g3
Ntp3339
Rp3340
(dp3341
g7
(dp3342
g9
V1999-00 Upper Deck MVP Gold Script #122 Tyrone Hill
p3343
sg11
I100
sg12
VUpper Deck MVP Gold Script
p3344
sg14
(lp3345
Vhttp://www.beckett.com/basketball/1999-00/upper-deck-mvp-gold-script/122-tyrone-hill-3182755
p3346
asg17
g18
sg19
(lp3347
Vhttp://img.beckett.com/images/no-image.jpg
p3348
asg22
V#122
p3349
sg24
V1999-00
p3350
sg26
g27
sg28
(lp3351
VTyrone Hill
p3352
assbag1
(g2
g3
Ntp3353
Rp3354
(dp3355
g7
(dp3356
g9
V1999-00 Upper Deck MVP Gold Script #123 George Lynch
p3357
sg11
I100
sg12
VUpper Deck MVP Gold Script
p3358
sg14
(lp3359
Vhttp://www.beckett.com/basketball/1999-00/upper-deck-mvp-gold-script/123-george-lynch-3182756
p3360
asg17
g18
sg19
(lp3361
Vhttp://img.beckett.com/images/no-image.jpg
p3362
asg22
V#123
p3363
sg24
V1999-00
p3364
sg26
g27
sg28
(lp3365
VGeorge Lynch
p3366
assbag1
(g2
g3
Ntp3367
Rp3368
(dp3369
g7
(dp3370
g9
V1999-00 Upper Deck MVP Super Script #118 Allen Iverson
p3371
sg11
I25
sg12
VUpper Deck MVP Super Script
p3372
sg14
(lp3373
Vhttp://www.beckett.com/basketball/1999-00/upper-deck-mvp-super-script/118-allen-iverson-3182981
p3374
asg17
g18
sg19
(lp3375
Vhttp://img.beckett.com/images/no-image.jpg
p3376
asg22
V#118
p3377
sg24
V1999-00
p3378
sg26
g27
sg28
(lp3379
VAllen Iverson
p3380
assbag1
(g2
g3
Ntp3381
Rp3382
(dp3383
g7
(dp3384
g9
V1999-00 Upper Deck MVP Super Script #119 Theo Ratliff
p3385
sg11
I25
sg12
VUpper Deck MVP Super Script
p3386
sg14
(lp3387
Vhttp://www.beckett.com/basketball/1999-00/upper-deck-mvp-super-script/119-theo-ratliff-3182982
p3388
asg17
g18
sg19
(lp3389
Vhttp://img.beckett.com/images/no-image.jpg
p3390
asg22
V#119
p3391
sg24
V1999-00
p3392
sg26
g27
sg28
(lp3393
VTheo Ratliff
p3394
assbag1
(g2
g3
Ntp3395
Rp3396
(dp3397
g7
(dp3398
g9
V1999-00 Upper Deck MVP Super Script #120 Matt Geiger
p3399
sg11
I25
sg12
VUpper Deck MVP Super Script
p3400
sg14
(lp3401
Vhttp://www.beckett.com/basketball/1999-00/upper-deck-mvp-super-script/120-matt-geiger-3182983
p3402
asg17
g18
sg19
(lp3403
Vhttp://img.beckett.com/images/no-image.jpg
p3404
asg22
V#120
p3405
sg24
V1999-00
p3406
sg26
g27
sg28
(lp3407
VMatt Geiger
p3408
assbag1
(g2
g3
Ntp3409
Rp3410
(dp3411
g7
(dp3412
g9
V1999-00 Upper Deck MVP Super Script #121 Larry Hughes
p3413
sg11
I25
sg12
VUpper Deck MVP Super Script
p3414
sg14
(lp3415
Vhttp://www.beckett.com/basketball/1999-00/upper-deck-mvp-super-script/121-larry-hughes-3182984
p3416
asg17
g18
sg19
(lp3417
Vhttp://img.beckett.com/images/no-image.jpg
p3418
asg22
V#121
p3419
sg24
V1999-00
p3420
sg26
g27
sg28
(lp3421
VLarry Hughes
p3422
assbag1
(g2
g3
Ntp3423
Rp3424
(dp3425
g7
(dp3426
g9
V1999-00 Upper Deck MVP Super Script #122 Tyrone Hill
p3427
sg11
I25
sg12
VUpper Deck MVP Super Script
p3428
sg14
(lp3429
Vhttp://www.beckett.com/basketball/1999-00/upper-deck-mvp-super-script/122-tyrone-hill-3182985
p3430
asg17
g18
sg19
(lp3431
Vhttp://img.beckett.com/images/no-image.jpg
p3432
asg22
V#122
p3433
sg24
V1999-00
p3434
sg26
g27
sg28
(lp3435
VTyrone Hill
p3436
assbag1
(g2
g3
Ntp3437
Rp3438
(dp3439
g7
(dp3440
g9
V1999-00 Upper Deck MVP Super Script #123 George Lynch
p3441
sg11
I25
sg12
VUpper Deck MVP Super Script
p3442
sg14
(lp3443
Vhttp://www.beckett.com/basketball/1999-00/upper-deck-mvp-super-script/123-george-lynch-3182986
p3444
asg17
g18
sg19
(lp3445
Vhttp://img.beckett.com/images/no-image.jpg
p3446
asg22
V#123
p3447
sg24
V1999-00
p3448
sg26
g27
sg28
(lp3449
VGeorge Lynch
p3450
assbag1
(g2
g3
Ntp3451
Rp3452
(dp3453
g7
(dp3454
g9
V1999-00 Upper Deck Ovation Standing Ovation #40 Allen Iverson
p3455
sg11
I50
sg12
VUpper Deck Ovation Standing Ovation
p3456
sg14
(lp3457
Vhttp://www.beckett.com/basketball/1999-00/upper-deck-ovation-standing-ovation/40-allen-iverson-3181173
p3458
asg17
g18
sg19
(lp3459
Vhttp://img.beckett.com/images/no-image.jpg
p3460
asg22
V#40
p3461
sg24
V1999-00
p3462
sg26
g27
sg28
(lp3463
VAllen Iverson
p3464
assbag1
(g2
g3
Ntp3465
Rp3466
(dp3467
g7
(dp3468
g9
V1999-00 Upper Deck Ovation Standing Ovation #41 Larry Hughes
p3469
sg11
I50
sg12
VUpper Deck Ovation Standing Ovation
p3470
sg14
(lp3471
Vhttp://www.beckett.com/basketball/1999-00/upper-deck-ovation-standing-ovation/41-larry-hughes-3181174
p3472
asg17
g18
sg19
(lp3473
Vhttp://img.beckett.com/images/no-image.jpg
p3474
asg22
V#41
p3475
sg24
V1999-00
p3476
sg26
g27
sg28
(lp3477
VLarry Hughes
p3478
assbag1
(g2
g3
Ntp3479
Rp3480
(dp3481
g7
(dp3482
g9
V1999-00 Upper Deck Ovation Standing Ovation #86 Jumaine Jones
p3483
sg11
I50
sg12
VUpper Deck Ovation Standing Ovation
p3484
sg14
(lp3485
Vhttp://www.beckett.com/basketball/1999-00/upper-deck-ovation-standing-ovation/86-jumaine-jones-3181219
p3486
asg17
g18
sg19
(lp3487
Vhttp://img.beckett.com/images/no-image.jpg
p3488
asg22
V#86
p3489
sg24
V1999-00
p3490
sg26
g27
sg28
(lp3491
VJumaine Jones
p3492
assbag1
(g2
g3
Ntp3493
Rp3494
(dp3495
g7
(dp3496
g9
V1999-00 Upper Deck Retro Gold #37 Allen Iverson
p3497
sg11
I250
sg12
VUpper Deck Retro Gold
p3498
sg14
(lp3499
Vhttp://www.beckett.com/basketball/1999-00/upper-deck-retro-gold/37-allen-iverson-3181544
p3500
asg17
g18
sg19
(lp3501
Vhttp://img.beckett.com/images/no-image.jpg
p3502
asg22
V#37
p3503
sg24
V1999-00
p3504
sg26
g27
sg28
(lp3505
VAllen Iverson
p3506
assbag1
(g2
g3
Ntp3507
Rp3508
(dp3509
g7
(dp3510
g9
V1999-00 Upper Deck Retro Gold #68 Julius Erving
p3511
sg11
I250
sg12
VUpper Deck Retro Gold
p3512
sg14
(lp3513
Vhttp://www.beckett.com/basketball/1999-00/upper-deck-retro-gold/68-julius-erving-3181575
p3514
asg17
g18
sg19
(lp3515
Vhttp://img.beckett.com/images/no-image.jpg
p3516
asg22
V#68
p3517
sg24
V1999-00
p3518
sg26
g27
sg28
(lp3519
VJulius Erving
p3520
assbag1
(g2
g3
Ntp3521
Rp3522
(dp3523
g7
(dp3524
g9
V1999-00 Upper Deck Retro Gold #91 Moses Malone
p3525
sg11
I250
sg12
VUpper Deck Retro Gold
p3526
sg14
(lp3527
Vhttp://www.beckett.com/basketball/1999-00/upper-deck-retro-gold/91-moses-malone-3181598
p3528
asg17
g18
sg19
(lp3529
Vhttp://img.beckett.com/images/no-image.jpg
p3530
asg22
V#91
p3531
sg24
V1999-00
p3532
sg26
g27
sg28
(lp3533
VMoses Malone
p3534
assbag1
(g2
g3
Ntp3535
Rp3536
(dp3537
g7
(dp3538
g9
V1999-00 Upper Deck Retro Gold #100 Jumaine Jones
p3539
sg11
I250
sg12
VUpper Deck Retro Gold
p3540
sg14
(lp3541
Vhttp://www.beckett.com/basketball/1999-00/upper-deck-retro-gold/100-jumaine-jones-3181607
p3542
asg17
g18
sg19
(lp3543
Vhttp://img.beckett.com/images/items_stock/185226/3181499/3181607/front.jpg
p3544
asg22
V#100
p3545
sg24
V1999-00
p3546
sg26
g27
sg28
(lp3547
VJumaine Jones
p3548
assbag1
(g2
g3
Ntp3549
Rp3550
(dp3551
g7
(dp3552
g9
V1999-00 Upper Deck Retro Platinum #37 Allen Iverson
p3553
sg11
I1
sg12
VUpper Deck Retro Platinum
p3554
sg14
(lp3555
Vhttp://www.beckett.com/basketball/1999-00/upper-deck-retro-platinum/37-allen-iverson-3181659
p3556
asg17
g18
sg19
(lp3557
Vhttp://img.beckett.com/images/no-image.jpg
p3558
asg22
V#37
p3559
sg24
V1999-00
p3560
sg26
g27
sg28
(lp3561
VAllen Iverson
p3562
assbag1
(g2
g3
Ntp3563
Rp3564
(dp3565
g7
(dp3566
g9
V1999-00 Upper Deck Retro Platinum #68 Julius Erving
p3567
sg11
I1
sg12
VUpper Deck Retro Platinum
p3568
sg14
(lp3569
Vhttp://www.beckett.com/basketball/1999-00/upper-deck-retro-platinum/68-julius-erving-3181690
p3570
asg17
g18
sg19
(lp3571
Vhttp://img.beckett.com/images/no-image.jpg
p3572
asg22
V#68
p3573
sg24
V1999-00
p3574
sg26
g27
sg28
(lp3575
VJulius Erving
p3576
assbag1
(g2
g3
Ntp3577
Rp3578
(dp3579
g7
(dp3580
g9
V1999-00 Upper Deck Retro Platinum #91 Moses Malone
p3581
sg11
I1
sg12
VUpper Deck Retro Platinum
p3582
sg14
(lp3583
Vhttp://www.beckett.com/basketball/1999-00/upper-deck-retro-platinum/91-moses-malone-3181713
p3584
asg17
g18
sg19
(lp3585
Vhttp://img.beckett.com/images/no-image.jpg
p3586
asg22
V#91
p3587
sg24
V1999-00
p3588
sg26
g27
sg28
(lp3589
VMoses Malone
p3590
assbag1
(g2
g3
Ntp3591
Rp3592
(dp3593
g7
(dp3594
g9
V1999-00 Upper Deck Retro Platinum #100 Jumaine Jones
p3595
sg11
I1
sg12
VUpper Deck Retro Platinum
p3596
sg14
(lp3597
Vhttp://www.beckett.com/basketball/1999-00/upper-deck-retro-platinum/100-jumaine-jones-3181722
p3598
asg17
g18
sg19
(lp3599
Vhttp://img.beckett.com/images/no-image.jpg
p3600
asg22
V#100
p3601
sg24
V1999-00
p3602
sg26
g27
sg28
(lp3603
VJumaine Jones
p3604
assbag1
(g2
g3
Ntp3605
Rp3606
(dp3607
g7
(dp3608
g9
V1999-00 Finest Dunk Masters #DM12 Allen Iverson
p3609
sg11
I750
sg12
VFinest Dunk Masters
p3610
sg14
(lp3611
Vhttp://www.beckett.com/basketball/1999-00/finest-dunk-masters/dm12-allen-iverson-3204386
p3612
asg17
g18
sg19
(lp3613
Vhttp://img.beckett.com/images/no-image.jpg
p3614
asg22
V#DM12
p3615
sg24
V1999-00
p3616
sg26
g27
sg28
(lp3617
VAllen Iverson
p3618
assbag1
(g2
g3
Ntp3619
Rp3620
(dp3621
g7
(dp3622
g9
V1999-00 Finest Salute #FS1 Vince Carter/Tim Duncan/Allen Iverson/Gold Refractor
p3623
sg11
I50
sg12
VFinest Salute
p3624
sg14
(lp3625
Vhttp://www.beckett.com/basketball/1999-00/finest-salute/fs1-vince-cartertim-duncanallen-iversongold-refractor-3202564
p3626
asg17
g18
sg19
(lp3627
Vhttp://img.beckett.com/images/no-image.jpg
p3628
asg22
V#FS1
p3629
sg24
V1999-00
p3630
sg26
g27
sg28
(lp3631
VVince Carter
p3632
aVTim Duncan
p3633
aVAllen Iverson
p3634
aVGold Refractor
p3635
assbag1
(g2
g3
Ntp3636
Rp3637
(dp3638
g7
(dp3639
g9
V1999-00 Finest Team Finest Blue #TF4 Allen Iverson
p3640
sg11
I1500
sg12
VFinest Team Finest Blue
p3641
sg14
(lp3642
Vhttp://www.beckett.com/basketball/1999-00/finest-team-finest-blue/tf4-allen-iverson-3202601
p3643
asg17
g18
sg19
(lp3644
Vhttp://img.beckett.com/images/items_stock/185226/3202568/3202601/front.jpg
p3645
asg22
V#TF4
p3646
sg24
V1999-00
p3647
sg26
g27
sg28
(lp3648
VAllen Iverson
p3649
assbag1
(g2
g3
Ntp3650
Rp3651
(dp3652
g7
(dp3653
g9
V1999-00 Flair Showcase Rookie Showcase Firsts #24 Jumaine Jones
p3654
sg11
I500
sg12
VFlair Showcase Rookie Showcase Firsts
p3655
sg14
(lp3656
Vhttp://www.beckett.com/basketball/1999-00/flair-showcase-rookie-showcase-firsts/24-jumaine-jones-3201026
p3657
asg17
g18
sg19
(lp3658
Vhttp://img.beckett.com/images/items_stock/185226/3200996/3201026/front.jpg
p3659
asg22
V#24
p3660
sg24
V1999-00
p3661
sg26
g27
sg28
(lp3662
VJumaine Jones
p3663
assbag1
(g2
g3
Ntp3664
Rp3665
(dp3666
g7
(dp3667
g9
V1999-00 Fleer Fresh Ink #8 Larry Hughes
p3668
sg11
I400
sg12
VFleer Fresh Ink
p3669
sg14
(lp3670
Vhttp://www.beckett.com/basketball/1999-00/fleer-fresh-ink/8-larry-hughes-3201744
p3671
asg17
g18
sg19
(lp3672
Vhttp://img.beckett.com/images/no-image.jpg
p3673
asg22
V#8
p3674
sg57
I1
sg24
V1999-00
p3675
sg26
g27
sg28
(lp3676
VLarry Hughes
p3677
assbag1
(g2
g3
Ntp3678
Rp3679
(dp3680
g7
(dp3681
g9
V1999-00 Fleer Game Breakers #8 Allen Iverson
p3682
sg11
I100
sg12
VFleer Game Breakers
p3683
sg14
(lp3684
Vhttp://www.beckett.com/basketball/1999-00/fleer-game-breakers/8-allen-iverson-3201767
p3685
asg17
g18
sg19
(lp3686
Vhttp://img.beckett.com/images/no-image.jpg
p3687
asg22
V#8
p3688
sg24
V1999-00
p3689
sg26
g27
sg28
(lp3690
VAllen Iverson
p3691
assbag1
(g2
g3
Ntp3692
Rp3693
(dp3694
g7
(dp3695
g9
V1999-00 Fleer Mystique Point Perfect #PP6 Allen Iverson
p3696
sg11
I1999
sg12
VFleer Mystique Point Perfect
p3697
sg14
(lp3698
Vhttp://www.beckett.com/basketball/1999-00/fleer-mystique-point-perfect/pp6-allen-iverson-3198822
p3699
asg17
g18
sg19
(lp3700
Vhttp://img.beckett.com/images/no-image.jpg
p3701
asg22
V#PP6
p3702
sg24
V1999-00
p3703
sg26
g27
sg28
(lp3704
VAllen Iverson
p3705
assbag1
(g2
g3
Ntp3706
Rp3707
(dp3708
g7
(dp3709
g9
V1999-00 Fleer Mystique Raise the Roof #RR6 Allen Iverson
p3710
sg11
I100
sg12
VFleer Mystique Raise the Roof
p3711
sg14
(lp3712
Vhttp://www.beckett.com/basketball/1999-00/fleer-mystique-raise-the-roof/rr6-allen-iverson-3198839
p3713
asg17
g18
sg19
(lp3714
Vhttp://img.beckett.com/images/no-image.jpg
p3715
asg22
V#RR6
p3716
sg24
V1999-00
p3717
sg26
g27
sg28
(lp3718
VAllen Iverson
p3719
assbag1
(g2
g3
Ntp3720
Rp3721
(dp3722
g7
(dp3723
g9
V1999-00 Fleer Mystique Slamboree #S5 Larry Hughes
p3724
sg11
I999
sg12
VFleer Mystique Slamboree
p3725
sg14
(lp3726
Vhttp://www.beckett.com/basketball/1999-00/fleer-mystique-slamboree/s5-larry-hughes-3198855
p3727
asg17
g18
sg19
(lp3728
Vhttp://img.beckett.com/images/items_stock/185226/3198844/3198855/front.jpg
p3729
asg22
V#S5
p3730
sg24
V1999-00
p3731
sg26
g27
sg28
(lp3732
VLarry Hughes
p3733
assbag1
(g2
g3
Ntp3734
Rp3735
(dp3736
g7
(dp3737
g9
V1999-00 Hoops Pure Players #PP7 Allen Iverson
p3738
sg11
I500
sg12
VHoops Pure Players
p3739
sg14
(lp3740
Vhttp://www.beckett.com/basketball/1999-00/hoops-pure-players/pp7-allen-iverson-3199322
p3741
asg17
g18
sg19
(lp3742
Vhttp://img.beckett.com/images/no-image.jpg
p3743
asg22
V#PP7
p3744
sg24
V1999-00
p3745
sg26
g27
sg28
(lp3746
VAllen Iverson
p3747
assbag1
(g2
g3
Ntp3748
Rp3749
(dp3750
g7
(dp3751
g9
V1999-00 SkyBox Dominion Hats Off #14 Jumaine Jones/135
p3752
sg11
I135
sg12
VSkyBox Dominion Hats Off
p3753
sg14
(lp3754
Vhttp://www.beckett.com/basketball/1999-00/skybox-dominion-hats-off/14-jumaine-jones135-3197196
p3755
asg17
g18
sg53
I1
sg19
(lp3756
Vhttp://img.beckett.com/images/no-image.jpg
p3757
asg22
V#14
p3758
sg24
V1999-00
p3759
sg26
g27
sg28
(lp3760
VJumaine Jones
p3761
assbag1
(g2
g3
Ntp3762
Rp3763
(dp3764
g7
(dp3765
g9
V1999-00 SkyBox Premium Club Vertical #10 Allen Iverson
p3766
sg11
I100
sg12
VSkyBox Premium Club Vertical
p3767
sg14
(lp3768
Vhttp://www.beckett.com/basketball/1999-00/skybox-premium-club-vertical/10-allen-iverson-3196017
p3769
asg17
g18
sg19
(lp3770
Vhttp://img.beckett.com/images/no-image.jpg
p3771
asg22
V#10
p3772
sg24
V1999-00
p3773
sg26
g27
sg28
(lp3774
VAllen Iverson
p3775
assbag1
(g2
g3
Ntp3776
Rp3777
(dp3778
g7
(dp3779
g9
V1999-00 SkyBox Premium Genuine Coverage #5 Allen Iverson/275
p3780
sg11
I275
sg12
VSkyBox Premium Genuine Coverage
p3781
sg14
(lp3782
Vhttp://www.beckett.com/basketball/1999-00/skybox-premium-genuine-coverage/5-allen-iverson275-3196028
p3783
asg17
g18
sg53
I1
sg19
(lp3784
Vhttp://img.beckett.com/images/no-image.jpg
p3785
asg22
V#5
p3786
sg24
V1999-00
p3787
sg26
g27
sg28
(lp3788
VAllen Iverson
p3789
assbag1
(g2
g3
Ntp3790
Rp3791
(dp3792
g7
(dp3793
g9
V1999-00 SP Authentic BuyBack #42 Larry Hughes 98-9SPA/3
p3794
sg11
I3
sg12
VSP Authentic BuyBack
p3795
sg14
(lp3796
Vhttp://www.beckett.com/basketball/1999-00/sp-authentic-buyback/42-larry-hughes-98-9spa3-3196352
p3797
asg17
g18
sg19
(lp3798
Vhttp://img.beckett.com/images/no-image.jpg
p3799
asg22
V#42
p3800
sg57
I1
sg24
V1999-00
p3801
sg26
g27
sg28
(lp3802
VLarry Hughes
p3803
assbag1
(g2
g3
Ntp3804
Rp3805
(dp3806
g7
(dp3807
g9
V1999-00 SP Authentic BuyBack #43 Larry Hughes 98-9SPA2K/90
p3808
sg11
I90
sg12
VSP Authentic BuyBack
p3809
sg14
(lp3810
Vhttp://www.beckett.com/basketball/1999-00/sp-authentic-buyback/43-larry-hughes-98-9spa2k90-3196353
p3811
asg17
g18
sg19
(lp3812
Vhttp://img.beckett.com/images/no-image.jpg
p3813
asg22
V#43
p3814
sg57
I1
sg24
V1999-00
p3815
sg26
g27
sg28
(lp3816
VLarry Hughes
p3817
assbag1
(g2
g3
Ntp3818
Rp3819
(dp3820
g7
(dp3821
g9
V1999-00 Ultimate Victory Ultimate Fabrics #UF1 Julius Erving/300
p3822
sg11
I300
sg12
VUltimate Victory Ultimate Fabrics
p3823
sg14
(lp3824
Vhttp://www.beckett.com/basketball/1999-00/ultimate-victory-ultimate-fabrics/uf1-julius-erving300-3179526
p3825
asg17
g18
sg53
I1
sg19
(lp3826
Vhttp://img.beckett.com/images/no-image.jpg
p3827
asg22
V#UF1
p3828
sg24
V1999-00
p3829
sg26
g27
sg28
(lp3830
VJulius Erving
p3831
assbag1
(g2
g3
Ntp3832
Rp3833
(dp3834
g7
(dp3835
g9
V1999-00 Ultimate Victory Ultimate Fabrics #UF1A Julius Erving AU/6
p3836
sg11
I6
sg12
VUltimate Victory Ultimate Fabrics
p3837
sg14
(lp3838
Vhttp://www.beckett.com/basketball/1999-00/ultimate-victory-ultimate-fabrics/uf1a-julius-erving-au6-3179527
p3839
asg17
g18
sg53
I1
sg19
(lp3840
Vhttp://img.beckett.com/images/no-image.jpg
p3841
asg22
V#UF1A
p3842
sg57
I1
sg24
V1999-00
p3843
sg26
g27
sg28
(lp3844
VJulius Erving
p3845
assbag1
(g2
g3
Ntp3846
Rp3847
(dp3848
g7
(dp3849
g9
V1999-00 Ultimate Victory Ultimate Fabrics #UF3 Julius Erving/25/Kobe Bryant
p3850
sg11
I25
sg12
VUltimate Victory Ultimate Fabrics
p3851
sg14
(lp3852
Vhttp://www.beckett.com/basketball/1999-00/ultimate-victory-ultimate-fabrics/uf3-julius-erving25kobe-bryant-3179529
p3853
asg17
g18
sg53
I1
sg19
(lp3854
Vhttp://img.beckett.com/images/no-image.jpg
p3855
asg22
V#UF3
p3856
sg24
V1999-00
p3857
sg26
g27
sg28
(lp3858
VJulius Erving
p3859
aVKobe Bryant
p3860
assbag1
(g2
g3
Ntp3861
Rp3862
(dp3863
g7
(dp3864
g9
V1999-00 Ultra Millennium Men #1 Allen Iverson
p3865
sg11
I100
sg12
VUltra Millennium Men
p3866
sg14
(lp3867
Vhttp://www.beckett.com/basketball/1999-00/ultra-millennium-men/1-allen-iverson-3186083
p3868
asg17
g18
sg19
(lp3869
Vhttp://img.beckett.com/images/no-image.jpg
p3870
asg22
V#1
p3871
sg24
V1999-00
p3872
sg26
g27
sg28
(lp3873
VAllen Iverson
p3874
assbag1
(g2
g3
Ntp3875
Rp3876
(dp3877
g7
(dp3878
g9
V1999-00 Upper Deck Game Jerseys Patch Super #AI Allen Iverson 1
p3879
sg11
I25
sg12
VUpper Deck Game Jerseys Patch Super
p3880
sg14
(lp3881
Vhttp://www.beckett.com/basketball/1999-00/upper-deck-game-jerseys-patch-super/ai-allen-iverson-1-3185126
p3882
asg17
g18
sg53
I1
sg19
(lp3883
Vhttp://img.beckett.com/images/no-image.jpg
p3884
asg22
V#AI
p3885
sg24
V1999-00
p3886
sg26
g27
sg28
(lp3887
VAllen Iverson
p3888
assbag1
(g2
g3
Ntp3889
Rp3890
(dp3891
g7
(dp3892
g9
V1999-00 Upper Deck Game Jerseys Patch Super #AI Allen Iverson 2
p3893
sg11
I25
sg12
VUpper Deck Game Jerseys Patch Super
p3894
sg14
(lp3895
Vhttp://www.beckett.com/basketball/1999-00/upper-deck-game-jerseys-patch-super/ai-allen-iverson-2-3185127
p3896
asg17
g18
sg53
I1
sg19
(lp3897
Vhttp://img.beckett.com/images/no-image.jpg
p3898
asg22
V#AI
p3899
sg24
V1999-00
p3900
sg26
g27
sg28
(lp3901
VAllen Iverson
p3902
assbag1
(g2
g3
Ntp3903
Rp3904
(dp3905
g7
(dp3906
g9
V1999-00 E-X Essential Credentials Future #34 Larry Hughes/27
p3907
sg11
I27
sg12
VE-X Essential Credentials Future
p3908
sg14
(lp3909
Vhttp://www.beckett.com/basketball/1999-00/e-x-essential-credentials-future/34-larry-hughes27-3205195
p3910
asg17
g18
sg19
(lp3911
Vhttp://img.beckett.com/images/no-image.jpg
p3912
asg22
V#34
p3913
sg24
V1999-00
p3914
sg26
g27
sg28
(lp3915
VLarry Hughes
p3916
assbag1
(g2
g3
Ntp3917
Rp3918
(dp3919
g7
(dp3920
g9
V1999-00 E-X Essential Credentials Future #45 Allen Iverson/16
p3921
sg11
I16
sg12
VE-X Essential Credentials Future
p3922
sg14
(lp3923
Vhttp://www.beckett.com/basketball/1999-00/e-x-essential-credentials-future/45-allen-iverson16-3205206
p3924
asg17
g18
sg19
(lp3925
Vhttp://img.beckett.com/images/no-image.jpg
p3926
asg22
V#45
p3927
sg24
V1999-00
p3928
sg26
g27
sg28
(lp3929
VAllen Iverson
p3930
assbag1
(g2
g3
Ntp3931
Rp3932
(dp3933
g7
(dp3934
g9
V1999-00 E-X Essential Credentials Future #90 Jumaine Jones/1
p3935
sg11
I1
sg12
VE-X Essential Credentials Future
p3936
sg14
(lp3937
Vhttp://www.beckett.com/basketball/1999-00/e-x-essential-credentials-future/90-jumaine-jones1-3205251
p3938
asg17
g18
sg19
(lp3939
Vhttp://img.beckett.com/images/no-image.jpg
p3940
asg22
V#90
p3941
sg24
V1999-00
p3942
sg26
g27
sg28
(lp3943
VJumaine Jones
p3944
assbag1
(g2
g3
Ntp3945
Rp3946
(dp3947
g7
(dp3948
g9
V1999-00 E-X Essential Credentials Now #34 Larry Hughes/34
p3949
sg11
I34
sg12
VE-X Essential Credentials Now
p3950
sg14
(lp3951
Vhttp://www.beckett.com/basketball/1999-00/e-x-essential-credentials-now/34-larry-hughes34-3205292
p3952
asg17
g18
sg19
(lp3953
Vhttp://img.beckett.com/images/items_stock/185226/3205252/3205292/front.jpg
p3954
asg22
V#34
p3955
sg24
V1999-00
p3956
sg26
g27
sg28
(lp3957
VLarry Hughes
p3958
assbag1
(g2
g3
Ntp3959
Rp3960
(dp3961
g7
(dp3962
g9
V1999-00 E-X Essential Credentials Now #45 Allen Iverson/45
p3963
sg11
I45
sg12
VE-X Essential Credentials Now
p3964
sg14
(lp3965
Vhttp://www.beckett.com/basketball/1999-00/e-x-essential-credentials-now/45-allen-iverson45-3205303
p3966
asg17
g18
sg19
(lp3967
Vhttp://img.beckett.com/images/no-image.jpg
p3968
asg22
V#45
p3969
sg24
V1999-00
p3970
sg26
g27
sg28
(lp3971
VAllen Iverson
p3972
assbag1
(g2
g3
Ntp3973
Rp3974
(dp3975
g7
(dp3976
g9
V1999-00 E-X Essential Credentials Now #90 Jumaine Jones/30
p3977
sg11
I30
sg12
VE-X Essential Credentials Now
p3978
sg14
(lp3979
Vhttp://www.beckett.com/basketball/1999-00/e-x-essential-credentials-now/90-jumaine-jones30-3205348
p3980
asg17
g18
sg19
(lp3981
Vhttp://img.beckett.com/images/items_stock/185226/3205252/3205348/front.jpg
p3982
asg22
V#90
p3983
sg24
V1999-00
p3984
sg26
g27
sg28
(lp3985
VJumaine Jones
p3986
assbag1
(g2
g3
Ntp3987
Rp3988
(dp3989
g7
(dp3990
g9
V1999-00 E-X E-Xceptional Green #XC3 Allen Iverson
p3991
sg11
I500
sg12
VE-X E-Xceptional Green
p3992
sg14
(lp3993
Vhttp://www.beckett.com/basketball/1999-00/e-x-e-xceptional-green/xc3-allen-iverson-3203222
p3994
asg17
g18
sg19
(lp3995
Vhttp://img.beckett.com/images/no-image.jpg
p3996
asg22
V#XC3
p3997
sg24
V1999-00
p3998
sg26
g27
sg28
(lp3999
VAllen Iverson
p4000
assbag1
(g2
g3
Ntp4001
Rp4002
(dp4003
g7
(dp4004
g9
V1999-00 E-X E-Xceptional Blue #XC3 Allen Iverson
p4005
sg11
I250
sg12
VE-X E-Xceptional Blue
p4006
sg14
(lp4007
Vhttp://www.beckett.com/basketball/1999-00/e-x-e-xceptional-blue/xc3-allen-iverson-3205391
p4008
asg17
g18
sg19
(lp4009
Vhttp://img.beckett.com/images/items_stock/185226/3205381/3205391/front.jpg
p4010
asg22
V#XC3
p4011
sg24
V1999-00
p4012
sg26
g27
sg28
(lp4013
VAllen Iverson
p4014
assbag1
(g2
g3
Ntp4015
Rp4016
(dp4017
g7
(dp4018
g9
V1999-00 Finest Dunk Masters Refractors #DM12 Allen Iverson
p4019
sg11
I150
sg12
VFinest Dunk Masters Refractors
p4020
sg14
(lp4021
Vhttp://www.beckett.com/basketball/1999-00/finest-dunk-masters-refractors/dm12-allen-iverson-3204409
p4022
asg17
g18
sg19
(lp4023
Vhttp://img.beckett.com/images/no-image.jpg
p4024
asg22
V#DM12
p4025
sg24
V1999-00
p4026
sg26
g27
sg28
(lp4027
VAllen Iverson
p4028
assbag1
(g2
g3
Ntp4029
Rp4030
(dp4031
g7
(dp4032
g9
V1999-00 Finest Team Finest Blue Refractors #TF4 Allen Iverson
p4033
sg11
I150
sg12
VFinest Team Finest Blue Refractors
p4034
sg14
(lp4035
Vhttp://www.beckett.com/basketball/1999-00/finest-team-finest-blue-refractors/tf4-allen-iverson-3202632
p4036
asg17
g18
sg19
(lp4037
Vhttp://img.beckett.com/images/no-image.jpg
p4038
asg22
V#TF4
p4039
sg24
V1999-00
p4040
sg26
g27
sg28
(lp4041
VAllen Iverson
p4042
assbag1
(g2
g3
Ntp4043
Rp4044
(dp4045
g7
(dp4046
g9
V1999-00 Finest Team Finest Gold #TF4 Allen Iverson
p4047
sg11
I250
sg12
VFinest Team Finest Gold
p4048
sg14
(lp4049
Vhttp://www.beckett.com/basketball/1999-00/finest-team-finest-gold/tf4-allen-iverson-3202663
p4050
asg17
g18
sg19
(lp4051
Vhttp://img.beckett.com/images/no-image.jpg
p4052
asg22
V#TF4
p4053
sg24
V1999-00
p4054
sg26
g27
sg28
(lp4055
VAllen Iverson
p4056
assbag1
(g2
g3
Ntp4057
Rp4058
(dp4059
g7
(dp4060
g9
V1999-00 Finest Team Finest Gold Refractors #TF4 Allen Iverson
p4061
sg11
I25
sg12
VFinest Team Finest Gold Refractors
p4062
sg14
(lp4063
Vhttp://www.beckett.com/basketball/1999-00/finest-team-finest-gold-refractors/tf4-allen-iverson-3202694
p4064
asg17
g18
sg19
(lp4065
Vhttp://img.beckett.com/images/no-image.jpg
p4066
asg22
V#TF4
p4067
sg24
V1999-00
p4068
sg26
g27
sg28
(lp4069
VAllen Iverson
p4070
assbag1
(g2
g3
Ntp4071
Rp4072
(dp4073
g7
(dp4074
g9
V1999-00 Finest Team Finest Red #TF4 Allen Iverson
p4075
sg11
I500
sg12
VFinest Team Finest Red
p4076
sg14
(lp4077
Vhttp://www.beckett.com/basketball/1999-00/finest-team-finest-red/tf4-allen-iverson-3202725
p4078
asg17
g18
sg19
(lp4079
Vhttp://img.beckett.com/images/no-image.jpg
p4080
asg22
V#TF4
p4081
sg24
V1999-00
p4082
sg26
g27
sg28
(lp4083
VAllen Iverson
p4084
assbag1
(g2
g3
Ntp4085
Rp4086
(dp4087
g7
(dp4088
g9
V1999-00 Finest Team Finest Red Refractors #TF4 Allen Iverson
p4089
sg11
I50
sg12
VFinest Team Finest Red Refractors
p4090
sg14
(lp4091
Vhttp://www.beckett.com/basketball/1999-00/finest-team-finest-red-refractors/tf4-allen-iverson-3202756
p4092
asg17
g18
sg19
(lp4093
Vhttp://img.beckett.com/images/no-image.jpg
p4094
asg22
V#TF4
p4095
sg24
V1999-00
p4096
sg26
g27
sg28
(lp4097
VAllen Iverson
p4098
assbag1
(g2
g3
Ntp4099
Rp4100
(dp4101
g7
(dp4102
g9
V1999-00 Fleer Focus Soar Subjects Vivid #SS1 Allen Iverson
p4103
sg11
I50
sg12
VFleer Focus Soar Subjects Vivid
p4104
sg14
(lp4105
Vhttp://www.beckett.com/basketball/1999-00/fleer-focus-soar-subjects-vivid/ss1-allen-iverson-3200047
p4106
asg17
g18
sg19
(lp4107
Vhttp://img.beckett.com/images/no-image.jpg
p4108
asg22
V#SS1
p4109
sg24
V1999-00
p4110
sg26
g27
sg28
(lp4111
VAllen Iverson
p4112
assbag1
(g2
g3
Ntp4113
Rp4114
(dp4115
g7
(dp4116
g9
V1999-00 Fleer Focus Soar Subjects Vivid #SS9 Larry Hughes
p4117
sg11
I50
sg12
VFleer Focus Soar Subjects Vivid
p4118
sg14
(lp4119
Vhttp://www.beckett.com/basketball/1999-00/fleer-focus-soar-subjects-vivid/ss9-larry-hughes-3200055
p4120
asg17
g18
sg19
(lp4121
Vhttp://img.beckett.com/images/no-image.jpg
p4122
asg22
V#SS9
p4123
sg24
V1999-00
p4124
sg26
g27
sg28
(lp4125
VLarry Hughes
p4126
assbag1
(g2
g3
Ntp4127
Rp4128
(dp4129
g7
(dp4130
g9
V1999-00 Hoops Build Your Own Card Redemptions #7a Allen Iverson/Ball F/Body B
p4131
sg11
I250
sg12
VHoops Build Your Own Card Redemptions
p4132
sg14
(lp4133
Vhttp://www.beckett.com/basketball/1999-00/hoops-build-your-own-card-redemptions/7a-allen-iversonball-fbody-b-8642334
p4134
asg17
g18
sg19
(lp4135
Vhttp://img.beckett.com/images/no-image.jpg
p4136
asg22
V#7a
p4137
sg24
V1999-00
p4138
sg26
g27
sg28
(lp4139
VAllen Iverson
p4140
aVBall
p4141
aVBody
p4142
assbag1
(g2
g3
Ntp4143
Rp4144
(dp4145
g7
(dp4146
g9
V1999-00 Hoops Build Your Own Card Redemptions #7b Allen Iverson/Ball F/Head B
p4147
sg11
I250
sg12
VHoops Build Your Own Card Redemptions
p4148
sg14
(lp4149
Vhttp://www.beckett.com/basketball/1999-00/hoops-build-your-own-card-redemptions/7b-allen-iversonball-fhead-b-8642335
p4150
asg17
g18
sg19
(lp4151
Vhttp://img.beckett.com/images/no-image.jpg
p4152
asg22
V#7b
p4153
sg24
V1999-00
p4154
sg26
g27
sg28
(lp4155
VAllen Iverson
p4156
aVBall
p4157
aVHead
p4158
assbag1
(g2
g3
Ntp4159
Rp4160
(dp4161
g7
(dp4162
g9
V1999-00 Hoops Build Your Own Card Redemptions #7c Allen Iverson/Ball F/Horizonal B
p4163
sg11
I250
sg12
VHoops Build Your Own Card Redemptions
p4164
sg14
(lp4165
Vhttp://www.beckett.com/basketball/1999-00/hoops-build-your-own-card-redemptions/7c-allen-iversonball-fhorizonal-b-8642336
p4166
asg17
g18
sg19
(lp4167
Vhttp://img.beckett.com/images/no-image.jpg
p4168
asg22
V#7c
p4169
sg24
V1999-00
p4170
sg26
g27
sg28
(lp4171
VAllen Iverson
p4172
aVBall
p4173
aVHorizonal
p4174
assbag1
(g2
g3
Ntp4175
Rp4176
(dp4177
g7
(dp4178
g9
V1999-00 Hoops Build Your Own Card Redemptions #7d Allen Iverson/No Ball F/Body B
p4179
sg11
I250
sg12
VHoops Build Your Own Card Redemptions
p4180
sg14
(lp4181
Vhttp://www.beckett.com/basketball/1999-00/hoops-build-your-own-card-redemptions/7d-allen-iversonno-ball-fbody-b-8642337
p4182
asg17
g18
sg19
(lp4183
Vhttp://img.beckett.com/images/no-image.jpg
p4184
asg22
V#7d
p4185
sg24
V1999-00
p4186
sg26
g27
sg28
(lp4187
VAllen Iverson
p4188
aVBall
p4189
aVBody
p4190
assbag1
(g2
g3
Ntp4191
Rp4192
(dp4193
g7
(dp4194
g9
V1999-00 Hoops Build Your Own Card Redemptions #7e Allen Iverson/No Ball F/Head B
p4195
sg11
I250
sg12
VHoops Build Your Own Card Redemptions
p4196
sg14
(lp4197
Vhttp://www.beckett.com/basketball/1999-00/hoops-build-your-own-card-redemptions/7e-allen-iversonno-ball-fhead-b-8642338
p4198
asg17
g18
sg19
(lp4199
Vhttp://img.beckett.com/images/no-image.jpg
p4200
asg22
V#7e
p4201
sg24
V1999-00
p4202
sg26
g27
sg28
(lp4203
VAllen Iverson
p4204
ag4189
aVHead
p4205
assbag1
(g2
g3
Ntp4206
Rp4207
(dp4208
g7
(dp4209
g9
V1999-00 Hoops Build Your Own Card Redemptions #7f Allen Iverson/No Ball F/Horizontal B
p4210
sg11
I250
sg12
VHoops Build Your Own Card Redemptions
p4211
sg14
(lp4212
Vhttp://www.beckett.com/basketball/1999-00/hoops-build-your-own-card-redemptions/7f-allen-iversonno-ball-fhorizontal-b-8642339
p4213
asg17
g18
sg19
(lp4214
Vhttp://img.beckett.com/images/no-image.jpg
p4215
asg22
V#7f
p4216
sg24
V1999-00
p4217
sg26
g27
sg28
(lp4218
VAllen Iverson
p4219
ag4189
aVHorizonal
p4220
assbag1
(g2
g3
Ntp4221
Rp4222
(dp4223
g7
(dp4224
g9
V1999-00 Hoops Build Your Own Card Redemptions #7g Allen Iverson/Shoot F/Body B
p4225
sg11
I250
sg12
VHoops Build Your Own Card Redemptions
p4226
sg14
(lp4227
Vhttp://www.beckett.com/basketball/1999-00/hoops-build-your-own-card-redemptions/7g-allen-iversonshoot-fbody-b-8642340
p4228
asg17
g18
sg19
(lp4229
Vhttp://img.beckett.com/images/no-image.jpg
p4230
asg22
V#7g
p4231
sg24
V1999-00
p4232
sg26
g27
sg28
(lp4233
VAllen Iverson
p4234
aVShoot
p4235
aVBody
p4236
assbag1
(g2
g3
Ntp4237
Rp4238
(dp4239
g7
(dp4240
g9
V1999-00 Hoops Build Your Own Card Redemptions #7h Allen Iverson/Shoot F/Head B
p4241
sg11
I250
sg12
VHoops Build Your Own Card Redemptions
p4242
sg14
(lp4243
Vhttp://www.beckett.com/basketball/1999-00/hoops-build-your-own-card-redemptions/7h-allen-iversonshoot-fhead-b-8642341
p4244
asg17
g18
sg19
(lp4245
Vhttp://img.beckett.com/images/no-image.jpg
p4246
asg22
V#7h
p4247
sg24
V1999-00
p4248
sg26
g27
sg28
(lp4249
VAllen Iverson
p4250
aVShoot
p4251
aVHead
p4252
assbag1
(g2
g3
Ntp4253
Rp4254
(dp4255
g7
(dp4256
g9
V1999-00 Hoops Build Your Own Card Redemptions #7i Allen Iverson/Shoot F/Horizontal B
p4257
sg11
I250
sg12
VHoops Build Your Own Card Redemptions
p4258
sg14
(lp4259
Vhttp://www.beckett.com/basketball/1999-00/hoops-build-your-own-card-redemptions/7i-allen-iversonshoot-fhorizontal-b-8642342
p4260
asg17
g18
sg19
(lp4261
Vhttp://img.beckett.com/images/no-image.jpg
p4262
asg22
V#7i
p4263
sg24
V1999-00
p4264
sg26
g27
sg28
(lp4265
VAllen Iverson
p4266
aVShoot
p4267
ag4220
assbag1
(g2
g3
Ntp4268
Rp4269
(dp4270
g7
(dp4271
g9
V1999-00 Hoops Pure Players 100% #PP7 Allen Iverson
p4272
sg11
I100
sg12
VHoops Pure Players 100%
p4273
sg14
(lp4274
Vhttp://www.beckett.com/basketball/1999-00/hoops-pure-players-100/pp7-allen-iverson-3199340
p4275
asg17
g18
sg19
(lp4276
Vhttp://img.beckett.com/images/no-image.jpg
p4277
asg22
V#PP7
p4278
sg24
V1999-00
p4279
sg26
g27
sg28
(lp4280
VAllen Iverson
p4281
assbag1
(g2
g3
Ntp4282
Rp4283
(dp4284
g7
(dp4285
g9
V1999-00 Hoops Decade Retrospection Collection Parallel #RC3 Allen Iverson
p4286
sg11
I89
sg12
VHoops Decade Retrospection Collection Parallel
p4287
sg14
(lp4288
Vhttp://www.beckett.com/basketball/1999-00/hoops-decade-retrospection-collection-parallel/rc3-allen-iverson-3197410
p4289
asg17
g18
sg19
(lp4290
Vhttp://img.beckett.com/images/no-image.jpg
p4291
asg22
V#RC3
p4292
sg24
V1999-00
p4293
sg26
g27
sg28
(lp4294
VAllen Iverson
p4295
assbag1
(g2
g3
Ntp4296
Rp4297
(dp4298
g7
(dp4299
g9
V1999-00 Hoops Decade Up Tempo Parallel #UT1 Allen Iverson
p4300
sg11
I1989
sg12
VHoops Decade Up Tempo Parallel
p4301
sg14
(lp4302
Vhttp://www.beckett.com/basketball/1999-00/hoops-decade-up-tempo-parallel/ut1-allen-iverson-3197452
p4303
asg17
g18
sg19
(lp4304
Vhttp://img.beckett.com/images/no-image.jpg
p4305
asg22
V#UT1
p4306
sg24
V1999-00
p4307
sg26
g27
sg28
(lp4308
VAllen Iverson
p4309
assbag1
(g2
g3
Ntp4310
Rp4311
(dp4312
g7
(dp4313
g9
V1999-00 Hoops Decade Up Tempo Parallel #UT10 Larry Hughes
p4314
sg11
I1989
sg12
VHoops Decade Up Tempo Parallel
p4315
sg14
(lp4316
Vhttp://www.beckett.com/basketball/1999-00/hoops-decade-up-tempo-parallel/ut10-larry-hughes-3197461
p4317
asg17
g18
sg19
(lp4318
Vhttp://img.beckett.com/images/items_stock/185226/3197444/3197461/front.jpg
p4319
asg22
V#UT10
p4320
sg24
V1999-00
p4321
sg26
g27
sg28
(lp4322
VLarry Hughes
p4323
assbag1
(g2
g3
Ntp4324
Rp4325
(dp4326
g7
(dp4327
g9
V1999-00 SkyBox APEX Cutting Edge Warp Tek #1 Allen Iverson
p4328
sg11
I25
sg12
VSkyBox APEX Cutting Edge Warp Tek
p4329
sg14
(lp4330
Vhttp://www.beckett.com/basketball/1999-00/skybox-apex-cutting-edge-warp-tek/1-allen-iverson-3196721
p4331
asg17
g18
sg19
(lp4332
Vhttp://img.beckett.com/images/no-image.jpg
p4333
asg22
V#1
p4334
sg24
V1999-00
p4335
sg26
g27
sg28
(lp4336
VAllen Iverson
p4337
assbag1
(g2
g3
Ntp4338
Rp4339
(dp4340
g7
(dp4341
g9
V1999-00 SkyBox Dominion Sky's the Limit Warp Tek #5 Allen Iverson
p4342
sg11
I25
sg12
VSkyBox Dominion Sky's the Limit Warp Tek
p4343
sg14
(lp4344
Vhttp://www.beckett.com/basketball/1999-00/skybox-dominion-skys-the-limit-warp-tek/5-allen-iverson-3197261
p4345
asg17
g18
sg19
(lp4346
Vhttp://img.beckett.com/images/no-image.jpg
p4347
asg22
V#5
p4348
sg24
V1999-00
p4349
sg26
g27
sg28
(lp4350
VAllen Iverson
p4351
assbag1
(g2
g3
Ntp4352
Rp4353
(dp4354
g7
(dp4355
g9
V1999-00 SkyBox Premium Autographics Blue #50 Larry Hughes
p4356
sg11
I50
sg12
VSkyBox Premium Autographics Blue
p4357
sg14
(lp4358
Vhttp://www.beckett.com/basketball/1999-00/skybox-premium-autographics-blue/50-larry-hughes-3195914
p4359
asg17
g18
sg19
(lp4360
Vhttp://img.beckett.com/images/no-image.jpg
p4361
asg22
V#50
p4362
sg57
I1
sg24
V1999-00
p4363
sg26
g27
sg28
(lp4364
VLarry Hughes
p4365
assbag1
(g2
g3
Ntp4366
Rp4367
(dp4368
g7
(dp4369
g9
V1999-00 SkyBox Premium Autographics Blue #57 Jumaine Jones
p4370
sg11
I50
sg12
VSkyBox Premium Autographics Blue
p4371
sg14
(lp4372
Vhttp://www.beckett.com/basketball/1999-00/skybox-premium-autographics-blue/57-jumaine-jones-3195921
p4373
asg17
g18
sg19
(lp4374
Vhttp://img.beckett.com/images/no-image.jpg
p4375
asg22
V#57
p4376
sg57
I1
sg24
V1999-00
p4377
sg26
g27
sg28
(lp4378
VJumaine Jones
p4379
assbag1
(g2
g3
Ntp4380
Rp4381
(dp4382
g7
(dp4383
g9
V1999-00 SkyBox Premium Autographics Blue #66 George Lynch
p4384
sg11
I50
sg12
VSkyBox Premium Autographics Blue
p4385
sg14
(lp4386
Vhttp://www.beckett.com/basketball/1999-00/skybox-premium-autographics-blue/66-george-lynch-3195930
p4387
asg17
g18
sg19
(lp4388
Vhttp://img.beckett.com/images/no-image.jpg
p4389
asg22
V#66
p4390
sg57
I1
sg24
V1999-00
p4391
sg26
g27
sg28
(lp4392
VGeorge Lynch
p4393
assbag1
(g2
g3
Ntp4394
Rp4395
(dp4396
g7
(dp4397
g9
V1999-00 SkyBox Premium Autographics Blue #77 Nazr Mohammed
p4398
sg11
I50
sg12
VSkyBox Premium Autographics Blue
p4399
sg14
(lp4400
Vhttp://www.beckett.com/basketball/1999-00/skybox-premium-autographics-blue/77-nazr-mohammed-3195941
p4401
asg17
g18
sg19
(lp4402
Vhttp://img.beckett.com/images/no-image.jpg
p4403
asg22
V#77
p4404
sg57
I1
sg24
V1999-00
p4405
sg26
g27
sg28
(lp4406
VNazr Mohammed
p4407
assbag1
(g2
g3
Ntp4408
Rp4409
(dp4410
g7
(dp4411
g9
V1999-00 SkyBox Premium Autographics Blue #91 Theo Ratliff
p4412
sg11
I50
sg12
VSkyBox Premium Autographics Blue
p4413
sg14
(lp4414
Vhttp://www.beckett.com/basketball/1999-00/skybox-premium-autographics-blue/91-theo-ratliff-3195955
p4415
asg17
g18
sg19
(lp4416
Vhttp://img.beckett.com/images/no-image.jpg
p4417
asg22
V#91
p4418
sg57
I1
sg24
V1999-00
p4419
sg26
g27
sg28
(lp4420
VTheo Ratliff
p4421
assbag1
(g2
g3
Ntp4422
Rp4423
(dp4424
g7
(dp4425
g9
V1999-00 SkyBox Premium Good Stuff Parallel #9 Allen Iverson
p4426
sg11
I99
sg12
VSkyBox Premium Good Stuff Parallel
p4427
sg14
(lp4428
Vhttp://www.beckett.com/basketball/1999-00/skybox-premium-good-stuff-parallel/9-allen-iverson-3196067
p4429
asg17
g18
sg19
(lp4430
Vhttp://img.beckett.com/images/no-image.jpg
p4431
asg22
V#9
p4432
sg24
V1999-00
p4433
sg26
g27
sg28
(lp4434
VAllen Iverson
p4435
assbag1
(g2
g3
Ntp4436
Rp4437
(dp4438
g7
(dp4439
g9
V1999-00 SP Authentic Sign of the Times Gold #LH Larry Hughes
p4440
sg11
I25
sg12
VSP Authentic Sign of the Times Gold
p4441
sg14
(lp4442
Vhttp://www.beckett.com/basketball/1999-00/sp-authentic-sign-of-the-times-gold/lh-larry-hughes-3193027
p4443
asg17
g18
sg19
(lp4444
Vhttp://img.beckett.com/images/no-image.jpg
p4445
asg22
V#LH
p4446
sg57
I1
sg24
V1999-00
p4447
sg26
g27
sg28
(lp4448
VLarry Hughes
p4449
assbag1
(g2
g3
Ntp4450
Rp4451
(dp4452
g7
(dp4453
g9
V1999-00 Stadium Club Never Compromise Game-View #NCG14 Allen Iverson
p4454
sg11
I100
sg12
VStadium Club Never Compromise Game-View
p4455
sg14
(lp4456
Vhttp://www.beckett.com/basketball/1999-00/stadium-club-never-compromise-game-view/ncg14-allen-iverson-3192148
p4457
asg17
g18
sg19
(lp4458
Vhttp://img.beckett.com/images/items_stock/185226/3192127/3192148/front.jpg
p4459
asg22
V#NCG14
p4460
sg24
V1999-00
p4461
sg26
g27
sg28
(lp4462
VAllen Iverson
p4463
assbag1
(g2
g3
Ntp4464
Rp4465
(dp4466
g7
(dp4467
g9
V1999-00 Topps Gold Label New Standard One to One #NS5 Allen Iverson
p4468
sg11
I1
sg12
VTopps Gold Label New Standard One to One
p4469
sg14
(lp4470
Vhttp://www.beckett.com/basketball/1999-00/topps-gold-label-new-standard-one-to-one/ns5-allen-iverson-3187584
p4471
asg17
g18
sg19
(lp4472
Vhttp://img.beckett.com/images/no-image.jpg
p4473
asg22
V#NS5
p4474
sg24
V1999-00
p4475
sg26
g27
sg28
(lp4476
VAllen Iverson
p4477
assbag1
(g2
g3
Ntp4478
Rp4479
(dp4480
g7
(dp4481
g9
V1999-00 Topps Gold Label New Standard Red Label #NS5 Allen Iverson
p4482
sg11
I25
sg12
VTopps Gold Label New Standard Red Label
p4483
sg14
(lp4484
Vhttp://www.beckett.com/basketball/1999-00/topps-gold-label-new-standard-red-label/ns5-allen-iverson-3187608
p4485
asg17
g18
sg19
(lp4486
Vhttp://img.beckett.com/images/no-image.jpg
p4487
asg22
V#NS5
p4488
sg24
V1999-00
p4489
sg26
g27
sg28
(lp4490
VAllen Iverson
p4491
assbag1
(g2
g3
Ntp4492
Rp4493
(dp4494
g7
(dp4495
g9
V1999-00 Upper Deck Julius Erving Heroes Level 1 #H46 Julius Erving
p4496
sg11
I100
sg12
VUpper Deck Julius Erving Heroes Level 1
p4497
sg14
(lp4498
Vhttp://www.beckett.com/basketball/1999-00/upper-deck-julius-erving-heroes-level-1/h46-julius-erving-3184853
p4499
asg17
g18
sg19
(lp4500
Vhttp://img.beckett.com/images/no-image.jpg
p4501
asg22
V#H46
p4502
sg24
V1999-00
p4503
sg26
g27
sg28
(lp4504
VJulius Erving
p4505
assbag1
(g2
g3
Ntp4506
Rp4507
(dp4508
g7
(dp4509
g9
V1999-00 Upper Deck Julius Erving Heroes Level 1 #H47 Julius Erving
p4510
sg11
I100
sg12
VUpper Deck Julius Erving Heroes Level 1
p4511
sg14
(lp4512
Vhttp://www.beckett.com/basketball/1999-00/upper-deck-julius-erving-heroes-level-1/h47-julius-erving-3184854
p4513
asg17
g18
sg19
(lp4514
Vhttp://img.beckett.com/images/no-image.jpg
p4515
asg22
V#H47
p4516
sg24
V1999-00
p4517
sg26
g27
sg28
(lp4518
VJulius Erving
p4519
assbag1
(g2
g3
Ntp4520
Rp4521
(dp4522
g7
(dp4523
g9
V1999-00 Upper Deck Julius Erving Heroes Level 1 #H48 Julius Erving
p4524
sg11
I100
sg12
VUpper Deck Julius Erving Heroes Level 1
p4525
sg14
(lp4526
Vhttp://www.beckett.com/basketball/1999-00/upper-deck-julius-erving-heroes-level-1/h48-julius-erving-3184855
p4527
asg17
g18
sg19
(lp4528
Vhttp://img.beckett.com/images/no-image.jpg
p4529
asg22
V#H48
p4530
sg24
V1999-00
p4531
sg26
g27
sg28
(lp4532
VJulius Erving
p4533
assbag1
(g2
g3
Ntp4534
Rp4535
(dp4536
g7
(dp4537
g9
V1999-00 Upper Deck Julius Erving Heroes Level 1 #H49 Julius Erving
p4538
sg11
I100
sg12
VUpper Deck Julius Erving Heroes Level 1
p4539
sg14
(lp4540
Vhttp://www.beckett.com/basketball/1999-00/upper-deck-julius-erving-heroes-level-1/h49-julius-erving-3184856
p4541
asg17
g18
sg19
(lp4542
Vhttp://img.beckett.com/images/no-image.jpg
p4543
asg22
V#H49
p4544
sg24
V1999-00
p4545
sg26
g27
sg28
(lp4546
VJulius Erving
p4547
assbag1
(g2
g3
Ntp4548
Rp4549
(dp4550
g7
(dp4551
g9
V1999-00 Upper Deck Julius Erving Heroes Level 1 #H50 Julius Erving
p4552
sg11
I100
sg12
VUpper Deck Julius Erving Heroes Level 1
p4553
sg14
(lp4554
Vhttp://www.beckett.com/basketball/1999-00/upper-deck-julius-erving-heroes-level-1/h50-julius-erving-3184857
p4555
asg17
g18
sg19
(lp4556
Vhttp://img.beckett.com/images/no-image.jpg
p4557
asg22
V#H50
p4558
sg24
V1999-00
p4559
sg26
g27
sg28
(lp4560
VJulius Erving
p4561
assbag1
(g2
g3
Ntp4562
Rp4563
(dp4564
g7
(dp4565
g9
V1999-00 Upper Deck Julius Erving Heroes Level 1 #H51 Julius Erving
p4566
sg11
I100
sg12
VUpper Deck Julius Erving Heroes Level 1
p4567
sg14
(lp4568
Vhttp://www.beckett.com/basketball/1999-00/upper-deck-julius-erving-heroes-level-1/h51-julius-erving-3184858
p4569
asg17
g18
sg19
(lp4570
Vhttp://img.beckett.com/images/no-image.jpg
p4571
asg22
V#H51
p4572
sg24
V1999-00
p4573
sg26
g27
sg28
(lp4574
VJulius Erving
p4575
assbag1
(g2
g3
Ntp4576
Rp4577
(dp4578
g7
(dp4579
g9
V1999-00 Upper Deck Julius Erving Heroes Level 1 #H52 Julius Erving
p4580
sg11
I100
sg12
VUpper Deck Julius Erving Heroes Level 1
p4581
sg14
(lp4582
Vhttp://www.beckett.com/basketball/1999-00/upper-deck-julius-erving-heroes-level-1/h52-julius-erving-3184859
p4583
asg17
g18
sg19
(lp4584
Vhttp://img.beckett.com/images/no-image.jpg
p4585
asg22
V#H52
p4586
sg24
V1999-00
p4587
sg26
g27
sg28
(lp4588
VJulius Erving
p4589
assbag1
(g2
g3
Ntp4590
Rp4591
(dp4592
g7
(dp4593
g9
V1999-00 Upper Deck Julius Erving Heroes Level 1 #H53 Julius Erving
p4594
sg11
I100
sg12
VUpper Deck Julius Erving Heroes Level 1
p4595
sg14
(lp4596
Vhttp://www.beckett.com/basketball/1999-00/upper-deck-julius-erving-heroes-level-1/h53-julius-erving-3184860
p4597
asg17
g18
sg19
(lp4598
Vhttp://img.beckett.com/images/no-image.jpg
p4599
asg22
V#H53
p4600
sg24
V1999-00
p4601
sg26
g27
sg28
(lp4602
VJulius Erving
p4603
assbag1
(g2
g3
Ntp4604
Rp4605
(dp4606
g7
(dp4607
g9
V1999-00 Upper Deck Julius Erving Heroes Level 1 #H54 Julius Erving
p4608
sg11
I100
sg12
VUpper Deck Julius Erving Heroes Level 1
p4609
sg14
(lp4610
Vhttp://www.beckett.com/basketball/1999-00/upper-deck-julius-erving-heroes-level-1/h54-julius-erving-3184861
p4611
asg17
g18
sg19
(lp4612
Vhttp://img.beckett.com/images/no-image.jpg
p4613
asg22
V#H54
p4614
sg24
V1999-00
p4615
sg26
g27
sg28
(lp4616
VJulius Erving
p4617
assbag1
(g2
g3
Ntp4618
Rp4619
(dp4620
g7
(dp4621
g9
V1999-00 Upper Deck Julius Erving Heroes Level 1 #H55 Julius Erving
p4622
sg11
I100
sg12
VUpper Deck Julius Erving Heroes Level 1
p4623
sg14
(lp4624
Vhttp://www.beckett.com/basketball/1999-00/upper-deck-julius-erving-heroes-level-1/h55-julius-erving-3184862
p4625
asg17
g18
sg19
(lp4626
Vhttp://img.beckett.com/images/no-image.jpg
p4627
asg22
V#H55
p4628
sg24
V1999-00
p4629
sg26
g27
sg28
(lp4630
VJulius Erving
p4631
assbag1
(g2
g3
Ntp4632
Rp4633
(dp4634
g7
(dp4635
g9
V1999-00 Upper Deck Julius Erving Heroes Level 2 #H46 Julius Erving
p4636
sg11
I1
sg12
VUpper Deck Julius Erving Heroes Level 2
p4637
sg14
(lp4638
Vhttp://www.beckett.com/basketball/1999-00/upper-deck-julius-erving-heroes-level-2/h46-julius-erving-3184870
p4639
asg17
g18
sg19
(lp4640
Vhttp://img.beckett.com/images/no-image.jpg
p4641
asg22
V#H46
p4642
sg24
V1999-00
p4643
sg26
g27
sg28
(lp4644
VJulius Erving
p4645
assbag1
(g2
g3
Ntp4646
Rp4647
(dp4648
g7
(dp4649
g9
V1999-00 Upper Deck Julius Erving Heroes Level 2 #H47 Julius Erving
p4650
sg11
I1
sg12
VUpper Deck Julius Erving Heroes Level 2
p4651
sg14
(lp4652
Vhttp://www.beckett.com/basketball/1999-00/upper-deck-julius-erving-heroes-level-2/h47-julius-erving-3184871
p4653
asg17
g18
sg19
(lp4654
Vhttp://img.beckett.com/images/no-image.jpg
p4655
asg22
V#H47
p4656
sg24
V1999-00
p4657
sg26
g27
sg28
(lp4658
VJulius Erving
p4659
assbag1
(g2
g3
Ntp4660
Rp4661
(dp4662
g7
(dp4663
g9
V1999-00 Upper Deck Julius Erving Heroes Level 2 #H48 Julius Erving
p4664
sg11
I1
sg12
VUpper Deck Julius Erving Heroes Level 2
p4665
sg14
(lp4666
Vhttp://www.beckett.com/basketball/1999-00/upper-deck-julius-erving-heroes-level-2/h48-julius-erving-3184872
p4667
asg17
g18
sg19
(lp4668
Vhttp://img.beckett.com/images/no-image.jpg
p4669
asg22
V#H48
p4670
sg24
V1999-00
p4671
sg26
g27
sg28
(lp4672
VJulius Erving
p4673
assbag1
(g2
g3
Ntp4674
Rp4675
(dp4676
g7
(dp4677
g9
V1999-00 Upper Deck Julius Erving Heroes Level 2 #H49 Julius Erving
p4678
sg11
I1
sg12
VUpper Deck Julius Erving Heroes Level 2
p4679
sg14
(lp4680
Vhttp://www.beckett.com/basketball/1999-00/upper-deck-julius-erving-heroes-level-2/h49-julius-erving-3184873
p4681
asg17
g18
sg19
(lp4682
Vhttp://img.beckett.com/images/no-image.jpg
p4683
asg22
V#H49
p4684
sg24
V1999-00
p4685
sg26
g27
sg28
(lp4686
VJulius Erving
p4687
assbag1
(g2
g3
Ntp4688
Rp4689
(dp4690
g7
(dp4691
g9
V1999-00 Upper Deck Julius Erving Heroes Level 2 #H50 Julius Erving
p4692
sg11
I1
sg12
VUpper Deck Julius Erving Heroes Level 2
p4693
sg14
(lp4694
Vhttp://www.beckett.com/basketball/1999-00/upper-deck-julius-erving-heroes-level-2/h50-julius-erving-3184874
p4695
asg17
g18
sg19
(lp4696
Vhttp://img.beckett.com/images/no-image.jpg
p4697
asg22
V#H50
p4698
sg24
V1999-00
p4699
sg26
g27
sg28
(lp4700
VJulius Erving
p4701
assbag1
(g2
g3
Ntp4702
Rp4703
(dp4704
g7
(dp4705
g9
V1999-00 Upper Deck Julius Erving Heroes Level 2 #H51 Julius Erving
p4706
sg11
I1
sg12
VUpper Deck Julius Erving Heroes Level 2
p4707
sg14
(lp4708
Vhttp://www.beckett.com/basketball/1999-00/upper-deck-julius-erving-heroes-level-2/h51-julius-erving-3184875
p4709
asg17
g18
sg19
(lp4710
Vhttp://img.beckett.com/images/no-image.jpg
p4711
asg22
V#H51
p4712
sg24
V1999-00
p4713
sg26
g27
sg28
(lp4714
VJulius Erving
p4715
assbag1
(g2
g3
Ntp4716
Rp4717
(dp4718
g7
(dp4719
g9
V1999-00 Upper Deck Julius Erving Heroes Level 2 #H52 Julius Erving
p4720
sg11
I1
sg12
VUpper Deck Julius Erving Heroes Level 2
p4721
sg14
(lp4722
Vhttp://www.beckett.com/basketball/1999-00/upper-deck-julius-erving-heroes-level-2/h52-julius-erving-3184876
p4723
asg17
g18
sg19
(lp4724
Vhttp://img.beckett.com/images/no-image.jpg
p4725
asg22
V#H52
p4726
sg24
V1999-00
p4727
sg26
g27
sg28
(lp4728
VJulius Erving
p4729
assbag1
(g2
g3
Ntp4730
Rp4731
(dp4732
g7
(dp4733
g9
V1999-00 Upper Deck Julius Erving Heroes Level 2 #H53 Julius Erving
p4734
sg11
I1
sg12
VUpper Deck Julius Erving Heroes Level 2
p4735
sg14
(lp4736
Vhttp://www.beckett.com/basketball/1999-00/upper-deck-julius-erving-heroes-level-2/h53-julius-erving-3184877
p4737
asg17
g18
sg19
(lp4738
Vhttp://img.beckett.com/images/no-image.jpg
p4739
asg22
V#H53
p4740
sg24
V1999-00
p4741
sg26
g27
sg28
(lp4742
VJulius Erving
p4743
assbag1
(g2
g3
Ntp4744
Rp4745
(dp4746
g7
(dp4747
g9
V1999-00 Upper Deck Julius Erving Heroes Level 2 #H54 Julius Erving
p4748
sg11
I1
sg12
VUpper Deck Julius Erving Heroes Level 2
p4749
sg14
(lp4750
Vhttp://www.beckett.com/basketball/1999-00/upper-deck-julius-erving-heroes-level-2/h54-julius-erving-3184878
p4751
asg17
g18
sg19
(lp4752
Vhttp://img.beckett.com/images/no-image.jpg
p4753
asg22
V#H54
p4754
sg24
V1999-00
p4755
sg26
g27
sg28
(lp4756
VJulius Erving
p4757
assbag1
(g2
g3
Ntp4758
Rp4759
(dp4760
g7
(dp4761
g9
V1999-00 Upper Deck Julius Erving Heroes Level 2 #H55 Julius Erving
p4762
sg11
I1
sg12
VUpper Deck Julius Erving Heroes Level 2
p4763
sg14
(lp4764
Vhttp://www.beckett.com/basketball/1999-00/upper-deck-julius-erving-heroes-level-2/h55-julius-erving-3184879
p4765
asg17
g18
sg19
(lp4766
Vhttp://img.beckett.com/images/no-image.jpg
p4767
asg22
V#H55
p4768
sg24
V1999-00
p4769
sg26
g27
sg28
(lp4770
VJulius Erving
p4771
assbag1
(g2
g3
Ntp4772
Rp4773
(dp4774
g7
(dp4775
g9
V1999-00 Upper Deck History Class Level 1 #HC2 Julius Erving
p4776
sg11
I100
sg12
VUpper Deck History Class Level 1
p4777
sg14
(lp4778
Vhttp://www.beckett.com/basketball/1999-00/upper-deck-history-class-level-1/hc2-julius-erving-3185277
p4779
asg17
g18
sg19
(lp4780
Vhttp://img.beckett.com/images/no-image.jpg
p4781
asg22
V#HC2
p4782
sg24
V1999-00
p4783
sg26
g27
sg28
(lp4784
VJulius Erving
p4785
assbag1
(g2
g3
Ntp4786
Rp4787
(dp4788
g7
(dp4789
g9
V1999-00 Upper Deck History Class Level 1 #HC5 Moses Malone
p4790
sg11
I100
sg12
VUpper Deck History Class Level 1
p4791
sg14
(lp4792
Vhttp://www.beckett.com/basketball/1999-00/upper-deck-history-class-level-1/hc5-moses-malone-3185280
p4793
asg17
g18
sg19
(lp4794
Vhttp://img.beckett.com/images/no-image.jpg
p4795
asg22
V#HC5
p4796
sg24
V1999-00
p4797
sg26
g27
sg28
(lp4798
VMoses Malone
p4799
assbag1
(g2
g3
Ntp4800
Rp4801
(dp4802
g7
(dp4803
g9
V1999-00 Upper Deck History Class Level 2 #HC2 Julius Erving
p4804
sg11
I25
sg12
VUpper Deck History Class Level 2
p4805
sg14
(lp4806
Vhttp://www.beckett.com/basketball/1999-00/upper-deck-history-class-level-2/hc2-julius-erving-3185305
p4807
asg17
g18
sg19
(lp4808
Vhttp://img.beckett.com/images/no-image.jpg
p4809
asg22
V#HC2
p4810
sg24
V1999-00
p4811
sg26
g27
sg28
(lp4812
VJulius Erving
p4813
assbag1
(g2
g3
Ntp4814
Rp4815
(dp4816
g7
(dp4817
g9
V1999-00 Upper Deck History Class Level 2 #HC5 Moses Malone
p4818
sg11
I25
sg12
VUpper Deck History Class Level 2
p4819
sg14
(lp4820
Vhttp://www.beckett.com/basketball/1999-00/upper-deck-history-class-level-2/hc5-moses-malone-3185308
p4821
asg17
g18
sg19
(lp4822
Vhttp://img.beckett.com/images/no-image.jpg
p4823
asg22
V#HC5
p4824
sg24
V1999-00
p4825
sg26
g27
sg28
(lp4826
VMoses Malone
p4827
assbag1
(g2
g3
Ntp4828
Rp4829
(dp4830
g7
(dp4831
g9
V1999-00 Upper Deck Now Showing Level 1 #NS20 Allen Iverson
p4832
sg11
I100
sg12
VUpper Deck Now Showing Level 1
p4833
sg14
(lp4834
Vhttp://www.beckett.com/basketball/1999-00/upper-deck-now-showing-level-1/ns20-allen-iverson-3184289
p4835
asg17
g18
sg19
(lp4836
Vhttp://img.beckett.com/images/no-image.jpg
p4837
asg22
V#NS20
p4838
sg24
V1999-00
p4839
sg26
g27
sg28
(lp4840
VAllen Iverson
p4841
assbag1
(g2
g3
Ntp4842
Rp4843
(dp4844
g7
(dp4845
g9
V1999-00 Upper Deck Now Showing Level 2 #NS20 Allen Iverson
p4846
sg11
I25
sg12
VUpper Deck Now Showing Level 2
p4847
sg14
(lp4848
Vhttp://www.beckett.com/basketball/1999-00/upper-deck-now-showing-level-2/ns20-allen-iverson-3184327
p4849
asg17
g18
sg19
(lp4850
Vhttp://img.beckett.com/images/no-image.jpg
p4851
asg22
V#NS20
p4852
sg24
V1999-00
p4853
sg26
g27
sg28
(lp4854
VAllen Iverson
p4855
assbag1
(g2
g3
Ntp4856
Rp4857
(dp4858
g7
(dp4859
g9
V1999-00 Upper Deck Star Surge Level 1 #S3 Allen Iverson
p4860
sg11
I100
sg12
VUpper Deck Star Surge Level 1
p4861
sg14
(lp4862
Vhttp://www.beckett.com/basketball/1999-00/upper-deck-star-surge-level-1/s3-allen-iverson-3184474
p4863
asg17
g18
sg19
(lp4864
Vhttp://img.beckett.com/images/items_stock/185226/3184464/3184474/front.jpg
p4865
asg22
V#S3
p4866
sg24
V1999-00
p4867
sg26
g27
sg28
(lp4868
VAllen Iverson
p4869
assbag1
(g2
g3
Ntp4870
Rp4871
(dp4872
g7
(dp4873
g9
V1999-00 Upper Deck Star Surge Level 2 #S3 Allen Iverson
p4874
sg11
I25
sg12
VUpper Deck Star Surge Level 2
p4875
sg14
(lp4876
Vhttp://www.beckett.com/basketball/1999-00/upper-deck-star-surge-level-2/s3-allen-iverson-3184497
p4877
asg17
g18
sg19
(lp4878
Vhttp://img.beckett.com/images/no-image.jpg
p4879
asg22
V#S3
p4880
sg24
V1999-00
p4881
sg26
g27
sg28
(lp4882
VAllen Iverson
p4883
assbag1
(g2
g3
Ntp4884
Rp4885
(dp4886
g7
(dp4887
g9
V1999-00 Upper Deck Wild! Level 1 #W13 Allen Iverson
p4888
sg11
I100
sg12
VUpper Deck Wild! Level 1
p4889
sg14
(lp4890
Vhttp://www.beckett.com/basketball/1999-00/upper-deck-wild-level-1/w13-allen-iverson-3184564
p4891
asg17
g18
sg19
(lp4892
Vhttp://img.beckett.com/images/no-image.jpg
p4893
asg22
V#W13
p4894
sg24
V1999-00
p4895
sg26
g27
sg28
(lp4896
VAllen Iverson
p4897
assbag1
(g2
g3
Ntp4898
Rp4899
(dp4900
g7
(dp4901
g9
V1999-00 Upper Deck Wild! Level 2 #W13 Allen Iverson
p4902
sg11
I25
sg12
VUpper Deck Wild! Level 2
p4903
sg14
(lp4904
Vhttp://www.beckett.com/basketball/1999-00/upper-deck-wild-level-2/w13-allen-iverson-3184591
p4905
asg17
g18
sg19
(lp4906
Vhttp://img.beckett.com/images/no-image.jpg
p4907
asg22
V#W13
p4908
sg24
V1999-00
p4909
sg26
g27
sg28
(lp4910
VAllen Iverson
p4911
assbag1
(g2
g3
Ntp4912
Rp4913
(dp4914
g7
(dp4915
g9
V1999-00 Upper Deck Encore Upper Realm F/X #UR6 Allen Iverson
p4916
sg11
I150
sg12
VUpper Deck Encore Upper Realm F/X
p4917
sg14
(lp4918
Vhttp://www.beckett.com/basketball/1999-00/upper-deck-encore-upper-realm-fx/ur6-allen-iverson-3183288
p4919
asg17
g18
sg19
(lp4920
Vhttp://img.beckett.com/images/no-image.jpg
p4921
asg22
V#UR6
p4922
sg24
V1999-00
p4923
sg26
g27
sg28
(lp4924
VAllen Iverson
p4925
assbag1
(g2
g3
Ntp4926
Rp4927
(dp4928
g7
(dp4929
g9
V1999-00 Upper Deck Retro Distant Replay Parallel #D4 Julius Erving
p4930
sg11
I100
sg12
VUpper Deck Retro Distant Replay Parallel
p4931
sg14
(lp4932
Vhttp://www.beckett.com/basketball/1999-00/upper-deck-retro-distant-replay-parallel/d4-julius-erving-3181765
p4933
asg17
g18
sg19
(lp4934
Vhttp://img.beckett.com/images/no-image.jpg
p4935
asg22
V#D4
p4936
sg24
V1999-00
p4937
sg26
g27
sg28
(lp4938
VJulius Erving
p4939
assbag1
(g2
g3
Ntp4940
Rp4941
(dp4942
g7
(dp4943
g9
V1999-00 Upper Deck Retro Distant Replay Parallel #D6 Moses Malone
p4944
sg11
I100
sg12
VUpper Deck Retro Distant Replay Parallel
p4945
sg14
(lp4946
Vhttp://www.beckett.com/basketball/1999-00/upper-deck-retro-distant-replay-parallel/d6-moses-malone-3181767
p4947
asg17
g18
sg19
(lp4948
Vhttp://img.beckett.com/images/no-image.jpg
p4949
asg22
V#D6
p4950
sg24
V1999-00
p4951
sg26
g27
sg28
(lp4952
VMoses Malone
p4953
assbag1
(g2
g3
Ntp4954
Rp4955
(dp4956
g7
(dp4957
g9
V1999-00 Upper Deck Retro Inkredible Level 2 #ES Eric Snow/20
p4958
sg11
I20
sg12
VUpper Deck Retro Inkredible Level 2
p4959
sg14
(lp4960
Vhttp://www.beckett.com/basketball/1999-00/upper-deck-retro-inkredible-level-2/es-eric-snow20-3180084
p4961
asg17
g18
sg19
(lp4962
Vhttp://img.beckett.com/images/no-image.jpg
p4963
asg22
V#ES
p4964
sg57
I1
sg24
V1999-00
p4965
sg26
g27
sg28
(lp4966
VEric Snow
p4967
assbag1
(g2
g3
Ntp4968
Rp4969
(dp4970
g7
(dp4971
g9
V1999-00 Upper Deck Retro Inkredible Level 2 #JE Julius Erving/6
p4972
sg11
I6
sg12
VUpper Deck Retro Inkredible Level 2
p4973
sg14
(lp4974
Vhttp://www.beckett.com/basketball/1999-00/upper-deck-retro-inkredible-level-2/je-julius-erving6-3180087
p4975
asg17
g18
sg19
(lp4976
Vhttp://img.beckett.com/images/no-image.jpg
p4977
asg22
V#JE
p4978
sg57
I1
sg24
V1999-00
p4979
sg26
g27
sg28
(lp4980
VJulius Erving
p4981
assbag1
(g2
g3
Ntp4982
Rp4983
(dp4984
g7
(dp4985
g9
V1999-00 Upper Deck Retro Old School/New School Parallel #S4 Julius Erving
p4986
sg11
I500
sg12
VUpper Deck Retro Old School/New School Parallel
p4987
sg14
(lp4988
Vhttp://www.beckett.com/basketball/1999-00/upper-deck-retro-old-schoolnew-school-parallel/s4-julius-erving-3180169
p4989
asg17
g18
sg19
(lp4990
Vhttp://img.beckett.com/images/no-image.jpg
p4991
asg22
V#S4
p4992
sg24
V1999-00
p4993
sg26
g27
sg28
(lp4994
VJulius Erving
p4995
assbag1
(g2
g3
Ntp4996
Rp4997
(dp4998
g7
(dp4999
g9
V1999-00 Upper Deck Retro Old School/New School Parallel #S12 Moses Malone
p5000
sg11
I500
sg12
VUpper Deck Retro Old School/New School Parallel
p5001
sg14
(lp5002
Vhttp://www.beckett.com/basketball/1999-00/upper-deck-retro-old-schoolnew-school-parallel/s12-moses-malone-3180177
p5003
asg17
g18
sg19
(lp5004
Vhttp://img.beckett.com/images/no-image.jpg
p5005
asg22
V#S12
p5006
sg24
V1999-00
p5007
sg26
g27
sg28
(lp5008
VMoses Malone
p5009
assbag1
(g2
g3
Ntp5010
Rp5011
(dp5012
g7
(dp5013
g9
V1999-00 Upper Deck Retro Old School/New School Parallel #S17 Allen Iverson
p5014
sg11
I500
sg12
VUpper Deck Retro Old School/New School Parallel
p5015
sg14
(lp5016
Vhttp://www.beckett.com/basketball/1999-00/upper-deck-retro-old-schoolnew-school-parallel/s17-allen-iverson-3180182
p5017
asg17
g18
sg19
(lp5018
Vhttp://img.beckett.com/images/no-image.jpg
p5019
asg22
V#S17
p5020
sg24
V1999-00
p5021
sg26
g27
sg28
(lp5022
VAllen Iverson
p5023
assba.