(lp0
Naccopy_reg
_reconstructor
p1
(ctutorial.items
BeckettItem
p2
c__builtin__
object
p3
Ntp4
Rp5
(dp6
S'_values'
p7
(dp8
S'originalItemDescription'
p9
V1999 Fleer/SkyBox Dunkography #NNO Vince Carter/Lamar Odom
p10
sS'serialNumber'
p11
I3000
sS'setName'
p12
VFleer/SkyBox Dunkography
p13
sS'beckettLink'
p14
(lp15
Vhttp://www.beckett.com/basketball/1999/fleerskybox-dunkography/nno-vince-carterlamar-odom-3176497
p16
asS'team'
p17
S'Toronto Raptors'
p18
sS'imageLink'
p19
(lp20
Vhttp://img.beckett.com/images/no-image.jpg
p21
asS'cardNumber'
p22
V#NNO
p23
sS'year'
p24
V1999
p25
sS'sport'
p26
S'Basketball'
p27
sS'playerNames'
p28
(lp29
VVince Carter
p30
aVLamar Odom
p31
assbag1
(g2
g3
Ntp32
Rp33
(dp34
g7
(dp35
g9
V1999 Upper Deck Century Legends Century Collection #52 Vince Carter
p36
sg11
I100
sg12
VUpper Deck Century Legends Century Collection
p37
sg14
(lp38
Vhttp://www.beckett.com/basketball/1999/upper-deck-century-legends-century-collection/52-vince-carter-3175482
p39
asg17
g18
sg19
(lp40
Vhttp://img.beckett.com/images/no-image.jpg
p41
asg22
V#52
p42
sg24
V1999
p43
sg26
g27
sg28
(lp44
VVince Carter
p45
assbag1
(g2
g3
Ntp46
Rp47
(dp48
g7
(dp49
g9
V1999-00 E-X #77 Aleksandar Radojevic RC
p50
sg11
I3499
sg12
VE-X
p51
sg14
(lp52
Vhttp://www.beckett.com/basketball/1999-00/e-x/77-aleksandar-radojevic-rc-3205138
p53
asg17
g18
sS'rookieCard'
p54
I1
sg19
(lp55
Vhttp://img.beckett.com/images/no-image.jpg
p56
asg22
V#77
p57
sg24
V1999-00
p58
sg26
g27
sg28
(lp59
VAleksandar Radojevic
p60
assbag1
(g2
g3
Ntp61
Rp62
(dp63
g7
(dp64
g9
V1999-00 Flair Showcase #127 Aleksandar Radojevic RC
p65
sg11
I2000
sg12
VFlair Showcase
p66
sg14
(lp67
Vhttp://www.beckett.com/basketball/1999-00/flair-showcase/127-aleksandar-radojevic-rc-3202911
p68
asg17
g18
sg54
I1
sg19
(lp69
Vhttp://img.beckett.com/images/no-image.jpg
p70
asg22
V#127
p71
sg24
V1999-00
p72
sg26
g27
sg28
(lp73
VAleksandar Radojevic
p74
assbag1
(g2
g3
Ntp75
Rp76
(dp77
g7
(dp78
g9
V1999-00 Fleer Focus #122 Aleksandar Radojevic RC
p79
sg11
I3000
sg12
VFleer Focus
p80
sg14
(lp81
Vhttp://www.beckett.com/basketball/1999-00/fleer-focus/122-aleksandar-radojevic-rc-3201997
p82
asg17
g18
sg54
I1
sg19
(lp83
Vhttp://img.beckett.com/images/no-image.jpg
p84
asg22
V#122
p85
sg24
V1999-00
p86
sg26
g27
sg28
(lp87
VAleksandar Radojevic
p88
assbag1
(g2
g3
Ntp89
Rp90
(dp91
g7
(dp92
g9
V1999-00 Fleer Focus #122A Aleksandar Radojevic SP
p93
sg11
I999
sg12
VFleer Focus
p94
sg14
(lp95
Vhttp://www.beckett.com/basketball/1999-00/fleer-focus/122a-aleksandar-radojevic-sp-3201998
p96
asg17
g18
sg19
(lp97
Vhttp://img.beckett.com/images/no-image.jpg
p98
asg22
V#122A
p99
sg24
V1999-00
p100
sS'subsetName'
p101
VSP
p102
sg26
g27
sg28
(lp103
VAleksandar Radojevic
p104
assbag1
(g2
g3
Ntp105
Rp106
(dp107
g7
(dp108
g9
V1999-00 Fleer Force #216 Aleksandar Radojevic RC
p109
sg11
I1600
sg12
VFleer Force
p110
sg14
(lp111
Vhttp://www.beckett.com/basketball/1999-00/fleer-force/216-aleksandar-radojevic-rc-3200290
p112
asg17
g18
sg54
I1
sg19
(lp113
Vhttp://img.beckett.com/images/items_stock/185226/3200062/3200290/front.jpg
p114
asg22
V#216
p115
sg24
V1999-00
p116
sg26
g27
sg28
(lp117
VAleksandar Radojevic
p118
assbag1
(g2
g3
Ntp119
Rp120
(dp121
g7
(dp122
g9
V1999-00 Fleer Force #NNO Vince Carter/Sgt.Carter AU/300
p123
sg11
I300
sg12
VFleer Force
p124
sg14
(lp125
Vhttp://www.beckett.com/basketball/1999-00/fleer-force/nno-vince-cartersgtcarter-au300-3200311
p126
asg17
g18
sg19
(lp127
Vhttp://img.beckett.com/images/no-image.jpg
p128
asg22
V#NNO
p129
sS'autograph'
p130
I1
sg24
V1999-00
p131
sg26
g27
sg28
(lp132
VVince Carter
p133
aVSgt.Carter
p134
assbag1
(g2
g3
Ntp135
Rp136
(dp137
g7
(dp138
g9
V1999-00 Fleer Mystique #122 Aleksandar Radojevic RC
p139
sg11
I2999
sg12
VFleer Mystique
p140
sg14
(lp141
Vhttp://www.beckett.com/basketball/1999-00/fleer-mystique/122-aleksandar-radojevic-rc-3198456
p142
asg17
g18
sg54
I1
sg19
(lp143
Vhttp://img.beckett.com/images/items_stock/185226/3198320/3198456/front.jpg
p144
asg22
V#122
p145
sg24
V1999-00
p146
sg26
g27
sg28
(lp147
VAleksandar Radojevic
p148
assbag1
(g2
g3
Ntp149
Rp150
(dp151
g7
(dp152
g9
V1999-00 Fleer Mystique #142 Vince Carter STAR
p153
sg11
I2500
sg12
VFleer Mystique
p154
sg14
(lp155
Vhttp://www.beckett.com/basketball/1999-00/fleer-mystique/142-vince-carter-star-3198476
p156
asg17
g18
sg19
(lp157
Vhttp://img.beckett.com/images/items_stock/185226/3198320/3198476/front.jpg
p158
asg22
V#142
p159
sg24
V1999-00
p160
sg101
VSTAR
p161
sg26
g27
sg28
(lp162
VVince Carter
p163
assbag1
(g2
g3
Ntp164
Rp165
(dp166
g7
(dp167
g9
V1999-00 SkyBox Impact #NNO Vince Carter COMM/2000
p168
sg11
I2000
sg12
VSkyBox Impact
p169
sg14
(lp170
Vhttp://www.beckett.com/basketball/1999-00/skybox-impact/nno-vince-carter-comm2000-3195351
p171
asg17
g18
sg19
(lp172
Vhttp://img.beckett.com/images/no-image.jpg
p173
asg22
V#NNO
p174
sg24
V1999-00
p175
sg26
g27
sg28
(lp176
VVince Carter
p177
assbag1
(g2
g3
Ntp178
Rp179
(dp180
g7
(dp181
g9
V1999-00 SkyBox Impact #NNO Vince Carter COMM AU/15
p182
sg11
I15
sg12
VSkyBox Impact
p183
sg14
(lp184
Vhttp://www.beckett.com/basketball/1999-00/skybox-impact/nno-vince-carter-comm-au15-3195352
p185
asg17
g18
sg19
(lp186
Vhttp://img.beckett.com/images/no-image.jpg
p187
asg22
V#NNO
p188
sg130
I1
sg24
V1999-00
p189
sg26
g27
sg28
(lp190
VVince Carter
p191
assbag1
(g2
g3
Ntp192
Rp193
(dp194
g7
(dp195
g9
V1999-00 SP Authentic #102 Aleksandar Radojevic RC
p196
sg11
I1500
sg12
VSP Authentic
p197
sg14
(lp198
Vhttp://www.beckett.com/basketball/1999-00/sp-authentic/102-aleksandar-radojevic-rc-3196247
p199
asg17
g18
sg54
I1
sg19
(lp200
Vhttp://img.beckett.com/images/no-image.jpg
p201
asg22
V#102
p202
sg24
V1999-00
p203
sg26
g27
sg28
(lp204
VAleksandar Radojevic
p205
assbag1
(g2
g3
Ntp206
Rp207
(dp208
g7
(dp209
g9
V1999-00 UD Ionix #72 Aleksandar Radojevic RC
p210
sg11
I3500
sg12
VUD Ionix
p211
sg14
(lp212
Vhttp://www.beckett.com/basketball/1999-00/ud-ionix/72-aleksandar-radojevic-rc-3188002
p213
asg17
g18
sg54
I1
sg19
(lp214
Vhttp://img.beckett.com/images/items_stock/185226/3187919/3188002/front.jpg
p215
asg22
V#72
p216
sg24
V1999-00
p217
sg26
g27
sg28
(lp218
VAleksandar Radojevic
p219
assbag1
(g2
g3
Ntp220
Rp221
(dp222
g7
(dp223
g9
V1999-00 Upper Deck Encore #106 Aleksandar Radojevic RC
p224
sg11
I1999
sg12
VUpper Deck Encore
p225
sg14
(lp226
Vhttp://www.beckett.com/basketball/1999-00/upper-deck-encore/106-aleksandar-radojevic-rc-3184715
p227
asg17
g18
sg54
I1
sg19
(lp228
Vhttp://img.beckett.com/images/items_stock/185226/3184598/3184715/front.jpg
p229
asg22
V#106
p230
sg24
V1999-00
p231
sg26
g27
sg28
(lp232
VAleksandar Radojevic
p233
assbag1
(g2
g3
Ntp234
Rp235
(dp236
g7
(dp237
g9
V1999-00 Upper Deck Gold Reserve #252 Aleksandar Radojevic RC
p238
sg11
I3500
sg12
VUpper Deck Gold Reserve
p239
sg14
(lp240
Vhttp://www.beckett.com/basketball/1999-00/upper-deck-gold-reserve/252-aleksandar-radojevic-rc-3183556
p241
asg17
g18
sg54
I1
sg19
(lp242
Vhttp://img.beckett.com/images/items_stock/185226/3183293/3183556/front.jpg
p243
asg22
V#252
p244
sg24
V1999-00
p245
sg26
g27
sg28
(lp246
VAleksandar Radojevic
p247
assbag1
(g2
g3
Ntp248
Rp249
(dp250
g7
(dp251
g9
V1999-00 Black Diamond Final Cut #79 Vince Carter
p252
sg11
I100
sg12
VBlack Diamond Final Cut
p253
sg14
(lp254
Vhttp://www.beckett.com/basketball/1999-00/black-diamond-final-cut/79-vince-carter-3205753
p255
asg17
g18
sg19
(lp256
Vhttp://img.beckett.com/images/no-image.jpg
p257
asg22
V#79
p258
sg24
V1999-00
p259
sg26
g27
sg28
(lp260
VVince Carter
p261
assbag1
(g2
g3
Ntp262
Rp263
(dp264
g7
(dp265
g9
V1999-00 Black Diamond Final Cut #80 Tracy McGrady
p266
sg11
I100
sg12
VBlack Diamond Final Cut
p267
sg14
(lp268
Vhttp://www.beckett.com/basketball/1999-00/black-diamond-final-cut/80-tracy-mcgrady-3205754
p269
asg17
g18
sg19
(lp270
Vhttp://img.beckett.com/images/no-image.jpg
p271
asg22
V#80
p272
sg24
V1999-00
p273
sg26
g27
sg28
(lp274
VTracy McGrady
p275
assbag1
(g2
g3
Ntp276
Rp277
(dp278
g7
(dp279
g9
V1999-00 Black Diamond Final Cut #81 Doug Christie
p280
sg11
I100
sg12
VBlack Diamond Final Cut
p281
sg14
(lp282
Vhttp://www.beckett.com/basketball/1999-00/black-diamond-final-cut/81-doug-christie-3205755
p283
asg17
g18
sg19
(lp284
Vhttp://img.beckett.com/images/no-image.jpg
p285
asg22
V#81
p286
sg24
V1999-00
p287
sg26
g27
sg28
(lp288
VDoug Christie
p289
assbag1
(g2
g3
Ntp290
Rp291
(dp292
g7
(dp293
g9
V1999-00 Black Diamond Final Cut #102 Aleksandar Radojevic
p294
sg11
I50
sg12
VBlack Diamond Final Cut
p295
sg14
(lp296
Vhttp://www.beckett.com/basketball/1999-00/black-diamond-final-cut/102-aleksandar-radojevic-3205776
p297
asg17
g18
sg19
(lp298
Vhttp://img.beckett.com/images/no-image.jpg
p299
asg22
V#102
p300
sg24
V1999-00
p301
sg26
g27
sg28
(lp302
VAleksandar Radojevic
p303
assbag1
(g2
g3
Ntp304
Rp305
(dp306
g7
(dp307
g9
V1999-00 Bowman's Best Atomic Refractors #1 Vince Carter
p308
sg11
I100
sg12
VBowman's Best Atomic Refractors
p309
sg14
(lp310
Vhttp://www.beckett.com/basketball/1999-00/bowmans-best-atomic-refractors/1-vince-carter-3204788
p311
asg17
g18
sg19
(lp312
Vhttp://img.beckett.com/images/no-image.jpg
p313
asg22
V#1
p314
sg24
V1999-00
p315
sg26
g27
sg28
(lp316
VVince Carter
p317
assbag1
(g2
g3
Ntp318
Rp319
(dp320
g7
(dp321
g9
V1999-00 Bowman's Best Atomic Refractors #56 Tracy McGrady
p322
sg11
I100
sg12
VBowman's Best Atomic Refractors
p323
sg14
(lp324
Vhttp://www.beckett.com/basketball/1999-00/bowmans-best-atomic-refractors/56-tracy-mcgrady-3204843
p325
asg17
g18
sg19
(lp326
Vhttp://img.beckett.com/images/no-image.jpg
p327
asg22
V#56
p328
sg24
V1999-00
p329
sg26
g27
sg28
(lp330
VTracy McGrady
p331
assbag1
(g2
g3
Ntp332
Rp333
(dp334
g7
(dp335
g9
V1999-00 Bowman's Best Atomic Refractors #85 Charles Oakley
p336
sg11
I100
sg12
VBowman's Best Atomic Refractors
p337
sg14
(lp338
Vhttp://www.beckett.com/basketball/1999-00/bowmans-best-atomic-refractors/85-charles-oakley-3204872
p339
asg17
g18
sg19
(lp340
Vhttp://img.beckett.com/images/no-image.jpg
p341
asg22
V#85
p342
sg24
V1999-00
p343
sg26
g27
sg28
(lp344
VCharles Oakley
p345
assbag1
(g2
g3
Ntp346
Rp347
(dp348
g7
(dp349
g9
V1999-00 Bowman's Best Atomic Refractors #112 Aleksandar Radojevic
p350
sg11
I100
sg12
VBowman's Best Atomic Refractors
p351
sg14
(lp352
Vhttp://www.beckett.com/basketball/1999-00/bowmans-best-atomic-refractors/112-aleksandar-radojevic-3204899
p353
asg17
g18
sg19
(lp354
Vhttp://img.beckett.com/images/no-image.jpg
p355
asg22
V#112
p356
sg24
V1999-00
p357
sg26
g27
sg28
(lp358
VAleksandar Radojevic
p359
assbag1
(g2
g3
Ntp360
Rp361
(dp362
g7
(dp363
g9
V1999-00 Bowman's Best Refractors #1 Vince Carter
p364
sg11
I400
sg12
VBowman's Best Refractors
p365
sg14
(lp366
Vhttp://www.beckett.com/basketball/1999-00/bowmans-best-refractors/1-vince-carter-3204646
p367
asg17
g18
sg19
(lp368
Vhttp://img.beckett.com/images/items_stock/185226/3204637/3204646/front.jpg
p369
asg22
V#1
p370
sg24
V1999-00
p371
sg26
g27
sg28
(lp372
VVince Carter
p373
assbag1
(g2
g3
Ntp374
Rp375
(dp376
g7
(dp377
g9
V1999-00 Bowman's Best Refractors #56 Tracy McGrady
p378
sg11
I400
sg12
VBowman's Best Refractors
p379
sg14
(lp380
Vhttp://www.beckett.com/basketball/1999-00/bowmans-best-refractors/56-tracy-mcgrady-3204701
p381
asg17
g18
sg19
(lp382
Vhttp://img.beckett.com/images/items_stock/185226/3204637/3204701/front.jpg
p383
asg22
V#56
p384
sg24
V1999-00
p385
sg26
g27
sg28
(lp386
VTracy McGrady
p387
assbag1
(g2
g3
Ntp388
Rp389
(dp390
g7
(dp391
g9
V1999-00 Bowman's Best Refractors #85 Charles Oakley
p392
sg11
I400
sg12
VBowman's Best Refractors
p393
sg14
(lp394
Vhttp://www.beckett.com/basketball/1999-00/bowmans-best-refractors/85-charles-oakley-3204730
p395
asg17
g18
sg19
(lp396
Vhttp://img.beckett.com/images/no-image.jpg
p397
asg22
V#85
p398
sg24
V1999-00
p399
sg26
g27
sg28
(lp400
VCharles Oakley
p401
assbag1
(g2
g3
Ntp402
Rp403
(dp404
g7
(dp405
g9
V1999-00 Bowman's Best Refractors #112 Aleksandar Radojevic
p406
sg11
I400
sg12
VBowman's Best Refractors
p407
sg14
(lp408
Vhttp://www.beckett.com/basketball/1999-00/bowmans-best-refractors/112-aleksandar-radojevic-3204757
p409
asg17
g18
sg19
(lp410
Vhttp://img.beckett.com/images/items_stock/185226/3204637/3204757/front.jpg
p411
asg22
V#112
p412
sg24
V1999-00
p413
sg26
g27
sg28
(lp414
VAleksandar Radojevic
p415
assbag1
(g2
g3
Ntp416
Rp417
(dp418
g7
(dp419
g9
V1999-00 Finest Refractors Gold #2 Kevin Willis
p420
sg11
I100
sg12
VFinest Refractors Gold
p421
sg14
(lp422
Vhttp://www.beckett.com/basketball/1999-00/finest-refractors-gold/2-kevin-willis-3203914
p423
asg17
g18
sg19
(lp424
Vhttp://img.beckett.com/images/no-image.jpg
p425
asg22
V#2
p426
sg24
V1999-00
p427
sg26
g27
sg28
(lp428
VKevin Willis
p429
assbag1
(g2
g3
Ntp430
Rp431
(dp432
g7
(dp433
g9
V1999-00 Finest Refractors Gold #26 Tracy McGrady
p434
sg11
I100
sg12
VFinest Refractors Gold
p435
sg14
(lp436
Vhttp://www.beckett.com/basketball/1999-00/finest-refractors-gold/26-tracy-mcgrady-3203938
p437
asg17
g18
sg19
(lp438
Vhttp://img.beckett.com/images/no-image.jpg
p439
asg22
V#26
p440
sg24
V1999-00
p441
sg26
g27
sg28
(lp442
VTracy McGrady
p443
assbag1
(g2
g3
Ntp444
Rp445
(dp446
g7
(dp447
g9
V1999-00 Finest Refractors Gold #83 Doug Christie
p448
sg11
I100
sg12
VFinest Refractors Gold
p449
sg14
(lp450
Vhttp://www.beckett.com/basketball/1999-00/finest-refractors-gold/83-doug-christie-3203995
p451
asg17
g18
sg19
(lp452
Vhttp://img.beckett.com/images/no-image.jpg
p453
asg22
V#83
p454
sg24
V1999-00
p455
sg26
g27
sg28
(lp456
VDoug Christie
p457
assbag1
(g2
g3
Ntp458
Rp459
(dp460
g7
(dp461
g9
V1999-00 Finest Refractors Gold #89 Dee Brown
p462
sg11
I100
sg12
VFinest Refractors Gold
p463
sg14
(lp464
Vhttp://www.beckett.com/basketball/1999-00/finest-refractors-gold/89-dee-brown-3204001
p465
asg17
g18
sg19
(lp466
Vhttp://img.beckett.com/images/no-image.jpg
p467
asg22
V#89
p468
sg24
V1999-00
p469
sg26
g27
sg28
(lp470
VDee Brown
p471
assbag1
(g2
g3
Ntp472
Rp473
(dp474
g7
(dp475
g9
V1999-00 Finest Refractors Gold #112 Aleksandar Radojevic
p476
sg11
I100
sg12
VFinest Refractors Gold
p477
sg14
(lp478
Vhttp://www.beckett.com/basketball/1999-00/finest-refractors-gold/112-aleksandar-radojevic-3204024
p479
asg17
g18
sg19
(lp480
Vhttp://img.beckett.com/images/no-image.jpg
p481
asg22
V#112
p482
sg24
V1999-00
p483
sg26
g27
sg28
(lp484
VAleksandar Radojevic
p485
assbag1
(g2
g3
Ntp486
Rp487
(dp488
g7
(dp489
g9
V1999-00 Finest Refractors Gold #130 Vince Carter SEN
p490
sg11
I100
sg12
VFinest Refractors Gold
p491
sg14
(lp492
Vhttp://www.beckett.com/basketball/1999-00/finest-refractors-gold/130-vince-carter-sen-3204042
p493
asg17
g18
sg19
(lp494
Vhttp://img.beckett.com/images/no-image.jpg
p495
asg22
V#130
p496
sg24
V1999-00
p497
sg101
VSEN
p498
sg26
g27
sg28
(lp499
VVince Carter
p500
assbag1
(g2
g3
Ntp501
Rp502
(dp503
g7
(dp504
g9
V1999-00 Finest Refractors Gold #133 Tracy McGrady SEN
p505
sg11
I100
sg12
VFinest Refractors Gold
p506
sg14
(lp507
Vhttp://www.beckett.com/basketball/1999-00/finest-refractors-gold/133-tracy-mcgrady-sen-3204045
p508
asg17
g18
sg19
(lp509
Vhttp://img.beckett.com/images/items_stock/185226/3203898/3204045/front.jpg
p510
asg22
V#133
p511
sg24
V1999-00
p512
sg101
VSEN
p513
sg26
g27
sg28
(lp514
VTracy McGrady
p515
assbag1
(g2
g3
Ntp516
Rp517
(dp518
g7
(dp519
g9
V1999-00 Finest Refractors Gold #146 Antonio Davis
p520
sg11
I100
sg12
VFinest Refractors Gold
p521
sg14
(lp522
Vhttp://www.beckett.com/basketball/1999-00/finest-refractors-gold/146-antonio-davis-3204058
p523
asg17
g18
sg19
(lp524
Vhttp://img.beckett.com/images/no-image.jpg
p525
asg22
V#146
p526
sg24
V1999-00
p527
sg26
g27
sg28
(lp528
VAntonio Davis
p529
assbag1
(g2
g3
Ntp530
Rp531
(dp532
g7
(dp533
g9
V1999-00 Finest Refractors Gold #181 Charles Oakley
p534
sg11
I100
sg12
VFinest Refractors Gold
p535
sg14
(lp536
Vhttp://www.beckett.com/basketball/1999-00/finest-refractors-gold/181-charles-oakley-3204093
p537
asg17
g18
sg19
(lp538
Vhttp://img.beckett.com/images/no-image.jpg
p539
asg22
V#181
p540
sg24
V1999-00
p541
sg26
g27
sg28
(lp542
VCharles Oakley
p543
assbag1
(g2
g3
Ntp544
Rp545
(dp546
g7
(dp547
g9
V1999-00 Finest Refractors Gold #201 John Wallace
p548
sg11
I100
sg12
VFinest Refractors Gold
p549
sg14
(lp550
Vhttp://www.beckett.com/basketball/1999-00/finest-refractors-gold/201-john-wallace-3204113
p551
asg17
g18
sg19
(lp552
Vhttp://img.beckett.com/images/no-image.jpg
p553
asg22
V#201
p554
sg24
V1999-00
p555
sg26
g27
sg28
(lp556
VJohn Wallace
p557
assbag1
(g2
g3
Ntp558
Rp559
(dp560
g7
(dp561
g9
V1999-00 Finest Refractors Gold #215 Vince Carter
p562
sg11
I100
sg12
VFinest Refractors Gold
p563
sg14
(lp564
Vhttp://www.beckett.com/basketball/1999-00/finest-refractors-gold/215-vince-carter-3204127
p565
asg17
g18
sg19
(lp566
Vhttp://img.beckett.com/images/no-image.jpg
p567
asg22
V#215
p568
sg24
V1999-00
p569
sg26
g27
sg28
(lp570
VVince Carter
p571
assbag1
(g2
g3
Ntp572
Rp573
(dp574
g7
(dp575
g9
V1999-00 Finest Refractors Gold #235 Vince Carter CAT
p576
sg11
I100
sg12
VFinest Refractors Gold
p577
sg14
(lp578
Vhttp://www.beckett.com/basketball/1999-00/finest-refractors-gold/235-vince-carter-cat-3204147
p579
asg17
g18
sg19
(lp580
Vhttp://img.beckett.com/images/no-image.jpg
p581
asg22
V#235
p582
sg24
V1999-00
p583
sg101
VCAT
p584
sg26
g27
sg28
(lp585
VVince Carter
p586
assbag1
(g2
g3
Ntp587
Rp588
(dp589
g7
(dp590
g9
V1999-00 Flair Showcase Legacy Collection #1 Vince Carter
p591
sg11
I20
sg12
VFlair Showcase Legacy Collection
p592
sg14
(lp593
Vhttp://www.beckett.com/basketball/1999-00/flair-showcase-legacy-collection/1-vince-carter-3202925
p594
asg17
g18
sg19
(lp595
Vhttp://img.beckett.com/images/no-image.jpg
p596
asg22
V#1
p597
sg24
V1999-00
p598
sg26
g27
sg28
(lp599
VVince Carter
p600
assbag1
(g2
g3
Ntp601
Rp602
(dp603
g7
(dp604
g9
V1999-00 Flair Showcase Legacy Collection #81 Tracy McGrady
p605
sg11
I20
sg12
VFlair Showcase Legacy Collection
p606
sg14
(lp607
Vhttp://www.beckett.com/basketball/1999-00/flair-showcase-legacy-collection/81-tracy-mcgrady-3203005
p608
asg17
g18
sg19
(lp609
Vhttp://img.beckett.com/images/no-image.jpg
p610
asg22
V#81
p611
sg24
V1999-00
p612
sg26
g27
sg28
(lp613
VTracy McGrady
p614
assbag1
(g2
g3
Ntp615
Rp616
(dp617
g7
(dp618
g9
V1999-00 Flair Showcase Legacy Collection #91 Charles Oakley
p619
sg11
I20
sg12
VFlair Showcase Legacy Collection
p620
sg14
(lp621
Vhttp://www.beckett.com/basketball/1999-00/flair-showcase-legacy-collection/91-charles-oakley-3203015
p622
asg17
g18
sg19
(lp623
Vhttp://img.beckett.com/images/no-image.jpg
p624
asg22
V#91
p625
sg24
V1999-00
p626
sg26
g27
sg28
(lp627
VCharles Oakley
p628
assbag1
(g2
g3
Ntp629
Rp630
(dp631
g7
(dp632
g9
V1999-00 Flair Showcase Legacy Collection #127 Aleksandar Radojevic
p633
sg11
I20
sg12
VFlair Showcase Legacy Collection
p634
sg14
(lp635
Vhttp://www.beckett.com/basketball/1999-00/flair-showcase-legacy-collection/127-aleksandar-radojevic-3203051
p636
asg17
g18
sg19
(lp637
Vhttp://img.beckett.com/images/no-image.jpg
p638
asg22
V#127
p639
sg24
V1999-00
p640
sg26
g27
sg28
(lp641
VAleksandar Radojevic
p642
assbag1
(g2
g3
Ntp643
Rp644
(dp645
g7
(dp646
g9
V1999-00 Flair Showcase Masterpiece #1 Vince Carter
p647
sg11
I1
sg12
VFlair Showcase Masterpiece
p648
sg14
(lp649
Vhttp://www.beckett.com/basketball/1999-00/flair-showcase-masterpiece/1-vince-carter-3203060
p650
asg17
g18
sg19
(lp651
Vhttp://img.beckett.com/images/no-image.jpg
p652
asg22
V#1
p653
sg24
V1999-00
p654
sg26
g27
sg28
(lp655
VVince Carter
p656
assbag1
(g2
g3
Ntp657
Rp658
(dp659
g7
(dp660
g9
V1999-00 Flair Showcase Masterpiece #81 Tracy McGrady
p661
sg11
I1
sg12
VFlair Showcase Masterpiece
p662
sg14
(lp663
Vhttp://www.beckett.com/basketball/1999-00/flair-showcase-masterpiece/81-tracy-mcgrady-3203140
p664
asg17
g18
sg19
(lp665
Vhttp://img.beckett.com/images/no-image.jpg
p666
asg22
V#81
p667
sg24
V1999-00
p668
sg26
g27
sg28
(lp669
VTracy McGrady
p670
assbag1
(g2
g3
Ntp671
Rp672
(dp673
g7
(dp674
g9
V1999-00 Flair Showcase Masterpiece #91 Charles Oakley
p675
sg11
I1
sg12
VFlair Showcase Masterpiece
p676
sg14
(lp677
Vhttp://www.beckett.com/basketball/1999-00/flair-showcase-masterpiece/91-charles-oakley-3203150
p678
asg17
g18
sg19
(lp679
Vhttp://img.beckett.com/images/no-image.jpg
p680
asg22
V#91
p681
sg24
V1999-00
p682
sg26
g27
sg28
(lp683
VCharles Oakley
p684
assbag1
(g2
g3
Ntp685
Rp686
(dp687
g7
(dp688
g9
V1999-00 Flair Showcase Masterpiece #127 Aleksandar Radojevic
p689
sg11
I1
sg12
VFlair Showcase Masterpiece
p690
sg14
(lp691
Vhttp://www.beckett.com/basketball/1999-00/flair-showcase-masterpiece/127-aleksandar-radojevic-3203186
p692
asg17
g18
sg19
(lp693
Vhttp://img.beckett.com/images/no-image.jpg
p694
asg22
V#127
p695
sg24
V1999-00
p696
sg26
g27
sg28
(lp697
VAleksandar Radojevic
p698
assbag1
(g2
g3
Ntp699
Rp700
(dp701
g7
(dp702
g9
V1999-00 Fleer Supreme Court Collection #1 Vince Carter
p703
sg11
I20
sg12
VFleer Supreme Court Collection
p704
sg14
(lp705
Vhttp://www.beckett.com/basketball/1999-00/fleer-supreme-court-collection/1-vince-carter-3201507
p706
asg17
g18
sg19
(lp707
Vhttp://img.beckett.com/images/no-image.jpg
p708
asg22
V#1
p709
sg24
V1999-00
p710
sg26
g27
sg28
(lp711
VVince Carter
p712
assbag1
(g2
g3
Ntp713
Rp714
(dp715
g7
(dp716
g9
V1999-00 Fleer Supreme Court Collection #22 Antonio Davis
p717
sg11
I20
sg12
VFleer Supreme Court Collection
p718
sg14
(lp719
Vhttp://www.beckett.com/basketball/1999-00/fleer-supreme-court-collection/22-antonio-davis-3201528
p720
asg17
g18
sg19
(lp721
Vhttp://img.beckett.com/images/no-image.jpg
p722
asg22
V#22
p723
sg24
V1999-00
p724
sg26
g27
sg28
(lp725
VAntonio Davis
p726
assbag1
(g2
g3
Ntp727
Rp728
(dp729
g7
(dp730
g9
V1999-00 Fleer Supreme Court Collection #36 Dee Brown
p731
sg11
I20
sg12
VFleer Supreme Court Collection
p732
sg14
(lp733
Vhttp://www.beckett.com/basketball/1999-00/fleer-supreme-court-collection/36-dee-brown-3201542
p734
asg17
g18
sg19
(lp735
Vhttp://img.beckett.com/images/no-image.jpg
p736
asg22
V#36
p737
sg24
V1999-00
p738
sg26
g27
sg28
(lp739
VDee Brown
p740
assbag1
(g2
g3
Ntp741
Rp742
(dp743
g7
(dp744
g9
V1999-00 Fleer Supreme Court Collection #66 Doug Christie
p745
sg11
I20
sg12
VFleer Supreme Court Collection
p746
sg14
(lp747
Vhttp://www.beckett.com/basketball/1999-00/fleer-supreme-court-collection/66-doug-christie-3201572
p748
asg17
g18
sg19
(lp749
Vhttp://img.beckett.com/images/no-image.jpg
p750
asg22
V#66
p751
sg24
V1999-00
p752
sg26
g27
sg28
(lp753
VDoug Christie
p754
assbag1
(g2
g3
Ntp755
Rp756
(dp757
g7
(dp758
g9
V1999-00 Fleer Supreme Court Collection #96 Tracy McGrady
p759
sg11
I20
sg12
VFleer Supreme Court Collection
p760
sg14
(lp761
Vhttp://www.beckett.com/basketball/1999-00/fleer-supreme-court-collection/96-tracy-mcgrady-3201602
p762
asg17
g18
sg19
(lp763
Vhttp://img.beckett.com/images/no-image.jpg
p764
asg22
V#96
p765
sg24
V1999-00
p766
sg26
g27
sg28
(lp767
VTracy McGrady
p768
assbag1
(g2
g3
Ntp769
Rp770
(dp771
g7
(dp772
g9
V1999-00 Fleer Supreme Court Collection #125 Charles Oakley
p773
sg11
I20
sg12
VFleer Supreme Court Collection
p774
sg14
(lp775
Vhttp://www.beckett.com/basketball/1999-00/fleer-supreme-court-collection/125-charles-oakley-3201631
p776
asg17
g18
sg19
(lp777
Vhttp://img.beckett.com/images/no-image.jpg
p778
asg22
V#125
p779
sg24
V1999-00
p780
sg26
g27
sg28
(lp781
VCharles Oakley
p782
assbag1
(g2
g3
Ntp783
Rp784
(dp785
g7
(dp786
g9
V1999-00 Fleer Supreme Court Collection #154 John Wallace
p787
sg11
I20
sg12
VFleer Supreme Court Collection
p788
sg14
(lp789
Vhttp://www.beckett.com/basketball/1999-00/fleer-supreme-court-collection/154-john-wallace-3201660
p790
asg17
g18
sg19
(lp791
Vhttp://img.beckett.com/images/no-image.jpg
p792
asg22
V#154
p793
sg24
V1999-00
p794
sg26
g27
sg28
(lp795
VJohn Wallace
p796
assbag1
(g2
g3
Ntp797
Rp798
(dp799
g7
(dp800
g9
V1999-00 Fleer Supreme Court Collection #182 Kevin Willis
p801
sg11
I20
sg12
VFleer Supreme Court Collection
p802
sg14
(lp803
Vhttp://www.beckett.com/basketball/1999-00/fleer-supreme-court-collection/182-kevin-willis-3201688
p804
asg17
g18
sg19
(lp805
Vhttp://img.beckett.com/images/no-image.jpg
p806
asg22
V#182
p807
sg24
V1999-00
p808
sg26
g27
sg28
(lp809
VKevin Willis
p810
assbag1
(g2
g3
Ntp811
Rp812
(dp813
g7
(dp814
g9
V1999-00 Fleer Supreme Court Collection #216 Aleksandar Radojevic
p815
sg11
I20
sg12
VFleer Supreme Court Collection
p816
sg14
(lp817
Vhttp://www.beckett.com/basketball/1999-00/fleer-supreme-court-collection/216-aleksandar-radojevic-3201722
p818
asg17
g18
sg19
(lp819
Vhttp://img.beckett.com/images/no-image.jpg
p820
asg22
V#216
p821
sg24
V1999-00
p822
sg26
g27
sg28
(lp823
VAleksandar Radojevic
p824
assbag1
(g2
g3
Ntp825
Rp826
(dp827
g7
(dp828
g9
V1999-00 Fleer Focus Masterpiece Mania #44 Vince Carter
p829
sg11
I300
sg12
VFleer Focus Masterpiece Mania
p830
sg14
(lp831
Vhttp://www.beckett.com/basketball/1999-00/fleer-focus-masterpiece-mania/44-vince-carter-3202263
p832
asg17
g18
sg19
(lp833
Vhttp://img.beckett.com/images/items_stock/185226/3202210/3202263/front.jpg
p834
asg22
V#44
p835
sg24
V1999-00
p836
sg26
g27
sg28
(lp837
VVince Carter
p838
assbag1
(g2
g3
Ntp839
Rp840
(dp841
g7
(dp842
g9
V1999-00 Fleer Focus Masterpiece Mania #47 Tracy McGrady
p843
sg11
I300
sg12
VFleer Focus Masterpiece Mania
p844
sg14
(lp845
Vhttp://www.beckett.com/basketball/1999-00/fleer-focus-masterpiece-mania/47-tracy-mcgrady-3202266
p846
asg17
g18
sg19
(lp847
Vhttp://img.beckett.com/images/items_stock/185226/3202210/3202266/front.jpg
p848
asg22
V#47
p849
sg24
V1999-00
p850
sg26
g27
sg28
(lp851
VTracy McGrady
p852
assbag1
(g2
g3
Ntp853
Rp854
(dp855
g7
(dp856
g9
V1999-00 Fleer Focus Masterpiece Mania #57 Charles Oakley
p857
sg11
I300
sg12
VFleer Focus Masterpiece Mania
p858
sg14
(lp859
Vhttp://www.beckett.com/basketball/1999-00/fleer-focus-masterpiece-mania/57-charles-oakley-3202276
p860
asg17
g18
sg19
(lp861
Vhttp://img.beckett.com/images/items_stock/185226/3202210/3202276/front.jpg
p862
asg22
V#57
p863
sg24
V1999-00
p864
sg26
g27
sg28
(lp865
VCharles Oakley
p866
assbag1
(g2
g3
Ntp867
Rp868
(dp869
g7
(dp870
g9
V1999-00 Fleer Focus Masterpiece Mania #70 Doug Christie
p871
sg11
I300
sg12
VFleer Focus Masterpiece Mania
p872
sg14
(lp873
Vhttp://www.beckett.com/basketball/1999-00/fleer-focus-masterpiece-mania/70-doug-christie-3202289
p874
asg17
g18
sg19
(lp875
Vhttp://img.beckett.com/images/items_stock/185226/3202210/3202289/front.jpg
p876
asg22
V#70
p877
sg24
V1999-00
p878
sg26
g27
sg28
(lp879
VDoug Christie
p880
assbag1
(g2
g3
Ntp881
Rp882
(dp883
g7
(dp884
g9
V1999-00 Fleer Focus Masterpiece Mania #122 Aleksandar Radojevic
p885
sg11
I300
sg12
VFleer Focus Masterpiece Mania
p886
sg14
(lp887
Vhttp://www.beckett.com/basketball/1999-00/fleer-focus-masterpiece-mania/122-aleksandar-radojevic-3202341
p888
asg17
g18
sg19
(lp889
Vhttp://img.beckett.com/images/no-image.jpg
p890
asg22
V#122
p891
sg24
V1999-00
p892
sg26
g27
sg28
(lp893
VAleksandar Radojevic
p894
assbag1
(g2
g3
Ntp895
Rp896
(dp897
g7
(dp898
g9
V1999-00 Fleer Focus Masterpieces #44 Vince Carter
p899
sg11
I1
sg12
VFleer Focus Masterpieces
p900
sg14
(lp901
Vhttp://www.beckett.com/basketball/1999-00/fleer-focus-masterpieces/44-vince-carter-3202103
p902
asg17
g18
sg19
(lp903
Vhttp://img.beckett.com/images/no-image.jpg
p904
asg22
V#44
p905
sg24
V1999-00
p906
sg26
g27
sg28
(lp907
VVince Carter
p908
assbag1
(g2
g3
Ntp909
Rp910
(dp911
g7
(dp912
g9
V1999-00 Fleer Focus Masterpieces #47 Tracy McGrady
p913
sg11
I1
sg12
VFleer Focus Masterpieces
p914
sg14
(lp915
Vhttp://www.beckett.com/basketball/1999-00/fleer-focus-masterpieces/47-tracy-mcgrady-3202106
p916
asg17
g18
sg19
(lp917
Vhttp://img.beckett.com/images/no-image.jpg
p918
asg22
V#47
p919
sg24
V1999-00
p920
sg26
g27
sg28
(lp921
VTracy McGrady
p922
assbag1
(g2
g3
Ntp923
Rp924
(dp925
g7
(dp926
g9
V1999-00 Fleer Focus Masterpieces #57 Charles Oakley
p927
sg11
I1
sg12
VFleer Focus Masterpieces
p928
sg14
(lp929
Vhttp://www.beckett.com/basketball/1999-00/fleer-focus-masterpieces/57-charles-oakley-3202116
p930
asg17
g18
sg19
(lp931
Vhttp://img.beckett.com/images/no-image.jpg
p932
asg22
V#57
p933
sg24
V1999-00
p934
sg26
g27
sg28
(lp935
VCharles Oakley
p936
assbag1
(g2
g3
Ntp937
Rp938
(dp939
g7
(dp940
g9
V1999-00 Fleer Focus Masterpieces #70 Doug Christie
p941
sg11
I1
sg12
VFleer Focus Masterpieces
p942
sg14
(lp943
Vhttp://www.beckett.com/basketball/1999-00/fleer-focus-masterpieces/70-doug-christie-3202129
p944
asg17
g18
sg19
(lp945
Vhttp://img.beckett.com/images/no-image.jpg
p946
asg22
V#70
p947
sg24
V1999-00
p948
sg26
g27
sg28
(lp949
VDoug Christie
p950
assbag1
(g2
g3
Ntp951
Rp952
(dp953
g7
(dp954
g9
V1999-00 Fleer Focus Masterpieces #122 Aleksandar Radojevic
p955
sg11
I1
sg12
VFleer Focus Masterpieces
p956
sg14
(lp957
Vhttp://www.beckett.com/basketball/1999-00/fleer-focus-masterpieces/122-aleksandar-radojevic-3202181
p958
asg17
g18
sg19
(lp959
Vhttp://img.beckett.com/images/no-image.jpg
p960
asg22
V#122
p961
sg24
V1999-00
p962
sg26
g27
sg28
(lp963
VAleksandar Radojevic
p964
assbag1
(g2
g3
Ntp965
Rp966
(dp967
g7
(dp968
g9
V1999-00 Fleer Force Forcefield #216 Aleksandar Radojevic
p969
sg11
I100
sg12
VFleer Force Forcefield
p970
sg14
(lp971
Vhttp://www.beckett.com/basketball/1999-00/fleer-force-forcefield/216-aleksandar-radojevic-3200538
p972
asg17
g18
sg19
(lp973
Vhttp://img.beckett.com/images/items_stock/185226/3200312/3200538/front.jpg
p974
asg22
V#216
p975
sg24
V1999-00
p976
sg26
g27
sg28
(lp977
VAleksandar Radojevic
p978
assbag1
(g2
g3
Ntp979
Rp980
(dp981
g7
(dp982
g9
V1999-00 Fleer Mystique Masterpiece #26 Tracy McGrady
p983
sg11
I1
sg12
VFleer Mystique Masterpiece
p984
sg14
(lp985
Vhttp://www.beckett.com/basketball/1999-00/fleer-mystique-masterpiece/26-tracy-mcgrady-3198622
p986
asg17
g18
sg19
(lp987
Vhttp://img.beckett.com/images/no-image.jpg
p988
asg22
V#26
p989
sg24
V1999-00
p990
sg26
g27
sg28
(lp991
VTracy McGrady
p992
assbag1
(g2
g3
Ntp993
Rp994
(dp995
g7
(dp996
g9
V1999-00 Fleer Mystique Masterpiece #87 Doug Christie
p997
sg11
I1
sg12
VFleer Mystique Masterpiece
p998
sg14
(lp999
Vhttp://www.beckett.com/basketball/1999-00/fleer-mystique-masterpiece/87-doug-christie-3198683
p1000
asg17
g18
sg19
(lp1001
Vhttp://img.beckett.com/images/no-image.jpg
p1002
asg22
V#87
p1003
sg24
V1999-00
p1004
sg26
g27
sg28
(lp1005
VDoug Christie
p1006
assbag1
(g2
g3
Ntp1007
Rp1008
(dp1009
g7
(dp1010
g9
V1999-00 Fleer Mystique Masterpiece #94 Vince Carter
p1011
sg11
I1
sg12
VFleer Mystique Masterpiece
p1012
sg14
(lp1013
Vhttp://www.beckett.com/basketball/1999-00/fleer-mystique-masterpiece/94-vince-carter-3198690
p1014
asg17
g18
sg19
(lp1015
Vhttp://img.beckett.com/images/no-image.jpg
p1016
asg22
V#94
p1017
sg24
V1999-00
p1018
sg26
g27
sg28
(lp1019
VVince Carter
p1020
assbag1
(g2
g3
Ntp1021
Rp1022
(dp1023
g7
(dp1024
g9
V1999-00 Fleer Mystique Masterpiece #122 Aleksandar Radojevic
p1025
sg11
I1
sg12
VFleer Mystique Masterpiece
p1026
sg14
(lp1027
Vhttp://www.beckett.com/basketball/1999-00/fleer-mystique-masterpiece/122-aleksandar-radojevic-3198718
p1028
asg17
g18
sg19
(lp1029
Vhttp://img.beckett.com/images/no-image.jpg
p1030
asg22
V#122
p1031
sg24
V1999-00
p1032
sg26
g27
sg28
(lp1033
VAleksandar Radojevic
p1034
assbag1
(g2
g3
Ntp1035
Rp1036
(dp1037
g7
(dp1038
g9
V1999-00 Fleer Mystique Masterpiece #142 Vince Carter STAR
p1039
sg11
I1
sg12
VFleer Mystique Masterpiece
p1040
sg14
(lp1041
Vhttp://www.beckett.com/basketball/1999-00/fleer-mystique-masterpiece/142-vince-carter-star-3198738
p1042
asg17
g18
sg19
(lp1043
Vhttp://img.beckett.com/images/no-image.jpg
p1044
asg22
V#142
p1045
sg24
V1999-00
p1046
sg101
VSTAR
p1047
sg26
g27
sg28
(lp1048
VVince Carter
p1049
assbag1
(g2
g3
Ntp1050
Rp1051
(dp1052
g7
(dp1053
g9
V1999-00 Hoops Starting Five #22 Tracy McGrady
p1054
sg11
I5
sg12
VHoops Starting Five
p1055
sg14
(lp1056
Vhttp://www.beckett.com/basketball/1999-00/hoops-starting-five/22-tracy-mcgrady-3199084
p1057
asg17
g18
sg19
(lp1058
Vhttp://img.beckett.com/images/no-image.jpg
p1059
asg22
V#22
p1060
sg24
V1999-00
p1061
sg26
g27
sg28
(lp1062
VTracy McGrady
p1063
assbag1
(g2
g3
Ntp1064
Rp1065
(dp1066
g7
(dp1067
g9
V1999-00 Hoops Starting Five #100 Vince Carter
p1068
sg11
I5
sg12
VHoops Starting Five
p1069
sg14
(lp1070
Vhttp://www.beckett.com/basketball/1999-00/hoops-starting-five/100-vince-carter-3199162
p1071
asg17
g18
sg19
(lp1072
Vhttp://img.beckett.com/images/no-image.jpg
p1073
asg22
V#100
p1074
sg24
V1999-00
p1075
sg26
g27
sg28
(lp1076
VVince Carter
p1077
assbag1
(g2
g3
Ntp1078
Rp1079
(dp1080
g7
(dp1081
g9
V1999-00 Hoops Starting Five #110 Doug Christie
p1082
sg11
I5
sg12
VHoops Starting Five
p1083
sg14
(lp1084
Vhttp://www.beckett.com/basketball/1999-00/hoops-starting-five/110-doug-christie-3199172
p1085
asg17
g18
sg19
(lp1086
Vhttp://img.beckett.com/images/no-image.jpg
p1087
asg22
V#110
p1088
sg24
V1999-00
p1089
sg26
g27
sg28
(lp1090
VDoug Christie
p1091
assbag1
(g2
g3
Ntp1092
Rp1093
(dp1094
g7
(dp1095
g9
V1999-00 Hoops Starting Five #116 Kevin Willis
p1096
sg11
I5
sg12
VHoops Starting Five
p1097
sg14
(lp1098
Vhttp://www.beckett.com/basketball/1999-00/hoops-starting-five/116-kevin-willis-3199178
p1099
asg17
g18
sg19
(lp1100
Vhttp://img.beckett.com/images/no-image.jpg
p1101
asg22
V#116
p1102
sg24
V1999-00
p1103
sg26
g27
sg28
(lp1104
VKevin Willis
p1105
assbag1
(g2
g3
Ntp1106
Rp1107
(dp1108
g7
(dp1109
g9
V1999-00 Hoops Starting Five #163 Charles Oakley
p1110
sg11
I5
sg12
VHoops Starting Five
p1111
sg14
(lp1112
Vhttp://www.beckett.com/basketball/1999-00/hoops-starting-five/163-charles-oakley-3199225
p1113
asg17
g18
sg19
(lp1114
Vhttp://img.beckett.com/images/no-image.jpg
p1115
asg22
V#163
p1116
sg24
V1999-00
p1117
sg26
g27
sg28
(lp1118
VCharles Oakley
p1119
assbag1
(g2
g3
Ntp1120
Rp1121
(dp1122
g7
(dp1123
g9
V1999-00 Hoops Starting Five #182 Aleksandar Radojevic
p1124
sg11
I5
sg12
VHoops Starting Five
p1125
sg14
(lp1126
Vhttp://www.beckett.com/basketball/1999-00/hoops-starting-five/182-aleksandar-radojevic-3199244
p1127
asg17
g18
sg19
(lp1128
Vhttp://img.beckett.com/images/no-image.jpg
p1129
asg22
V#182
p1130
sg24
V1999-00
p1131
sg26
g27
sg28
(lp1132
VAleksandar Radojevic
p1133
assbag1
(g2
g3
Ntp1134
Rp1135
(dp1136
g7
(dp1137
g9
V1999-00 SkyBox APEX Xtra #11 Charles Oakley
p1138
sg11
I50
sg12
VSkyBox APEX Xtra
p1139
sg14
(lp1140
Vhttp://www.beckett.com/basketball/1999-00/skybox-apex-xtra/11-charles-oakley-3198145
p1141
asg17
g18
sg19
(lp1142
Vhttp://img.beckett.com/images/no-image.jpg
p1143
asg22
V#11
p1144
sg24
V1999-00
p1145
sg26
g27
sg28
(lp1146
VCharles Oakley
p1147
assbag1
(g2
g3
Ntp1148
Rp1149
(dp1150
g7
(dp1151
g9
V1999-00 SkyBox APEX Xtra #23 Vince Carter
p1152
sg11
I50
sg12
VSkyBox APEX Xtra
p1153
sg14
(lp1154
Vhttp://www.beckett.com/basketball/1999-00/skybox-apex-xtra/23-vince-carter-3198157
p1155
asg17
g18
sg19
(lp1156
Vhttp://img.beckett.com/images/no-image.jpg
p1157
asg22
V#23
p1158
sg24
V1999-00
p1159
sg26
g27
sg28
(lp1160
VVince Carter
p1161
assbag1
(g2
g3
Ntp1162
Rp1163
(dp1164
g7
(dp1165
g9
V1999-00 SkyBox APEX Xtra #81 Dee Brown
p1166
sg11
I50
sg12
VSkyBox APEX Xtra
p1167
sg14
(lp1168
Vhttp://www.beckett.com/basketball/1999-00/skybox-apex-xtra/81-dee-brown-3198215
p1169
asg17
g18
sg19
(lp1170
Vhttp://img.beckett.com/images/no-image.jpg
p1171
asg22
V#81
p1172
sg24
V1999-00
p1173
sg26
g27
sg28
(lp1174
VDee Brown
p1175
assbag1
(g2
g3
Ntp1176
Rp1177
(dp1178
g7
(dp1179
g9
V1999-00 SkyBox APEX Xtra #102 Alvin Williams
p1180
sg11
I50
sg12
VSkyBox APEX Xtra
p1181
sg14
(lp1182
Vhttp://www.beckett.com/basketball/1999-00/skybox-apex-xtra/102-alvin-williams-3198236
p1183
asg17
g18
sg19
(lp1184
Vhttp://img.beckett.com/images/no-image.jpg
p1185
asg22
V#102
p1186
sg24
V1999-00
p1187
sg26
g27
sg28
(lp1188
VAlvin Williams
p1189
assbag1
(g2
g3
Ntp1190
Rp1191
(dp1192
g7
(dp1193
g9
V1999-00 SkyBox APEX Xtra #118 Tracy McGrady
p1194
sg11
I50
sg12
VSkyBox APEX Xtra
p1195
sg14
(lp1196
Vhttp://www.beckett.com/basketball/1999-00/skybox-apex-xtra/118-tracy-mcgrady-3198252
p1197
asg17
g18
sg19
(lp1198
Vhttp://img.beckett.com/images/no-image.jpg
p1199
asg22
V#118
p1200
sg24
V1999-00
p1201
sg26
g27
sg28
(lp1202
VTracy McGrady
p1203
assbag1
(g2
g3
Ntp1204
Rp1205
(dp1206
g7
(dp1207
g9
V1999-00 SkyBox APEX Xtra #162 Aleksandar Radojevic
p1208
sg11
I50
sg12
VSkyBox APEX Xtra
p1209
sg14
(lp1210
Vhttp://www.beckett.com/basketball/1999-00/skybox-apex-xtra/162-aleksandar-radojevic-3198296
p1211
asg17
g18
sg19
(lp1212
Vhttp://img.beckett.com/images/no-image.jpg
p1213
asg22
V#162
p1214
sg24
V1999-00
p1215
sg26
g27
sg28
(lp1216
VAleksandar Radojevic
p1217
assbag1
(g2
g3
Ntp1218
Rp1219
(dp1220
g7
(dp1221
g9
V1999-00 SkyBox APEX Xtreme #11 Charles Oakley
p1222
sg11
I1
sg12
VSkyBox APEX Xtreme
p1223
sg14
(lp1224
Vhttp://www.beckett.com/basketball/1999-00/skybox-apex-xtreme/11-charles-oakley-3196487
p1225
asg17
g18
sg19
(lp1226
Vhttp://img.beckett.com/images/no-image.jpg
p1227
asg22
V#11
p1228
sg24
V1999-00
p1229
sg26
g27
sg28
(lp1230
VCharles Oakley
p1231
assbag1
(g2
g3
Ntp1232
Rp1233
(dp1234
g7
(dp1235
g9
V1999-00 SkyBox APEX Xtreme #23 Vince Carter
p1236
sg11
I1
sg12
VSkyBox APEX Xtreme
p1237
sg14
(lp1238
Vhttp://www.beckett.com/basketball/1999-00/skybox-apex-xtreme/23-vince-carter-3196499
p1239
asg17
g18
sg19
(lp1240
Vhttp://img.beckett.com/images/no-image.jpg
p1241
asg22
V#23
p1242
sg24
V1999-00
p1243
sg26
g27
sg28
(lp1244
VVince Carter
p1245
assbag1
(g2
g3
Ntp1246
Rp1247
(dp1248
g7
(dp1249
g9
V1999-00 SkyBox APEX Xtreme #81 Dee Brown
p1250
sg11
I1
sg12
VSkyBox APEX Xtreme
p1251
sg14
(lp1252
Vhttp://www.beckett.com/basketball/1999-00/skybox-apex-xtreme/81-dee-brown-3196557
p1253
asg17
g18
sg19
(lp1254
Vhttp://img.beckett.com/images/no-image.jpg
p1255
asg22
V#81
p1256
sg24
V1999-00
p1257
sg26
g27
sg28
(lp1258
VDee Brown
p1259
assbag1
(g2
g3
Ntp1260
Rp1261
(dp1262
g7
(dp1263
g9
V1999-00 SkyBox APEX Xtreme #102 Alvin Williams
p1264
sg11
I1
sg12
VSkyBox APEX Xtreme
p1265
sg14
(lp1266
Vhttp://www.beckett.com/basketball/1999-00/skybox-apex-xtreme/102-alvin-williams-3196578
p1267
asg17
g18
sg19
(lp1268
Vhttp://img.beckett.com/images/no-image.jpg
p1269
asg22
V#102
p1270
sg24
V1999-00
p1271
sg26
g27
sg28
(lp1272
VAlvin Williams
p1273
assbag1
(g2
g3
Ntp1274
Rp1275
(dp1276
g7
(dp1277
g9
V1999-00 SkyBox APEX Xtreme #118 Tracy McGrady
p1278
sg11
I1
sg12
VSkyBox APEX Xtreme
p1279
sg14
(lp1280
Vhttp://www.beckett.com/basketball/1999-00/skybox-apex-xtreme/118-tracy-mcgrady-3196594
p1281
asg17
g18
sg19
(lp1282
Vhttp://img.beckett.com/images/no-image.jpg
p1283
asg22
V#118
p1284
sg24
V1999-00
p1285
sg26
g27
sg28
(lp1286
VTracy McGrady
p1287
assbag1
(g2
g3
Ntp1288
Rp1289
(dp1290
g7
(dp1291
g9
V1999-00 SkyBox APEX Xtreme #162 Aleksandar Radojevic
p1292
sg11
I1
sg12
VSkyBox APEX Xtreme
p1293
sg14
(lp1294
Vhttp://www.beckett.com/basketball/1999-00/skybox-apex-xtreme/162-aleksandar-radojevic-3196638
p1295
asg17
g18
sg19
(lp1296
Vhttp://img.beckett.com/images/no-image.jpg
p1297
asg22
V#162
p1298
sg24
V1999-00
p1299
sg26
g27
sg28
(lp1300
VAleksandar Radojevic
p1301
assbag1
(g2
g3
Ntp1302
Rp1303
(dp1304
g7
(dp1305
g9
V1999-00 SkyBox Premium Star Rubies #1 Vince Carter
p1306
sg11
I45
sg12
VSkyBox Premium Star Rubies
p1307
sg14
(lp1308
Vhttp://www.beckett.com/basketball/1999-00/skybox-premium-star-rubies/1-vince-carter-3195579
p1309
asg17
g18
sg19
(lp1310
Vhttp://img.beckett.com/images/no-image.jpg
p1311
asg22
V#1
p1312
sg24
V1999-00
p1313
sg26
g27
sg28
(lp1314
VVince Carter
p1315
assbag1
(g2
g3
Ntp1316
Rp1317
(dp1318
g7
(dp1319
g9
V1999-00 SkyBox Premium Star Rubies #8 Tracy McGrady
p1320
sg11
I45
sg12
VSkyBox Premium Star Rubies
p1321
sg14
(lp1322
Vhttp://www.beckett.com/basketball/1999-00/skybox-premium-star-rubies/8-tracy-mcgrady-3195586
p1323
asg17
g18
sg19
(lp1324
Vhttp://img.beckett.com/images/no-image.jpg
p1325
asg22
V#8
p1326
sg24
V1999-00
p1327
sg26
g27
sg28
(lp1328
VTracy McGrady
p1329
assbag1
(g2
g3
Ntp1330
Rp1331
(dp1332
g7
(dp1333
g9
V1999-00 SkyBox Premium Star Rubies #91 Charles Oakley
p1334
sg11
I45
sg12
VSkyBox Premium Star Rubies
p1335
sg14
(lp1336
Vhttp://www.beckett.com/basketball/1999-00/skybox-premium-star-rubies/91-charles-oakley-3195669
p1337
asg17
g18
sg19
(lp1338
Vhttp://img.beckett.com/images/no-image.jpg
p1339
asg22
V#91
p1340
sg24
V1999-00
p1341
sg26
g27
sg28
(lp1342
VCharles Oakley
p1343
assbag1
(g2
g3
Ntp1344
Rp1345
(dp1346
g7
(dp1347
g9
V1999-00 SkyBox Premium Star Rubies #112 Aleksandar Radojevic
p1348
sg11
I45
sg12
VSkyBox Premium Star Rubies
p1349
sg14
(lp1350
Vhttp://www.beckett.com/basketball/1999-00/skybox-premium-star-rubies/112-aleksandar-radojevic-3195701
p1351
asg17
g18
sg19
(lp1352
Vhttp://img.beckett.com/images/no-image.jpg
p1353
asg22
V#112
p1354
sg24
V1999-00
p1355
sg26
g27
sg28
(lp1356
VAleksandar Radojevic
p1357
assbag1
(g2
g3
Ntp1358
Rp1359
(dp1360
g7
(dp1361
g9
V1999-00 SkyBox Premium Star Rubies #112A Aleksandar Radojevic SP
p1362
sg11
I25
sg12
VSkyBox Premium Star Rubies
p1363
sg14
(lp1364
Vhttp://www.beckett.com/basketball/1999-00/skybox-premium-star-rubies/112a-aleksandar-radojevic-sp-3195702
p1365
asg17
g18
sg19
(lp1366
Vhttp://img.beckett.com/images/no-image.jpg
p1367
asg22
V#112A
p1368
sg24
V1999-00
p1369
sg101
VSP
p1370
sg26
g27
sg28
(lp1371
VAleksandar Radojevic
p1372
assbag1
(g2
g3
Ntp1373
Rp1374
(dp1375
g7
(dp1376
g9
V1999-00 SPx Radiance #79 Charles Oakley
p1377
sg11
I100
sg12
VSPx Radiance
p1378
sg14
(lp1379
Vhttp://www.beckett.com/basketball/1999-00/spx-radiance/79-charles-oakley-3193292
p1380
asg17
g18
sg19
(lp1381
Vhttp://img.beckett.com/images/no-image.jpg
p1382
asg22
V#79
p1383
sg24
V1999-00
p1384
sg26
g27
sg28
(lp1385
VCharles Oakley
p1386
assbag1
(g2
g3
Ntp1387
Rp1388
(dp1389
g7
(dp1390
g9
V1999-00 SPx Radiance #80 Vince Carter
p1391
sg11
I100
sg12
VSPx Radiance
p1392
sg14
(lp1393
Vhttp://www.beckett.com/basketball/1999-00/spx-radiance/80-vince-carter-3193293
p1394
asg17
g18
sg19
(lp1395
Vhttp://img.beckett.com/images/no-image.jpg
p1396
asg22
V#80
p1397
sg24
V1999-00
p1398
sg26
g27
sg28
(lp1399
VVince Carter
p1400
assbag1
(g2
g3
Ntp1401
Rp1402
(dp1403
g7
(dp1404
g9
V1999-00 SPx Radiance #81 Tracy McGrady
p1405
sg11
I100
sg12
VSPx Radiance
p1406
sg14
(lp1407
Vhttp://www.beckett.com/basketball/1999-00/spx-radiance/81-tracy-mcgrady-3193294
p1408
asg17
g18
sg19
(lp1409
Vhttp://img.beckett.com/images/no-image.jpg
p1410
asg22
V#81
p1411
sg24
V1999-00
p1412
sg26
g27
sg28
(lp1413
VTracy McGrady
p1414
assbag1
(g2
g3
Ntp1415
Rp1416
(dp1417
g7
(dp1418
g9
V1999-00 SPx Radiance #82 Doug Christie
p1419
sg11
I100
sg12
VSPx Radiance
p1420
sg14
(lp1421
Vhttp://www.beckett.com/basketball/1999-00/spx-radiance/82-doug-christie-3193295
p1422
asg17
g18
sg19
(lp1423
Vhttp://img.beckett.com/images/items_stock/185226/3193202/3193295/front.jpg
p1424
asg22
V#82
p1425
sg24
V1999-00
p1426
sg26
g27
sg28
(lp1427
VDoug Christie
p1428
assbag1
(g2
g3
Ntp1429
Rp1430
(dp1431
g7
(dp1432
g9
V1999-00 SPx Spectrum #79 Charles Oakley
p1433
sg11
I1
sg12
VSPx Spectrum
p1434
sg14
(lp1435
Vhttp://www.beckett.com/basketball/1999-00/spx-spectrum/79-charles-oakley-3193417
p1436
asg17
g18
sg19
(lp1437
Vhttp://img.beckett.com/images/no-image.jpg
p1438
asg22
V#79
p1439
sg24
V1999-00
p1440
sg26
g27
sg28
(lp1441
VCharles Oakley
p1442
assbag1
(g2
g3
Ntp1443
Rp1444
(dp1445
g7
(dp1446
g9
V1999-00 SPx Spectrum #80 Vince Carter
p1447
sg11
I1
sg12
VSPx Spectrum
p1448
sg14
(lp1449
Vhttp://www.beckett.com/basketball/1999-00/spx-spectrum/80-vince-carter-3193418
p1450
asg17
g18
sg19
(lp1451
Vhttp://img.beckett.com/images/no-image.jpg
p1452
asg22
V#80
p1453
sg24
V1999-00
p1454
sg26
g27
sg28
(lp1455
VVince Carter
p1456
assbag1
(g2
g3
Ntp1457
Rp1458
(dp1459
g7
(dp1460
g9
V1999-00 SPx Spectrum #81 Tracy McGrady
p1461
sg11
I1
sg12
VSPx Spectrum
p1462
sg14
(lp1463
Vhttp://www.beckett.com/basketball/1999-00/spx-spectrum/81-tracy-mcgrady-3193419
p1464
asg17
g18
sg19
(lp1465
Vhttp://img.beckett.com/images/no-image.jpg
p1466
asg22
V#81
p1467
sg24
V1999-00
p1468
sg26
g27
sg28
(lp1469
VTracy McGrady
p1470
assbag1
(g2
g3
Ntp1471
Rp1472
(dp1473
g7
(dp1474
g9
V1999-00 SPx Spectrum #82 Doug Christie
p1475
sg11
I1
sg12
VSPx Spectrum
p1476
sg14
(lp1477
Vhttp://www.beckett.com/basketball/1999-00/spx-spectrum/82-doug-christie-3193420
p1478
asg17
g18
sg19
(lp1479
Vhttp://img.beckett.com/images/no-image.jpg
p1480
asg22
V#82
p1481
sg24
V1999-00
p1482
sg26
g27
sg28
(lp1483
VDoug Christie
p1484
assbag1
(g2
g3
Ntp1485
Rp1486
(dp1487
g7
(dp1488
g9
V1999-00 Stadium Club First Day Issue #34 Alvin Williams
p1489
sg11
I150
sg12
VStadium Club First Day Issue
p1490
sg14
(lp1491
Vhttp://www.beckett.com/basketball/1999-00/stadium-club-first-day-issue/34-alvin-williams-3193868
p1492
asg17
g18
sg19
(lp1493
Vhttp://img.beckett.com/images/no-image.jpg
p1494
asg22
V#34
p1495
sg24
V1999-00
p1496
sg26
g27
sg28
(lp1497
VAlvin Williams
p1498
assbag1
(g2
g3
Ntp1499
Rp1500
(dp1501
g7
(dp1502
g9
V1999-00 Stadium Club First Day Issue #69 Vince Carter
p1503
sg11
I150
sg12
VStadium Club First Day Issue
p1504
sg14
(lp1505
Vhttp://www.beckett.com/basketball/1999-00/stadium-club-first-day-issue/69-vince-carter-3193903
p1506
asg17
g18
sg19
(lp1507
Vhttp://img.beckett.com/images/no-image.jpg
p1508
asg22
V#69
p1509
sg24
V1999-00
p1510
sg26
g27
sg28
(lp1511
VVince Carter
p1512
assbag1
(g2
g3
Ntp1513
Rp1514
(dp1515
g7
(dp1516
g9
V1999-00 Stadium Club First Day Issue #110 Tracy McGrady
p1517
sg11
I150
sg12
VStadium Club First Day Issue
p1518
sg14
(lp1519
Vhttp://www.beckett.com/basketball/1999-00/stadium-club-first-day-issue/110-tracy-mcgrady-3193944
p1520
asg17
g18
sg19
(lp1521
Vhttp://img.beckett.com/images/no-image.jpg
p1522
asg22
V#110
p1523
sg24
V1999-00
p1524
sg26
g27
sg28
(lp1525
VTracy McGrady
p1526
assbag1
(g2
g3
Ntp1527
Rp1528
(dp1529
g7
(dp1530
g9
V1999-00 Stadium Club First Day Issue #115 Doug Christie
p1531
sg11
I150
sg12
VStadium Club First Day Issue
p1532
sg14
(lp1533
Vhttp://www.beckett.com/basketball/1999-00/stadium-club-first-day-issue/115-doug-christie-3193949
p1534
asg17
g18
sg19
(lp1535
Vhttp://img.beckett.com/images/no-image.jpg
p1536
asg22
V#115
p1537
sg24
V1999-00
p1538
sg26
g27
sg28
(lp1539
VDoug Christie
p1540
assbag1
(g2
g3
Ntp1541
Rp1542
(dp1543
g7
(dp1544
g9
V1999-00 Stadium Club First Day Issue #129 Charles Oakley
p1545
sg11
I150
sg12
VStadium Club First Day Issue
p1546
sg14
(lp1547
Vhttp://www.beckett.com/basketball/1999-00/stadium-club-first-day-issue/129-charles-oakley-3193963
p1548
asg17
g18
sg19
(lp1549
Vhttp://img.beckett.com/images/no-image.jpg
p1550
asg22
V#129
p1551
sg24
V1999-00
p1552
sg26
g27
sg28
(lp1553
VCharles Oakley
p1554
assbag1
(g2
g3
Ntp1555
Rp1556
(dp1557
g7
(dp1558
g9
V1999-00 Stadium Club First Day Issue #151 Antonio Davis TRAN
p1559
sg11
I150
sg12
VStadium Club First Day Issue
p1560
sg14
(lp1561
Vhttp://www.beckett.com/basketball/1999-00/stadium-club-first-day-issue/151-antonio-davis-tran-3193985
p1562
asg17
g18
sg19
(lp1563
Vhttp://img.beckett.com/images/no-image.jpg
p1564
asg22
V#151
p1565
sg24
V1999-00
p1566
sg101
VTRAN
p1567
sg26
g27
sg28
(lp1568
VAntonio Davis
p1569
assbag1
(g2
g3
Ntp1570
Rp1571
(dp1572
g7
(dp1573
g9
V1999-00 Stadium Club First Day Issue #187 Aleksandar Radojevic
p1574
sg11
I150
sg12
VStadium Club First Day Issue
p1575
sg14
(lp1576
Vhttp://www.beckett.com/basketball/1999-00/stadium-club-first-day-issue/187-aleksandar-radojevic-3194021
p1577
asg17
g18
sg19
(lp1578
Vhttp://img.beckett.com/images/no-image.jpg
p1579
asg22
V#187
p1580
sg24
V1999-00
p1581
sg26
g27
sg28
(lp1582
VAleksandar Radojevic
p1583
assbag1
(g2
g3
Ntp1584
Rp1585
(dp1586
g7
(dp1587
g9
V1999-00 Stadium Club One of a Kind #34 Alvin Williams
p1588
sg11
I150
sg12
VStadium Club One of a Kind
p1589
sg14
(lp1590
Vhttp://www.beckett.com/basketball/1999-00/stadium-club-one-of-a-kind/34-alvin-williams-3194080
p1591
asg17
g18
sg19
(lp1592
Vhttp://img.beckett.com/images/no-image.jpg
p1593
asg22
V#34
p1594
sg24
V1999-00
p1595
sg26
g27
sg28
(lp1596
VAlvin Williams
p1597
assbag1
(g2
g3
Ntp1598
Rp1599
(dp1600
g7
(dp1601
g9
V1999-00 Stadium Club One of a Kind #69 Vince Carter
p1602
sg11
I150
sg12
VStadium Club One of a Kind
p1603
sg14
(lp1604
Vhttp://www.beckett.com/basketball/1999-00/stadium-club-one-of-a-kind/69-vince-carter-3194115
p1605
asg17
g18
sg19
(lp1606
Vhttp://img.beckett.com/images/no-image.jpg
p1607
asg22
V#69
p1608
sg24
V1999-00
p1609
sg26
g27
sg28
(lp1610
VVince Carter
p1611
assbag1
(g2
g3
Ntp1612
Rp1613
(dp1614
g7
(dp1615
g9
V1999-00 Stadium Club One of a Kind #110 Tracy McGrady
p1616
sg11
I150
sg12
VStadium Club One of a Kind
p1617
sg14
(lp1618
Vhttp://www.beckett.com/basketball/1999-00/stadium-club-one-of-a-kind/110-tracy-mcgrady-3194156
p1619
asg17
g18
sg19
(lp1620
Vhttp://img.beckett.com/images/no-image.jpg
p1621
asg22
V#110
p1622
sg24
V1999-00
p1623
sg26
g27
sg28
(lp1624
VTracy McGrady
p1625
assbag1
(g2
g3
Ntp1626
Rp1627
(dp1628
g7
(dp1629
g9
V1999-00 Stadium Club One of a Kind #115 Doug Christie
p1630
sg11
I150
sg12
VStadium Club One of a Kind
p1631
sg14
(lp1632
Vhttp://www.beckett.com/basketball/1999-00/stadium-club-one-of-a-kind/115-doug-christie-3194161
p1633
asg17
g18
sg19
(lp1634
Vhttp://img.beckett.com/images/no-image.jpg
p1635
asg22
V#115
p1636
sg24
V1999-00
p1637
sg26
g27
sg28
(lp1638
VDoug Christie
p1639
assbag1
(g2
g3
Ntp1640
Rp1641
(dp1642
g7
(dp1643
g9
V1999-00 Stadium Club One of a Kind #129 Charles Oakley
p1644
sg11
I150
sg12
VStadium Club One of a Kind
p1645
sg14
(lp1646
Vhttp://www.beckett.com/basketball/1999-00/stadium-club-one-of-a-kind/129-charles-oakley-3194175
p1647
asg17
g18
sg19
(lp1648
Vhttp://img.beckett.com/images/no-image.jpg
p1649
asg22
V#129
p1650
sg24
V1999-00
p1651
sg26
g27
sg28
(lp1652
VCharles Oakley
p1653
assbag1
(g2
g3
Ntp1654
Rp1655
(dp1656
g7
(dp1657
g9
V1999-00 Stadium Club One of a Kind #151 Antonio Davis TRAN
p1658
sg11
I150
sg12
VStadium Club One of a Kind
p1659
sg14
(lp1660
Vhttp://www.beckett.com/basketball/1999-00/stadium-club-one-of-a-kind/151-antonio-davis-tran-3194197
p1661
asg17
g18
sg19
(lp1662
Vhttp://img.beckett.com/images/no-image.jpg
p1663
asg22
V#151
p1664
sg24
V1999-00
p1665
sg101
VTRAN
p1666
sg26
g27
sg28
(lp1667
VAntonio Davis
p1668
assbag1
(g2
g3
Ntp1669
Rp1670
(dp1671
g7
(dp1672
g9
V1999-00 Stadium Club One of a Kind #187 Aleksandar Radojevic
p1673
sg11
I150
sg12
VStadium Club One of a Kind
p1674
sg14
(lp1675
Vhttp://www.beckett.com/basketball/1999-00/stadium-club-one-of-a-kind/187-aleksandar-radojevic-3194233
p1676
asg17
g18
sg19
(lp1677
Vhttp://img.beckett.com/images/no-image.jpg
p1678
asg22
V#187
p1679
sg24
V1999-00
p1680
sg26
g27
sg28
(lp1681
VAleksandar Radojevic
p1682
assbag1
(g2
g3
Ntp1683
Rp1684
(dp1685
g7
(dp1686
g9
V1999-00 Stadium Club Printing Plates #34A Alvin Williams Black
p1687
sg11
I1
sg12
VStadium Club Printing Plates
p1688
sg14
(lp1689
Vhttp://www.beckett.com/basketball/1999-00/stadium-club-printing-plates/34a-alvin-williams-black-3194386
p1690
asg17
g18
sg19
(lp1691
Vhttp://img.beckett.com/images/no-image.jpg
p1692
asg22
V#34A
p1693
sg24
V1999-00
p1694
sg26
g27
sg28
(lp1695
VAlvin Williams
p1696
assbag1
(g2
g3
Ntp1697
Rp1698
(dp1699
g7
(dp1700
g9
V1999-00 Stadium Club Printing Plates #34B Alvin Williams Cyan
p1701
sg11
I1
sg12
VStadium Club Printing Plates
p1702
sg14
(lp1703
Vhttp://www.beckett.com/basketball/1999-00/stadium-club-printing-plates/34b-alvin-williams-cyan-3194387
p1704
asg17
g18
sg19
(lp1705
Vhttp://img.beckett.com/images/no-image.jpg
p1706
asg22
V#34B
p1707
sg24
V1999-00
p1708
sg26
g27
sg28
(lp1709
g1696
assbag1
(g2
g3
Ntp1710
Rp1711
(dp1712
g7
(dp1713
g9
V1999-00 Stadium Club Printing Plates #34C Alvin Williams Magenta
p1714
sg11
I1
sg12
VStadium Club Printing Plates
p1715
sg14
(lp1716
Vhttp://www.beckett.com/basketball/1999-00/stadium-club-printing-plates/34c-alvin-williams-magenta-3194388
p1717
asg17
g18
sg19
(lp1718
Vhttp://img.beckett.com/images/no-image.jpg
p1719
asg22
V#34C
p1720
sg24
V1999-00
p1721
sg26
g27
sg28
(lp1722
g1696
assbag1
(g2
g3
Ntp1723
Rp1724
(dp1725
g7
(dp1726
g9
V1999-00 Stadium Club Printing Plates #34D Alvin Williams Yellow
p1727
sg11
I1
sg12
VStadium Club Printing Plates
p1728
sg14
(lp1729
Vhttp://www.beckett.com/basketball/1999-00/stadium-club-printing-plates/34d-alvin-williams-yellow-3194389
p1730
asg17
g18
sg19
(lp1731
Vhttp://img.beckett.com/images/no-image.jpg
p1732
asg22
V#34D
p1733
sg24
V1999-00
p1734
sg26
g27
sg28
(lp1735
g1696
assbag1
(g2
g3
Ntp1736
Rp1737
(dp1738
g7
(dp1739
g9
V1999-00 Stadium Club Printing Plates #69A Vince Carter Black
p1740
sg11
I1
sg12
VStadium Club Printing Plates
p1741
sg14
(lp1742
Vhttp://www.beckett.com/basketball/1999-00/stadium-club-printing-plates/69a-vince-carter-black-3194526
p1743
asg17
g18
sg19
(lp1744
Vhttp://img.beckett.com/images/no-image.jpg
p1745
asg22
V#69A
p1746
sg24
V1999-00
p1747
sg26
g27
sg28
(lp1748
VVince Carter
p1749
assbag1
(g2
g3
Ntp1750
Rp1751
(dp1752
g7
(dp1753
g9
V1999-00 Stadium Club Printing Plates #69B Vince Carter Cyan
p1754
sg11
I1
sg12
VStadium Club Printing Plates
p1755
sg14
(lp1756
Vhttp://www.beckett.com/basketball/1999-00/stadium-club-printing-plates/69b-vince-carter-cyan-3194527
p1757
asg17
g18
sg19
(lp1758
Vhttp://img.beckett.com/images/no-image.jpg
p1759
asg22
V#69B
p1760
sg24
V1999-00
p1761
sg26
g27
sg28
(lp1762
g1749
assbag1
(g2
g3
Ntp1763
Rp1764
(dp1765
g7
(dp1766
g9
V1999-00 Stadium Club Printing Plates #69C Vince Carter Magenta
p1767
sg11
I1
sg12
VStadium Club Printing Plates
p1768
sg14
(lp1769
Vhttp://www.beckett.com/basketball/1999-00/stadium-club-printing-plates/69c-vince-carter-magenta-3194528
p1770
asg17
g18
sg19
(lp1771
Vhttp://img.beckett.com/images/no-image.jpg
p1772
asg22
V#69C
p1773
sg24
V1999-00
p1774
sg26
g27
sg28
(lp1775
g1749
assbag1
(g2
g3
Ntp1776
Rp1777
(dp1778
g7
(dp1779
g9
V1999-00 Stadium Club Printing Plates #69D Vince Carter Yellow
p1780
sg11
I1
sg12
VStadium Club Printing Plates
p1781
sg14
(lp1782
Vhttp://www.beckett.com/basketball/1999-00/stadium-club-printing-plates/69d-vince-carter-yellow-3194529
p1783
asg17
g18
sg19
(lp1784
Vhttp://img.beckett.com/images/no-image.jpg
p1785
asg22
V#69D
p1786
sg24
V1999-00
p1787
sg26
g27
sg28
(lp1788
g1749
assbag1
(g2
g3
Ntp1789
Rp1790
(dp1791
g7
(dp1792
g9
V1999-00 Stadium Club Printing Plates #110A Tracy McGrady Black
p1793
sg11
I1
sg12
VStadium Club Printing Plates
p1794
sg14
(lp1795
Vhttp://www.beckett.com/basketball/1999-00/stadium-club-printing-plates/110a-tracy-mcgrady-black-3194690
p1796
asg17
g18
sg19
(lp1797
Vhttp://img.beckett.com/images/no-image.jpg
p1798
asg22
V#110A
p1799
sg24
V1999-00
p1800
sg26
g27
sg28
(lp1801
VTracy McGrady
p1802
assbag1
(g2
g3
Ntp1803
Rp1804
(dp1805
g7
(dp1806
g9
V1999-00 Stadium Club Printing Plates #110B Tracy McGrady Cyan
p1807
sg11
I1
sg12
VStadium Club Printing Plates
p1808
sg14
(lp1809
Vhttp://www.beckett.com/basketball/1999-00/stadium-club-printing-plates/110b-tracy-mcgrady-cyan-3194691
p1810
asg17
g18
sg19
(lp1811
Vhttp://img.beckett.com/images/no-image.jpg
p1812
asg22
V#110B
p1813
sg24
V1999-00
p1814
sg26
g27
sg28
(lp1815
g1802
assbag1
(g2
g3
Ntp1816
Rp1817
(dp1818
g7
(dp1819
g9
V1999-00 Stadium Club Printing Plates #110C Tracy McGrady Magenta
p1820
sg11
I1
sg12
VStadium Club Printing Plates
p1821
sg14
(lp1822
Vhttp://www.beckett.com/basketball/1999-00/stadium-club-printing-plates/110c-tracy-mcgrady-magenta-3194692
p1823
asg17
g18
sg19
(lp1824
Vhttp://img.beckett.com/images/no-image.jpg
p1825
asg22
V#110C
p1826
sg24
V1999-00
p1827
sg26
g27
sg28
(lp1828
g1802
assbag1
(g2
g3
Ntp1829
Rp1830
(dp1831
g7
(dp1832
g9
V1999-00 Stadium Club Printing Plates #110D Tracy McGrady Yellow
p1833
sg11
I1
sg12
VStadium Club Printing Plates
p1834
sg14
(lp1835
Vhttp://www.beckett.com/basketball/1999-00/stadium-club-printing-plates/110d-tracy-mcgrady-yellow-3194693
p1836
asg17
g18
sg19
(lp1837
Vhttp://img.beckett.com/images/no-image.jpg
p1838
asg22
V#110D
p1839
sg24
V1999-00
p1840
sg26
g27
sg28
(lp1841
g1802
assbag1
(g2
g3
Ntp1842
Rp1843
(dp1844
g7
(dp1845
g9
V1999-00 Stadium Club Printing Plates #115A Doug Christie Black
p1846
sg11
I1
sg12
VStadium Club Printing Plates
p1847
sg14
(lp1848
Vhttp://www.beckett.com/basketball/1999-00/stadium-club-printing-plates/115a-doug-christie-black-3194710
p1849
asg17
g18
sg19
(lp1850
Vhttp://img.beckett.com/images/no-image.jpg
p1851
asg22
V#115A
p1852
sg24
V1999-00
p1853
sg26
g27
sg28
(lp1854
VDoug Christie
p1855
assbag1
(g2
g3
Ntp1856
Rp1857
(dp1858
g7
(dp1859
g9
V1999-00 Stadium Club Printing Plates #115B Doug Christie Cyan
p1860
sg11
I1
sg12
VStadium Club Printing Plates
p1861
sg14
(lp1862
Vhttp://www.beckett.com/basketball/1999-00/stadium-club-printing-plates/115b-doug-christie-cyan-3194711
p1863
asg17
g18
sg19
(lp1864
Vhttp://img.beckett.com/images/no-image.jpg
p1865
asg22
V#115B
p1866
sg24
V1999-00
p1867
sg26
g27
sg28
(lp1868
g1855
assbag1
(g2
g3
Ntp1869
Rp1870
(dp1871
g7
(dp1872
g9
V1999-00 Stadium Club Printing Plates #115C Doug Christie Magenta
p1873
sg11
I1
sg12
VStadium Club Printing Plates
p1874
sg14
(lp1875
Vhttp://www.beckett.com/basketball/1999-00/stadium-club-printing-plates/115c-doug-christie-magenta-3194712
p1876
asg17
g18
sg19
(lp1877
Vhttp://img.beckett.com/images/no-image.jpg
p1878
asg22
V#115C
p1879
sg24
V1999-00
p1880
sg26
g27
sg28
(lp1881
g1855
assbag1
(g2
g3
Ntp1882
Rp1883
(dp1884
g7
(dp1885
g9
V1999-00 Stadium Club Printing Plates #115D Doug Christie Yellow
p1886
sg11
I1
sg12
VStadium Club Printing Plates
p1887
sg14
(lp1888
Vhttp://www.beckett.com/basketball/1999-00/stadium-club-printing-plates/115d-doug-christie-yellow-3194713
p1889
asg17
g18
sg19
(lp1890
Vhttp://img.beckett.com/images/no-image.jpg
p1891
asg22
V#115D
p1892
sg24
V1999-00
p1893
sg26
g27
sg28
(lp1894
g1855
assbag1
(g2
g3
Ntp1895
Rp1896
(dp1897
g7
(dp1898
g9
V1999-00 Stadium Club Printing Plates #129A Charles Oakley Black
p1899
sg11
I1
sg12
VStadium Club Printing Plates
p1900
sg14
(lp1901
Vhttp://www.beckett.com/basketball/1999-00/stadium-club-printing-plates/129a-charles-oakley-black-3194766
p1902
asg17
g18
sg19
(lp1903
Vhttp://img.beckett.com/images/no-image.jpg
p1904
asg22
V#129A
p1905
sg24
V1999-00
p1906
sg26
g27
sg28
(lp1907
VCharles Oakley
p1908
assbag1
(g2
g3
Ntp1909
Rp1910
(dp1911
g7
(dp1912
g9
V1999-00 Stadium Club Printing Plates #129B Charles Oakley Cyan
p1913
sg11
I1
sg12
VStadium Club Printing Plates
p1914
sg14
(lp1915
Vhttp://www.beckett.com/basketball/1999-00/stadium-club-printing-plates/129b-charles-oakley-cyan-3194767
p1916
asg17
g18
sg19
(lp1917
Vhttp://img.beckett.com/images/no-image.jpg
p1918
asg22
V#129B
p1919
sg24
V1999-00
p1920
sg26
g27
sg28
(lp1921
g1908
assbag1
(g2
g3
Ntp1922
Rp1923
(dp1924
g7
(dp1925
g9
V1999-00 Stadium Club Printing Plates #129C Charles Oakley Magenta
p1926
sg11
I1
sg12
VStadium Club Printing Plates
p1927
sg14
(lp1928
Vhttp://www.beckett.com/basketball/1999-00/stadium-club-printing-plates/129c-charles-oakley-magenta-3194768
p1929
asg17
g18
sg19
(lp1930
Vhttp://img.beckett.com/images/no-image.jpg
p1931
asg22
V#129C
p1932
sg24
V1999-00
p1933
sg26
g27
sg28
(lp1934
g1908
assbag1
(g2
g3
Ntp1935
Rp1936
(dp1937
g7
(dp1938
g9
V1999-00 Stadium Club Printing Plates #129D Charles Oakley Yellow
p1939
sg11
I1
sg12
VStadium Club Printing Plates
p1940
sg14
(lp1941
Vhttp://www.beckett.com/basketball/1999-00/stadium-club-printing-plates/129d-charles-oakley-yellow-3194769
p1942
asg17
g18
sg19
(lp1943
Vhttp://img.beckett.com/images/no-image.jpg
p1944
asg22
V#129D
p1945
sg24
V1999-00
p1946
sg26
g27
sg28
(lp1947
g1908
assbag1
(g2
g3
Ntp1948
Rp1949
(dp1950
g7
(dp1951
g9
V1999-00 Stadium Club Printing Plates #151A Antonio Davis Black
p1952
sg11
I1
sg12
VStadium Club Printing Plates
p1953
sg14
(lp1954
Vhttp://www.beckett.com/basketball/1999-00/stadium-club-printing-plates/151a-antonio-davis-black-3194854
p1955
asg17
g18
sg19
(lp1956
Vhttp://img.beckett.com/images/no-image.jpg
p1957
asg22
V#151A
p1958
sg24
V1999-00
p1959
sg26
g27
sg28
(lp1960
VAntonio Davis
p1961
assbag1
(g2
g3
Ntp1962
Rp1963
(dp1964
g7
(dp1965
g9
V1999-00 Stadium Club Printing Plates #151B Antonio Davis Cyan
p1966
sg11
I1
sg12
VStadium Club Printing Plates
p1967
sg14
(lp1968
Vhttp://www.beckett.com/basketball/1999-00/stadium-club-printing-plates/151b-antonio-davis-cyan-3194855
p1969
asg17
g18
sg19
(lp1970
Vhttp://img.beckett.com/images/no-image.jpg
p1971
asg22
V#151B
p1972
sg24
V1999-00
p1973
sg26
g27
sg28
(lp1974
g1961
assbag1
(g2
g3
Ntp1975
Rp1976
(dp1977
g7
(dp1978
g9
V1999-00 Stadium Club Printing Plates #151C Antonio Davis Magenta
p1979
sg11
I1
sg12
VStadium Club Printing Plates
p1980
sg14
(lp1981
Vhttp://www.beckett.com/basketball/1999-00/stadium-club-printing-plates/151c-antonio-davis-magenta-3194856
p1982
asg17
g18
sg19
(lp1983
Vhttp://img.beckett.com/images/no-image.jpg
p1984
asg22
V#151C
p1985
sg24
V1999-00
p1986
sg26
g27
sg28
(lp1987
g1961
assbag1
(g2
g3
Ntp1988
Rp1989
(dp1990
g7
(dp1991
g9
V1999-00 Stadium Club Printing Plates #151D Antonio Davis Yellow
p1992
sg11
I1
sg12
VStadium Club Printing Plates
p1993
sg14
(lp1994
Vhttp://www.beckett.com/basketball/1999-00/stadium-club-printing-plates/151d-antonio-davis-yellow-3194857
p1995
asg17
g18
sg19
(lp1996
Vhttp://img.beckett.com/images/no-image.jpg
p1997
asg22
V#151D
p1998
sg24
V1999-00
p1999
sg26
g27
sg28
(lp2000
g1961
assbag1
(g2
g3
Ntp2001
Rp2002
(dp2003
g7
(dp2004
g9
V1999-00 Stadium Club Printing Plates #187A Aleksandar Radojevic Black
p2005
sg11
I1
sg12
VStadium Club Printing Plates
p2006
sg14
(lp2007
Vhttp://www.beckett.com/basketball/1999-00/stadium-club-printing-plates/187a-aleksandar-radojevic-black-3194998
p2008
asg17
g18
sg19
(lp2009
Vhttp://img.beckett.com/images/no-image.jpg
p2010
asg22
V#187A
p2011
sg24
V1999-00
p2012
sg26
g27
sg28
(lp2013
VAleksandar Radojevic
p2014
assbag1
(g2
g3
Ntp2015
Rp2016
(dp2017
g7
(dp2018
g9
V1999-00 Stadium Club Printing Plates #187B Aleksandar Radojevic Cyan
p2019
sg11
I1
sg12
VStadium Club Printing Plates
p2020
sg14
(lp2021
Vhttp://www.beckett.com/basketball/1999-00/stadium-club-printing-plates/187b-aleksandar-radojevic-cyan-3194999
p2022
asg17
g18
sg19
(lp2023
Vhttp://img.beckett.com/images/no-image.jpg
p2024
asg22
V#187B
p2025
sg24
V1999-00
p2026
sg26
g27
sg28
(lp2027
g2014
assbag1
(g2
g3
Ntp2028
Rp2029
(dp2030
g7
(dp2031
g9
V1999-00 Stadium Club Printing Plates #187C Aleksandar Radojevic Magenta
p2032
sg11
I1
sg12
VStadium Club Printing Plates
p2033
sg14
(lp2034
Vhttp://www.beckett.com/basketball/1999-00/stadium-club-printing-plates/187c-aleksandar-radojevic-magenta-3195000
p2035
asg17
g18
sg19
(lp2036
Vhttp://img.beckett.com/images/no-image.jpg
p2037
asg22
V#187C
p2038
sg24
V1999-00
p2039
sg26
g27
sg28
(lp2040
g2014
assbag1
(g2
g3
Ntp2041
Rp2042
(dp2043
g7
(dp2044
g9
V1999-00 Stadium Club Printing Plates #187D Aleksandar Radojevic Yellow
p2045
sg11
I1
sg12
VStadium Club Printing Plates
p2046
sg14
(lp2047
Vhttp://www.beckett.com/basketball/1999-00/stadium-club-printing-plates/187d-aleksandar-radojevic-yellow-3195001
p2048
asg17
g18
sg19
(lp2049
Vhttp://img.beckett.com/images/no-image.jpg
p2050
asg22
V#187D
p2051
sg24
V1999-00
p2052
sg26
g27
sg28
(lp2053
g2014
assbag1
(g2
g3
Ntp2054
Rp2055
(dp2056
g7
(dp2057
g9
V1999-00 Stadium Club Chrome First Day Issue #50 Vince Carter
p2058
sg11
I100
sg12
VStadium Club Chrome First Day Issue
p2059
sg14
(lp2060
Vhttp://www.beckett.com/basketball/1999-00/stadium-club-chrome-first-day-issue/50-vince-carter-3192450
p2061
asg17
g18
sg19
(lp2062
Vhttp://img.beckett.com/images/no-image.jpg
p2063
asg22
V#50
p2064
sg24
V1999-00
p2065
sg26
g27
sg28
(lp2066
VVince Carter
p2067
assbag1
(g2
g3
Ntp2068
Rp2069
(dp2070
g7
(dp2071
g9
V1999-00 Stadium Club Chrome First Day Issue #81 Tracy McGrady
p2072
sg11
I100
sg12
VStadium Club Chrome First Day Issue
p2073
sg14
(lp2074
Vhttp://www.beckett.com/basketball/1999-00/stadium-club-chrome-first-day-issue/81-tracy-mcgrady-3192481
p2075
asg17
g18
sg19
(lp2076
Vhttp://img.beckett.com/images/items_stock/185226/3192391/3192481/front.jpg
p2077
asg22
V#81
p2078
sg24
V1999-00
p2079
sg26
g27
sg28
(lp2080
VTracy McGrady
p2081
assbag1
(g2
g3
Ntp2082
Rp2083
(dp2084
g7
(dp2085
g9
V1999-00 Stadium Club Chrome First Day Issue #85 Doug Christie
p2086
sg11
I100
sg12
VStadium Club Chrome First Day Issue
p2087
sg14
(lp2088
Vhttp://www.beckett.com/basketball/1999-00/stadium-club-chrome-first-day-issue/85-doug-christie-3192485
p2089
asg17
g18
sg19
(lp2090
Vhttp://img.beckett.com/images/no-image.jpg
p2091
asg22
V#85
p2092
sg24
V1999-00
p2093
sg26
g27
sg28
(lp2094
VDoug Christie
p2095
assbag1
(g2
g3
Ntp2096
Rp2097
(dp2098
g7
(dp2099
g9
V1999-00 Stadium Club Chrome First Day Issue #98 Charles Oakley
p2100
sg11
I100
sg12
VStadium Club Chrome First Day Issue
p2101
sg14
(lp2102
Vhttp://www.beckett.com/basketball/1999-00/stadium-club-chrome-first-day-issue/98-charles-oakley-3192498
p2103
asg17
g18
sg19
(lp2104
Vhttp://img.beckett.com/images/items_stock/185226/3192391/3192498/front.jpg
p2105
asg22
V#98
p2106
sg24
V1999-00
p2107
sg26
g27
sg28
(lp2108
VCharles Oakley
p2109
assbag1
(g2
g3
Ntp2110
Rp2111
(dp2112
g7
(dp2113
g9
V1999-00 Stadium Club Chrome First Day Issue #116 Antonio Davis TRAN
p2114
sg11
I100
sg12
VStadium Club Chrome First Day Issue
p2115
sg14
(lp2116
Vhttp://www.beckett.com/basketball/1999-00/stadium-club-chrome-first-day-issue/116-antonio-davis-tran-3192516
p2117
asg17
g18
sg19
(lp2118
Vhttp://img.beckett.com/images/no-image.jpg
p2119
asg22
V#116
p2120
sg24
V1999-00
p2121
sg101
VTRAN
p2122
sg26
g27
sg28
(lp2123
VAntonio Davis
p2124
assbag1
(g2
g3
Ntp2125
Rp2126
(dp2127
g7
(dp2128
g9
V1999-00 Stadium Club Chrome First Day Issue #143 Aleksandar Radojevic
p2129
sg11
I100
sg12
VStadium Club Chrome First Day Issue
p2130
sg14
(lp2131
Vhttp://www.beckett.com/basketball/1999-00/stadium-club-chrome-first-day-issue/143-aleksandar-radojevic-3192543
p2132
asg17
g18
sg19
(lp2133
Vhttp://img.beckett.com/images/no-image.jpg
p2134
asg22
V#143
p2135
sg24
V1999-00
p2136
sg26
g27
sg28
(lp2137
VAleksandar Radojevic
p2138
assbag1
(g2
g3
Ntp2139
Rp2140
(dp2141
g7
(dp2142
g9
V1999-00 Stadium Club Chrome First Day Issue Refractors #50 Vince Carter
p2143
sg11
I25
sg12
VStadium Club Chrome First Day Issue Refractors
p2144
sg14
(lp2145
Vhttp://www.beckett.com/basketball/1999-00/stadium-club-chrome-first-day-issue-refractors/50-vince-carter-3192610
p2146
asg17
g18
sg19
(lp2147
Vhttp://img.beckett.com/images/no-image.jpg
p2148
asg22
V#50
p2149
sg24
V1999-00
p2150
sg26
g27
sg28
(lp2151
VVince Carter
p2152
assbag1
(g2
g3
Ntp2153
Rp2154
(dp2155
g7
(dp2156
g9
V1999-00 Stadium Club Chrome First Day Issue Refractors #81 Tracy McGrady
p2157
sg11
I25
sg12
VStadium Club Chrome First Day Issue Refractors
p2158
sg14
(lp2159
Vhttp://www.beckett.com/basketball/1999-00/stadium-club-chrome-first-day-issue-refractors/81-tracy-mcgrady-3192641
p2160
asg17
g18
sg19
(lp2161
Vhttp://img.beckett.com/images/no-image.jpg
p2162
asg22
V#81
p2163
sg24
V1999-00
p2164
sg26
g27
sg28
(lp2165
VTracy McGrady
p2166
assbag1
(g2
g3
Ntp2167
Rp2168
(dp2169
g7
(dp2170
g9
V1999-00 Stadium Club Chrome First Day Issue Refractors #85 Doug Christie
p2171
sg11
I25
sg12
VStadium Club Chrome First Day Issue Refractors
p2172
sg14
(lp2173
Vhttp://www.beckett.com/basketball/1999-00/stadium-club-chrome-first-day-issue-refractors/85-doug-christie-3192645
p2174
asg17
g18
sg19
(lp2175
Vhttp://img.beckett.com/images/no-image.jpg
p2176
asg22
V#85
p2177
sg24
V1999-00
p2178
sg26
g27
sg28
(lp2179
VDoug Christie
p2180
assbag1
(g2
g3
Ntp2181
Rp2182
(dp2183
g7
(dp2184
g9
V1999-00 Stadium Club Chrome First Day Issue Refractors #98 Charles Oakley
p2185
sg11
I25
sg12
VStadium Club Chrome First Day Issue Refractors
p2186
sg14
(lp2187
Vhttp://www.beckett.com/basketball/1999-00/stadium-club-chrome-first-day-issue-refractors/98-charles-oakley-3192658
p2188
asg17
g18
sg19
(lp2189
Vhttp://img.beckett.com/images/no-image.jpg
p2190
asg22
V#98
p2191
sg24
V1999-00
p2192
sg26
g27
sg28
(lp2193
VCharles Oakley
p2194
assbag1
(g2
g3
Ntp2195
Rp2196
(dp2197
g7
(dp2198
g9
V1999-00 Stadium Club Chrome First Day Issue Refractors #116 Antonio Davis TRAN
p2199
sg11
I25
sg12
VStadium Club Chrome First Day Issue Refractors
p2200
sg14
(lp2201
Vhttp://www.beckett.com/basketball/1999-00/stadium-club-chrome-first-day-issue-refractors/116-antonio-davis-tran-3192676
p2202
asg17
g18
sg19
(lp2203
Vhttp://img.beckett.com/images/no-image.jpg
p2204
asg22
V#116
p2205
sg24
V1999-00
p2206
sg101
VTRAN
p2207
sg26
g27
sg28
(lp2208
VAntonio Davis
p2209
assbag1
(g2
g3
Ntp2210
Rp2211
(dp2212
g7
(dp2213
g9
V1999-00 Stadium Club Chrome First Day Issue Refractors #143 Aleksandar Radojevic
p2214
sg11
I25
sg12
VStadium Club Chrome First Day Issue Refractors
p2215
sg14
(lp2216
Vhttp://www.beckett.com/basketball/1999-00/stadium-club-chrome-first-day-issue-refractors/143-aleksandar-radojevic-3192703
p2217
asg17
g18
sg19
(lp2218
Vhttp://img.beckett.com/images/no-image.jpg
p2219
asg22
V#143
p2220
sg24
V1999-00
p2221
sg26
g27
sg28
(lp2222
VAleksandar Radojevic
p2223
assbag1
(g2
g3
Ntp2224
Rp2225
(dp2226
g7
(dp2227
g9
V1999-00 Topps Gallery Player's Private Issue #14 Doug Christie
p2228
sg11
I250
sg12
VTopps Gallery Player's Private Issue
p2229
sg14
(lp2230
Vhttp://www.beckett.com/basketball/1999-00/topps-gallery-players-private-issue/14-doug-christie-3190808
p2231
asg17
g18
sg19
(lp2232
Vhttp://img.beckett.com/images/items_stock/185226/3190784/3190808/front.jpg
p2233
asg22
V#14
p2234
sg24
V1999-00
p2235
sg26
g27
sg28
(lp2236
VDoug Christie
p2237
assbag1
(g2
g3
Ntp2238
Rp2239
(dp2240
g7
(dp2241
g9
V1999-00 Topps Gallery Player's Private Issue #55 Vince Carter
p2242
sg11
I250
sg12
VTopps Gallery Player's Private Issue
p2243
sg14
(lp2244
Vhttp://www.beckett.com/basketball/1999-00/topps-gallery-players-private-issue/55-vince-carter-3190849
p2245
asg17
g18
sg19
(lp2246
Vhttp://img.beckett.com/images/items_stock/185226/3190784/3190849/front.jpg
p2247
asg22
V#55
p2248
sg24
V1999-00
p2249
sg26
g27
sg28
(lp2250
VVince Carter
p2251
assbag1
(g2
g3
Ntp2252
Rp2253
(dp2254
g7
(dp2255
g9
V1999-00 Topps Gallery Player's Private Issue #72 Charles Oakley
p2256
sg11
I250
sg12
VTopps Gallery Player's Private Issue
p2257
sg14
(lp2258
Vhttp://www.beckett.com/basketball/1999-00/topps-gallery-players-private-issue/72-charles-oakley-3190866
p2259
asg17
g18
sg19
(lp2260
Vhttp://img.beckett.com/images/no-image.jpg
p2261
asg22
V#72
p2262
sg24
V1999-00
p2263
sg26
g27
sg28
(lp2264
VCharles Oakley
p2265
assbag1
(g2
g3
Ntp2266
Rp2267
(dp2268
g7
(dp2269
g9
V1999-00 Topps Gallery Player's Private Issue #81 Tracy McGrady
p2270
sg11
I250
sg12
VTopps Gallery Player's Private Issue
p2271
sg14
(lp2272
Vhttp://www.beckett.com/basketball/1999-00/topps-gallery-players-private-issue/81-tracy-mcgrady-3190875
p2273
asg17
g18
sg19
(lp2274
Vhttp://img.beckett.com/images/no-image.jpg
p2275
asg22
V#81
p2276
sg24
V1999-00
p2277
sg26
g27
sg28
(lp2278
VTracy McGrady
p2279
assbag1
(g2
g3
Ntp2280
Rp2281
(dp2282
g7
(dp2283
g9
V1999-00 Topps Gallery Player's Private Issue #114 Vince Carter ART
p2284
sg11
I250
sg12
VTopps Gallery Player's Private Issue
p2285
sg14
(lp2286
Vhttp://www.beckett.com/basketball/1999-00/topps-gallery-players-private-issue/114-vince-carter-art-3190908
p2287
asg17
g18
sg19
(lp2288
Vhttp://img.beckett.com/images/items_stock/185226/3190784/3190908/front.jpg
p2289
asg22
V#114
p2290
sg24
V1999-00
p2291
sg101
VART
p2292
sg26
g27
sg28
(lp2293
VVince Carter
p2294
assbag1
(g2
g3
Ntp2295
Rp2296
(dp2297
g7
(dp2298
g9
V1999-00 Topps Gallery Player's Private Issue #117 Tracy McGrady ART
p2299
sg11
I250
sg12
VTopps Gallery Player's Private Issue
p2300
sg14
(lp2301
Vhttp://www.beckett.com/basketball/1999-00/topps-gallery-players-private-issue/117-tracy-mcgrady-art-3190911
p2302
asg17
g18
sg19
(lp2303
Vhttp://img.beckett.com/images/no-image.jpg
p2304
asg22
V#117
p2305
sg24
V1999-00
p2306
sg101
VART
p2307
sg26
g27
sg28
(lp2308
VTracy McGrady
p2309
assbag1
(g2
g3
Ntp2310
Rp2311
(dp2312
g7
(dp2313
g9
V1999-00 Topps Gallery Player's Private Issue #147 Aleksandar Radojevic
p2314
sg11
I250
sg12
VTopps Gallery Player's Private Issue
p2315
sg14
(lp2316
Vhttp://www.beckett.com/basketball/1999-00/topps-gallery-players-private-issue/147-aleksandar-radojevic-3190941
p2317
asg17
g18
sg19
(lp2318
Vhttp://img.beckett.com/images/no-image.jpg
p2319
asg22
V#147
p2320
sg24
V1999-00
p2321
sg26
g27
sg28
(lp2322
VAleksandar Radojevic
p2323
assbag1
(g2
g3
Ntp2324
Rp2325
(dp2326
g7
(dp2327
g9
V1999-00 Topps Gold Label Class 1 One to One #6 Doug Christie
p2328
sg11
I1
sg12
VTopps Gold Label Class 1 One to One
p2329
sg14
(lp2330
Vhttp://www.beckett.com/basketball/1999-00/topps-gold-label-class-1-one-to-one/6-doug-christie-3188724
p2331
asg17
g18
sg19
(lp2332
Vhttp://img.beckett.com/images/no-image.jpg
p2333
asg22
V#6
p2334
sg24
V1999-00
p2335
sg26
g27
sg28
(lp2336
VDoug Christie
p2337
assbag1
(g2
g3
Ntp2338
Rp2339
(dp2340
g7
(dp2341
g9
V1999-00 Topps Gold Label Class 1 One to One #33 Vince Carter
p2342
sg11
I1
sg12
VTopps Gold Label Class 1 One to One
p2343
sg14
(lp2344
Vhttp://www.beckett.com/basketball/1999-00/topps-gold-label-class-1-one-to-one/33-vince-carter-3188751
p2345
asg17
g18
sg19
(lp2346
Vhttp://img.beckett.com/images/no-image.jpg
p2347
asg22
V#33
p2348
sg24
V1999-00
p2349
sg26
g27
sg28
(lp2350
VVince Carter
p2351
assbag1
(g2
g3
Ntp2352
Rp2353
(dp2354
g7
(dp2355
g9
V1999-00 Topps Gold Label Class 1 One to One #84 Tracy McGrady
p2356
sg11
I1
sg12
VTopps Gold Label Class 1 One to One
p2357
sg14
(lp2358
Vhttp://www.beckett.com/basketball/1999-00/topps-gold-label-class-1-one-to-one/84-tracy-mcgrady-3188802
p2359
asg17
g18
sg19
(lp2360
Vhttp://img.beckett.com/images/no-image.jpg
p2361
asg22
V#84
p2362
sg24
V1999-00
p2363
sg26
g27
sg28
(lp2364
VTracy McGrady
p2365
assbag1
(g2
g3
Ntp2366
Rp2367
(dp2368
g7
(dp2369
g9
V1999-00 Topps Gold Label Class 1 One to One #97 Aleksandar Radojevic
p2370
sg11
I1
sg12
VTopps Gold Label Class 1 One to One
p2371
sg14
(lp2372
Vhttp://www.beckett.com/basketball/1999-00/topps-gold-label-class-1-one-to-one/97-aleksandar-radojevic-3188815
p2373
asg17
g18
sg19
(lp2374
Vhttp://img.beckett.com/images/no-image.jpg
p2375
asg22
V#97
p2376
sg24
V1999-00
p2377
sg26
g27
sg28
(lp2378
VAleksandar Radojevic
p2379
assbag1
(g2
g3
Ntp2380
Rp2381
(dp2382
g7
(dp2383
g9
V1999-00 Topps Gold Label Class 1 Red Label #6 Doug Christie
p2384
sg11
I100
sg12
VTopps Gold Label Class 1 Red Label
p2385
sg14
(lp2386
Vhttp://www.beckett.com/basketball/1999-00/topps-gold-label-class-1-red-label/6-doug-christie-3188834
p2387
asg17
g18
sg19
(lp2388
Vhttp://img.beckett.com/images/no-image.jpg
p2389
asg22
V#6
p2390
sg24
V1999-00
p2391
sg26
g27
sg28
(lp2392
VDoug Christie
p2393
assbag1
(g2
g3
Ntp2394
Rp2395
(dp2396
g7
(dp2397
g9
V1999-00 Topps Gold Label Class 1 Red Label #33 Vince Carter
p2398
sg11
I100
sg12
VTopps Gold Label Class 1 Red Label
p2399
sg14
(lp2400
Vhttp://www.beckett.com/basketball/1999-00/topps-gold-label-class-1-red-label/33-vince-carter-3188861
p2401
asg17
g18
sg19
(lp2402
Vhttp://img.beckett.com/images/no-image.jpg
p2403
asg22
V#33
p2404
sg24
V1999-00
p2405
sg26
g27
sg28
(lp2406
VVince Carter
p2407
assbag1
(g2
g3
Ntp2408
Rp2409
(dp2410
g7
(dp2411
g9
V1999-00 Topps Gold Label Class 1 Red Label #84 Tracy McGrady
p2412
sg11
I100
sg12
VTopps Gold Label Class 1 Red Label
p2413
sg14
(lp2414
Vhttp://www.beckett.com/basketball/1999-00/topps-gold-label-class-1-red-label/84-tracy-mcgrady-3188912
p2415
asg17
g18
sg19
(lp2416
Vhttp://img.beckett.com/images/no-image.jpg
p2417
asg22
V#84
p2418
sg24
V1999-00
p2419
sg26
g27
sg28
(lp2420
VTracy McGrady
p2421
assbag1
(g2
g3
Ntp2422
Rp2423
(dp2424
g7
(dp2425
g9
V1999-00 Topps Gold Label Class 1 Red Label #97 Aleksandar Radojevic
p2426
sg11
I100
sg12
VTopps Gold Label Class 1 Red Label
p2427
sg14
(lp2428
Vhttp://www.beckett.com/basketball/1999-00/topps-gold-label-class-1-red-label/97-aleksandar-radojevic-3188925
p2429
asg17
g18
sg19
(lp2430
Vhttp://img.beckett.com/images/no-image.jpg
p2431
asg22
V#97
p2432
sg24
V1999-00
p2433
sg26
g27
sg28
(lp2434
VAleksandar Radojevic
p2435
assbag1
(g2
g3
Ntp2436
Rp2437
(dp2438
g7
(dp2439
g9
V1999-00 Topps Gold Label Class 2 One to One #6 Doug Christie
p2440
sg11
I1
sg12
VTopps Gold Label Class 2 One to One
p2441
sg14
(lp2442
Vhttp://www.beckett.com/basketball/1999-00/topps-gold-label-class-2-one-to-one/6-doug-christie-3189170
p2443
asg17
g18
sg19
(lp2444
Vhttp://img.beckett.com/images/no-image.jpg
p2445
asg22
V#6
p2446
sg24
V1999-00
p2447
sg26
g27
sg28
(lp2448
VDoug Christie
p2449
assbag1
(g2
g3
Ntp2450
Rp2451
(dp2452
g7
(dp2453
g9
V1999-00 Topps Gold Label Class 2 One to One #33 Vince Carter
p2454
sg11
I1
sg12
VTopps Gold Label Class 2 One to One
p2455
sg14
(lp2456
Vhttp://www.beckett.com/basketball/1999-00/topps-gold-label-class-2-one-to-one/33-vince-carter-3189197
p2457
asg17
g18
sg19
(lp2458
Vhttp://img.beckett.com/images/no-image.jpg
p2459
asg22
V#33
p2460
sg24
V1999-00
p2461
sg26
g27
sg28
(lp2462
VVince Carter
p2463
assbag1
(g2
g3
Ntp2464
Rp2465
(dp2466
g7
(dp2467
g9
V1999-00 Topps Gold Label Class 2 One to One #84 Tracy McGrady
p2468
sg11
I1
sg12
VTopps Gold Label Class 2 One to One
p2469
sg14
(lp2470
Vhttp://www.beckett.com/basketball/1999-00/topps-gold-label-class-2-one-to-one/84-tracy-mcgrady-3189248
p2471
asg17
g18
sg19
(lp2472
Vhttp://img.beckett.com/images/no-image.jpg
p2473
asg22
V#84
p2474
sg24
V1999-00
p2475
sg26
g27
sg28
(lp2476
VTracy McGrady
p2477
assbag1
(g2
g3
Ntp2478
Rp2479
(dp2480
g7
(dp2481
g9
V1999-00 Topps Gold Label Class 2 One to One #97 Aleksandar Radojevic
p2482
sg11
I1
sg12
VTopps Gold Label Class 2 One to One
p2483
sg14
(lp2484
Vhttp://www.beckett.com/basketball/1999-00/topps-gold-label-class-2-one-to-one/97-aleksandar-radojevic-3189261
p2485
asg17
g18
sg19
(lp2486
Vhttp://img.beckett.com/images/no-image.jpg
p2487
asg22
V#97
p2488
sg24
V1999-00
p2489
sg26
g27
sg28
(lp2490
VAleksandar Radojevic
p2491
assbag1
(g2
g3
Ntp2492
Rp2493
(dp2494
g7
(dp2495
g9
V1999-00 Topps Gold Label Class 2 Red Label #6 Doug Christie
p2496
sg11
I50
sg12
VTopps Gold Label Class 2 Red Label
p2497
sg14
(lp2498
Vhttp://www.beckett.com/basketball/1999-00/topps-gold-label-class-2-red-label/6-doug-christie-3189280
p2499
asg17
g18
sg19
(lp2500
Vhttp://img.beckett.com/images/no-image.jpg
p2501
asg22
V#6
p2502
sg24
V1999-00
p2503
sg26
g27
sg28
(lp2504
VDoug Christie
p2505
assbag1
(g2
g3
Ntp2506
Rp2507
(dp2508
g7
(dp2509
g9
V1999-00 Topps Gold Label Class 2 Red Label #33 Vince Carter
p2510
sg11
I50
sg12
VTopps Gold Label Class 2 Red Label
p2511
sg14
(lp2512
Vhttp://www.beckett.com/basketball/1999-00/topps-gold-label-class-2-red-label/33-vince-carter-3189307
p2513
asg17
g18
sg19
(lp2514
Vhttp://img.beckett.com/images/no-image.jpg
p2515
asg22
V#33
p2516
sg24
V1999-00
p2517
sg26
g27
sg28
(lp2518
VVince Carter
p2519
assbag1
(g2
g3
Ntp2520
Rp2521
(dp2522
g7
(dp2523
g9
V1999-00 Topps Gold Label Class 2 Red Label #84 Tracy McGrady
p2524
sg11
I50
sg12
VTopps Gold Label Class 2 Red Label
p2525
sg14
(lp2526
Vhttp://www.beckett.com/basketball/1999-00/topps-gold-label-class-2-red-label/84-tracy-mcgrady-3189358
p2527
asg17
g18
sg19
(lp2528
Vhttp://img.beckett.com/images/no-image.jpg
p2529
asg22
V#84
p2530
sg24
V1999-00
p2531
sg26
g27
sg28
(lp2532
VTracy McGrady
p2533
assbag1
(g2
g3
Ntp2534
Rp2535
(dp2536
g7
(dp2537
g9
V1999-00 Topps Gold Label Class 2 Red Label #97 Aleksandar Radojevic
p2538
sg11
I50
sg12
VTopps Gold Label Class 2 Red Label
p2539
sg14
(lp2540
Vhttp://www.beckett.com/basketball/1999-00/topps-gold-label-class-2-red-label/97-aleksandar-radojevic-3189371
p2541
asg17
g18
sg19
(lp2542
Vhttp://img.beckett.com/images/no-image.jpg
p2543
asg22
V#97
p2544
sg24
V1999-00
p2545
sg26
g27
sg28
(lp2546
VAleksandar Radojevic
p2547
assbag1
(g2
g3
Ntp2548
Rp2549
(dp2550
g7
(dp2551
g9
V1999-00 Topps Gold Label Class 3 One to One #6 Doug Christie
p2552
sg11
I1
sg12
VTopps Gold Label Class 3 One to One
p2553
sg14
(lp2554
Vhttp://www.beckett.com/basketball/1999-00/topps-gold-label-class-3-one-to-one/6-doug-christie-3189616
p2555
asg17
g18
sg19
(lp2556
Vhttp://img.beckett.com/images/no-image.jpg
p2557
asg22
V#6
p2558
sg24
V1999-00
p2559
sg26
g27
sg28
(lp2560
VDoug Christie
p2561
assbag1
(g2
g3
Ntp2562
Rp2563
(dp2564
g7
(dp2565
g9
V1999-00 Topps Gold Label Class 3 One to One #33 Vince Carter
p2566
sg11
I1
sg12
VTopps Gold Label Class 3 One to One
p2567
sg14
(lp2568
Vhttp://www.beckett.com/basketball/1999-00/topps-gold-label-class-3-one-to-one/33-vince-carter-3189643
p2569
asg17
g18
sg19
(lp2570
Vhttp://img.beckett.com/images/no-image.jpg
p2571
asg22
V#33
p2572
sg24
V1999-00
p2573
sg26
g27
sg28
(lp2574
VVince Carter
p2575
assbag1
(g2
g3
Ntp2576
Rp2577
(dp2578
g7
(dp2579
g9
V1999-00 Topps Gold Label Class 3 One to One #84 Tracy McGrady
p2580
sg11
I1
sg12
VTopps Gold Label Class 3 One to One
p2581
sg14
(lp2582
Vhttp://www.beckett.com/basketball/1999-00/topps-gold-label-class-3-one-to-one/84-tracy-mcgrady-3189694
p2583
asg17
g18
sg19
(lp2584
Vhttp://img.beckett.com/images/no-image.jpg
p2585
asg22
V#84
p2586
sg24
V1999-00
p2587
sg26
g27
sg28
(lp2588
VTracy McGrady
p2589
assbag1
(g2
g3
Ntp2590
Rp2591
(dp2592
g7
(dp2593
g9
V1999-00 Topps Gold Label Class 3 One to One #97 Aleksandar Radojevic
p2594
sg11
I1
sg12
VTopps Gold Label Class 3 One to One
p2595
sg14
(lp2596
Vhttp://www.beckett.com/basketball/1999-00/topps-gold-label-class-3-one-to-one/97-aleksandar-radojevic-3189707
p2597
asg17
g18
sg19
(lp2598
Vhttp://img.beckett.com/images/no-image.jpg
p2599
asg22
V#97
p2600
sg24
V1999-00
p2601
sg26
g27
sg28
(lp2602
VAleksandar Radojevic
p2603
assbag1
(g2
g3
Ntp2604
Rp2605
(dp2606
g7
(dp2607
g9
V1999-00 Topps Gold Label Class 3 Red Label #6 Doug Christie
p2608
sg11
I25
sg12
VTopps Gold Label Class 3 Red Label
p2609
sg14
(lp2610
Vhttp://www.beckett.com/basketball/1999-00/topps-gold-label-class-3-red-label/6-doug-christie-3187427
p2611
asg17
g18
sg19
(lp2612
Vhttp://img.beckett.com/images/no-image.jpg
p2613
asg22
V#6
p2614
sg24
V1999-00
p2615
sg26
g27
sg28
(lp2616
VDoug Christie
p2617
assbag1
(g2
g3
Ntp2618
Rp2619
(dp2620
g7
(dp2621
g9
V1999-00 Topps Gold Label Class 3 Red Label #33 Vince Carter
p2622
sg11
I25
sg12
VTopps Gold Label Class 3 Red Label
p2623
sg14
(lp2624
Vhttp://www.beckett.com/basketball/1999-00/topps-gold-label-class-3-red-label/33-vince-carter-3187454
p2625
asg17
g18
sg19
(lp2626
Vhttp://img.beckett.com/images/no-image.jpg
p2627
asg22
V#33
p2628
sg24
V1999-00
p2629
sg26
g27
sg28
(lp2630
VVince Carter
p2631
assbag1
(g2
g3
Ntp2632
Rp2633
(dp2634
g7
(dp2635
g9
V1999-00 Topps Gold Label Class 3 Red Label #84 Tracy McGrady
p2636
sg11
I25
sg12
VTopps Gold Label Class 3 Red Label
p2637
sg14
(lp2638
Vhttp://www.beckett.com/basketball/1999-00/topps-gold-label-class-3-red-label/84-tracy-mcgrady-3187505
p2639
asg17
g18
sg19
(lp2640
Vhttp://img.beckett.com/images/no-image.jpg
p2641
asg22
V#84
p2642
sg24
V1999-00
p2643
sg26
g27
sg28
(lp2644
VTracy McGrady
p2645
assbag1
(g2
g3
Ntp2646
Rp2647
(dp2648
g7
(dp2649
g9
V1999-00 Topps Gold Label Class 3 Red Label #97 Aleksandar Radojevic
p2650
sg11
I25
sg12
VTopps Gold Label Class 3 Red Label
p2651
sg14
(lp2652
Vhttp://www.beckett.com/basketball/1999-00/topps-gold-label-class-3-red-label/97-aleksandar-radojevic-3187518
p2653
asg17
g18
sg19
(lp2654
Vhttp://img.beckett.com/images/no-image.jpg
p2655
asg22
V#97
p2656
sg24
V1999-00
p2657
sg26
g27
sg28
(lp2658
VAleksandar Radojevic
p2659
assbag1
(g2
g3
Ntp2660
Rp2661
(dp2662
g7
(dp2663
g9
V1999-00 UD Ionix Reciprocal #72 Aleksandar Radojevic
p2664
sg11
I100
sg12
VUD Ionix Reciprocal
p2665
sg14
(lp2666
Vhttp://www.beckett.com/basketball/1999-00/ud-ionix-reciprocal/72-aleksandar-radojevic-3188103
p2667
asg17
g18
sg19
(lp2668
Vhttp://img.beckett.com/images/no-image.jpg
p2669
asg22
V#72
p2670
sg24
V1999-00
p2671
sg26
g27
sg28
(lp2672
VAleksandar Radojevic
p2673
assbag1
(g2
g3
Ntp2674
Rp2675
(dp2676
g7
(dp2677
g9
V1999-00 Ultimate Victory 1 of 1 #79 Vince Carter
p2678
sg11
I1
sg12
VUltimate Victory 1 of 1
p2679
sg14
(lp2680
Vhttp://www.beckett.com/basketball/1999-00/ultimate-victory-1-of-1/79-vince-carter-3180443
p2681
asg17
g18
sg19
(lp2682
Vhttp://img.beckett.com/images/no-image.jpg
p2683
asg22
V#79
p2684
sg24
V1999-00
p2685
sg26
g27
sg28
(lp2686
VVince Carter
p2687
assbag1
(g2
g3
Ntp2688
Rp2689
(dp2690
g7
(dp2691
g9
V1999-00 Ultimate Victory 1 of 1 #80 Doug Christie
p2692
sg11
I1
sg12
VUltimate Victory 1 of 1
p2693
sg14
(lp2694
Vhttp://www.beckett.com/basketball/1999-00/ultimate-victory-1-of-1/80-doug-christie-3180444
p2695
asg17
g18
sg19
(lp2696
Vhttp://img.beckett.com/images/no-image.jpg
p2697
asg22
V#80
p2698
sg24
V1999-00
p2699
sg26
g27
sg28
(lp2700
VDoug Christie
p2701
assbag1
(g2
g3
Ntp2702
Rp2703
(dp2704
g7
(dp2705
g9
V1999-00 Ultimate Victory 1 of 1 #81 Tracy McGrady
p2706
sg11
I1
sg12
VUltimate Victory 1 of 1
p2707
sg14
(lp2708
Vhttp://www.beckett.com/basketball/1999-00/ultimate-victory-1-of-1/81-tracy-mcgrady-3180445
p2709
asg17
g18
sg19
(lp2710
Vhttp://img.beckett.com/images/no-image.jpg
p2711
asg22
V#81
p2712
sg24
V1999-00
p2713
sg26
g27
sg28
(lp2714
VTracy McGrady
p2715
assbag1
(g2
g3
Ntp2716
Rp2717
(dp2718
g7
(dp2719
g9
V1999-00 Ultimate Victory 1 of 1 #132 Aleksandar Radojevic
p2720
sg11
I1
sg12
VUltimate Victory 1 of 1
p2721
sg14
(lp2722
Vhttp://www.beckett.com/basketball/1999-00/ultimate-victory-1-of-1/132-aleksandar-radojevic-3180496
p2723
asg17
g18
sg19
(lp2724
Vhttp://img.beckett.com/images/no-image.jpg
p2725
asg22
V#132
p2726
sg24
V1999-00
p2727
sg26
g27
sg28
(lp2728
VAleksandar Radojevic
p2729
assbag1
(g2
g3
Ntp2730
Rp2731
(dp2732
g7
(dp2733
g9
V1999-00 Ultimate Victory Parallel 100 #79 Vince Carter
p2734
sg11
I100
sg12
VUltimate Victory Parallel 100
p2735
sg14
(lp2736
Vhttp://www.beckett.com/basketball/1999-00/ultimate-victory-parallel-100/79-vince-carter-3180765
p2737
asg17
g18
sg19
(lp2738
Vhttp://img.beckett.com/images/no-image.jpg
p2739
asg22
V#79
p2740
sg24
V1999-00
p2741
sg26
g27
sg28
(lp2742
VVince Carter
p2743
assbag1
(g2
g3
Ntp2744
Rp2745
(dp2746
g7
(dp2747
g9
V1999-00 Ultimate Victory Parallel 100 #80 Doug Christie
p2748
sg11
I100
sg12
VUltimate Victory Parallel 100
p2749
sg14
(lp2750
Vhttp://www.beckett.com/basketball/1999-00/ultimate-victory-parallel-100/80-doug-christie-3180766
p2751
asg17
g18
sg19
(lp2752
Vhttp://img.beckett.com/images/no-image.jpg
p2753
asg22
V#80
p2754
sg24
V1999-00
p2755
sg26
g27
sg28
(lp2756
VDoug Christie
p2757
assbag1
(g2
g3
Ntp2758
Rp2759
(dp2760
g7
(dp2761
g9
V1999-00 Ultimate Victory Parallel 100 #81 Tracy McGrady
p2762
sg11
I100
sg12
VUltimate Victory Parallel 100
p2763
sg14
(lp2764
Vhttp://www.beckett.com/basketball/1999-00/ultimate-victory-parallel-100/81-tracy-mcgrady-3180767
p2765
asg17
g18
sg19
(lp2766
Vhttp://img.beckett.com/images/items_stock/185226/3180676/3180767/front.jpg
p2767
asg22
V#81
p2768
sg24
V1999-00
p2769
sg26
g27
sg28
(lp2770
VTracy McGrady
p2771
assbag1
(g2
g3
Ntp2772
Rp2773
(dp2774
g7
(dp2775
g9
V1999-00 Ultimate Victory Parallel 100 #132 Aleksandar Radojevic
p2776
sg11
I100
sg12
VUltimate Victory Parallel 100
p2777
sg14
(lp2778
Vhttp://www.beckett.com/basketball/1999-00/ultimate-victory-parallel-100/132-aleksandar-radojevic-3180818
p2779
asg17
g18
sg19
(lp2780
Vhttp://img.beckett.com/images/no-image.jpg
p2781
asg22
V#132
p2782
sg24
V1999-00
p2783
sg26
g27
sg28
(lp2784
VAleksandar Radojevic
p2785
assbag1
(g2
g3
Ntp2786
Rp2787
(dp2788
g7
(dp2789
g9
V1999-00 Ultra Masterpieces #1 Vince Carter
p2790
sg11
I1
sg12
VUltra Masterpieces
p2791
sg14
(lp2792
Vhttp://www.beckett.com/basketball/1999-00/ultra-masterpieces/1-vince-carter-3205992
p2793
asg17
g18
sg19
(lp2794
Vhttp://img.beckett.com/images/no-image.jpg
p2795
asg22
V#1
p2796
sg24
V1999-00
p2797
sg26
g27
sg28
(lp2798
VVince Carter
p2799
assbag1
(g2
g3
Ntp2800
Rp2801
(dp2802
g7
(dp2803
g9
V1999-00 Ultra Masterpieces #6 Charles Oakley
p2804
sg11
I1
sg12
VUltra Masterpieces
p2805
sg14
(lp2806
Vhttp://www.beckett.com/basketball/1999-00/ultra-masterpieces/6-charles-oakley-3205997
p2807
asg17
g18
sg19
(lp2808
Vhttp://img.beckett.com/images/no-image.jpg
p2809
asg22
V#6
p2810
sg24
V1999-00
p2811
sg26
g27
sg28
(lp2812
VCharles Oakley
p2813
assbag1
(g2
g3
Ntp2814
Rp2815
(dp2816
g7
(dp2817
g9
V1999-00 Ultra Masterpieces #55 Doug Christie
p2818
sg11
I1
sg12
VUltra Masterpieces
p2819
sg14
(lp2820
Vhttp://www.beckett.com/basketball/1999-00/ultra-masterpieces/55-doug-christie-3206046
p2821
asg17
g18
sg19
(lp2822
Vhttp://img.beckett.com/images/no-image.jpg
p2823
asg22
V#55
p2824
sg24
V1999-00
p2825
sg26
g27
sg28
(lp2826
VDoug Christie
p2827
assbag1
(g2
g3
Ntp2828
Rp2829
(dp2830
g7
(dp2831
g9
V1999-00 Ultra Masterpieces #119 Tracy McGrady
p2832
sg11
I1
sg12
VUltra Masterpieces
p2833
sg14
(lp2834
Vhttp://www.beckett.com/basketball/1999-00/ultra-masterpieces/119-tracy-mcgrady-3206110
p2835
asg17
g18
sg19
(lp2836
Vhttp://img.beckett.com/images/no-image.jpg
p2837
asg22
V#119
p2838
sg24
V1999-00
p2839
sg26
g27
sg28
(lp2840
VTracy McGrady
p2841
assbag1
(g2
g3
Ntp2842
Rp2843
(dp2844
g7
(dp2845
g9
V1999-00 Ultra Masterpieces #136 Aleksandar Radojevic
p2846
sg11
I1
sg12
VUltra Masterpieces
p2847
sg14
(lp2848
Vhttp://www.beckett.com/basketball/1999-00/ultra-masterpieces/136-aleksandar-radojevic-3206127
p2849
asg17
g18
sg19
(lp2850
Vhttp://img.beckett.com/images/no-image.jpg
p2851
asg22
V#136
p2852
sg24
V1999-00
p2853
sg26
g27
sg28
(lp2854
VAleksandar Radojevic
p2855
assbag1
(g2
g3
Ntp2856
Rp2857
(dp2858
g7
(dp2859
g9
V1999-00 Ultra Platinum Medallion #1 Vince Carter
p2860
sg11
I50
sg12
VUltra Platinum Medallion
p2861
sg14
(lp2862
Vhttp://www.beckett.com/basketball/1999-00/ultra-platinum-medallion/1-vince-carter-3185807
p2863
asg17
g18
sg19
(lp2864
Vhttp://img.beckett.com/images/no-image.jpg
p2865
asg22
V#1
p2866
sg24
V1999-00
p2867
sg26
g27
sg28
(lp2868
VVince Carter
p2869
assbag1
(g2
g3
Ntp2870
Rp2871
(dp2872
g7
(dp2873
g9
V1999-00 Ultra Platinum Medallion #6 Charles Oakley
p2874
sg11
I50
sg12
VUltra Platinum Medallion
p2875
sg14
(lp2876
Vhttp://www.beckett.com/basketball/1999-00/ultra-platinum-medallion/6-charles-oakley-3185812
p2877
asg17
g18
sg19
(lp2878
Vhttp://img.beckett.com/images/items_stock/185226/3185794/3185812/front.jpg
p2879
asg22
V#6
p2880
sg24
V1999-00
p2881
sg26
g27
sg28
(lp2882
VCharles Oakley
p2883
assbag1
(g2
g3
Ntp2884
Rp2885
(dp2886
g7
(dp2887
g9
V1999-00 Ultra Platinum Medallion #55 Doug Christie
p2888
sg11
I50
sg12
VUltra Platinum Medallion
p2889
sg14
(lp2890
Vhttp://www.beckett.com/basketball/1999-00/ultra-platinum-medallion/55-doug-christie-3185861
p2891
asg17
g18
sg19
(lp2892
Vhttp://img.beckett.com/images/items_stock/185226/3185794/3185861/front.jpg
p2893
asg22
V#55
p2894
sg24
V1999-00
p2895
sg26
g27
sg28
(lp2896
VDoug Christie
p2897
assbag1
(g2
g3
Ntp2898
Rp2899
(dp2900
g7
(dp2901
g9
V1999-00 Ultra Platinum Medallion #119 Tracy McGrady
p2902
sg11
I50
sg12
VUltra Platinum Medallion
p2903
sg14
(lp2904
Vhttp://www.beckett.com/basketball/1999-00/ultra-platinum-medallion/119-tracy-mcgrady-3185925
p2905
asg17
g18
sg19
(lp2906
Vhttp://img.beckett.com/images/no-image.jpg
p2907
asg22
V#119
p2908
sg24
V1999-00
p2909
sg26
g27
sg28
(lp2910
VTracy McGrady
p2911
assbag1
(g2
g3
Ntp2912
Rp2913
(dp2914
g7
(dp2915
g9
V1999-00 Ultra Platinum Medallion #136 Aleksandar Radojevic
p2916
sg11
I25
sg12
VUltra Platinum Medallion
p2917
sg14
(lp2918
Vhttp://www.beckett.com/basketball/1999-00/ultra-platinum-medallion/136-aleksandar-radojevic-3185942
p2919
asg17
g18
sg19
(lp2920
Vhttp://img.beckett.com/images/no-image.jpg
p2921
asg22
V#136
p2922
sg24
V1999-00
p2923
sg26
g27
sg28
(lp2924
VAleksandar Radojevic
p2925
assbag1
(g2
g3
Ntp2926
Rp2927
(dp2928
g7
(dp2929
g9
V1999-00 Upper Deck Bronze #115 Vince Carter
p2930
sg11
I100
sg12
VUpper Deck Bronze
p2931
sg14
(lp2932
Vhttp://www.beckett.com/basketball/1999-00/upper-deck-bronze/115-vince-carter-3186642
p2933
asg17
g18
sg19
(lp2934
Vhttp://img.beckett.com/images/no-image.jpg
p2935
asg22
V#115
p2936
sg24
V1999-00
p2937
sg26
g27
sg28
(lp2938
VVince Carter
p2939
assbag1
(g2
g3
Ntp2940
Rp2941
(dp2942
g7
(dp2943
g9
V1999-00 Upper Deck Bronze #116 Doug Christie
p2944
sg11
I100
sg12
VUpper Deck Bronze
p2945
sg14
(lp2946
Vhttp://www.beckett.com/basketball/1999-00/upper-deck-bronze/116-doug-christie-3186643
p2947
asg17
g18
sg19
(lp2948
Vhttp://img.beckett.com/images/no-image.jpg
p2949
asg22
V#116
p2950
sg24
V1999-00
p2951
sg26
g27
sg28
(lp2952
VDoug Christie
p2953
assbag1
(g2
g3
Ntp2954
Rp2955
(dp2956
g7
(dp2957
g9
V1999-00 Upper Deck Bronze #117 Kevin Willis
p2958
sg11
I100
sg12
VUpper Deck Bronze
p2959
sg14
(lp2960
Vhttp://www.beckett.com/basketball/1999-00/upper-deck-bronze/117-kevin-willis-3186644
p2961
asg17
g18
sg19
(lp2962
Vhttp://img.beckett.com/images/items_stock/185226/3186514/3186644/front.jpg
p2963
asg22
V#117
p2964
sg24
V1999-00
p2965
sg26
g27
sg28
(lp2966
VKevin Willis
p2967
assbag1
(g2
g3
Ntp2968
Rp2969
(dp2970
g7
(dp2971
g9
V1999-00 Upper Deck Bronze #118 Dee Brown
p2972
sg11
I100
sg12
VUpper Deck Bronze
p2973
sg14
(lp2974
Vhttp://www.beckett.com/basketball/1999-00/upper-deck-bronze/118-dee-brown-3186645
p2975
asg17
g18
sg19
(lp2976
Vhttp://img.beckett.com/images/no-image.jpg
p2977
asg22
V#118
p2978
sg24
V1999-00
p2979
sg26
g27
sg28
(lp2980
VDee Brown
p2981
assbag1
(g2
g3
Ntp2982
Rp2983
(dp2984
g7
(dp2985
g9
V1999-00 Upper Deck Bronze #119 John Thomas
p2986
sg11
I100
sg12
VUpper Deck Bronze
p2987
sg14
(lp2988
Vhttp://www.beckett.com/basketball/1999-00/upper-deck-bronze/119-john-thomas-3186646
p2989
asg17
g18
sg19
(lp2990
Vhttp://img.beckett.com/images/items_stock/185226/3186514/3186646/front.jpg
p2991
asg22
V#119
p2992
sg24
V1999-00
p2993
sg26
g27
sg28
(lp2994
VJohn Thomas
p2995
assbag1
(g2
g3
Ntp2996
Rp2997
(dp2998
g7
(dp2999
g9
V1999-00 Upper Deck Bronze #263 John Wallace
p3000
sg11
I100
sg12
VUpper Deck Bronze
p3001
sg14
(lp3002
Vhttp://www.beckett.com/basketball/1999-00/upper-deck-bronze/263-john-wallace-3186790
p3003
asg17
g18
sg19
(lp3004
Vhttp://img.beckett.com/images/no-image.jpg
p3005
asg22
V#263
p3006
sg24
V1999-00
p3007
sg26
g27
sg28
(lp3008
VJohn Wallace
p3009
assbag1
(g2
g3
Ntp3010
Rp3011
(dp3012
g7
(dp3013
g9
V1999-00 Upper Deck Bronze #297 Antonio Davis
p3014
sg11
I100
sg12
VUpper Deck Bronze
p3015
sg14
(lp3016
Vhttp://www.beckett.com/basketball/1999-00/upper-deck-bronze/297-antonio-davis-3186824
p3017
asg17
g18
sg19
(lp3018
Vhttp://img.beckett.com/images/no-image.jpg
p3019
asg22
V#297
p3020
sg24
V1999-00
p3021
sg26
g27
sg28
(lp3022
VAntonio Davis
p3023
assbag1
(g2
g3
Ntp3024
Rp3025
(dp3026
g7
(dp3027
g9
V1999-00 Upper Deck Bronze #298 Tracy McGrady
p3028
sg11
I100
sg12
VUpper Deck Bronze
p3029
sg14
(lp3030
Vhttp://www.beckett.com/basketball/1999-00/upper-deck-bronze/298-tracy-mcgrady-3186825
p3031
asg17
g18
sg19
(lp3032
Vhttp://img.beckett.com/images/no-image.jpg
p3033
asg22
V#298
p3034
sg24
V1999-00
p3035
sg26
g27
sg28
(lp3036
VTracy McGrady
p3037
assbag1
(g2
g3
Ntp3038
Rp3039
(dp3040
g7
(dp3041
g9
V1999-00 Upper Deck Bronze #300 Charles Oakley
p3042
sg11
I100
sg12
VUpper Deck Bronze
p3043
sg14
(lp3044
Vhttp://www.beckett.com/basketball/1999-00/upper-deck-bronze/300-charles-oakley-3186827
p3045
asg17
g18
sg19
(lp3046
Vhttp://img.beckett.com/images/no-image.jpg
p3047
asg22
V#300
p3048
sg24
V1999-00
p3049
sg26
g27
sg28
(lp3050
VCharles Oakley
p3051
assbag1
(g2
g3
Ntp3052
Rp3053
(dp3054
g7
(dp3055
g9
V1999-00 Upper Deck Bronze #327 Aleksandar Radojevic
p3056
sg11
I100
sg12
VUpper Deck Bronze
p3057
sg14
(lp3058
Vhttp://www.beckett.com/basketball/1999-00/upper-deck-bronze/327-aleksandar-radojevic-3186854
p3059
asg17
g18
sg19
(lp3060
Vhttp://img.beckett.com/images/items_stock/185226/3186514/3186854/front.jpg
p3061
asg22
V#327
p3062
sg24
V1999-00
p3063
sg26
g27
sg28
(lp3064
VAleksandar Radojevic
p3065
assbag1
(g2
g3
Ntp3066
Rp3067
(dp3068
g7
(dp3069
g9
V1999-00 Upper Deck Gold #115 Vince Carter
p3070
sg11
I1
sg12
VUpper Deck Gold
p3071
sg14
(lp3072
Vhttp://www.beckett.com/basketball/1999-00/upper-deck-gold/115-vince-carter-3187007
p3073
asg17
g18
sg19
(lp3074
Vhttp://img.beckett.com/images/no-image.jpg
p3075
asg22
V#115
p3076
sg24
V1999-00
p3077
sg26
g27
sg28
(lp3078
VVince Carter
p3079
assbag1
(g2
g3
Ntp3080
Rp3081
(dp3082
g7
(dp3083
g9
V1999-00 Upper Deck Gold #116 Doug Christie
p3084
sg11
I1
sg12
VUpper Deck Gold
p3085
sg14
(lp3086
Vhttp://www.beckett.com/basketball/1999-00/upper-deck-gold/116-doug-christie-3187008
p3087
asg17
g18
sg19
(lp3088
Vhttp://img.beckett.com/images/no-image.jpg
p3089
asg22
V#116
p3090
sg24
V1999-00
p3091
sg26
g27
sg28
(lp3092
VDoug Christie
p3093
assbag1
(g2
g3
Ntp3094
Rp3095
(dp3096
g7
(dp3097
g9
V1999-00 Upper Deck Gold #117 Kevin Willis
p3098
sg11
I1
sg12
VUpper Deck Gold
p3099
sg14
(lp3100
Vhttp://www.beckett.com/basketball/1999-00/upper-deck-gold/117-kevin-willis-3187009
p3101
asg17
g18
sg19
(lp3102
Vhttp://img.beckett.com/images/no-image.jpg
p3103
asg22
V#117
p3104
sg24
V1999-00
p3105
sg26
g27
sg28
(lp3106
VKevin Willis
p3107
assbag1
(g2
g3
Ntp3108
Rp3109
(dp3110
g7
(dp3111
g9
V1999-00 Upper Deck Gold #118 Dee Brown
p3112
sg11
I1
sg12
VUpper Deck Gold
p3113
sg14
(lp3114
Vhttp://www.beckett.com/basketball/1999-00/upper-deck-gold/118-dee-brown-3187010
p3115
asg17
g18
sg19
(lp3116
Vhttp://img.beckett.com/images/no-image.jpg
p3117
asg22
V#118
p3118
sg24
V1999-00
p3119
sg26
g27
sg28
(lp3120
VDee Brown
p3121
assbag1
(g2
g3
Ntp3122
Rp3123
(dp3124
g7
(dp3125
g9
V1999-00 Upper Deck Gold #119 John Thomas
p3126
sg11
I1
sg12
VUpper Deck Gold
p3127
sg14
(lp3128
Vhttp://www.beckett.com/basketball/1999-00/upper-deck-gold/119-john-thomas-3187011
p3129
asg17
g18
sg19
(lp3130
Vhttp://img.beckett.com/images/no-image.jpg
p3131
asg22
V#119
p3132
sg24
V1999-00
p3133
sg26
g27
sg28
(lp3134
VJohn Thomas
p3135
assbag1
(g2
g3
Ntp3136
Rp3137
(dp3138
g7
(dp3139
g9
V1999-00 Upper Deck Gold #263 John Wallace
p3140
sg11
I1
sg12
VUpper Deck Gold
p3141
sg14
(lp3142
Vhttp://www.beckett.com/basketball/1999-00/upper-deck-gold/263-john-wallace-3187155
p3143
asg17
g18
sg19
(lp3144
Vhttp://img.beckett.com/images/no-image.jpg
p3145
asg22
V#263
p3146
sg24
V1999-00
p3147
sg26
g27
sg28
(lp3148
VJohn Wallace
p3149
assbag1
(g2
g3
Ntp3150
Rp3151
(dp3152
g7
(dp3153
g9
V1999-00 Upper Deck Gold #297 Antonio Davis
p3154
sg11
I1
sg12
VUpper Deck Gold
p3155
sg14
(lp3156
Vhttp://www.beckett.com/basketball/1999-00/upper-deck-gold/297-antonio-davis-3187189
p3157
asg17
g18
sg19
(lp3158
Vhttp://img.beckett.com/images/no-image.jpg
p3159
asg22
V#297
p3160
sg24
V1999-00
p3161
sg26
g27
sg28
(lp3162
VAntonio Davis
p3163
assbag1
(g2
g3
Ntp3164
Rp3165
(dp3166
g7
(dp3167
g9
V1999-00 Upper Deck Gold #298 Tracy McGrady
p3168
sg11
I1
sg12
VUpper Deck Gold
p3169
sg14
(lp3170
Vhttp://www.beckett.com/basketball/1999-00/upper-deck-gold/298-tracy-mcgrady-3187190
p3171
asg17
g18
sg19
(lp3172
Vhttp://img.beckett.com/images/no-image.jpg
p3173
asg22
V#298
p3174
sg24
V1999-00
p3175
sg26
g27
sg28
(lp3176
VTracy McGrady
p3177
assbag1
(g2
g3
Ntp3178
Rp3179
(dp3180
g7
(dp3181
g9
V1999-00 Upper Deck Gold #300 Charles Oakley
p3182
sg11
I1
sg12
VUpper Deck Gold
p3183
sg14
(lp3184
Vhttp://www.beckett.com/basketball/1999-00/upper-deck-gold/300-charles-oakley-3187192
p3185
asg17
g18
sg19
(lp3186
Vhttp://img.beckett.com/images/no-image.jpg
p3187
asg22
V#300
p3188
sg24
V1999-00
p3189
sg26
g27
sg28
(lp3190
VCharles Oakley
p3191
assbag1
(g2
g3
Ntp3192
Rp3193
(dp3194
g7
(dp3195
g9
V1999-00 Upper Deck Gold #327 Aleksandar Radojevic
p3196
sg11
I1
sg12
VUpper Deck Gold
p3197
sg14
(lp3198
Vhttp://www.beckett.com/basketball/1999-00/upper-deck-gold/327-aleksandar-radojevic-3187219
p3199
asg17
g18
sg19
(lp3200
Vhttp://img.beckett.com/images/no-image.jpg
p3201
asg22
V#327
p3202
sg24
V1999-00
p3203
sg26
g27
sg28
(lp3204
VAleksandar Radojevic
p3205
assbag1
(g2
g3
Ntp3206
Rp3207
(dp3208
g7
(dp3209
g9
V1999-00 Upper Deck Hardcourt Baseline Grooves Gold #53 Vince Carter
p3210
sg11
I1
sg12
VUpper Deck Hardcourt Baseline Grooves Gold
p3211
sg14
(lp3212
Vhttp://www.beckett.com/basketball/1999-00/upper-deck-hardcourt-baseline-grooves-gold/53-vince-carter-3183893
p3213
asg17
g18
sg19
(lp3214
Vhttp://img.beckett.com/images/no-image.jpg
p3215
asg22
V#53
p3216
sg24
V1999-00
p3217
sg26
g27
sg28
(lp3218
VVince Carter
p3219
assbag1
(g2
g3
Ntp3220
Rp3221
(dp3222
g7
(dp3223
g9
V1999-00 Upper Deck Hardcourt Baseline Grooves Gold #54 Tracy McGrady
p3224
sg11
I1
sg12
VUpper Deck Hardcourt Baseline Grooves Gold
p3225
sg14
(lp3226
Vhttp://www.beckett.com/basketball/1999-00/upper-deck-hardcourt-baseline-grooves-gold/54-tracy-mcgrady-3183894
p3227
asg17
g18
sg19
(lp3228
Vhttp://img.beckett.com/images/no-image.jpg
p3229
asg22
V#54
p3230
sg24
V1999-00
p3231
sg26
g27
sg28
(lp3232
VTracy McGrady
p3233
assbag1
(g2
g3
Ntp3234
Rp3235
(dp3236
g7
(dp3237
g9
V1999-00 Upper Deck Hardcourt Baseline Grooves Gold #65 Aleksandar Radojevic
p3238
sg11
I1
sg12
VUpper Deck Hardcourt Baseline Grooves Gold
p3239
sg14
(lp3240
Vhttp://www.beckett.com/basketball/1999-00/upper-deck-hardcourt-baseline-grooves-gold/65-aleksandar-radojevic-3183905
p3241
asg17
g18
sg19
(lp3242
Vhttp://img.beckett.com/images/no-image.jpg
p3243
asg22
V#65
p3244
sg24
V1999-00
p3245
sg26
g27
sg28
(lp3246
VAleksandar Radojevic
p3247
assbag1
(g2
g3
Ntp3248
Rp3249
(dp3250
g7
(dp3251
g9
V1999-00 Upper Deck Hardcourt Baseline Grooves Rainbow #53 Vince Carter
p3252
sg11
I500
sg12
VUpper Deck Hardcourt Baseline Grooves Rainbow
p3253
sg14
(lp3254
Vhttp://www.beckett.com/basketball/1999-00/upper-deck-hardcourt-baseline-grooves-rainbow/53-vince-carter-3183800
p3255
asg17
g18
sg19
(lp3256
Vhttp://img.beckett.com/images/items_stock/185226/3183740/3183800/front.jpg
p3257
asg22
V#53
p3258
sg24
V1999-00
p3259
sg26
g27
sg28
(lp3260
VVince Carter
p3261
assbag1
(g2
g3
Ntp3262
Rp3263
(dp3264
g7
(dp3265
g9
V1999-00 Upper Deck Hardcourt Baseline Grooves Rainbow #54 Tracy McGrady
p3266
sg11
I500
sg12
VUpper Deck Hardcourt Baseline Grooves Rainbow
p3267
sg14
(lp3268
Vhttp://www.beckett.com/basketball/1999-00/upper-deck-hardcourt-baseline-grooves-rainbow/54-tracy-mcgrady-3183801
p3269
asg17
g18
sg19
(lp3270
Vhttp://img.beckett.com/images/items_stock/185226/3183740/3183801/front.jpg
p3271
asg22
V#54
p3272
sg24
V1999-00
p3273
sg26
g27
sg28
(lp3274
VTracy McGrady
p3275
assbag1
(g2
g3
Ntp3276
Rp3277
(dp3278
g7
(dp3279
g9
V1999-00 Upper Deck Hardcourt Baseline Grooves Rainbow #65 Aleksandar Radojevic
p3280
sg11
I500
sg12
VUpper Deck Hardcourt Baseline Grooves Rainbow
p3281
sg14
(lp3282
Vhttp://www.beckett.com/basketball/1999-00/upper-deck-hardcourt-baseline-grooves-rainbow/65-aleksandar-radojevic-3183812
p3283
asg17
g18
sg19
(lp3284
Vhttp://img.beckett.com/images/no-image.jpg
p3285
asg22
V#65
p3286
sg24
V1999-00
p3287
sg26
g27
sg28
(lp3288
VAleksandar Radojevic
p3289
assbag1
(g2
g3
Ntp3290
Rp3291
(dp3292
g7
(dp3293
g9
V1999-00 Upper Deck Hardcourt Baseline Grooves Silver #53 Vince Carter
p3294
sg11
I50
sg12
VUpper Deck Hardcourt Baseline Grooves Silver
p3295
sg14
(lp3296
Vhttp://www.beckett.com/basketball/1999-00/upper-deck-hardcourt-baseline-grooves-silver/53-vince-carter-3183993
p3297
asg17
g18
sg19
(lp3298
Vhttp://img.beckett.com/images/no-image.jpg
p3299
asg22
V#53
p3300
sg24
V1999-00
p3301
sg26
g27
sg28
(lp3302
VVince Carter
p3303
assbag1
(g2
g3
Ntp3304
Rp3305
(dp3306
g7
(dp3307
g9
V1999-00 Upper Deck Hardcourt Baseline Grooves Silver #54 Tracy McGrady
p3308
sg11
I50
sg12
VUpper Deck Hardcourt Baseline Grooves Silver
p3309
sg14
(lp3310
Vhttp://www.beckett.com/basketball/1999-00/upper-deck-hardcourt-baseline-grooves-silver/54-tracy-mcgrady-3183994
p3311
asg17
g18
sg19
(lp3312
Vhttp://img.beckett.com/images/no-image.jpg
p3313
asg22
V#54
p3314
sg24
V1999-00
p3315
sg26
g27
sg28
(lp3316
VTracy McGrady
p3317
assbag1
(g2
g3
Ntp3318
Rp3319
(dp3320
g7
(dp3321
g9
V1999-00 Upper Deck Hardcourt Baseline Grooves Silver #65 Aleksandar Radojevic
p3322
sg11
I50
sg12
VUpper Deck Hardcourt Baseline Grooves Silver
p3323
sg14
(lp3324
Vhttp://www.beckett.com/basketball/1999-00/upper-deck-hardcourt-baseline-grooves-silver/65-aleksandar-radojevic-3184005
p3325
asg17
g18
sg19
(lp3326
Vhttp://img.beckett.com/images/no-image.jpg
p3327
asg22
V#65
p3328
sg24
V1999-00
p3329
sg26
g27
sg28
(lp3330
VAleksandar Radojevic
p3331
assbag1
(g2
g3
Ntp3332
Rp3333
(dp3334
g7
(dp3335
g9
V1999-00 Upper Deck MVP Gold Script #64 Antonio Davis
p3336
sg11
I100
sg12
VUpper Deck MVP Gold Script
p3337
sg14
(lp3338
Vhttp://www.beckett.com/basketball/1999-00/upper-deck-mvp-gold-script/64-antonio-davis-3182697
p3339
asg17
g18
sg19
(lp3340
Vhttp://img.beckett.com/images/no-image.jpg
p3341
asg22
V#64
p3342
sg24
V1999-00
p3343
sg26
g27
sg28
(lp3344
VAntonio Davis
p3345
assbag1
(g2
g3
Ntp3346
Rp3347
(dp3348
g7
(dp3349
g9
V1999-00 Upper Deck MVP Gold Script #155 Vince Carter
p3350
sg11
I100
sg12
VUpper Deck MVP Gold Script
p3351
sg14
(lp3352
Vhttp://www.beckett.com/basketball/1999-00/upper-deck-mvp-gold-script/155-vince-carter-3182788
p3353
asg17
g18
sg19
(lp3354
Vhttp://img.beckett.com/images/items_stock/185226/3182624/3182788/front.jpg
p3355
asg22
V#155
p3356
sg24
V1999-00
p3357
sg26
g27
sg28
(lp3358
VVince Carter
p3359
assbag1
(g2
g3
Ntp3360
Rp3361
(dp3362
g7
(dp3363
g9
V1999-00 Upper Deck MVP Gold Script #156 John Wallace
p3364
sg11
I100
sg12
VUpper Deck MVP Gold Script
p3365
sg14
(lp3366
Vhttp://www.beckett.com/basketball/1999-00/upper-deck-mvp-gold-script/156-john-wallace-3182789
p3367
asg17
g18
sg19
(lp3368
Vhttp://img.beckett.com/images/no-image.jpg
p3369
asg22
V#156
p3370
sg24
V1999-00
p3371
sg26
g27
sg28
(lp3372
VJohn Wallace
p3373
assbag1
(g2
g3
Ntp3374
Rp3375
(dp3376
g7
(dp3377
g9
V1999-00 Upper Deck MVP Gold Script #157 Doug Christie
p3378
sg11
I100
sg12
VUpper Deck MVP Gold Script
p3379
sg14
(lp3380
Vhttp://www.beckett.com/basketball/1999-00/upper-deck-mvp-gold-script/157-doug-christie-3182790
p3381
asg17
g18
sg19
(lp3382
Vhttp://img.beckett.com/images/no-image.jpg
p3383
asg22
V#157
p3384
sg24
V1999-00
p3385
sg26
g27
sg28
(lp3386
VDoug Christie
p3387
assbag1
(g2
g3
Ntp3388
Rp3389
(dp3390
g7
(dp3391
g9
V1999-00 Upper Deck MVP Gold Script #158 Tracy McGrady
p3392
sg11
I100
sg12
VUpper Deck MVP Gold Script
p3393
sg14
(lp3394
Vhttp://www.beckett.com/basketball/1999-00/upper-deck-mvp-gold-script/158-tracy-mcgrady-3182791
p3395
asg17
g18
sg19
(lp3396
Vhttp://img.beckett.com/images/no-image.jpg
p3397
asg22
V#158
p3398
sg24
V1999-00
p3399
sg26
g27
sg28
(lp3400
VTracy McGrady
p3401
assbag1
(g2
g3
Ntp3402
Rp3403
(dp3404
g7
(dp3405
g9
V1999-00 Upper Deck MVP Gold Script #159 Kevin Willis
p3406
sg11
I100
sg12
VUpper Deck MVP Gold Script
p3407
sg14
(lp3408
Vhttp://www.beckett.com/basketball/1999-00/upper-deck-mvp-gold-script/159-kevin-willis-3182792
p3409
asg17
g18
sg19
(lp3410
Vhttp://img.beckett.com/images/items_stock/185226/3182624/3182792/front.jpg
p3411
asg22
V#159
p3412
sg24
V1999-00
p3413
sg26
g27
sg28
(lp3414
VKevin Willis
p3415
assbag1
(g2
g3
Ntp3416
Rp3417
(dp3418
g7
(dp3419
g9
V1999-00 Upper Deck MVP Gold Script #160 Charles Oakley
p3420
sg11
I100
sg12
VUpper Deck MVP Gold Script
p3421
sg14
(lp3422
Vhttp://www.beckett.com/basketball/1999-00/upper-deck-mvp-gold-script/160-charles-oakley-3182793
p3423
asg17
g18
sg19
(lp3424
Vhttp://img.beckett.com/images/no-image.jpg
p3425
asg22
V#160
p3426
sg24
V1999-00
p3427
sg26
g27
sg28
(lp3428
VCharles Oakley
p3429
assbag1
(g2
g3
Ntp3430
Rp3431
(dp3432
g7
(dp3433
g9
V1999-00 Upper Deck MVP Super Script #64 Antonio Davis
p3434
sg11
I25
sg12
VUpper Deck MVP Super Script
p3435
sg14
(lp3436
Vhttp://www.beckett.com/basketball/1999-00/upper-deck-mvp-super-script/64-antonio-davis-3182927
p3437
asg17
g18
sg19
(lp3438
Vhttp://img.beckett.com/images/no-image.jpg
p3439
asg22
V#64
p3440
sg24
V1999-00
p3441
sg26
g27
sg28
(lp3442
VAntonio Davis
p3443
assbag1
(g2
g3
Ntp3444
Rp3445
(dp3446
g7
(dp3447
g9
V1999-00 Upper Deck MVP Super Script #155 Vince Carter
p3448
sg11
I25
sg12
VUpper Deck MVP Super Script
p3449
sg14
(lp3450
Vhttp://www.beckett.com/basketball/1999-00/upper-deck-mvp-super-script/155-vince-carter-3183018
p3451
asg17
g18
sg19
(lp3452
Vhttp://img.beckett.com/images/no-image.jpg
p3453
asg22
V#155
p3454
sg24
V1999-00
p3455
sg26
g27
sg28
(lp3456
VVince Carter
p3457
assbag1
(g2
g3
Ntp3458
Rp3459
(dp3460
g7
(dp3461
g9
V1999-00 Upper Deck MVP Super Script #156 John Wallace
p3462
sg11
I25
sg12
VUpper Deck MVP Super Script
p3463
sg14
(lp3464
Vhttp://www.beckett.com/basketball/1999-00/upper-deck-mvp-super-script/156-john-wallace-3183019
p3465
asg17
g18
sg19
(lp3466
Vhttp://img.beckett.com/images/no-image.jpg
p3467
asg22
V#156
p3468
sg24
V1999-00
p3469
sg26
g27
sg28
(lp3470
VJohn Wallace
p3471
assbag1
(g2
g3
Ntp3472
Rp3473
(dp3474
g7
(dp3475
g9
V1999-00 Upper Deck MVP Super Script #157 Doug Christie
p3476
sg11
I25
sg12
VUpper Deck MVP Super Script
p3477
sg14
(lp3478
Vhttp://www.beckett.com/basketball/1999-00/upper-deck-mvp-super-script/157-doug-christie-3183020
p3479
asg17
g18
sg19
(lp3480
Vhttp://img.beckett.com/images/no-image.jpg
p3481
asg22
V#157
p3482
sg24
V1999-00
p3483
sg26
g27
sg28
(lp3484
VDoug Christie
p3485
assbag1
(g2
g3
Ntp3486
Rp3487
(dp3488
g7
(dp3489
g9
V1999-00 Upper Deck MVP Super Script #158 Tracy McGrady
p3490
sg11
I25
sg12
VUpper Deck MVP Super Script
p3491
sg14
(lp3492
Vhttp://www.beckett.com/basketball/1999-00/upper-deck-mvp-super-script/158-tracy-mcgrady-3183021
p3493
asg17
g18
sg19
(lp3494
Vhttp://img.beckett.com/images/no-image.jpg
p3495
asg22
V#158
p3496
sg24
V1999-00
p3497
sg26
g27
sg28
(lp3498
VTracy McGrady
p3499
assbag1
(g2
g3
Ntp3500
Rp3501
(dp3502
g7
(dp3503
g9
V1999-00 Upper Deck MVP Super Script #159 Kevin Willis
p3504
sg11
I25
sg12
VUpper Deck MVP Super Script
p3505
sg14
(lp3506
Vhttp://www.beckett.com/basketball/1999-00/upper-deck-mvp-super-script/159-kevin-willis-3183022
p3507
asg17
g18
sg19
(lp3508
Vhttp://img.beckett.com/images/no-image.jpg
p3509
asg22
V#159
p3510
sg24
V1999-00
p3511
sg26
g27
sg28
(lp3512
VKevin Willis
p3513
assbag1
(g2
g3
Ntp3514
Rp3515
(dp3516
g7
(dp3517
g9
V1999-00 Upper Deck MVP Super Script #160 Charles Oakley
p3518
sg11
I25
sg12
VUpper Deck MVP Super Script
p3519
sg14
(lp3520
Vhttp://www.beckett.com/basketball/1999-00/upper-deck-mvp-super-script/160-charles-oakley-3183023
p3521
asg17
g18
sg19
(lp3522
Vhttp://img.beckett.com/images/no-image.jpg
p3523
asg22
V#160
p3524
sg24
V1999-00
p3525
sg26
g27
sg28
(lp3526
VCharles Oakley
p3527
assbag1
(g2
g3
Ntp3528
Rp3529
(dp3530
g7
(dp3531
g9
V1999-00 Upper Deck Ovation Standing Ovation #53 Vince Carter
p3532
sg11
I50
sg12
VUpper Deck Ovation Standing Ovation
p3533
sg14
(lp3534
Vhttp://www.beckett.com/basketball/1999-00/upper-deck-ovation-standing-ovation/53-vince-carter-3181186
p3535
asg17
g18
sg19
(lp3536
Vhttp://img.beckett.com/images/no-image.jpg
p3537
asg22
V#53
p3538
sg24
V1999-00
p3539
sg26
g27
sg28
(lp3540
VVince Carter
p3541
assbag1
(g2
g3
Ntp3542
Rp3543
(dp3544
g7
(dp3545
g9
V1999-00 Upper Deck Ovation Standing Ovation #54 Tracy McGrady
p3546
sg11
I50
sg12
VUpper Deck Ovation Standing Ovation
p3547
sg14
(lp3548
Vhttp://www.beckett.com/basketball/1999-00/upper-deck-ovation-standing-ovation/54-tracy-mcgrady-3181187
p3549
asg17
g18
sg19
(lp3550
Vhttp://img.beckett.com/images/no-image.jpg
p3551
asg22
V#54
p3552
sg24
V1999-00
p3553
sg26
g27
sg28
(lp3554
VTracy McGrady
p3555
assbag1
(g2
g3
Ntp3556
Rp3557
(dp3558
g7
(dp3559
g9
V1999-00 Upper Deck Ovation Standing Ovation #72 Aleksandar Radojevic
p3560
sg11
I50
sg12
VUpper Deck Ovation Standing Ovation
p3561
sg14
(lp3562
Vhttp://www.beckett.com/basketball/1999-00/upper-deck-ovation-standing-ovation/72-aleksandar-radojevic-3181205
p3563
asg17
g18
sg19
(lp3564
Vhttp://img.beckett.com/images/items_stock/185226/3181124/3181205/front.jpg
p3565
asg22
V#72
p3566
sg24
V1999-00
p3567
sg26
g27
sg28
(lp3568
VAleksandar Radojevic
p3569
assbag1
(g2
g3
Ntp3570
Rp3571
(dp3572
g7
(dp3573
g9
V1999-00 Upper Deck Retro Gold #24 Tracy McGrady
p3574
sg11
I250
sg12
VUpper Deck Retro Gold
p3575
sg14
(lp3576
Vhttp://www.beckett.com/basketball/1999-00/upper-deck-retro-gold/24-tracy-mcgrady-3181531
p3577
asg17
g18
sg19
(lp3578
Vhttp://img.beckett.com/images/no-image.jpg
p3579
asg22
V#24
p3580
sg24
V1999-00
p3581
sg26
g27
sg28
(lp3582
VTracy McGrady
p3583
assbag1
(g2
g3
Ntp3584
Rp3585
(dp3586
g7
(dp3587
g9
V1999-00 Upper Deck Retro Gold #38 Vince Carter
p3588
sg11
I250
sg12
VUpper Deck Retro Gold
p3589
sg14
(lp3590
Vhttp://www.beckett.com/basketball/1999-00/upper-deck-retro-gold/38-vince-carter-3181545
p3591
asg17
g18
sg19
(lp3592
Vhttp://img.beckett.com/images/items_stock/185226/3181499/3181545/front.jpg
p3593
asg22
V#38
p3594
sg24
V1999-00
p3595
sg26
g27
sg28
(lp3596
VVince Carter
p3597
assbag1
(g2
g3
Ntp3598
Rp3599
(dp3600
g7
(dp3601
g9
V1999-00 Upper Deck Retro Platinum #24 Tracy McGrady
p3602
sg11
I1
sg12
VUpper Deck Retro Platinum
p3603
sg14
(lp3604
Vhttp://www.beckett.com/basketball/1999-00/upper-deck-retro-platinum/24-tracy-mcgrady-3181646
p3605
asg17
g18
sg19
(lp3606
Vhttp://img.beckett.com/images/no-image.jpg
p3607
asg22
V#24
p3608
sg24
V1999-00
p3609
sg26
g27
sg28
(lp3610
VTracy McGrady
p3611
assbag1
(g2
g3
Ntp3612
Rp3613
(dp3614
g7
(dp3615
g9
V1999-00 Upper Deck Retro Platinum #38 Vince Carter
p3616
sg11
I1
sg12
VUpper Deck Retro Platinum
p3617
sg14
(lp3618
Vhttp://www.beckett.com/basketball/1999-00/upper-deck-retro-platinum/38-vince-carter-3181660
p3619
asg17
g18
sg19
(lp3620
Vhttp://img.beckett.com/images/no-image.jpg
p3621
asg22
V#38
p3622
sg24
V1999-00
p3623
sg26
g27
sg28
(lp3624
VVince Carter
p3625
assbag1
(g2
g3
Ntp3626
Rp3627
(dp3628
g7
(dp3629
g9
V1999-00 Bowman's Best Class Photo #CS1 Draft Picks Refractor/Richard Hamilton/Corey Maggette/Lamar Odom/Wally Szczerbiak/Jonathan Bender/Trajan Langdon/Aleksandar Radojevic/Baron Davis/Shawn Marion/Jason Terry/Andre Miller/Steve Francis/Elton
p3630
sg11
I125
sg12
VBowman's Best Class Photo
p3631
sg14
(lp3632
Vhttp://www.beckett.com/basketball/1999-00/bowmans-best-class-photo/cs1-draft-picks-refractorrichard-hamiltoncorey-maggettelamar-odomwally-szczerbiakjonathan-bendertrajan-langdonaleksandar-radojevicbaron-davisshawn-marionjason-terryandre-millersteve-franciselton-brand-3204949
p3633
asg17
g18
sg19
(lp3634
Vhttp://img.beckett.com/images/no-image.jpg
p3635
asg22
V#CS1
p3636
sg24
V1999-00
p3637
sg26
g27
sg28
(lp3638
VDraft Picks Refractor
p3639
aVRichard Hamilton
p3640
aVCorey Maggette
p3641
aVLamar Odom
p3642
aVWally Szczerbiak
p3643
aVJonathan Bender
p3644
aVTrajan Langdon
p3645
aVAleksandar Radojevic
p3646
aVBaron Davis
p3647
aVShawn Marion
p3648
aVJason Terry
p3649
aVAndre Miller
p3650
aVSteve Francis
p3651
aVElton
p3652
assbag1
(g2
g3
Ntp3653
Rp3654
(dp3655
g7
(dp3656
g9
V1999-00 Bowman's Best Class Photo #CS1 Draft Picks Atomic Refractor/Richard Hamilton/Corey Maggette/Lamar Odom/Wally Szczerbiak/Jonathan Bender/Trajan Langdon/Aleksandar Radojevic/Baron Davis/Shawn Marion/Jason Terry/Andre Miller/Steve Francis
p3657
sg11
I35
sg12
VBowman's Best Class Photo
p3658
sg14
(lp3659
Vhttp://www.beckett.com/basketball/1999-00/bowmans-best-class-photo/cs1-draft-picks-atomic-refractorrichard-hamiltoncorey-maggettelamar-odomwally-szczerbiakjonathan-bendertrajan-langdonaleksandar-radojevicbaron-davisshawn-marionjason-terryandre-millersteve-franciselton-brand-320
p3660
asg17
g18
sg19
(lp3661
Vhttp://img.beckett.com/images/no-image.jpg
p3662
asg22
V#CS1
p3663
sg24
V1999-00
p3664
sg26
g27
sg28
(lp3665
VDraft Picks Refractor
p3666
aVRichard Hamilton
p3667
aVCorey Maggette
p3668
aVLamar Odom
p3669
aVWally Szczerbiak
p3670
aVJonathan Bender
p3671
aVTrajan Langdon
p3672
aVAleksandar Radojevic
p3673
aVBaron Davis
p3674
aVShawn Marion
p3675
aVJason Terry
p3676
aVAndre Miller
p3677
aVSteve Francis
p3678
assbag1
(g2
g3
Ntp3679
Rp3680
(dp3681
g7
(dp3682
g9
V1999-00 Finest Dunk Masters #DM7 Tracy McGrady
p3683
sg11
I750
sg12
VFinest Dunk Masters
p3684
sg14
(lp3685
Vhttp://www.beckett.com/basketball/1999-00/finest-dunk-masters/dm7-tracy-mcgrady-3204381
p3686
asg17
g18
sg19
(lp3687
Vhttp://img.beckett.com/images/no-image.jpg
p3688
asg22
V#DM7
p3689
sg24
V1999-00
p3690
sg26
g27
sg28
(lp3691
VTracy McGrady
p3692
assbag1
(g2
g3
Ntp3693
Rp3694
(dp3695
g7
(dp3696
g9
V1999-00 Finest Dunk Masters #DM13 Vince Carter
p3697
sg11
I750
sg12
VFinest Dunk Masters
p3698
sg14
(lp3699
Vhttp://www.beckett.com/basketball/1999-00/finest-dunk-masters/dm13-vince-carter-3204387
p3700
asg17
g18
sg19
(lp3701
Vhttp://img.beckett.com/images/no-image.jpg
p3702
asg22
V#DM13
p3703
sg24
V1999-00
p3704
sg26
g27
sg28
(lp3705
VVince Carter
p3706
assbag1
(g2
g3
Ntp3707
Rp3708
(dp3709
g7
(dp3710
g9
V1999-00 Finest Future's Finest #FF12 Aleksandar Radojevic
p3711
sg11
I750
sg12
VFinest Future's Finest
p3712
sg14
(lp3713
Vhttp://www.beckett.com/basketball/1999-00/finest-futures-finest/ff12-aleksandar-radojevic-3204434
p3714
asg17
g18
sg19
(lp3715
Vhttp://img.beckett.com/images/no-image.jpg
p3716
asg22
V#FF12
p3717
sg24
V1999-00
p3718
sg26
g27
sg28
(lp3719
VAleksandar Radojevic
p3720
assbag1
(g2
g3
Ntp3721
Rp3722
(dp3723
g7
(dp3724
g9
V1999-00 Finest New Millennium #NM2 Vince Carter
p3725
sg11
I1500
sg12
VFinest New Millennium
p3726
sg14
(lp3727
Vhttp://www.beckett.com/basketball/1999-00/finest-new-millennium/nm2-vince-carter-3202439
p3728
asg17
g18
sg19
(lp3729
Vhttp://img.beckett.com/images/items_stock/185226/3202428/3202439/front.jpg
p3730
asg22
V#NM2
p3731
sg24
V1999-00
p3732
sg26
g27
sg28
(lp3733
VVince Carter
p3734
assbag1
(g2
g3
Ntp3735
Rp3736
(dp3737
g7
(dp3738
g9
V1999-00 Finest Salute #FS1 Vince Carter/Tim Duncan/Allen Iverson/Gold Refractor
p3739
sg11
I50
sg12
VFinest Salute
p3740
sg14
(lp3741
Vhttp://www.beckett.com/basketball/1999-00/finest-salute/fs1-vince-cartertim-duncanallen-iversongold-refractor-3202564
p3742
asg17
g18
sg19
(lp3743
Vhttp://img.beckett.com/images/no-image.jpg
p3744
asg22
V#FS1
p3745
sg24
V1999-00
p3746
sg26
g27
sg28
(lp3747
VVince Carter
p3748
aVTim Duncan
p3749
aVAllen Iverson
p3750
aVGold Refractor
p3751
assbag1
(g2
g3
Ntp3752
Rp3753
(dp3754
g7
(dp3755
g9
V1999-00 Finest Team Finest Blue #TF20 Vince Carter
p3756
sg11
I1500
sg12
VFinest Team Finest Blue
p3757
sg14
(lp3758
Vhttp://www.beckett.com/basketball/1999-00/finest-team-finest-blue/tf20-vince-carter-3202617
p3759
asg17
g18
sg19
(lp3760
Vhttp://img.beckett.com/images/items_stock/185226/3202568/3202617/front.jpg
p3761
asg22
V#TF20
p3762
sg24
V1999-00
p3763
sg26
g27
sg28
(lp3764
VVince Carter
p3765
assbag1
(g2
g3
Ntp3766
Rp3767
(dp3768
g7
(dp3769
g9
V1999-00 Flair Showcase Rookie Showcase Firsts #27 Aleksandar Radojevic
p3770
sg11
I500
sg12
VFlair Showcase Rookie Showcase Firsts
p3771
sg14
(lp3772
Vhttp://www.beckett.com/basketball/1999-00/flair-showcase-rookie-showcase-firsts/27-aleksandar-radojevic-3201029
p3773
asg17
g18
sg19
(lp3774
Vhttp://img.beckett.com/images/items_stock/185226/3200996/3201029/front.jpg
p3775
asg22
V#27
p3776
sg24
V1999-00
p3777
sg26
g27
sg28
(lp3778
VAleksandar Radojevic
p3779
assbag1
(g2
g3
Ntp3780
Rp3781
(dp3782
g7
(dp3783
g9
V1999-00 Fleer Game Breakers #3 Vince Carter
p3784
sg11
I100
sg12
VFleer Game Breakers
p3785
sg14
(lp3786
Vhttp://www.beckett.com/basketball/1999-00/fleer-game-breakers/3-vince-carter-3201762
p3787
asg17
g18
sg19
(lp3788
Vhttp://img.beckett.com/images/no-image.jpg
p3789
asg22
V#3
p3790
sg24
V1999-00
p3791
sg26
g27
sg28
(lp3792
VVince Carter
p3793
assbag1
(g2
g3
Ntp3794
Rp3795
(dp3796
g7
(dp3797
g9
V1999-00 Fleer Mystique Raise the Roof #RR5 Vince Carter
p3798
sg11
I100
sg12
VFleer Mystique Raise the Roof
p3799
sg14
(lp3800
Vhttp://www.beckett.com/basketball/1999-00/fleer-mystique-raise-the-roof/rr5-vince-carter-3198838
p3801
asg17
g18
sg19
(lp3802
Vhttp://img.beckett.com/images/no-image.jpg
p3803
asg22
V#RR5
p3804
sg24
V1999-00
p3805
sg26
g27
sg28
(lp3806
VVince Carter
p3807
assbag1
(g2
g3
Ntp3808
Rp3809
(dp3810
g7
(dp3811
g9
V1999-00 Fleer Mystique Slamboree #S4 Tracy McGrady
p3812
sg11
I999
sg12
VFleer Mystique Slamboree
p3813
sg14
(lp3814
Vhttp://www.beckett.com/basketball/1999-00/fleer-mystique-slamboree/s4-tracy-mcgrady-3198854
p3815
asg17
g18
sg19
(lp3816
Vhttp://img.beckett.com/images/no-image.jpg
p3817
asg22
V#S4
p3818
sg24
V1999-00
p3819
sg26
g27
sg28
(lp3820
VTracy McGrady
p3821
assbag1
(g2
g3
Ntp3822
Rp3823
(dp3824
g7
(dp3825
g9
V1999-00 SkyBox Dominion Hats Off #9 Aleksandar Radojevic/135
p3826
sg11
I135
sg12
VSkyBox Dominion Hats Off
p3827
sg14
(lp3828
Vhttp://www.beckett.com/basketball/1999-00/skybox-dominion-hats-off/9-aleksandar-radojevic135-3197191
p3829
asg17
g18
sS'memorabilia'
p3830
I1
sg19
(lp3831
Vhttp://img.beckett.com/images/no-image.jpg
p3832
asg22
V#9
p3833
sg24
V1999-00
p3834
sg26
g27
sg28
(lp3835
VAleksandar Radojevic
p3836
assbag1
(g2
g3
Ntp3837
Rp3838
(dp3839
g7
(dp3840
g9
V1999-00 SkyBox Premium Club Vertical #1 Vince Carter
p3841
sg11
I100
sg12
VSkyBox Premium Club Vertical
p3842
sg14
(lp3843
Vhttp://www.beckett.com/basketball/1999-00/skybox-premium-club-vertical/1-vince-carter-3196008
p3844
asg17
g18
sg19
(lp3845
Vhttp://img.beckett.com/images/no-image.jpg
p3846
asg22
V#1
p3847
sg24
V1999-00
p3848
sg26
g27
sg28
(lp3849
VVince Carter
p3850
assbag1
(g2
g3
Ntp3851
Rp3852
(dp3853
g7
(dp3854
g9
V1999-00 SkyBox Premium Genuine Coverage #2 Vince Carter/355
p3855
sg11
I355
sg12
VSkyBox Premium Genuine Coverage
p3856
sg14
(lp3857
Vhttp://www.beckett.com/basketball/1999-00/skybox-premium-genuine-coverage/2-vince-carter355-3196025
p3858
asg17
g18
sg3830
I1
sg19
(lp3859
Vhttp://img.beckett.com/images/no-image.jpg
p3860
asg22
V#2
p3861
sg24
V1999-00
p3862
sg26
g27
sg28
(lp3863
VVince Carter
p3864
assbag1
(g2
g3
Ntp3865
Rp3866
(dp3867
g7
(dp3868
g9
V1999-00 Ultra Millennium Men #5 Vince Carter
p3869
sg11
I100
sg12
VUltra Millennium Men
p3870
sg14
(lp3871
Vhttp://www.beckett.com/basketball/1999-00/ultra-millennium-men/5-vince-carter-3186087
p3872
asg17
g18
sg19
(lp3873
Vhttp://img.beckett.com/images/no-image.jpg
p3874
asg22
V#5
p3875
sg24
V1999-00
p3876
sg26
g27
sg28
(lp3877
VVince Carter
p3878
assbag1
(g2
g3
Ntp3879
Rp3880
(dp3881
g7
(dp3882
g9
V1999-00 Upper Deck Game Jerseys Patch Super #VC Vince Carter
p3883
sg11
I25
sg12
VUpper Deck Game Jerseys Patch Super
p3884
sg14
(lp3885
Vhttp://www.beckett.com/basketball/1999-00/upper-deck-game-jerseys-patch-super/vc-vince-carter-3185145
p3886
asg17
g18
sg3830
I1
sg19
(lp3887
Vhttp://img.beckett.com/images/no-image.jpg
p3888
asg22
V#VC
p3889
sg24
V1999-00
p3890
sg26
g27
sg28
(lp3891
VVince Carter
p3892
assbag1
(g2
g3
Ntp3893
Rp3894
(dp3895
g7
(dp3896
g9
V1999-00 E-X Essential Credentials Future #16 Vince Carter/45
p3897
sg11
I45
sg12
VE-X Essential Credentials Future
p3898
sg14
(lp3899
Vhttp://www.beckett.com/basketball/1999-00/e-x-essential-credentials-future/16-vince-carter45-3205177
p3900
asg17
g18
sg19
(lp3901
Vhttp://img.beckett.com/images/no-image.jpg
p3902
asg22
V#16
p3903
sg24
V1999-00
p3904
sg26
g27
sg28
(lp3905
VVince Carter
p3906
assbag1
(g2
g3
Ntp3907
Rp3908
(dp3909
g7
(dp3910
g9
V1999-00 E-X Essential Credentials Future #32 Tracy McGrady/29
p3911
sg11
I29
sg12
VE-X Essential Credentials Future
p3912
sg14
(lp3913
Vhttp://www.beckett.com/basketball/1999-00/e-x-essential-credentials-future/32-tracy-mcgrady29-3205193
p3914
asg17
g18
sg19
(lp3915
Vhttp://img.beckett.com/images/no-image.jpg
p3916
asg22
V#32
p3917
sg24
V1999-00
p3918
sg26
g27
sg28
(lp3919
VTracy McGrady
p3920
assbag1
(g2
g3
Ntp3921
Rp3922
(dp3923
g7
(dp3924
g9
V1999-00 E-X Essential Credentials Future #77 Aleksandar Radojevic/14
p3925
sg11
I14
sg12
VE-X Essential Credentials Future
p3926
sg14
(lp3927
Vhttp://www.beckett.com/basketball/1999-00/e-x-essential-credentials-future/77-aleksandar-radojevic14-3205238
p3928
asg17
g18
sg19
(lp3929
Vhttp://img.beckett.com/images/no-image.jpg
p3930
asg22
V#77
p3931
sg24
V1999-00
p3932
sg26
g27
sg28
(lp3933
VAleksandar Radojevic
p3934
assbag1
(g2
g3
Ntp3935
Rp3936
(dp3937
g7
(dp3938
g9
V1999-00 E-X Essential Credentials Now #16 Vince Carter/16
p3939
sg11
I16
sg12
VE-X Essential Credentials Now
p3940
sg14
(lp3941
Vhttp://www.beckett.com/basketball/1999-00/e-x-essential-credentials-now/16-vince-carter16-3205274
p3942
asg17
g18
sg19
(lp3943
Vhttp://img.beckett.com/images/no-image.jpg
p3944
asg22
V#16
p3945
sg24
V1999-00
p3946
sg26
g27
sg28
(lp3947
VVince Carter
p3948
assbag1
(g2
g3
Ntp3949
Rp3950
(dp3951
g7
(dp3952
g9
V1999-00 E-X Essential Credentials Now #32 Tracy McGrady/32
p3953
sg11
I32
sg12
VE-X Essential Credentials Now
p3954
sg14
(lp3955
Vhttp://www.beckett.com/basketball/1999-00/e-x-essential-credentials-now/32-tracy-mcgrady32-3205290
p3956
asg17
g18
sg19
(lp3957
Vhttp://img.beckett.com/images/no-image.jpg
p3958
asg22
V#32
p3959
sg24
V1999-00
p3960
sg26
g27
sg28
(lp3961
VTracy McGrady
p3962
assbag1
(g2
g3
Ntp3963
Rp3964
(dp3965
g7
(dp3966
g9
V1999-00 E-X Essential Credentials Now #77 Aleksandar Radojevic/17
p3967
sg11
I17
sg12
VE-X Essential Credentials Now
p3968
sg14
(lp3969
Vhttp://www.beckett.com/basketball/1999-00/e-x-essential-credentials-now/77-aleksandar-radojevic17-3205335
p3970
asg17
g18
sg19
(lp3971
Vhttp://img.beckett.com/images/no-image.jpg
p3972
asg22
V#77
p3973
sg24
V1999-00
p3974
sg26
g27
sg28
(lp3975
VAleksandar Radojevic
p3976
assbag1
(g2
g3
Ntp3977
Rp3978
(dp3979
g7
(dp3980
g9
V1999-00 E-X E-Xceptional Green #XC11 Vince Carter
p3981
sg11
I500
sg12
VE-X E-Xceptional Green
p3982
sg14
(lp3983
Vhttp://www.beckett.com/basketball/1999-00/e-x-e-xceptional-green/xc11-vince-carter-3203230
p3984
asg17
g18
sg19
(lp3985
Vhttp://img.beckett.com/images/no-image.jpg
p3986
asg22
V#XC11
p3987
sg24
V1999-00
p3988
sg26
g27
sg28
(lp3989
VVince Carter
p3990
assbag1
(g2
g3
Ntp3991
Rp3992
(dp3993
g7
(dp3994
g9
V1999-00 E-X E-Xceptional Blue #XC11 Vince Carter
p3995
sg11
I250
sg12
VE-X E-Xceptional Blue
p3996
sg14
(lp3997
Vhttp://www.beckett.com/basketball/1999-00/e-x-e-xceptional-blue/xc11-vince-carter-3205399
p3998
asg17
g18
sg19
(lp3999
Vhttp://img.beckett.com/images/no-image.jpg
p4000
asg22
V#XC11
p4001
sg24
V1999-00
p4002
sg26
g27
sg28
(lp4003
VVince Carter
p4004
assbag1
(g2
g3
Ntp4005
Rp4006
(dp4007
g7
(dp4008
g9
V1999-00 Finest Dunk Masters Refractors #DM7 Tracy McGrady
p4009
sg11
I150
sg12
VFinest Dunk Masters Refractors
p4010
sg14
(lp4011
Vhttp://www.beckett.com/basketball/1999-00/finest-dunk-masters-refractors/dm7-tracy-mcgrady-3204404
p4012
asg17
g18
sg19
(lp4013
Vhttp://img.beckett.com/images/no-image.jpg
p4014
asg22
V#DM7
p4015
sg24
V1999-00
p4016
sg26
g27
sg28
(lp4017
VTracy McGrady
p4018
assbag1
(g2
g3
Ntp4019
Rp4020
(dp4021
g7
(dp4022
g9
V1999-00 Finest Dunk Masters Refractors #DM13 Vince Carter
p4023
sg11
I150
sg12
VFinest Dunk Masters Refractors
p4024
sg14
(lp4025
Vhttp://www.beckett.com/basketball/1999-00/finest-dunk-masters-refractors/dm13-vince-carter-3204410
p4026
asg17
g18
sg19
(lp4027
Vhttp://img.beckett.com/images/no-image.jpg
p4028
asg22
V#DM13
p4029
sg24
V1999-00
p4030
sg26
g27
sg28
(lp4031
VVince Carter
p4032
assbag1
(g2
g3
Ntp4033
Rp4034
(dp4035
g7
(dp4036
g9
V1999-00 Finest Future's Finest Refractors #FF12 Aleksandar Radojevic
p4037
sg11
I150
sg12
VFinest Future's Finest Refractors
p4038
sg14
(lp4039
Vhttp://www.beckett.com/basketball/1999-00/finest-futures-finest-refractors/ff12-aleksandar-radojevic-3202389
p4040
asg17
g18
sg19
(lp4041
Vhttp://img.beckett.com/images/no-image.jpg
p4042
asg22
V#FF12
p4043
sg24
V1999-00
p4044
sg26
g27
sg28
(lp4045
VAleksandar Radojevic
p4046
assbag1
(g2
g3
Ntp4047
Rp4048
(dp4049
g7
(dp4050
g9
V1999-00 Finest New Millennium Refractors #NM2 Vince Carter
p4051
sg11
I300
sg12
VFinest New Millennium Refractors
p4052
sg14
(lp4053
Vhttp://www.beckett.com/basketball/1999-00/finest-new-millennium-refractors/nm2-vince-carter-3202457
p4054
asg17
g18
sg19
(lp4055
Vhttp://img.beckett.com/images/no-image.jpg
p4056
asg22
V#NM2
p4057
sg24
V1999-00
p4058
sg26
g27
sg28
(lp4059
VVince Carter
p4060
assbag1
(g2
g3
Ntp4061
Rp4062
(dp4063
g7
(dp4064
g9
V1999-00 Finest Team Finest Blue Refractors #TF20 Vince Carter
p4065
sg11
I250
sg12
VFinest Team Finest Blue Refractors
p4066
sg14
(lp4067
Vhttp://www.beckett.com/basketball/1999-00/finest-team-finest-blue-refractors/tf20-vince-carter-3202648
p4068
asg17
g18
sg19
(lp4069
Vhttp://img.beckett.com/images/items_stock/185226/3202618/3202648/front.jpg
p4070
asg22
V#TF20
p4071
sg24
V1999-00
p4072
sg26
g27
sg28
(lp4073
VVince Carter
p4074
assbag1
(g2
g3
Ntp4075
Rp4076
(dp4077
g7
(dp4078
g9
V1999-00 Finest Team Finest Gold #TF20 Vince Carter
p4079
sg11
I250
sg12
VFinest Team Finest Gold
p4080
sg14
(lp4081
Vhttp://www.beckett.com/basketball/1999-00/finest-team-finest-gold/tf20-vince-carter-3202679
p4082
asg17
g18
sg19
(lp4083
Vhttp://img.beckett.com/images/no-image.jpg
p4084
asg22
V#TF20
p4085
sg24
V1999-00
p4086
sg26
g27
sg28
(lp4087
VVince Carter
p4088
assbag1
(g2
g3
Ntp4089
Rp4090
(dp4091
g7
(dp4092
g9
V1999-00 Finest Team Finest Gold Refractors #TF20 Vince Carter
p4093
sg11
I25
sg12
VFinest Team Finest Gold Refractors
p4094
sg14
(lp4095
Vhttp://www.beckett.com/basketball/1999-00/finest-team-finest-gold-refractors/tf20-vince-carter-3202710
p4096
asg17
g18
sg19
(lp4097
Vhttp://img.beckett.com/images/no-image.jpg
p4098
asg22
V#TF20
p4099
sg24
V1999-00
p4100
sg26
g27
sg28
(lp4101
VVince Carter
p4102
assbag1
(g2
g3
Ntp4103
Rp4104
(dp4105
g7
(dp4106
g9
V1999-00 Finest Team Finest Red #TF20 Vince Carter
p4107
sg11
I500
sg12
VFinest Team Finest Red
p4108
sg14
(lp4109
Vhttp://www.beckett.com/basketball/1999-00/finest-team-finest-red/tf20-vince-carter-3202741
p4110
asg17
g18
sg19
(lp4111
Vhttp://img.beckett.com/images/items_stock/185226/3202711/3202741/front.jpg
p4112
asg22
V#TF20
p4113
sg24
V1999-00
p4114
sg26
g27
sg28
(lp4115
VVince Carter
p4116
assbag1
(g2
g3
Ntp4117
Rp4118
(dp4119
g7
(dp4120
g9
V1999-00 Finest Team Finest Red Refractors #TF20 Vince Carter
p4121
sg11
I50
sg12
VFinest Team Finest Red Refractors
p4122
sg14
(lp4123
Vhttp://www.beckett.com/basketball/1999-00/finest-team-finest-red-refractors/tf20-vince-carter-3202772
p4124
asg17
g18
sg19
(lp4125
Vhttp://img.beckett.com/images/no-image.jpg
p4126
asg22
V#TF20
p4127
sg24
V1999-00
p4128
sg26
g27
sg28
(lp4129
VVince Carter
p4130
assbag1
(g2
g3
Ntp4131
Rp4132
(dp4133
g7
(dp4134
g9
V1999-00 Flair Showcase Fresh Ink Rock Steady #1 Vince Carter
p4135
sg11
I25
sg12
VFlair Showcase Fresh Ink Rock Steady
p4136
sg14
(lp4137
Vhttp://www.beckett.com/basketball/1999-00/flair-showcase-fresh-ink-rock-steady/1-vince-carter-3200931
p4138
asg17
g18
sg19
(lp4139
Vhttp://img.beckett.com/images/no-image.jpg
p4140
asg22
V#1
p4141
sg130
I1
sg24
V1999-00
p4142
sg26
g27
sg28
(lp4143
VVince Carter
p4144
assbag1
(g2
g3
Ntp4145
Rp4146
(dp4147
g7
(dp4148
g9
V1999-00 Flair Showcase Fresh Ink Rock Steady #6 Aleksandar Radojevic
p4149
sg11
I25
sg12
VFlair Showcase Fresh Ink Rock Steady
p4150
sg14
(lp4151
Vhttp://www.beckett.com/basketball/1999-00/flair-showcase-fresh-ink-rock-steady/6-aleksandar-radojevic-3200936
p4152
asg17
g18
sg19
(lp4153
Vhttp://img.beckett.com/images/no-image.jpg
p4154
asg22
V#6
p4155
sg130
I1
sg24
V1999-00
p4156
sg26
g27
sg28
(lp4157
VAleksandar Radojevic
p4158
assbag1
(g2
g3
Ntp4159
Rp4160
(dp4161
g7
(dp4162
g9
V1999-00 Fleer Focus Soar Subjects Vivid #SS13 Vince Carter
p4163
sg11
I50
sg12
VFleer Focus Soar Subjects Vivid
p4164
sg14
(lp4165
Vhttp://www.beckett.com/basketball/1999-00/fleer-focus-soar-subjects-vivid/ss13-vince-carter-3200059
p4166
asg17
g18
sg19
(lp4167
Vhttp://img.beckett.com/images/no-image.jpg
p4168
asg22
V#SS13
p4169
sg24
V1999-00
p4170
sg26
g27
sg28
(lp4171
VVince Carter
p4172
assbag1
(g2
g3
Ntp4173
Rp4174
(dp4175
g7
(dp4176
g9
V1999-00 Fleer Force Air Force One Five Forcefield #AF1 Vince Carter
p4177
sg11
I150
sg12
VFleer Force Air Force One Five Forcefield
p4178
sg14
(lp4179
Vhttp://www.beckett.com/basketball/1999-00/fleer-force-air-force-one-five-forcefield/af1-vince-carter-3200591
p4180
asg17
g18
sg19
(lp4181
Vhttp://img.beckett.com/images/no-image.jpg
p4182
asg22
V#AF1
p4183
sg24
V1999-00
p4184
sg26
g27
sg28
(lp4185
VVince Carter
p4186
assbag1
(g2
g3
Ntp4187
Rp4188
(dp4189
g7
(dp4190
g9
V1999-00 Fleer Force Air Force One Five Forcefield #AF2 Vince Carter
p4191
sg11
I150
sg12
VFleer Force Air Force One Five Forcefield
p4192
sg14
(lp4193
Vhttp://www.beckett.com/basketball/1999-00/fleer-force-air-force-one-five-forcefield/af2-vince-carter-3200592
p4194
asg17
g18
sg19
(lp4195
Vhttp://img.beckett.com/images/no-image.jpg
p4196
asg22
V#AF2
p4197
sg24
V1999-00
p4198
sg26
g27
sg28
(lp4199
VVince Carter
p4200
assbag1
(g2
g3
Ntp4201
Rp4202
(dp4203
g7
(dp4204
g9
V1999-00 Fleer Force Air Force One Five Forcefield #AF3 Vince Carter
p4205
sg11
I150
sg12
VFleer Force Air Force One Five Forcefield
p4206
sg14
(lp4207
Vhttp://www.beckett.com/basketball/1999-00/fleer-force-air-force-one-five-forcefield/af3-vince-carter-3200593
p4208
asg17
g18
sg19
(lp4209
Vhttp://img.beckett.com/images/no-image.jpg
p4210
asg22
V#AF3
p4211
sg24
V1999-00
p4212
sg26
g27
sg28
(lp4213
VVince Carter
p4214
assbag1
(g2
g3
Ntp4215
Rp4216
(dp4217
g7
(dp4218
g9
V1999-00 Fleer Force Air Force One Five Forcefield #AF4 Vince Carter
p4219
sg11
I150
sg12
VFleer Force Air Force One Five Forcefield
p4220
sg14
(lp4221
Vhttp://www.beckett.com/basketball/1999-00/fleer-force-air-force-one-five-forcefield/af4-vince-carter-3200594
p4222
asg17
g18
sg19
(lp4223
Vhttp://img.beckett.com/images/no-image.jpg
p4224
asg22
V#AF4
p4225
sg24
V1999-00
p4226
sg26
g27
sg28
(lp4227
VVince Carter
p4228
assbag1
(g2
g3
Ntp4229
Rp4230
(dp4231
g7
(dp4232
g9
V1999-00 Fleer Force Air Force One Five Forcefield #AF5 Vince Carter
p4233
sg11
I150
sg12
VFleer Force Air Force One Five Forcefield
p4234
sg14
(lp4235
Vhttp://www.beckett.com/basketball/1999-00/fleer-force-air-force-one-five-forcefield/af5-vince-carter-3200595
p4236
asg17
g18
sg19
(lp4237
Vhttp://img.beckett.com/images/no-image.jpg
p4238
asg22
V#AF5
p4239
sg24
V1999-00
p4240
sg26
g27
sg28
(lp4241
VVince Carter
p4242
assbag1
(g2
g3
Ntp4243
Rp4244
(dp4245
g7
(dp4246
g9
V1999-00 Fleer Force Air Force One Five Forcefield #AF6 Vince Carter
p4247
sg11
I150
sg12
VFleer Force Air Force One Five Forcefield
p4248
sg14
(lp4249
Vhttp://www.beckett.com/basketball/1999-00/fleer-force-air-force-one-five-forcefield/af6-vince-carter-3200596
p4250
asg17
g18
sg19
(lp4251
Vhttp://img.beckett.com/images/no-image.jpg
p4252
asg22
V#AF6
p4253
sg24
V1999-00
p4254
sg26
g27
sg28
(lp4255
VVince Carter
p4256
assbag1
(g2
g3
Ntp4257
Rp4258
(dp4259
g7
(dp4260
g9
V1999-00 Fleer Force Air Force One Five Forcefield #AF7 Vince Carter
p4261
sg11
I150
sg12
VFleer Force Air Force One Five Forcefield
p4262
sg14
(lp4263
Vhttp://www.beckett.com/basketball/1999-00/fleer-force-air-force-one-five-forcefield/af7-vince-carter-3200597
p4264
asg17
g18
sg19
(lp4265
Vhttp://img.beckett.com/images/no-image.jpg
p4266
asg22
V#AF7
p4267
sg24
V1999-00
p4268
sg26
g27
sg28
(lp4269
VVince Carter
p4270
assbag1
(g2
g3
Ntp4271
Rp4272
(dp4273
g7
(dp4274
g9
V1999-00 Fleer Force Air Force One Five Forcefield #AF8 Vince Carter
p4275
sg11
I150
sg12
VFleer Force Air Force One Five Forcefield
p4276
sg14
(lp4277
Vhttp://www.beckett.com/basketball/1999-00/fleer-force-air-force-one-five-forcefield/af8-vince-carter-3200598
p4278
asg17
g18
sg19
(lp4279
Vhttp://img.beckett.com/images/no-image.jpg
p4280
asg22
V#AF8
p4281
sg24
V1999-00
p4282
sg26
g27
sg28
(lp4283
VVince Carter
p4284
assbag1
(g2
g3
Ntp4285
Rp4286
(dp4287
g7
(dp4288
g9
V1999-00 Fleer Force Air Force One Five Forcefield #AF9 Vince Carter
p4289
sg11
I150
sg12
VFleer Force Air Force One Five Forcefield
p4290
sg14
(lp4291
Vhttp://www.beckett.com/basketball/1999-00/fleer-force-air-force-one-five-forcefield/af9-vince-carter-3200599
p4292
asg17
g18
sg19
(lp4293
Vhttp://img.beckett.com/images/no-image.jpg
p4294
asg22
V#AF9
p4295
sg24
V1999-00
p4296
sg26
g27
sg28
(lp4297
VVince Carter
p4298
assbag1
(g2
g3
Ntp4299
Rp4300
(dp4301
g7
(dp4302
g9
V1999-00 Fleer Force Air Force One Five Forcefield #AF10 Vince Carter
p4303
sg11
I150
sg12
VFleer Force Air Force One Five Forcefield
p4304
sg14
(lp4305
Vhttp://www.beckett.com/basketball/1999-00/fleer-force-air-force-one-five-forcefield/af10-vince-carter-3200600
p4306
asg17
g18
sg19
(lp4307
Vhttp://img.beckett.com/images/no-image.jpg
p4308
asg22
V#AF10
p4309
sg24
V1999-00
p4310
sg26
g27
sg28
(lp4311
VVince Carter
p4312
assbag1
(g2
g3
Ntp4313
Rp4314
(dp4315
g7
(dp4316
g9
V1999-00 Fleer Force Air Force One Five Forcefield #AF11 Vince Carter
p4317
sg11
I150
sg12
VFleer Force Air Force One Five Forcefield
p4318
sg14
(lp4319
Vhttp://www.beckett.com/basketball/1999-00/fleer-force-air-force-one-five-forcefield/af11-vince-carter-3200601
p4320
asg17
g18
sg19
(lp4321
Vhttp://img.beckett.com/images/no-image.jpg
p4322
asg22
V#AF11
p4323
sg24
V1999-00
p4324
sg26
g27
sg28
(lp4325
VVince Carter
p4326
assbag1
(g2
g3
Ntp4327
Rp4328
(dp4329
g7
(dp4330
g9
V1999-00 Fleer Force Air Force One Five Forcefield #AF12 Vince Carter
p4331
sg11
I150
sg12
VFleer Force Air Force One Five Forcefield
p4332
sg14
(lp4333
Vhttp://www.beckett.com/basketball/1999-00/fleer-force-air-force-one-five-forcefield/af12-vince-carter-3200602
p4334
asg17
g18
sg19
(lp4335
Vhttp://img.beckett.com/images/no-image.jpg
p4336
asg22
V#AF12
p4337
sg24
V1999-00
p4338
sg26
g27
sg28
(lp4339
VVince Carter
p4340
assbag1
(g2
g3
Ntp4341
Rp4342
(dp4343
g7
(dp4344
g9
V1999-00 Fleer Force Air Force One Five Forcefield #AF13 Vince Carter
p4345
sg11
I150
sg12
VFleer Force Air Force One Five Forcefield
p4346
sg14
(lp4347
Vhttp://www.beckett.com/basketball/1999-00/fleer-force-air-force-one-five-forcefield/af13-vince-carter-3200603
p4348
asg17
g18
sg19
(lp4349
Vhttp://img.beckett.com/images/no-image.jpg
p4350
asg22
V#AF13
p4351
sg24
V1999-00
p4352
sg26
g27
sg28
(lp4353
VVince Carter
p4354
assbag1
(g2
g3
Ntp4355
Rp4356
(dp4357
g7
(dp4358
g9
V1999-00 Fleer Force Air Force One Five Forcefield #AF14 Vince Carter
p4359
sg11
I150
sg12
VFleer Force Air Force One Five Forcefield
p4360
sg14
(lp4361
Vhttp://www.beckett.com/basketball/1999-00/fleer-force-air-force-one-five-forcefield/af14-vince-carter-3200604
p4362
asg17
g18
sg19
(lp4363
Vhttp://img.beckett.com/images/no-image.jpg
p4364
asg22
V#AF14
p4365
sg24
V1999-00
p4366
sg26
g27
sg28
(lp4367
VVince Carter
p4368
assbag1
(g2
g3
Ntp4369
Rp4370
(dp4371
g7
(dp4372
g9
V1999-00 Fleer Force Air Force One Five Forcefield #AF15 Vince Carter
p4373
sg11
I150
sg12
VFleer Force Air Force One Five Forcefield
p4374
sg14
(lp4375
Vhttp://www.beckett.com/basketball/1999-00/fleer-force-air-force-one-five-forcefield/af15-vince-carter-3200605
p4376
asg17
g18
sg19
(lp4377
Vhttp://img.beckett.com/images/no-image.jpg
p4378
asg22
V#AF15
p4379
sg24
V1999-00
p4380
sg26
g27
sg28
(lp4381
VVince Carter
p4382
assbag1
(g2
g3
Ntp4383
Rp4384
(dp4385
g7
(dp4386
g9
V1999-00 Hoops Build Your Own Card Redemptions #3a Vince Carter/Ball F/Body B
p4387
sg11
I250
sg12
VHoops Build Your Own Card Redemptions
p4388
sg14
(lp4389
Vhttp://www.beckett.com/basketball/1999-00/hoops-build-your-own-card-redemptions/3a-vince-carterball-fbody-b-8642298
p4390
asg17
g18
sg19
(lp4391
Vhttp://img.beckett.com/images/no-image.jpg
p4392
asg22
V#3a
p4393
sg24
V1999-00
p4394
sg26
g27
sg28
(lp4395
VVince Carter
p4396
aVBall
p4397
aVBody
p4398
assbag1
(g2
g3
Ntp4399
Rp4400
(dp4401
g7
(dp4402
g9
V1999-00 Hoops Build Your Own Card Redemptions #3b Vince Carter/Ball F/Head B
p4403
sg11
I250
sg12
VHoops Build Your Own Card Redemptions
p4404
sg14
(lp4405
Vhttp://www.beckett.com/basketball/1999-00/hoops-build-your-own-card-redemptions/3b-vince-carterball-fhead-b-8642299
p4406
asg17
g18
sg19
(lp4407
Vhttp://img.beckett.com/images/no-image.jpg
p4408
asg22
V#3b
p4409
sg24
V1999-00
p4410
sg26
g27
sg28
(lp4411
VVince Carter
p4412
aVBall
p4413
aVHead
p4414
assbag1
(g2
g3
Ntp4415
Rp4416
(dp4417
g7
(dp4418
g9
V1999-00 Hoops Build Your Own Card Redemptions #3c Vince Carter/Ball F/Horizonal B
p4419
sg11
I250
sg12
VHoops Build Your Own Card Redemptions
p4420
sg14
(lp4421
Vhttp://www.beckett.com/basketball/1999-00/hoops-build-your-own-card-redemptions/3c-vince-carterball-fhorizonal-b-8642300
p4422
asg17
g18
sg19
(lp4423
Vhttp://img.beckett.com/images/no-image.jpg
p4424
asg22
V#3c
p4425
sg24
V1999-00
p4426
sg26
g27
sg28
(lp4427
VVince Carter
p4428
aVBall
p4429
aVHorizonal
p4430
assbag1
(g2
g3
Ntp4431
Rp4432
(dp4433
g7
(dp4434
g9
V1999-00 Hoops Build Your Own Card Redemptions #3d Vince Carter/No Ball F/Body B
p4435
sg11
I250
sg12
VHoops Build Your Own Card Redemptions
p4436
sg14
(lp4437
Vhttp://www.beckett.com/basketball/1999-00/hoops-build-your-own-card-redemptions/3d-vince-carterno-ball-fbody-b-8642301
p4438
asg17
g18
sg19
(lp4439
Vhttp://img.beckett.com/images/no-image.jpg
p4440
asg22
V#3d
p4441
sg24
V1999-00
p4442
sg26
g27
sg28
(lp4443
VVince Carter
p4444
aVBall
p4445
aVBody
p4446
assbag1
(g2
g3
Ntp4447
Rp4448
(dp4449
g7
(dp4450
g9
V1999-00 Hoops Build Your Own Card Redemptions #3e Vince Carter/No Ball F/Head B
p4451
sg11
I250
sg12
VHoops Build Your Own Card Redemptions
p4452
sg14
(lp4453
Vhttp://www.beckett.com/basketball/1999-00/hoops-build-your-own-card-redemptions/3e-vince-carterno-ball-fhead-b-8642302
p4454
asg17
g18
sg19
(lp4455
Vhttp://img.beckett.com/images/no-image.jpg
p4456
asg22
V#3e
p4457
sg24
V1999-00
p4458
sg26
g27
sg28
(lp4459
VVince Carter
p4460
ag4445
aVHead
p4461
assbag1
(g2
g3
Ntp4462
Rp4463
(dp4464
g7
(dp4465
g9
V1999-00 Hoops Build Your Own Card Redemptions #3f Vince Carter/No Ball F/Horizontal B
p4466
sg11
I250
sg12
VHoops Build Your Own Card Redemptions
p4467
sg14
(lp4468
Vhttp://www.beckett.com/basketball/1999-00/hoops-build-your-own-card-redemptions/3f-vince-carterno-ball-fhorizontal-b-8642303
p4469
asg17
g18
sg19
(lp4470
Vhttp://img.beckett.com/images/no-image.jpg
p4471
asg22
V#3f
p4472
sg24
V1999-00
p4473
sg26
g27
sg28
(lp4474
VVince Carter
p4475
ag4445
aVHorizonal
p4476
assbag1
(g2
g3
Ntp4477
Rp4478
(dp4479
g7
(dp4480
g9
V1999-00 Hoops Build Your Own Card Redemptions #3g Vince Carter/Shoot F/Body B
p4481
sg11
I250
sg12
VHoops Build Your Own Card Redemptions
p4482
sg14
(lp4483
Vhttp://www.beckett.com/basketball/1999-00/hoops-build-your-own-card-redemptions/3g-vince-cartershoot-fbody-b-8642304
p4484
asg17
g18
sg19
(lp4485
Vhttp://img.beckett.com/images/no-image.jpg
p4486
asg22
V#3g
p4487
sg24
V1999-00
p4488
sg26
g27
sg28
(lp4489
VVince Carter
p4490
aVShoot
p4491
aVBody
p4492
assbag1
(g2
g3
Ntp4493
Rp4494
(dp4495
g7
(dp4496
g9
V1999-00 Hoops Build Your Own Card Redemptions #3h Vince Carter/Shoot F/Head B
p4497
sg11
I250
sg12
VHoops Build Your Own Card Redemptions
p4498
sg14
(lp4499
Vhttp://www.beckett.com/basketball/1999-00/hoops-build-your-own-card-redemptions/3h-vince-cartershoot-fhead-b-8642305
p4500
asg17
g18
sg19
(lp4501
Vhttp://img.beckett.com/images/no-image.jpg
p4502
asg22
V#3h
p4503
sg24
V1999-00
p4504
sg26
g27
sg28
(lp4505
VVince Carter
p4506
aVShoot
p4507
aVHead
p4508
assbag1
(g2
g3
Ntp4509
Rp4510
(dp4511
g7
(dp4512
g9
V1999-00 Hoops Build Your Own Card Redemptions #3i Vince Carter/Shoot F/Horizontal B
p4513
sg11
I250
sg12
VHoops Build Your Own Card Redemptions
p4514
sg14
(lp4515
Vhttp://www.beckett.com/basketball/1999-00/hoops-build-your-own-card-redemptions/3i-vince-cartershoot-fhorizontal-b-8642306
p4516
asg17
g18
sg19
(lp4517
Vhttp://img.beckett.com/images/no-image.jpg
p4518
asg22
V#3i
p4519
sg24
V1999-00
p4520
sg26
g27
sg28
(lp4521
VVince Carter
p4522
aVShoot
p4523
ag4476
assbag1
(g2
g3
Ntp4524
Rp4525
(dp4526
g7
(dp4527
g9
V1999-00 Hoops Decade Draft Day Dominance Parallel #DD10 Vince Carter
p4528
sg11
I1989
sg12
VHoops Decade Draft Day Dominance Parallel
p4529
sg14
(lp4530
Vhttp://www.beckett.com/basketball/1999-00/hoops-decade-draft-day-dominance-parallel/dd10-vince-carter-3197310
p4531
asg17
g18
sg19
(lp4532
Vhttp://img.beckett.com/images/no-image.jpg
p4533
asg22
V#DD10
p4534
sg24
V1999-00
p4535
sg26
g27
sg28
(lp4536
VVince Carter
p4537
assbag1
(g2
g3
Ntp4538
Rp4539
(dp4540
g7
(dp4541
g9
V1999-00 Hoops Decade Retrospection Collection Parallel #RC4 Vince Carter
p4542
sg11
I89
sg12
VHoops Decade Retrospection Collection Parallel
p4543
sg14
(lp4544
Vhttp://www.beckett.com/basketball/1999-00/hoops-decade-retrospection-collection-parallel/rc4-vince-carter-3197411
p4545
asg17
g18
sg19
(lp4546
Vhttp://img.beckett.com/images/no-image.jpg
p4547
asg22
V#RC4
p4548
sg24
V1999-00
p4549
sg26
g27
sg28
(lp4550
VVince Carter
p4551
assbag1
(g2
g3
Ntp4552
Rp4553
(dp4554
g7
(dp4555
g9
V1999-00 Hoops Decade Up Tempo Parallel #UT8 Vince Carter
p4556
sg11
I1989
sg12
VHoops Decade Up Tempo Parallel
p4557
sg14
(lp4558
Vhttp://www.beckett.com/basketball/1999-00/hoops-decade-up-tempo-parallel/ut8-vince-carter-3197459
p4559
asg17
g18
sg19
(lp4560
Vhttp://img.beckett.com/images/items_stock/185226/3197444/3197459/front.jpg
p4561
asg22
V#UT8
p4562
sg24
V1999-00
p4563
sg26
g27
sg28
(lp4564
VVince Carter
p4565
assbag1
(g2
g3
Ntp4566
Rp4567
(dp4568
g7
(dp4569
g9
V1999-00 SkyBox APEX Cutting Edge Warp Tek #3 Vince Carter
p4570
sg11
I25
sg12
VSkyBox APEX Cutting Edge Warp Tek
p4571
sg14
(lp4572
Vhttp://www.beckett.com/basketball/1999-00/skybox-apex-cutting-edge-warp-tek/3-vince-carter-3196723
p4573
asg17
g18
sg19
(lp4574
Vhttp://img.beckett.com/images/no-image.jpg
p4575
asg22
V#3
p4576
sg24
V1999-00
p4577
sg26
g27
sg28
(lp4578
VVince Carter
p4579
assbag1
(g2
g3
Ntp4580
Rp4581
(dp4582
g7
(dp4583
g9
V1999-00 SkyBox Dominion Sky's the Limit Warp Tek #15 Vince Carter
p4584
sg11
I25
sg12
VSkyBox Dominion Sky's the Limit Warp Tek
p4585
sg14
(lp4586
Vhttp://www.beckett.com/basketball/1999-00/skybox-dominion-skys-the-limit-warp-tek/15-vince-carter-3197271
p4587
asg17
g18
sg19
(lp4588
Vhttp://img.beckett.com/images/no-image.jpg
p4589
asg22
V#15
p4590
sg24
V1999-00
p4591
sg26
g27
sg28
(lp4592
VVince Carter
p4593
assbag1
(g2
g3
Ntp4594
Rp4595
(dp4596
g7
(dp4597
g9
V1999-00 SkyBox Premium Autographics Blue #19 Vince Carter
p4598
sg11
I50
sg12
VSkyBox Premium Autographics Blue
p4599
sg14
(lp4600
Vhttp://www.beckett.com/basketball/1999-00/skybox-premium-autographics-blue/19-vince-carter-3195883
p4601
asg17
g18
sg19
(lp4602
Vhttp://img.beckett.com/images/no-image.jpg
p4603
asg22
V#19
p4604
sg130
I1
sg24
V1999-00
p4605
sg26
g27
sg28
(lp4606
VVince Carter
p4607
assbag1
(g2
g3
Ntp4608
Rp4609
(dp4610
g7
(dp4611
g9
V1999-00 SkyBox Premium Autographics Blue #73 Tracy McGrady
p4612
sg11
I50
sg12
VSkyBox Premium Autographics Blue
p4613
sg14
(lp4614
Vhttp://www.beckett.com/basketball/1999-00/skybox-premium-autographics-blue/73-tracy-mcgrady-3195937
p4615
asg17
g18
sg19
(lp4616
Vhttp://img.beckett.com/images/no-image.jpg
p4617
asg22
V#73
p4618
sg130
I1
sg24
V1999-00
p4619
sg26
g27
sg28
(lp4620
VTracy McGrady
p4621
assbag1
(g2
g3
Ntp4622
Rp4623
(dp4624
g7
(dp4625
g9
V1999-00 SkyBox Premium Autographics Blue #90 Aleksandar Radojevic
p4626
sg11
I50
sg12
VSkyBox Premium Autographics Blue
p4627
sg14
(lp4628
Vhttp://www.beckett.com/basketball/1999-00/skybox-premium-autographics-blue/90-aleksandar-radojevic-3195954
p4629
asg17
g18
sg19
(lp4630
Vhttp://img.beckett.com/images/no-image.jpg
p4631
asg22
V#90
p4632
sg130
I1
sg24
V1999-00
p4633
sg26
g27
sg28
(lp4634
VAleksandar Radojevic
p4635
assbag1
(g2
g3
Ntp4636
Rp4637
(dp4638
g7
(dp4639
g9
V1999-00 SkyBox Premium Good Stuff Parallel #2 Vince Carter
p4640
sg11
I99
sg12
VSkyBox Premium Good Stuff Parallel
p4641
sg14
(lp4642
Vhttp://www.beckett.com/basketball/1999-00/skybox-premium-good-stuff-parallel/2-vince-carter-3196060
p4643
asg17
g18
sg19
(lp4644
Vhttp://img.beckett.com/images/no-image.jpg
p4645
asg22
V#2
p4646
sg24
V1999-00
p4647
sg26
g27
sg28
(lp4648
VVince Carter
p4649
assbag1
(g2
g3
Ntp4650
Rp4651
(dp4652
g7
(dp4653
g9
V1999-00 SP Authentic Sign of the Times Gold #AD Antonio Davis
p4654
sg11
I25
sg12
VSP Authentic Sign of the Times Gold
p4655
sg14
(lp4656
Vhttp://www.beckett.com/basketball/1999-00/sp-authentic-sign-of-the-times-gold/ad-antonio-davis-3192995
p4657
asg17
g18
sg19
(lp4658
Vhttp://img.beckett.com/images/no-image.jpg
p4659
asg22
V#AD
p4660
sg130
I1
sg24
V1999-00
p4661
sg26
g27
sg28
(lp4662
VAntonio Davis
p4663
assbag1
(g2
g3
Ntp4664
Rp4665
(dp4666
g7
(dp4667
g9
V1999-00 SP Authentic Sign of the Times Gold #TR Tracy McGrady
p4668
sg11
I25
sg12
VSP Authentic Sign of the Times Gold
p4669
sg14
(lp4670
Vhttp://www.beckett.com/basketball/1999-00/sp-authentic-sign-of-the-times-gold/tr-tracy-mcgrady-3193048
p4671
asg17
g18
sg19
(lp4672
Vhttp://img.beckett.com/images/no-image.jpg
p4673
asg22
V#TR
p4674
sg130
I1
sg24
V1999-00
p4675
sg26
g27
sg28
(lp4676
VTracy McGrady
p4677
assbag1
(g2
g3
Ntp4678
Rp4679
(dp4680
g7
(dp4681
g9
V1999-00 Stadium Club Never Compromise Game-View #NCG13 Vince Carter
p4682
sg11
I100
sg12
VStadium Club Never Compromise Game-View
p4683
sg14
(lp4684
Vhttp://www.beckett.com/basketball/1999-00/stadium-club-never-compromise-game-view/ncg13-vince-carter-3192147
p4685
asg17
g18
sg19
(lp4686
Vhttp://img.beckett.com/images/no-image.jpg
p4687
asg22
V#NCG13
p4688
sg24
V1999-00
p4689
sg26
g27
sg28
(lp4690
VVince Carter
p4691
assbag1
(g2
g3
Ntp4692
Rp4693
(dp4694
g7
(dp4695
g9
V1999-00 Topps Gold Label New Standard One to One #NS1 Vince Carter
p4696
sg11
I1
sg12
VTopps Gold Label New Standard One to One
p4697
sg14
(lp4698
Vhttp://www.beckett.com/basketball/1999-00/topps-gold-label-new-standard-one-to-one/ns1-vince-carter-3187580
p4699
asg17
g18
sg19
(lp4700
Vhttp://img.beckett.com/images/no-image.jpg
p4701
asg22
V#NS1
p4702
sg24
V1999-00
p4703
sg26
g27
sg28
(lp4704
VVince Carter
p4705
assbag1
(g2
g3
Ntp4706
Rp4707
(dp4708
g7
(dp4709
g9
V1999-00 Topps Gold Label New Standard Red Label #NS1 Vince Carter
p4710
sg11
I25
sg12
VTopps Gold Label New Standard Red Label
p4711
sg14
(lp4712
Vhttp://www.beckett.com/basketball/1999-00/topps-gold-label-new-standard-red-label/ns1-vince-carter-3187604
p4713
asg17
g18
sg19
(lp4714
Vhttp://img.beckett.com/images/no-image.jpg
p4715
asg22
V#NS1
p4716
sg24
V1999-00
p4717
sg26
g27
sg28
(lp4718
VVince Carter
p4719
assbag1
(g2
g3
Ntp4720
Rp4721
(dp4722
g7
(dp4723
g9
V1999-00 Upper Deck High Definition Level 1 #HD3 Vince Carter
p4724
sg11
I100
sg12
VUpper Deck High Definition Level 1
p4725
sg14
(lp4726
Vhttp://www.beckett.com/basketball/1999-00/upper-deck-high-definition-level-1/hd3-vince-carter-3185192
p4727
asg17
g18
sg19
(lp4728
Vhttp://img.beckett.com/images/no-image.jpg
p4729
asg22
V#HD3
p4730
sg24
V1999-00
p4731
sg26
g27
sg28
(lp4732
VVince Carter
p4733
assbag1
(g2
g3
Ntp4734
Rp4735
(dp4736
g7
(dp4737
g9
V1999-00 Upper Deck High Definition Level 2 #HD3 Vince Carter
p4738
sg11
I25
sg12
VUpper Deck High Definition Level 2
p4739
sg14
(lp4740
Vhttp://www.beckett.com/basketball/1999-00/upper-deck-high-definition-level-2/hd3-vince-carter-3185220
p4741
asg17
g18
sg19
(lp4742
Vhttp://img.beckett.com/images/no-image.jpg
p4743
asg22
V#HD3
p4744
sg24
V1999-00
p4745
sg26
g27
sg28
(lp4746
VVince Carter
p4747
assbag1
(g2
g3
Ntp4748
Rp4749
(dp4750
g7
(dp4751
g9
V1999-00 Upper Deck Now Showing Level 1 #NS26 Vince Carter
p4752
sg11
I100
sg12
VUpper Deck Now Showing Level 1
p4753
sg14
(lp4754
Vhttp://www.beckett.com/basketball/1999-00/upper-deck-now-showing-level-1/ns26-vince-carter-3184295
p4755
asg17
g18
sg19
(lp4756
Vhttp://img.beckett.com/images/no-image.jpg
p4757
asg22
V#NS26
p4758
sg24
V1999-00
p4759
sg26
g27
sg28
(lp4760
VVince Carter
p4761
assbag1
(g2
g3
Ntp4762
Rp4763
(dp4764
g7
(dp4765
g9
V1999-00 Upper Deck Now Showing Level 2 #NS26 Vince Carter
p4766
sg11
I25
sg12
VUpper Deck Now Showing Level 2
p4767
sg14
(lp4768
Vhttp://www.beckett.com/basketball/1999-00/upper-deck-now-showing-level-2/ns26-vince-carter-3184333
p4769
asg17
g18
sg19
(lp4770
Vhttp://img.beckett.com/images/no-image.jpg
p4771
asg22
V#NS26
p4772
sg24
V1999-00
p4773
sg26
g27
sg28
(lp4774
VVince Carter
p4775
assbag1
(g2
g3
Ntp4776
Rp4777
(dp4778
g7
(dp4779
g9
V1999-00 Upper Deck Star Surge Level 1 #S4 Vince Carter
p4780
sg11
I100
sg12
VUpper Deck Star Surge Level 1
p4781
sg14
(lp4782
Vhttp://www.beckett.com/basketball/1999-00/upper-deck-star-surge-level-1/s4-vince-carter-3184475
p4783
asg17
g18
sg19
(lp4784
Vhttp://img.beckett.com/images/items_stock/185226/3184464/3184475/front.jpg
p4785
asg22
V#S4
p4786
sg24
V1999-00
p4787
sg26
g27
sg28
(lp4788
VVince Carter
p4789
assbag1
(g2
g3
Ntp4790
Rp4791
(dp4792
g7
(dp4793
g9
V1999-00 Upper Deck Star Surge Level 2 #S4 Vince Carter
p4794
sg11
I25
sg12
VUpper Deck Star Surge Level 2
p4795
sg14
(lp4796
Vhttp://www.beckett.com/basketball/1999-00/upper-deck-star-surge-level-2/s4-vince-carter-3184498
p4797
asg17
g18
sg19
(lp4798
Vhttp://img.beckett.com/images/items_stock/185226/3184487/3184498/front.jpg
p4799
asg22
V#S4
p4800
sg24
V1999-00
p4801
sg26
g27
sg28
(lp4802
VVince Carter
p4803
assbag1
(g2
g3
Ntp4804
Rp4805
(dp4806
g7
(dp4807
g9
V1999-00 Upper Deck Wild! Level 1 #W7 Vince Carter
p4808
sg11
I100
sg12
VUpper Deck Wild! Level 1
p4809
sg14
(lp4810
Vhttp://www.beckett.com/basketball/1999-00/upper-deck-wild-level-1/w7-vince-carter-3184558
p4811
asg17
g18
sg19
(lp4812
Vhttp://img.beckett.com/images/no-image.jpg
p4813
asg22
V#W7
p4814
sg24
V1999-00
p4815
sg26
g27
sg28
(lp4816
VVince Carter
p4817
assbag1
(g2
g3
Ntp4818
Rp4819
(dp4820
g7
(dp4821
g9
V1999-00 Upper Deck Wild! Level 2 #W7 Vince Carter
p4822
sg11
I25
sg12
VUpper Deck Wild! Level 2
p4823
sg14
(lp4824
Vhttp://www.beckett.com/basketball/1999-00/upper-deck-wild-level-2/w7-vince-carter-3184585
p4825
asg17
g18
sg19
(lp4826
Vhttp://img.beckett.com/images/no-image.jpg
p4827
asg22
V#W7
p4828
sg24
V1999-00
p4829
sg26
g27
sg28
(lp4830
VVince Carter
p4831
assbag1
(g2
g3
Ntp4832
Rp4833
(dp4834
g7
(dp4835
g9
V1999-00 Upper Deck Encore Upper Realm F/X #UR4 Vince Carter
p4836
sg11
I150
sg12
VUpper Deck Encore Upper Realm F/X
p4837
sg14
(lp4838
Vhttp://www.beckett.com/basketball/1999-00/upper-deck-encore-upper-realm-fx/ur4-vince-carter-3183286
p4839
asg17
g18
sg19
(lp4840
Vhttp://img.beckett.com/images/no-image.jpg
p4841
asg22
V#UR4
p4842
sg24
V1999-00
p4843
sg26
g27
sg28
(lp4844
VVince Carter
p4845
assbag1
(g2
g3
Ntp4846
Rp4847
(dp4848
g7
(dp4849
g9
V1999-00 Upper Deck Retro Inkredible Level 2 #VC Vince Carter/15
p4850
sg11
I15
sg12
VUpper Deck Retro Inkredible Level 2
p4851
sg14
(lp4852
Vhttp://www.beckett.com/basketball/1999-00/upper-deck-retro-inkredible-level-2/vc-vince-carter15-3180099
p4853
asg17
g18
sg19
(lp4854
Vhttp://img.beckett.com/images/no-image.jpg
p4855
asg22
V#VC
p4856
sg130
I1
sg24
V1999-00
p4857
sg26
g27
sg28
(lp4858
VVince Carter
p4859
assbag1
(g2
g3
Ntp4860
Rp4861
(dp4862
g7
(dp4863
g9
V1999-00 Upper Deck Retro Old School/New School Parallel #S24 Vince Carter
p4864
sg11
I500
sg12
VUpper Deck Retro Old School/New School Parallel
p4865
sg14
(lp4866
Vhttp://www.beckett.com/basketball/1999-00/upper-deck-retro-old-schoolnew-school-parallel/s24-vince-carter-3180189
p4867
asg17
g18
sg19
(lp4868
Vhttp://img.beckett.com/images/no-image.jpg
p4869
asg22
V#S24
p4870
sg24
V1999-00
p4871
sg26
g27
sg28
(lp4872
VVince Carter
p4873
assba.