(lp0
Naccopy_reg
_reconstructor
p1
(ctutorial.items
BeckettItem
p2
c__builtin__
object
p3
Ntp4
Rp5
(dp6
S'_values'
p7
(dp8
S'originalItemDescription'
p9
V1999 Upper Deck Century Legends Century Collection #8 Karl Malone
p10
sS'serialNumber'
p11
I100
sS'setName'
p12
VUpper Deck Century Legends Century Collection
p13
sS'beckettLink'
p14
(lp15
Vhttp://www.beckett.com/basketball/1999/upper-deck-century-legends-century-collection/8-karl-malone-3175438
p16
asS'team'
p17
S'Utah Jazz'
p18
sS'imageLink'
p19
(lp20
Vhttp://img.beckett.com/images/no-image.jpg
p21
asS'cardNumber'
p22
V#8
p23
sS'year'
p24
V1999
p25
sS'sport'
p26
S'Basketball'
p27
sS'playerNames'
p28
(lp29
VKarl Malone
p30
assbag1
(g2
g3
Ntp31
Rp32
(dp33
g7
(dp34
g9
V1999 Upper Deck Century Legends Century Collection #16 John Stockton
p35
sg11
I100
sg12
VUpper Deck Century Legends Century Collection
p36
sg14
(lp37
Vhttp://www.beckett.com/basketball/1999/upper-deck-century-legends-century-collection/16-john-stockton-3175446
p38
asg17
g18
sg19
(lp39
Vhttp://img.beckett.com/images/no-image.jpg
p40
asg22
V#16
p41
sg24
V1999
p42
sg26
g27
sg28
(lp43
VJohn Stockton
p44
assbag1
(g2
g3
Ntp45
Rp46
(dp47
g7
(dp48
g9
V1999-00 E-X #71 Scott Padgett RC
p49
sg11
I3499
sg12
VE-X
p50
sg14
(lp51
Vhttp://www.beckett.com/basketball/1999-00/e-x/71-scott-padgett-rc-3205132
p52
asg17
g18
sS'rookieCard'
p53
I1
sg19
(lp54
Vhttp://img.beckett.com/images/no-image.jpg
p55
asg22
V#71
p56
sg24
V1999-00
p57
sg26
g27
sg28
(lp58
VScott Padgett
p59
assbag1
(g2
g3
Ntp60
Rp61
(dp62
g7
(dp63
g9
V1999-00 E-X #78 Quincy Lewis RC
p64
sg11
I3499
sg12
VE-X
p65
sg14
(lp66
Vhttp://www.beckett.com/basketball/1999-00/e-x/78-quincy-lewis-rc-3205139
p67
asg17
g18
sg53
I1
sg19
(lp68
Vhttp://img.beckett.com/images/no-image.jpg
p69
asg22
V#78
p70
sg24
V1999-00
p71
sg26
g27
sg28
(lp72
VQuincy Lewis
p73
assbag1
(g2
g3
Ntp74
Rp75
(dp76
g7
(dp77
g9
V1999-00 Finest #260 Quincy Lewis RC
p78
sg11
I2000
sg12
VFinest
p79
sg14
(lp80
Vhttp://www.beckett.com/basketball/1999-00/finest/260-quincy-lewis-rc-3203608
p81
asg17
g18
sg53
I1
sg19
(lp82
Vhttp://img.beckett.com/images/no-image.jpg
p83
asg22
V#260
p84
sg24
V1999-00
p85
sg26
g27
sg28
(lp86
VQuincy Lewis
p87
assbag1
(g2
g3
Ntp88
Rp89
(dp90
g7
(dp91
g9
V1999-00 Flair Showcase #128 Quincy Lewis RC
p92
sg11
I2000
sg12
VFlair Showcase
p93
sg14
(lp94
Vhttp://www.beckett.com/basketball/1999-00/flair-showcase/128-quincy-lewis-rc-3202912
p95
asg17
g18
sg53
I1
sg19
(lp96
Vhttp://img.beckett.com/images/no-image.jpg
p97
asg22
V#128
p98
sg24
V1999-00
p99
sg26
g27
sg28
(lp100
VQuincy Lewis
p101
assbag1
(g2
g3
Ntp102
Rp103
(dp104
g7
(dp105
g9
V1999-00 Flair Showcase #129 Scott Padgett RC
p106
sg11
I2000
sg12
VFlair Showcase
p107
sg14
(lp108
Vhttp://www.beckett.com/basketball/1999-00/flair-showcase/129-scott-padgett-rc-3202913
p109
asg17
g18
sg53
I1
sg19
(lp110
Vhttp://img.beckett.com/images/no-image.jpg
p111
asg22
V#129
p112
sg24
V1999-00
p113
sg26
g27
sg28
(lp114
VScott Padgett
p115
assbag1
(g2
g3
Ntp116
Rp117
(dp118
g7
(dp119
g9
V1999-00 Fleer Focus #115 Quincy Lewis RC
p120
sg11
I3000
sg12
VFleer Focus
p121
sg14
(lp122
Vhttp://www.beckett.com/basketball/1999-00/fleer-focus/115-quincy-lewis-rc-3201983
p123
asg17
g18
sg53
I1
sg19
(lp124
Vhttp://img.beckett.com/images/no-image.jpg
p125
asg22
V#115
p126
sg24
V1999-00
p127
sg26
g27
sg28
(lp128
VQuincy Lewis
p129
assbag1
(g2
g3
Ntp130
Rp131
(dp132
g7
(dp133
g9
V1999-00 Fleer Focus #115A Quincy Lewis SP
p134
sg11
I999
sg12
VFleer Focus
p135
sg14
(lp136
Vhttp://www.beckett.com/basketball/1999-00/fleer-focus/115a-quincy-lewis-sp-3201984
p137
asg17
g18
sg19
(lp138
Vhttp://img.beckett.com/images/no-image.jpg
p139
asg22
V#115A
p140
sg24
V1999-00
p141
sS'subsetName'
p142
VSP
p143
sg26
g27
sg28
(lp144
VQuincy Lewis
p145
assbag1
(g2
g3
Ntp146
Rp147
(dp148
g7
(dp149
g9
V1999-00 Fleer Focus #120 Scott Padgett RC
p150
sg11
I3000
sg12
VFleer Focus
p151
sg14
(lp152
Vhttp://www.beckett.com/basketball/1999-00/fleer-focus/120-scott-padgett-rc-3201993
p153
asg17
g18
sg53
I1
sg19
(lp154
Vhttp://img.beckett.com/images/no-image.jpg
p155
asg22
V#120
p156
sg24
V1999-00
p157
sg26
g27
sg28
(lp158
VScott Padgett
p159
assbag1
(g2
g3
Ntp160
Rp161
(dp162
g7
(dp163
g9
V1999-00 Fleer Focus #120A Scott Padgett SP
p164
sg11
I999
sg12
VFleer Focus
p165
sg14
(lp166
Vhttp://www.beckett.com/basketball/1999-00/fleer-focus/120a-scott-padgett-sp-3201994
p167
asg17
g18
sg19
(lp168
Vhttp://img.beckett.com/images/no-image.jpg
p169
asg22
V#120A
p170
sg24
V1999-00
p171
sg142
VSP
p172
sg26
g27
sg28
(lp173
VScott Padgett
p174
assbag1
(g2
g3
Ntp175
Rp176
(dp177
g7
(dp178
g9
V1999-00 Fleer Force #227 Quincy Lewis RC
p179
sg11
I1600
sg12
VFleer Force
p180
sg14
(lp181
Vhttp://www.beckett.com/basketball/1999-00/fleer-force/227-quincy-lewis-rc-3200301
p182
asg17
g18
sg53
I1
sg19
(lp183
Vhttp://img.beckett.com/images/items_stock/185226/3200062/3200301/front.jpg
p184
asg22
V#227
p185
sg24
V1999-00
p186
sg26
g27
sg28
(lp187
VQuincy Lewis
p188
assbag1
(g2
g3
Ntp189
Rp190
(dp191
g7
(dp192
g9
V1999-00 Fleer Force #230 Scott Padgett RC
p193
sg11
I1600
sg12
VFleer Force
p194
sg14
(lp195
Vhttp://www.beckett.com/basketball/1999-00/fleer-force/230-scott-padgett-rc-3200304
p196
asg17
g18
sg53
I1
sg19
(lp197
Vhttp://img.beckett.com/images/items_stock/185226/3200062/3200304/front.jpg
p198
asg22
V#230
p199
sg24
V1999-00
p200
sg26
g27
sg28
(lp201
VScott Padgett
p202
assbag1
(g2
g3
Ntp203
Rp204
(dp205
g7
(dp206
g9
V1999-00 Fleer Mystique #115 Scott Padgett RC
p207
sg11
I2999
sg12
VFleer Mystique
p208
sg14
(lp209
Vhttp://www.beckett.com/basketball/1999-00/fleer-mystique/115-scott-padgett-rc-3198449
p210
asg17
g18
sg53
I1
sg19
(lp211
Vhttp://img.beckett.com/images/items_stock/185226/3198320/3198449/front.jpg
p212
asg22
V#115
p213
sg24
V1999-00
p214
sg26
g27
sg28
(lp215
VScott Padgett
p216
assbag1
(g2
g3
Ntp217
Rp218
(dp219
g7
(dp220
g9
V1999-00 Fleer Mystique #119 Quincy Lewis RC
p221
sg11
I2999
sg12
VFleer Mystique
p222
sg14
(lp223
Vhttp://www.beckett.com/basketball/1999-00/fleer-mystique/119-quincy-lewis-rc-3198453
p224
asg17
g18
sg53
I1
sg19
(lp225
Vhttp://img.beckett.com/images/items_stock/185226/3198320/3198453/front.jpg
p226
asg22
V#119
p227
sg24
V1999-00
p228
sg26
g27
sg28
(lp229
VQuincy Lewis
p230
assbag1
(g2
g3
Ntp231
Rp232
(dp233
g7
(dp234
g9
V1999-00 SP Authentic #107 Quincy Lewis RC
p235
sg11
I1500
sg12
VSP Authentic
p236
sg14
(lp237
Vhttp://www.beckett.com/basketball/1999-00/sp-authentic/107-quincy-lewis-rc-3196252
p238
asg17
g18
sg53
I1
sg19
(lp239
Vhttp://img.beckett.com/images/no-image.jpg
p240
asg22
V#107
p241
sg24
V1999-00
p242
sg26
g27
sg28
(lp243
VQuincy Lewis
p244
assbag1
(g2
g3
Ntp245
Rp246
(dp247
g7
(dp248
g9
V1999-00 SP Authentic #114 Scott Padgett RC
p249
sg11
I1500
sg12
VSP Authentic
p250
sg14
(lp251
Vhttp://www.beckett.com/basketball/1999-00/sp-authentic/114-scott-padgett-rc-3196259
p252
asg17
g18
sg53
I1
sg19
(lp253
Vhttp://img.beckett.com/images/no-image.jpg
p254
asg22
V#114
p255
sg24
V1999-00
p256
sg26
g27
sg28
(lp257
VScott Padgett
p258
assbag1
(g2
g3
Ntp259
Rp260
(dp261
g7
(dp262
g9
V1999-00 SPx #109 Quincy Lewis AU/2500 RC
p263
sg11
I2500
sg12
VSPx
p264
sg14
(lp265
Vhttp://www.beckett.com/basketball/1999-00/spx/109-quincy-lewis-au2500-rc-3193189
p266
asg17
g18
sg53
I1
sg19
(lp267
Vhttp://img.beckett.com/images/items_stock/185226/3193067/3193189/front.jpg
p268
asg22
V#109
p269
sS'autograph'
p270
I1
sg24
V1999-00
p271
sg26
g27
sg28
(lp272
VQuincy Lewis
p273
assbag1
(g2
g3
Ntp274
Rp275
(dp276
g7
(dp277
g9
V1999-00 SPx #114 Scott Padgett AU/2500 RC
p278
sg11
I2500
sg12
VSPx
p279
sg14
(lp280
Vhttp://www.beckett.com/basketball/1999-00/spx/114-scott-padgett-au2500-rc-3193194
p281
asg17
g18
sg53
I1
sg19
(lp282
Vhttp://img.beckett.com/images/items_stock/185226/3193067/3193194/front.jpg
p283
asg22
V#114
p284
sg270
I1
sg24
V1999-00
p285
sg26
g27
sg28
(lp286
VScott Padgett
p287
assbag1
(g2
g3
Ntp288
Rp289
(dp290
g7
(dp291
g9
V1999-00 UD Ionix #78 Quincy Lewis RC
p292
sg11
I3500
sg12
VUD Ionix
p293
sg14
(lp294
Vhttp://www.beckett.com/basketball/1999-00/ud-ionix/78-quincy-lewis-rc-3188008
p295
asg17
g18
sg53
I1
sg19
(lp296
Vhttp://img.beckett.com/images/items_stock/185226/3187919/3188008/front.jpg
p297
asg22
V#78
p298
sg24
V1999-00
p299
sg26
g27
sg28
(lp300
VQuincy Lewis
p301
assbag1
(g2
g3
Ntp302
Rp303
(dp304
g7
(dp305
g9
V1999-00 UD Ionix #86 Scott Padgett RC
p306
sg11
I3500
sg12
VUD Ionix
p307
sg14
(lp308
Vhttp://www.beckett.com/basketball/1999-00/ud-ionix/86-scott-padgett-rc-3188016
p309
asg17
g18
sg53
I1
sg19
(lp310
Vhttp://img.beckett.com/images/items_stock/185226/3187919/3188016/front.jpg
p311
asg22
V#86
p312
sg24
V1999-00
p313
sg26
g27
sg28
(lp314
VScott Padgett
p315
assbag1
(g2
g3
Ntp316
Rp317
(dp318
g7
(dp319
g9
V1999-00 Upper Deck Encore #108 Quincy Lewis RC
p320
sg11
I1999
sg12
VUpper Deck Encore
p321
sg14
(lp322
Vhttp://www.beckett.com/basketball/1999-00/upper-deck-encore/108-quincy-lewis-rc-3184717
p323
asg17
g18
sg53
I1
sg19
(lp324
Vhttp://img.beckett.com/images/items_stock/185226/3184598/3184717/front.jpg
p325
asg22
V#108
p326
sg24
V1999-00
p327
sg26
g27
sg28
(lp328
VQuincy Lewis
p329
assbag1
(g2
g3
Ntp330
Rp331
(dp332
g7
(dp333
g9
V1999-00 Upper Deck Gold Reserve #258 Quincy Lewis RC
p334
sg11
I3500
sg12
VUpper Deck Gold Reserve
p335
sg14
(lp336
Vhttp://www.beckett.com/basketball/1999-00/upper-deck-gold-reserve/258-quincy-lewis-rc-3183562
p337
asg17
g18
sg53
I1
sg19
(lp338
Vhttp://img.beckett.com/images/items_stock/185226/3183293/3183562/front.jpg
p339
asg22
V#258
p340
sg24
V1999-00
p341
sg26
g27
sg28
(lp342
VQuincy Lewis
p343
assbag1
(g2
g3
Ntp344
Rp345
(dp346
g7
(dp347
g9
V1999-00 Upper Deck Gold Reserve #266 Scott Padgett RC
p348
sg11
I3500
sg12
VUpper Deck Gold Reserve
p349
sg14
(lp350
Vhttp://www.beckett.com/basketball/1999-00/upper-deck-gold-reserve/266-scott-padgett-rc-3183570
p351
asg17
g18
sg53
I1
sg19
(lp352
Vhttp://img.beckett.com/images/items_stock/185226/3183293/3183570/front.jpg
p353
asg22
V#266
p354
sg24
V1999-00
p355
sg26
g27
sg28
(lp356
VScott Padgett
p357
assbag1
(g2
g3
Ntp358
Rp359
(dp360
g7
(dp361
g9
V1999-00 Black Diamond Final Cut #82 Karl Malone
p362
sg11
I100
sg12
VBlack Diamond Final Cut
p363
sg14
(lp364
Vhttp://www.beckett.com/basketball/1999-00/black-diamond-final-cut/82-karl-malone-3205756
p365
asg17
g18
sg19
(lp366
Vhttp://img.beckett.com/images/no-image.jpg
p367
asg22
V#82
p368
sg24
V1999-00
p369
sg26
g27
sg28
(lp370
VKarl Malone
p371
assbag1
(g2
g3
Ntp372
Rp373
(dp374
g7
(dp375
g9
V1999-00 Black Diamond Final Cut #83 John Stockton
p376
sg11
I100
sg12
VBlack Diamond Final Cut
p377
sg14
(lp378
Vhttp://www.beckett.com/basketball/1999-00/black-diamond-final-cut/83-john-stockton-3205757
p379
asg17
g18
sg19
(lp380
Vhttp://img.beckett.com/images/no-image.jpg
p381
asg22
V#83
p382
sg24
V1999-00
p383
sg26
g27
sg28
(lp384
VJohn Stockton
p385
assbag1
(g2
g3
Ntp386
Rp387
(dp388
g7
(dp389
g9
V1999-00 Black Diamond Final Cut #84 Bryon Russell
p390
sg11
I100
sg12
VBlack Diamond Final Cut
p391
sg14
(lp392
Vhttp://www.beckett.com/basketball/1999-00/black-diamond-final-cut/84-bryon-russell-3205758
p393
asg17
g18
sg19
(lp394
Vhttp://img.beckett.com/images/no-image.jpg
p395
asg22
V#84
p396
sg24
V1999-00
p397
sg26
g27
sg28
(lp398
VBryon Russell
p399
assbag1
(g2
g3
Ntp400
Rp401
(dp402
g7
(dp403
g9
V1999-00 Black Diamond Final Cut #108 Quincy Lewis
p404
sg11
I50
sg12
VBlack Diamond Final Cut
p405
sg14
(lp406
Vhttp://www.beckett.com/basketball/1999-00/black-diamond-final-cut/108-quincy-lewis-3205782
p407
asg17
g18
sg19
(lp408
Vhttp://img.beckett.com/images/no-image.jpg
p409
asg22
V#108
p410
sg24
V1999-00
p411
sg26
g27
sg28
(lp412
VQuincy Lewis
p413
assbag1
(g2
g3
Ntp414
Rp415
(dp416
g7
(dp417
g9
V1999-00 Black Diamond Final Cut #116 Scott Padgett
p418
sg11
I50
sg12
VBlack Diamond Final Cut
p419
sg14
(lp420
Vhttp://www.beckett.com/basketball/1999-00/black-diamond-final-cut/116-scott-padgett-3205790
p421
asg17
g18
sg19
(lp422
Vhttp://img.beckett.com/images/no-image.jpg
p423
asg22
V#116
p424
sg24
V1999-00
p425
sg26
g27
sg28
(lp426
VScott Padgett
p427
assbag1
(g2
g3
Ntp428
Rp429
(dp430
g7
(dp431
g9
V1999-00 Bowman's Best Atomic Refractors #12 Jeff Hornacek
p432
sg11
I100
sg12
VBowman's Best Atomic Refractors
p433
sg14
(lp434
Vhttp://www.beckett.com/basketball/1999-00/bowmans-best-atomic-refractors/12-jeff-hornacek-3204799
p435
asg17
g18
sg19
(lp436
Vhttp://img.beckett.com/images/no-image.jpg
p437
asg22
V#12
p438
sg24
V1999-00
p439
sg26
g27
sg28
(lp440
VJeff Hornacek
p441
assbag1
(g2
g3
Ntp442
Rp443
(dp444
g7
(dp445
g9
V1999-00 Bowman's Best Atomic Refractors #32 John Stockton
p446
sg11
I100
sg12
VBowman's Best Atomic Refractors
p447
sg14
(lp448
Vhttp://www.beckett.com/basketball/1999-00/bowmans-best-atomic-refractors/32-john-stockton-3204819
p449
asg17
g18
sg19
(lp450
Vhttp://img.beckett.com/images/no-image.jpg
p451
asg22
V#32
p452
sg24
V1999-00
p453
sg26
g27
sg28
(lp454
VJohn Stockton
p455
assbag1
(g2
g3
Ntp456
Rp457
(dp458
g7
(dp459
g9
V1999-00 Bowman's Best Atomic Refractors #70 Karl Malone
p460
sg11
I100
sg12
VBowman's Best Atomic Refractors
p461
sg14
(lp462
Vhttp://www.beckett.com/basketball/1999-00/bowmans-best-atomic-refractors/70-karl-malone-3204857
p463
asg17
g18
sg19
(lp464
Vhttp://img.beckett.com/images/no-image.jpg
p465
asg22
V#70
p466
sg24
V1999-00
p467
sg26
g27
sg28
(lp468
VKarl Malone
p469
assbag1
(g2
g3
Ntp470
Rp471
(dp472
g7
(dp473
g9
V1999-00 Bowman's Best Atomic Refractors #119 Quincy Lewis
p474
sg11
I100
sg12
VBowman's Best Atomic Refractors
p475
sg14
(lp476
Vhttp://www.beckett.com/basketball/1999-00/bowmans-best-atomic-refractors/119-quincy-lewis-3204906
p477
asg17
g18
sg19
(lp478
Vhttp://img.beckett.com/images/no-image.jpg
p479
asg22
V#119
p480
sg24
V1999-00
p481
sg26
g27
sg28
(lp482
VQuincy Lewis
p483
assbag1
(g2
g3
Ntp484
Rp485
(dp486
g7
(dp487
g9
V1999-00 Bowman's Best Atomic Refractors #127 Scott Padgett
p488
sg11
I100
sg12
VBowman's Best Atomic Refractors
p489
sg14
(lp490
Vhttp://www.beckett.com/basketball/1999-00/bowmans-best-atomic-refractors/127-scott-padgett-3204914
p491
asg17
g18
sg19
(lp492
Vhttp://img.beckett.com/images/no-image.jpg
p493
asg22
V#127
p494
sg24
V1999-00
p495
sg26
g27
sg28
(lp496
VScott Padgett
p497
assbag1
(g2
g3
Ntp498
Rp499
(dp500
g7
(dp501
g9
V1999-00 Bowman's Best Refractors #12 Jeff Hornacek
p502
sg11
I400
sg12
VBowman's Best Refractors
p503
sg14
(lp504
Vhttp://www.beckett.com/basketball/1999-00/bowmans-best-refractors/12-jeff-hornacek-3204657
p505
asg17
g18
sg19
(lp506
Vhttp://img.beckett.com/images/no-image.jpg
p507
asg22
V#12
p508
sg24
V1999-00
p509
sg26
g27
sg28
(lp510
VJeff Hornacek
p511
assbag1
(g2
g3
Ntp512
Rp513
(dp514
g7
(dp515
g9
V1999-00 Bowman's Best Refractors #32 John Stockton
p516
sg11
I400
sg12
VBowman's Best Refractors
p517
sg14
(lp518
Vhttp://www.beckett.com/basketball/1999-00/bowmans-best-refractors/32-john-stockton-3204677
p519
asg17
g18
sg19
(lp520
Vhttp://img.beckett.com/images/items_stock/185226/3204637/3204677/front.jpg
p521
asg22
V#32
p522
sg24
V1999-00
p523
sg26
g27
sg28
(lp524
VJohn Stockton
p525
assbag1
(g2
g3
Ntp526
Rp527
(dp528
g7
(dp529
g9
V1999-00 Bowman's Best Refractors #70 Karl Malone
p530
sg11
I400
sg12
VBowman's Best Refractors
p531
sg14
(lp532
Vhttp://www.beckett.com/basketball/1999-00/bowmans-best-refractors/70-karl-malone-3204715
p533
asg17
g18
sg19
(lp534
Vhttp://img.beckett.com/images/no-image.jpg
p535
asg22
V#70
p536
sg24
V1999-00
p537
sg26
g27
sg28
(lp538
VKarl Malone
p539
assbag1
(g2
g3
Ntp540
Rp541
(dp542
g7
(dp543
g9
V1999-00 Bowman's Best Refractors #119 Quincy Lewis
p544
sg11
I400
sg12
VBowman's Best Refractors
p545
sg14
(lp546
Vhttp://www.beckett.com/basketball/1999-00/bowmans-best-refractors/119-quincy-lewis-3204764
p547
asg17
g18
sg19
(lp548
Vhttp://img.beckett.com/images/items_stock/185226/3204637/3204764/front.jpg
p549
asg22
V#119
p550
sg24
V1999-00
p551
sg26
g27
sg28
(lp552
VQuincy Lewis
p553
assbag1
(g2
g3
Ntp554
Rp555
(dp556
g7
(dp557
g9
V1999-00 Bowman's Best Refractors #127 Scott Padgett
p558
sg11
I400
sg12
VBowman's Best Refractors
p559
sg14
(lp560
Vhttp://www.beckett.com/basketball/1999-00/bowmans-best-refractors/127-scott-padgett-3204772
p561
asg17
g18
sg19
(lp562
Vhttp://img.beckett.com/images/items_stock/185226/3204637/3204772/front.jpg
p563
asg22
V#127
p564
sg24
V1999-00
p565
sg26
g27
sg28
(lp566
VScott Padgett
p567
assbag1
(g2
g3
Ntp568
Rp569
(dp570
g7
(dp571
g9
V1999-00 Finest Refractors #260 Quincy Lewis
p572
sg11
I200
sg12
VFinest Refractors
p573
sg14
(lp574
Vhttp://www.beckett.com/basketball/1999-00/finest-refractors/260-quincy-lewis-3203891
p575
asg17
g18
sg19
(lp576
Vhttp://img.beckett.com/images/no-image.jpg
p577
asg22
V#260
p578
sg24
V1999-00
p579
sg26
g27
sg28
(lp580
VQuincy Lewis
p581
assbag1
(g2
g3
Ntp582
Rp583
(dp584
g7
(dp585
g9
V1999-00 Finest Refractors Gold #55 Bryon Russell
p586
sg11
I100
sg12
VFinest Refractors Gold
p587
sg14
(lp588
Vhttp://www.beckett.com/basketball/1999-00/finest-refractors-gold/55-bryon-russell-3203967
p589
asg17
g18
sg19
(lp590
Vhttp://img.beckett.com/images/no-image.jpg
p591
asg22
V#55
p592
sg24
V1999-00
p593
sg26
g27
sg28
(lp594
VBryon Russell
p595
assbag1
(g2
g3
Ntp596
Rp597
(dp598
g7
(dp599
g9
V1999-00 Finest Refractors Gold #82 Howard Eisley
p600
sg11
I100
sg12
VFinest Refractors Gold
p601
sg14
(lp602
Vhttp://www.beckett.com/basketball/1999-00/finest-refractors-gold/82-howard-eisley-3203994
p603
asg17
g18
sg19
(lp604
Vhttp://img.beckett.com/images/no-image.jpg
p605
asg22
V#82
p606
sg24
V1999-00
p607
sg26
g27
sg28
(lp608
VHoward Eisley
p609
assbag1
(g2
g3
Ntp610
Rp611
(dp612
g7
(dp613
g9
V1999-00 Finest Refractors Gold #85 John Stockton
p614
sg11
I100
sg12
VFinest Refractors Gold
p615
sg14
(lp616
Vhttp://www.beckett.com/basketball/1999-00/finest-refractors-gold/85-john-stockton-3203997
p617
asg17
g18
sg19
(lp618
Vhttp://img.beckett.com/images/no-image.jpg
p619
asg22
V#85
p620
sg24
V1999-00
p621
sg26
g27
sg28
(lp622
VJohn Stockton
p623
assbag1
(g2
g3
Ntp624
Rp625
(dp626
g7
(dp627
g9
V1999-00 Finest Refractors Gold #108 Karl Malone GEM
p628
sg11
I100
sg12
VFinest Refractors Gold
p629
sg14
(lp630
Vhttp://www.beckett.com/basketball/1999-00/finest-refractors-gold/108-karl-malone-gem-3204020
p631
asg17
g18
sg19
(lp632
Vhttp://img.beckett.com/images/no-image.jpg
p633
asg22
V#108
p634
sg24
V1999-00
p635
sg142
VGEM
p636
sg26
g27
sg28
(lp637
VKarl Malone
p638
assbag1
(g2
g3
Ntp639
Rp640
(dp641
g7
(dp642
g9
V1999-00 Finest Refractors Gold #109 John Stockton GEM
p643
sg11
I100
sg12
VFinest Refractors Gold
p644
sg14
(lp645
Vhttp://www.beckett.com/basketball/1999-00/finest-refractors-gold/109-john-stockton-gem-3204021
p646
asg17
g18
sg19
(lp647
Vhttp://img.beckett.com/images/no-image.jpg
p648
asg22
V#109
p649
sg24
V1999-00
p650
sg142
VGEM
p651
sg26
g27
sg28
(lp652
VJohn Stockton
p653
assbag1
(g2
g3
Ntp654
Rp655
(dp656
g7
(dp657
g9
V1999-00 Finest Refractors Gold #124 Scott Padgett
p658
sg11
I100
sg12
VFinest Refractors Gold
p659
sg14
(lp660
Vhttp://www.beckett.com/basketball/1999-00/finest-refractors-gold/124-scott-padgett-3204036
p661
asg17
g18
sg19
(lp662
Vhttp://img.beckett.com/images/no-image.jpg
p663
asg22
V#124
p664
sg24
V1999-00
p665
sg26
g27
sg28
(lp666
VScott Padgett
p667
assbag1
(g2
g3
Ntp668
Rp669
(dp670
g7
(dp671
g9
V1999-00 Finest Refractors Gold #154 Shandon Anderson
p672
sg11
I100
sg12
VFinest Refractors Gold
p673
sg14
(lp674
Vhttp://www.beckett.com/basketball/1999-00/finest-refractors-gold/154-shandon-anderson-3204066
p675
asg17
g18
sg19
(lp676
Vhttp://img.beckett.com/images/items_stock/185226/3203898/3204066/front.jpg
p677
asg22
V#154
p678
sg24
V1999-00
p679
sg26
g27
sg28
(lp680
VShandon Anderson
p681
assbag1
(g2
g3
Ntp682
Rp683
(dp684
g7
(dp685
g9
V1999-00 Finest Refractors Gold #173 Jeff Hornacek
p686
sg11
I100
sg12
VFinest Refractors Gold
p687
sg14
(lp688
Vhttp://www.beckett.com/basketball/1999-00/finest-refractors-gold/173-jeff-hornacek-3204085
p689
asg17
g18
sg19
(lp690
Vhttp://img.beckett.com/images/no-image.jpg
p691
asg22
V#173
p692
sg24
V1999-00
p693
sg26
g27
sg28
(lp694
VJeff Hornacek
p695
assbag1
(g2
g3
Ntp696
Rp697
(dp698
g7
(dp699
g9
V1999-00 Finest Refractors Gold #192 Karl Malone
p700
sg11
I100
sg12
VFinest Refractors Gold
p701
sg14
(lp702
Vhttp://www.beckett.com/basketball/1999-00/finest-refractors-gold/192-karl-malone-3204104
p703
asg17
g18
sg19
(lp704
Vhttp://img.beckett.com/images/no-image.jpg
p705
asg22
V#192
p706
sg24
V1999-00
p707
sg26
g27
sg28
(lp708
VKarl Malone
p709
assbag1
(g2
g3
Ntp710
Rp711
(dp712
g7
(dp713
g9
V1999-00 Finest Refractors Gold #234 Karl Malone CAT
p714
sg11
I100
sg12
VFinest Refractors Gold
p715
sg14
(lp716
Vhttp://www.beckett.com/basketball/1999-00/finest-refractors-gold/234-karl-malone-cat-3204146
p717
asg17
g18
sg19
(lp718
Vhttp://img.beckett.com/images/no-image.jpg
p719
asg22
V#234
p720
sg24
V1999-00
p721
sg142
VCAT
p722
sg26
g27
sg28
(lp723
VKarl Malone
p724
assbag1
(g2
g3
Ntp725
Rp726
(dp727
g7
(dp728
g9
V1999-00 Finest Refractors Gold #260 Quincy Lewis
p729
sg11
I100
sg12
VFinest Refractors Gold
p730
sg14
(lp731
Vhttp://www.beckett.com/basketball/1999-00/finest-refractors-gold/260-quincy-lewis-3204172
p732
asg17
g18
sg19
(lp733
Vhttp://img.beckett.com/images/no-image.jpg
p734
asg22
V#260
p735
sg24
V1999-00
p736
sg26
g27
sg28
(lp737
VQuincy Lewis
p738
assbag1
(g2
g3
Ntp739
Rp740
(dp741
g7
(dp742
g9
V1999-00 Flair Showcase Legacy Collection #16 Bryon Russell
p743
sg11
I20
sg12
VFlair Showcase Legacy Collection
p744
sg14
(lp745
Vhttp://www.beckett.com/basketball/1999-00/flair-showcase-legacy-collection/16-bryon-russell-3202940
p746
asg17
g18
sg19
(lp747
Vhttp://img.beckett.com/images/no-image.jpg
p748
asg22
V#16
p749
sg24
V1999-00
p750
sg26
g27
sg28
(lp751
VBryon Russell
p752
assbag1
(g2
g3
Ntp753
Rp754
(dp755
g7
(dp756
g9
V1999-00 Flair Showcase Legacy Collection #57 Karl Malone
p757
sg11
I20
sg12
VFlair Showcase Legacy Collection
p758
sg14
(lp759
Vhttp://www.beckett.com/basketball/1999-00/flair-showcase-legacy-collection/57-karl-malone-3202981
p760
asg17
g18
sg19
(lp761
Vhttp://img.beckett.com/images/no-image.jpg
p762
asg22
V#57
p763
sg24
V1999-00
p764
sg26
g27
sg28
(lp765
VKarl Malone
p766
assbag1
(g2
g3
Ntp767
Rp768
(dp769
g7
(dp770
g9
V1999-00 Flair Showcase Legacy Collection #88 John Stockton
p771
sg11
I20
sg12
VFlair Showcase Legacy Collection
p772
sg14
(lp773
Vhttp://www.beckett.com/basketball/1999-00/flair-showcase-legacy-collection/88-john-stockton-3203012
p774
asg17
g18
sg19
(lp775
Vhttp://img.beckett.com/images/no-image.jpg
p776
asg22
V#88
p777
sg24
V1999-00
p778
sg26
g27
sg28
(lp779
VJohn Stockton
p780
assbag1
(g2
g3
Ntp781
Rp782
(dp783
g7
(dp784
g9
V1999-00 Flair Showcase Legacy Collection #128 Quincy Lewis
p785
sg11
I20
sg12
VFlair Showcase Legacy Collection
p786
sg14
(lp787
Vhttp://www.beckett.com/basketball/1999-00/flair-showcase-legacy-collection/128-quincy-lewis-3203052
p788
asg17
g18
sg19
(lp789
Vhttp://img.beckett.com/images/no-image.jpg
p790
asg22
V#128
p791
sg24
V1999-00
p792
sg26
g27
sg28
(lp793
VQuincy Lewis
p794
assbag1
(g2
g3
Ntp795
Rp796
(dp797
g7
(dp798
g9
V1999-00 Flair Showcase Legacy Collection #129 Scott Padgett
p799
sg11
I20
sg12
VFlair Showcase Legacy Collection
p800
sg14
(lp801
Vhttp://www.beckett.com/basketball/1999-00/flair-showcase-legacy-collection/129-scott-padgett-3203053
p802
asg17
g18
sg19
(lp803
Vhttp://img.beckett.com/images/no-image.jpg
p804
asg22
V#129
p805
sg24
V1999-00
p806
sg26
g27
sg28
(lp807
VScott Padgett
p808
assbag1
(g2
g3
Ntp809
Rp810
(dp811
g7
(dp812
g9
V1999-00 Flair Showcase Masterpiece #16 Bryon Russell
p813
sg11
I1
sg12
VFlair Showcase Masterpiece
p814
sg14
(lp815
Vhttp://www.beckett.com/basketball/1999-00/flair-showcase-masterpiece/16-bryon-russell-3203075
p816
asg17
g18
sg19
(lp817
Vhttp://img.beckett.com/images/no-image.jpg
p818
asg22
V#16
p819
sg24
V1999-00
p820
sg26
g27
sg28
(lp821
VBryon Russell
p822
assbag1
(g2
g3
Ntp823
Rp824
(dp825
g7
(dp826
g9
V1999-00 Flair Showcase Masterpiece #57 Karl Malone
p827
sg11
I1
sg12
VFlair Showcase Masterpiece
p828
sg14
(lp829
Vhttp://www.beckett.com/basketball/1999-00/flair-showcase-masterpiece/57-karl-malone-3203116
p830
asg17
g18
sg19
(lp831
Vhttp://img.beckett.com/images/no-image.jpg
p832
asg22
V#57
p833
sg24
V1999-00
p834
sg26
g27
sg28
(lp835
VKarl Malone
p836
assbag1
(g2
g3
Ntp837
Rp838
(dp839
g7
(dp840
g9
V1999-00 Flair Showcase Masterpiece #88 John Stockton
p841
sg11
I1
sg12
VFlair Showcase Masterpiece
p842
sg14
(lp843
Vhttp://www.beckett.com/basketball/1999-00/flair-showcase-masterpiece/88-john-stockton-3203147
p844
asg17
g18
sg19
(lp845
Vhttp://img.beckett.com/images/no-image.jpg
p846
asg22
V#88
p847
sg24
V1999-00
p848
sg26
g27
sg28
(lp849
VJohn Stockton
p850
assbag1
(g2
g3
Ntp851
Rp852
(dp853
g7
(dp854
g9
V1999-00 Flair Showcase Masterpiece #128 Quincy Lewis
p855
sg11
I1
sg12
VFlair Showcase Masterpiece
p856
sg14
(lp857
Vhttp://www.beckett.com/basketball/1999-00/flair-showcase-masterpiece/128-quincy-lewis-3203187
p858
asg17
g18
sg19
(lp859
Vhttp://img.beckett.com/images/no-image.jpg
p860
asg22
V#128
p861
sg24
V1999-00
p862
sg26
g27
sg28
(lp863
VQuincy Lewis
p864
assbag1
(g2
g3
Ntp865
Rp866
(dp867
g7
(dp868
g9
V1999-00 Flair Showcase Masterpiece #129 Scott Padgett
p869
sg11
I1
sg12
VFlair Showcase Masterpiece
p870
sg14
(lp871
Vhttp://www.beckett.com/basketball/1999-00/flair-showcase-masterpiece/129-scott-padgett-3203188
p872
asg17
g18
sg19
(lp873
Vhttp://img.beckett.com/images/no-image.jpg
p874
asg22
V#129
p875
sg24
V1999-00
p876
sg26
g27
sg28
(lp877
VScott Padgett
p878
assbag1
(g2
g3
Ntp879
Rp880
(dp881
g7
(dp882
g9
V1999-00 Fleer Supreme Court Collection #31 John Stockton
p883
sg11
I20
sg12
VFleer Supreme Court Collection
p884
sg14
(lp885
Vhttp://www.beckett.com/basketball/1999-00/fleer-supreme-court-collection/31-john-stockton-3201537
p886
asg17
g18
sg19
(lp887
Vhttp://img.beckett.com/images/no-image.jpg
p888
asg22
V#31
p889
sg24
V1999-00
p890
sg26
g27
sg28
(lp891
VJohn Stockton
p892
assbag1
(g2
g3
Ntp893
Rp894
(dp895
g7
(dp896
g9
V1999-00 Fleer Supreme Court Collection #37 Shandon Anderson
p897
sg11
I20
sg12
VFleer Supreme Court Collection
p898
sg14
(lp899
Vhttp://www.beckett.com/basketball/1999-00/fleer-supreme-court-collection/37-shandon-anderson-3201543
p900
asg17
g18
sg19
(lp901
Vhttp://img.beckett.com/images/no-image.jpg
p902
asg22
V#37
p903
sg24
V1999-00
p904
sg26
g27
sg28
(lp905
VShandon Anderson
p906
assbag1
(g2
g3
Ntp907
Rp908
(dp909
g7
(dp910
g9
V1999-00 Fleer Supreme Court Collection #67 Howard Eisley
p911
sg11
I20
sg12
VFleer Supreme Court Collection
p912
sg14
(lp913
Vhttp://www.beckett.com/basketball/1999-00/fleer-supreme-court-collection/67-howard-eisley-3201573
p914
asg17
g18
sg19
(lp915
Vhttp://img.beckett.com/images/no-image.jpg
p916
asg22
V#67
p917
sg24
V1999-00
p918
sg26
g27
sg28
(lp919
VHoward Eisley
p920
assbag1
(g2
g3
Ntp921
Rp922
(dp923
g7
(dp924
g9
V1999-00 Fleer Supreme Court Collection #97 Jeff Hornacek
p925
sg11
I20
sg12
VFleer Supreme Court Collection
p926
sg14
(lp927
Vhttp://www.beckett.com/basketball/1999-00/fleer-supreme-court-collection/97-jeff-hornacek-3201603
p928
asg17
g18
sg19
(lp929
Vhttp://img.beckett.com/images/no-image.jpg
p930
asg22
V#97
p931
sg24
V1999-00
p932
sg26
g27
sg28
(lp933
VJeff Hornacek
p934
assbag1
(g2
g3
Ntp935
Rp936
(dp937
g7
(dp938
g9
V1999-00 Fleer Supreme Court Collection #126 Karl Malone
p939
sg11
I20
sg12
VFleer Supreme Court Collection
p940
sg14
(lp941
Vhttp://www.beckett.com/basketball/1999-00/fleer-supreme-court-collection/126-karl-malone-3201632
p942
asg17
g18
sg19
(lp943
Vhttp://img.beckett.com/images/no-image.jpg
p944
asg22
V#126
p945
sg24
V1999-00
p946
sg26
g27
sg28
(lp947
VKarl Malone
p948
assbag1
(g2
g3
Ntp949
Rp950
(dp951
g7
(dp952
g9
V1999-00 Fleer Supreme Court Collection #155 Greg Ostertag
p953
sg11
I20
sg12
VFleer Supreme Court Collection
p954
sg14
(lp955
Vhttp://www.beckett.com/basketball/1999-00/fleer-supreme-court-collection/155-greg-ostertag-3201661
p956
asg17
g18
sg19
(lp957
Vhttp://img.beckett.com/images/no-image.jpg
p958
asg22
V#155
p959
sg24
V1999-00
p960
sg26
g27
sg28
(lp961
VGreg Ostertag
p962
assbag1
(g2
g3
Ntp963
Rp964
(dp965
g7
(dp966
g9
V1999-00 Fleer Supreme Court Collection #183 Bryon Russell
p967
sg11
I20
sg12
VFleer Supreme Court Collection
p968
sg14
(lp969
Vhttp://www.beckett.com/basketball/1999-00/fleer-supreme-court-collection/183-bryon-russell-3201689
p970
asg17
g18
sg19
(lp971
Vhttp://img.beckett.com/images/no-image.jpg
p972
asg22
V#183
p973
sg24
V1999-00
p974
sg26
g27
sg28
(lp975
VBryon Russell
p976
assbag1
(g2
g3
Ntp977
Rp978
(dp979
g7
(dp980
g9
V1999-00 Fleer Focus Masterpiece Mania #36 Bryon Russell
p981
sg11
I300
sg12
VFleer Focus Masterpiece Mania
p982
sg14
(lp983
Vhttp://www.beckett.com/basketball/1999-00/fleer-focus-masterpiece-mania/36-bryon-russell-3202255
p984
asg17
g18
sg19
(lp985
Vhttp://img.beckett.com/images/items_stock/185226/3202210/3202255/front.jpg
p986
asg22
V#36
p987
sg24
V1999-00
p988
sg26
g27
sg28
(lp989
VBryon Russell
p990
assbag1
(g2
g3
Ntp991
Rp992
(dp993
g7
(dp994
g9
V1999-00 Fleer Focus Masterpiece Mania #54 Karl Malone
p995
sg11
I300
sg12
VFleer Focus Masterpiece Mania
p996
sg14
(lp997
Vhttp://www.beckett.com/basketball/1999-00/fleer-focus-masterpiece-mania/54-karl-malone-3202273
p998
asg17
g18
sg19
(lp999
Vhttp://img.beckett.com/images/items_stock/185226/3202210/3202273/front.jpg
p1000
asg22
V#54
p1001
sg24
V1999-00
p1002
sg26
g27
sg28
(lp1003
VKarl Malone
p1004
assbag1
(g2
g3
Ntp1005
Rp1006
(dp1007
g7
(dp1008
g9
V1999-00 Fleer Focus Masterpiece Mania #100 John Stockton
p1009
sg11
I300
sg12
VFleer Focus Masterpiece Mania
p1010
sg14
(lp1011
Vhttp://www.beckett.com/basketball/1999-00/fleer-focus-masterpiece-mania/100-john-stockton-3202319
p1012
asg17
g18
sg19
(lp1013
Vhttp://img.beckett.com/images/items_stock/185226/3202210/3202319/front.jpg
p1014
asg22
V#100
p1015
sg24
V1999-00
p1016
sg26
g27
sg28
(lp1017
VJohn Stockton
p1018
assbag1
(g2
g3
Ntp1019
Rp1020
(dp1021
g7
(dp1022
g9
V1999-00 Fleer Focus Masterpiece Mania #115 Quincy Lewis
p1023
sg11
I300
sg12
VFleer Focus Masterpiece Mania
p1024
sg14
(lp1025
Vhttp://www.beckett.com/basketball/1999-00/fleer-focus-masterpiece-mania/115-quincy-lewis-3202334
p1026
asg17
g18
sg19
(lp1027
Vhttp://img.beckett.com/images/no-image.jpg
p1028
asg22
V#115
p1029
sg24
V1999-00
p1030
sg26
g27
sg28
(lp1031
VQuincy Lewis
p1032
assbag1
(g2
g3
Ntp1033
Rp1034
(dp1035
g7
(dp1036
g9
V1999-00 Fleer Focus Masterpiece Mania #120 Scott Padgett
p1037
sg11
I300
sg12
VFleer Focus Masterpiece Mania
p1038
sg14
(lp1039
Vhttp://www.beckett.com/basketball/1999-00/fleer-focus-masterpiece-mania/120-scott-padgett-3202339
p1040
asg17
g18
sg19
(lp1041
Vhttp://img.beckett.com/images/items_stock/185226/3202210/3202339/front.jpg
p1042
asg22
V#120
p1043
sg24
V1999-00
p1044
sg26
g27
sg28
(lp1045
VScott Padgett
p1046
assbag1
(g2
g3
Ntp1047
Rp1048
(dp1049
g7
(dp1050
g9
V1999-00 Fleer Focus Masterpieces #36 Bryon Russell
p1051
sg11
I1
sg12
VFleer Focus Masterpieces
p1052
sg14
(lp1053
Vhttp://www.beckett.com/basketball/1999-00/fleer-focus-masterpieces/36-bryon-russell-3202095
p1054
asg17
g18
sg19
(lp1055
Vhttp://img.beckett.com/images/no-image.jpg
p1056
asg22
V#36
p1057
sg24
V1999-00
p1058
sg26
g27
sg28
(lp1059
VBryon Russell
p1060
assbag1
(g2
g3
Ntp1061
Rp1062
(dp1063
g7
(dp1064
g9
V1999-00 Fleer Focus Masterpieces #54 Karl Malone
p1065
sg11
I1
sg12
VFleer Focus Masterpieces
p1066
sg14
(lp1067
Vhttp://www.beckett.com/basketball/1999-00/fleer-focus-masterpieces/54-karl-malone-3202113
p1068
asg17
g18
sg19
(lp1069
Vhttp://img.beckett.com/images/no-image.jpg
p1070
asg22
V#54
p1071
sg24
V1999-00
p1072
sg26
g27
sg28
(lp1073
VKarl Malone
p1074
assbag1
(g2
g3
Ntp1075
Rp1076
(dp1077
g7
(dp1078
g9
V1999-00 Fleer Focus Masterpieces #100 John Stockton
p1079
sg11
I1
sg12
VFleer Focus Masterpieces
p1080
sg14
(lp1081
Vhttp://www.beckett.com/basketball/1999-00/fleer-focus-masterpieces/100-john-stockton-3202159
p1082
asg17
g18
sg19
(lp1083
Vhttp://img.beckett.com/images/no-image.jpg
p1084
asg22
V#100
p1085
sg24
V1999-00
p1086
sg26
g27
sg28
(lp1087
VJohn Stockton
p1088
assbag1
(g2
g3
Ntp1089
Rp1090
(dp1091
g7
(dp1092
g9
V1999-00 Fleer Focus Masterpieces #115 Quincy Lewis
p1093
sg11
I1
sg12
VFleer Focus Masterpieces
p1094
sg14
(lp1095
Vhttp://www.beckett.com/basketball/1999-00/fleer-focus-masterpieces/115-quincy-lewis-3202174
p1096
asg17
g18
sg19
(lp1097
Vhttp://img.beckett.com/images/no-image.jpg
p1098
asg22
V#115
p1099
sg24
V1999-00
p1100
sg26
g27
sg28
(lp1101
VQuincy Lewis
p1102
assbag1
(g2
g3
Ntp1103
Rp1104
(dp1105
g7
(dp1106
g9
V1999-00 Fleer Focus Masterpieces #120 Scott Padgett
p1107
sg11
I1
sg12
VFleer Focus Masterpieces
p1108
sg14
(lp1109
Vhttp://www.beckett.com/basketball/1999-00/fleer-focus-masterpieces/120-scott-padgett-3202179
p1110
asg17
g18
sg19
(lp1111
Vhttp://img.beckett.com/images/no-image.jpg
p1112
asg22
V#120
p1113
sg24
V1999-00
p1114
sg26
g27
sg28
(lp1115
VScott Padgett
p1116
assbag1
(g2
g3
Ntp1117
Rp1118
(dp1119
g7
(dp1120
g9
V1999-00 Fleer Force Forcefield #227 Quincy Lewis
p1121
sg11
I100
sg12
VFleer Force Forcefield
p1122
sg14
(lp1123
Vhttp://www.beckett.com/basketball/1999-00/fleer-force-forcefield/227-quincy-lewis-3200549
p1124
asg17
g18
sg19
(lp1125
Vhttp://img.beckett.com/images/no-image.jpg
p1126
asg22
V#227
p1127
sg24
V1999-00
p1128
sg26
g27
sg28
(lp1129
VQuincy Lewis
p1130
assbag1
(g2
g3
Ntp1131
Rp1132
(dp1133
g7
(dp1134
g9
V1999-00 Fleer Force Forcefield #230 Scott Padgett
p1135
sg11
I100
sg12
VFleer Force Forcefield
p1136
sg14
(lp1137
Vhttp://www.beckett.com/basketball/1999-00/fleer-force-forcefield/230-scott-padgett-3200552
p1138
asg17
g18
sg19
(lp1139
Vhttp://img.beckett.com/images/no-image.jpg
p1140
asg22
V#230
p1141
sg24
V1999-00
p1142
sg26
g27
sg28
(lp1143
VScott Padgett
p1144
assbag1
(g2
g3
Ntp1145
Rp1146
(dp1147
g7
(dp1148
g9
V1999-00 Fleer Mystique Masterpiece #20 John Stockton
p1149
sg11
I1
sg12
VFleer Mystique Masterpiece
p1150
sg14
(lp1151
Vhttp://www.beckett.com/basketball/1999-00/fleer-mystique-masterpiece/20-john-stockton-3198616
p1152
asg17
g18
sg19
(lp1153
Vhttp://img.beckett.com/images/no-image.jpg
p1154
asg22
V#20
p1155
sg24
V1999-00
p1156
sg26
g27
sg28
(lp1157
VJohn Stockton
p1158
assbag1
(g2
g3
Ntp1159
Rp1160
(dp1161
g7
(dp1162
g9
V1999-00 Fleer Mystique Masterpiece #39 Karl Malone
p1163
sg11
I1
sg12
VFleer Mystique Masterpiece
p1164
sg14
(lp1165
Vhttp://www.beckett.com/basketball/1999-00/fleer-mystique-masterpiece/39-karl-malone-3198635
p1166
asg17
g18
sg19
(lp1167
Vhttp://img.beckett.com/images/no-image.jpg
p1168
asg22
V#39
p1169
sg24
V1999-00
p1170
sg26
g27
sg28
(lp1171
VKarl Malone
p1172
assbag1
(g2
g3
Ntp1173
Rp1174
(dp1175
g7
(dp1176
g9
V1999-00 Fleer Mystique Masterpiece #52 Shandon Anderson
p1177
sg11
I1
sg12
VFleer Mystique Masterpiece
p1178
sg14
(lp1179
Vhttp://www.beckett.com/basketball/1999-00/fleer-mystique-masterpiece/52-shandon-anderson-3198648
p1180
asg17
g18
sg19
(lp1181
Vhttp://img.beckett.com/images/no-image.jpg
p1182
asg22
V#52
p1183
sg24
V1999-00
p1184
sg26
g27
sg28
(lp1185
VShandon Anderson
p1186
assbag1
(g2
g3
Ntp1187
Rp1188
(dp1189
g7
(dp1190
g9
V1999-00 Fleer Mystique Masterpiece #55 Bryon Russell
p1191
sg11
I1
sg12
VFleer Mystique Masterpiece
p1192
sg14
(lp1193
Vhttp://www.beckett.com/basketball/1999-00/fleer-mystique-masterpiece/55-bryon-russell-3198651
p1194
asg17
g18
sg19
(lp1195
Vhttp://img.beckett.com/images/no-image.jpg
p1196
asg22
V#55
p1197
sg24
V1999-00
p1198
sg26
g27
sg28
(lp1199
VBryon Russell
p1200
assbag1
(g2
g3
Ntp1201
Rp1202
(dp1203
g7
(dp1204
g9
V1999-00 Fleer Mystique Masterpiece #115 Scott Padgett
p1205
sg11
I1
sg12
VFleer Mystique Masterpiece
p1206
sg14
(lp1207
Vhttp://www.beckett.com/basketball/1999-00/fleer-mystique-masterpiece/115-scott-padgett-3198711
p1208
asg17
g18
sg19
(lp1209
Vhttp://img.beckett.com/images/no-image.jpg
p1210
asg22
V#115
p1211
sg24
V1999-00
p1212
sg26
g27
sg28
(lp1213
VScott Padgett
p1214
assbag1
(g2
g3
Ntp1215
Rp1216
(dp1217
g7
(dp1218
g9
V1999-00 Fleer Mystique Masterpiece #119 Quincy Lewis
p1219
sg11
I1
sg12
VFleer Mystique Masterpiece
p1220
sg14
(lp1221
Vhttp://www.beckett.com/basketball/1999-00/fleer-mystique-masterpiece/119-quincy-lewis-3198715
p1222
asg17
g18
sg19
(lp1223
Vhttp://img.beckett.com/images/no-image.jpg
p1224
asg22
V#119
p1225
sg24
V1999-00
p1226
sg26
g27
sg28
(lp1227
VQuincy Lewis
p1228
assbag1
(g2
g3
Ntp1229
Rp1230
(dp1231
g7
(dp1232
g9
V1999-00 Hoops Starting Five #47 Greg Ostertag
p1233
sg11
I5
sg12
VHoops Starting Five
p1234
sg14
(lp1235
Vhttp://www.beckett.com/basketball/1999-00/hoops-starting-five/47-greg-ostertag-3199109
p1236
asg17
g18
sg19
(lp1237
Vhttp://img.beckett.com/images/no-image.jpg
p1238
asg22
V#47
p1239
sg24
V1999-00
p1240
sg26
g27
sg28
(lp1241
VGreg Ostertag
p1242
assbag1
(g2
g3
Ntp1243
Rp1244
(dp1245
g7
(dp1246
g9
V1999-00 Hoops Starting Five #68 Howard Eisley
p1247
sg11
I5
sg12
VHoops Starting Five
p1248
sg14
(lp1249
Vhttp://www.beckett.com/basketball/1999-00/hoops-starting-five/68-howard-eisley-3199130
p1250
asg17
g18
sg19
(lp1251
Vhttp://img.beckett.com/images/no-image.jpg
p1252
asg22
V#68
p1253
sg24
V1999-00
p1254
sg26
g27
sg28
(lp1255
VHoward Eisley
p1256
assbag1
(g2
g3
Ntp1257
Rp1258
(dp1259
g7
(dp1260
g9
V1999-00 Hoops Starting Five #95 Bryon Russell
p1261
sg11
I5
sg12
VHoops Starting Five
p1262
sg14
(lp1263
Vhttp://www.beckett.com/basketball/1999-00/hoops-starting-five/95-bryon-russell-3199157
p1264
asg17
g18
sg19
(lp1265
Vhttp://img.beckett.com/images/no-image.jpg
p1266
asg22
V#95
p1267
sg24
V1999-00
p1268
sg26
g27
sg28
(lp1269
VBryon Russell
p1270
assbag1
(g2
g3
Ntp1271
Rp1272
(dp1273
g7
(dp1274
g9
V1999-00 Hoops Starting Five #99 Karl Malone
p1275
sg11
I5
sg12
VHoops Starting Five
p1276
sg14
(lp1277
Vhttp://www.beckett.com/basketball/1999-00/hoops-starting-five/99-karl-malone-3199161
p1278
asg17
g18
sg19
(lp1279
Vhttp://img.beckett.com/images/no-image.jpg
p1280
asg22
V#99
p1281
sg24
V1999-00
p1282
sg26
g27
sg28
(lp1283
VKarl Malone
p1284
assbag1
(g2
g3
Ntp1285
Rp1286
(dp1287
g7
(dp1288
g9
V1999-00 Hoops Starting Five #132 John Stockton
p1289
sg11
I5
sg12
VHoops Starting Five
p1290
sg14
(lp1291
Vhttp://www.beckett.com/basketball/1999-00/hoops-starting-five/132-john-stockton-3199194
p1292
asg17
g18
sg19
(lp1293
Vhttp://img.beckett.com/images/no-image.jpg
p1294
asg22
V#132
p1295
sg24
V1999-00
p1296
sg26
g27
sg28
(lp1297
VJohn Stockton
p1298
assbag1
(g2
g3
Ntp1299
Rp1300
(dp1301
g7
(dp1302
g9
V1999-00 SkyBox APEX Xtra #20 Karl Malone
p1303
sg11
I50
sg12
VSkyBox APEX Xtra
p1304
sg14
(lp1305
Vhttp://www.beckett.com/basketball/1999-00/skybox-apex-xtra/20-karl-malone-3198154
p1306
asg17
g18
sg19
(lp1307
Vhttp://img.beckett.com/images/no-image.jpg
p1308
asg22
V#20
p1309
sg24
V1999-00
p1310
sg26
g27
sg28
(lp1311
VKarl Malone
p1312
assbag1
(g2
g3
Ntp1313
Rp1314
(dp1315
g7
(dp1316
g9
V1999-00 SkyBox APEX Xtra #46 Shandon Anderson
p1317
sg11
I50
sg12
VSkyBox APEX Xtra
p1318
sg14
(lp1319
Vhttp://www.beckett.com/basketball/1999-00/skybox-apex-xtra/46-shandon-anderson-3198180
p1320
asg17
g18
sg19
(lp1321
Vhttp://img.beckett.com/images/no-image.jpg
p1322
asg22
V#46
p1323
sg24
V1999-00
p1324
sg26
g27
sg28
(lp1325
VShandon Anderson
p1326
assbag1
(g2
g3
Ntp1327
Rp1328
(dp1329
g7
(dp1330
g9
V1999-00 SkyBox APEX Xtra #62 Greg Ostertag
p1331
sg11
I50
sg12
VSkyBox APEX Xtra
p1332
sg14
(lp1333
Vhttp://www.beckett.com/basketball/1999-00/skybox-apex-xtra/62-greg-ostertag-3198196
p1334
asg17
g18
sg19
(lp1335
Vhttp://img.beckett.com/images/no-image.jpg
p1336
asg22
V#62
p1337
sg24
V1999-00
p1338
sg26
g27
sg28
(lp1339
VGreg Ostertag
p1340
assbag1
(g2
g3
Ntp1341
Rp1342
(dp1343
g7
(dp1344
g9
V1999-00 SkyBox APEX Xtra #96 Howard Eisley
p1345
sg11
I50
sg12
VSkyBox APEX Xtra
p1346
sg14
(lp1347
Vhttp://www.beckett.com/basketball/1999-00/skybox-apex-xtra/96-howard-eisley-3198230
p1348
asg17
g18
sg19
(lp1349
Vhttp://img.beckett.com/images/no-image.jpg
p1350
asg22
V#96
p1351
sg24
V1999-00
p1352
sg26
g27
sg28
(lp1353
VHoward Eisley
p1354
assbag1
(g2
g3
Ntp1355
Rp1356
(dp1357
g7
(dp1358
g9
V1999-00 SkyBox APEX Xtra #101 Bryon Russell
p1359
sg11
I50
sg12
VSkyBox APEX Xtra
p1360
sg14
(lp1361
Vhttp://www.beckett.com/basketball/1999-00/skybox-apex-xtra/101-bryon-russell-3198235
p1362
asg17
g18
sg19
(lp1363
Vhttp://img.beckett.com/images/no-image.jpg
p1364
asg22
V#101
p1365
sg24
V1999-00
p1366
sg26
g27
sg28
(lp1367
VBryon Russell
p1368
assbag1
(g2
g3
Ntp1369
Rp1370
(dp1371
g7
(dp1372
g9
V1999-00 SkyBox APEX Xtra #119 John Stockton
p1373
sg11
I50
sg12
VSkyBox APEX Xtra
p1374
sg14
(lp1375
Vhttp://www.beckett.com/basketball/1999-00/skybox-apex-xtra/119-john-stockton-3198253
p1376
asg17
g18
sg19
(lp1377
Vhttp://img.beckett.com/images/no-image.jpg
p1378
asg22
V#119
p1379
sg24
V1999-00
p1380
sg26
g27
sg28
(lp1381
VJohn Stockton
p1382
assbag1
(g2
g3
Ntp1383
Rp1384
(dp1385
g7
(dp1386
g9
V1999-00 SkyBox APEX Xtra #149 Jeff Hornacek
p1387
sg11
I50
sg12
VSkyBox APEX Xtra
p1388
sg14
(lp1389
Vhttp://www.beckett.com/basketball/1999-00/skybox-apex-xtra/149-jeff-hornacek-3198283
p1390
asg17
g18
sg19
(lp1391
Vhttp://img.beckett.com/images/no-image.jpg
p1392
asg22
V#149
p1393
sg24
V1999-00
p1394
sg26
g27
sg28
(lp1395
VJeff Hornacek
p1396
assbag1
(g2
g3
Ntp1397
Rp1398
(dp1399
g7
(dp1400
g9
V1999-00 SkyBox APEX Xtreme #20 Karl Malone
p1401
sg11
I1
sg12
VSkyBox APEX Xtreme
p1402
sg14
(lp1403
Vhttp://www.beckett.com/basketball/1999-00/skybox-apex-xtreme/20-karl-malone-3196496
p1404
asg17
g18
sg19
(lp1405
Vhttp://img.beckett.com/images/no-image.jpg
p1406
asg22
V#20
p1407
sg24
V1999-00
p1408
sg26
g27
sg28
(lp1409
VKarl Malone
p1410
assbag1
(g2
g3
Ntp1411
Rp1412
(dp1413
g7
(dp1414
g9
V1999-00 SkyBox APEX Xtreme #46 Shandon Anderson
p1415
sg11
I1
sg12
VSkyBox APEX Xtreme
p1416
sg14
(lp1417
Vhttp://www.beckett.com/basketball/1999-00/skybox-apex-xtreme/46-shandon-anderson-3196522
p1418
asg17
g18
sg19
(lp1419
Vhttp://img.beckett.com/images/no-image.jpg
p1420
asg22
V#46
p1421
sg24
V1999-00
p1422
sg26
g27
sg28
(lp1423
VShandon Anderson
p1424
assbag1
(g2
g3
Ntp1425
Rp1426
(dp1427
g7
(dp1428
g9
V1999-00 SkyBox APEX Xtreme #62 Greg Ostertag
p1429
sg11
I1
sg12
VSkyBox APEX Xtreme
p1430
sg14
(lp1431
Vhttp://www.beckett.com/basketball/1999-00/skybox-apex-xtreme/62-greg-ostertag-3196538
p1432
asg17
g18
sg19
(lp1433
Vhttp://img.beckett.com/images/no-image.jpg
p1434
asg22
V#62
p1435
sg24
V1999-00
p1436
sg26
g27
sg28
(lp1437
VGreg Ostertag
p1438
assbag1
(g2
g3
Ntp1439
Rp1440
(dp1441
g7
(dp1442
g9
V1999-00 SkyBox APEX Xtreme #96 Howard Eisley
p1443
sg11
I1
sg12
VSkyBox APEX Xtreme
p1444
sg14
(lp1445
Vhttp://www.beckett.com/basketball/1999-00/skybox-apex-xtreme/96-howard-eisley-3196572
p1446
asg17
g18
sg19
(lp1447
Vhttp://img.beckett.com/images/no-image.jpg
p1448
asg22
V#96
p1449
sg24
V1999-00
p1450
sg26
g27
sg28
(lp1451
VHoward Eisley
p1452
assbag1
(g2
g3
Ntp1453
Rp1454
(dp1455
g7
(dp1456
g9
V1999-00 SkyBox APEX Xtreme #101 Bryon Russell
p1457
sg11
I1
sg12
VSkyBox APEX Xtreme
p1458
sg14
(lp1459
Vhttp://www.beckett.com/basketball/1999-00/skybox-apex-xtreme/101-bryon-russell-3196577
p1460
asg17
g18
sg19
(lp1461
Vhttp://img.beckett.com/images/no-image.jpg
p1462
asg22
V#101
p1463
sg24
V1999-00
p1464
sg26
g27
sg28
(lp1465
VBryon Russell
p1466
assbag1
(g2
g3
Ntp1467
Rp1468
(dp1469
g7
(dp1470
g9
V1999-00 SkyBox APEX Xtreme #119 John Stockton
p1471
sg11
I1
sg12
VSkyBox APEX Xtreme
p1472
sg14
(lp1473
Vhttp://www.beckett.com/basketball/1999-00/skybox-apex-xtreme/119-john-stockton-3196595
p1474
asg17
g18
sg19
(lp1475
Vhttp://img.beckett.com/images/no-image.jpg
p1476
asg22
V#119
p1477
sg24
V1999-00
p1478
sg26
g27
sg28
(lp1479
VJohn Stockton
p1480
assbag1
(g2
g3
Ntp1481
Rp1482
(dp1483
g7
(dp1484
g9
V1999-00 SkyBox APEX Xtreme #149 Jeff Hornacek
p1485
sg11
I1
sg12
VSkyBox APEX Xtreme
p1486
sg14
(lp1487
Vhttp://www.beckett.com/basketball/1999-00/skybox-apex-xtreme/149-jeff-hornacek-3196625
p1488
asg17
g18
sg19
(lp1489
Vhttp://img.beckett.com/images/no-image.jpg
p1490
asg22
V#149
p1491
sg24
V1999-00
p1492
sg26
g27
sg28
(lp1493
VJeff Hornacek
p1494
assbag1
(g2
g3
Ntp1495
Rp1496
(dp1497
g7
(dp1498
g9
V1999-00 SkyBox Premium Star Rubies #40 Bryon Russell
p1499
sg11
I45
sg12
VSkyBox Premium Star Rubies
p1500
sg14
(lp1501
Vhttp://www.beckett.com/basketball/1999-00/skybox-premium-star-rubies/40-bryon-russell-3195618
p1502
asg17
g18
sg19
(lp1503
Vhttp://img.beckett.com/images/no-image.jpg
p1504
asg22
V#40
p1505
sg24
V1999-00
p1506
sg26
g27
sg28
(lp1507
VBryon Russell
p1508
assbag1
(g2
g3
Ntp1509
Rp1510
(dp1511
g7
(dp1512
g9
V1999-00 SkyBox Premium Star Rubies #43 John Stockton
p1513
sg11
I45
sg12
VSkyBox Premium Star Rubies
p1514
sg14
(lp1515
Vhttp://www.beckett.com/basketball/1999-00/skybox-premium-star-rubies/43-john-stockton-3195621
p1516
asg17
g18
sg19
(lp1517
Vhttp://img.beckett.com/images/no-image.jpg
p1518
asg22
V#43
p1519
sg24
V1999-00
p1520
sg26
g27
sg28
(lp1521
VJohn Stockton
p1522
assbag1
(g2
g3
Ntp1523
Rp1524
(dp1525
g7
(dp1526
g9
V1999-00 SkyBox Premium Star Rubies #95 Karl Malone
p1527
sg11
I45
sg12
VSkyBox Premium Star Rubies
p1528
sg14
(lp1529
Vhttp://www.beckett.com/basketball/1999-00/skybox-premium-star-rubies/95-karl-malone-3195673
p1530
asg17
g18
sg19
(lp1531
Vhttp://img.beckett.com/images/no-image.jpg
p1532
asg22
V#95
p1533
sg24
V1999-00
p1534
sg26
g27
sg28
(lp1535
VKarl Malone
p1536
assbag1
(g2
g3
Ntp1537
Rp1538
(dp1539
g7
(dp1540
g9
V1999-00 SkyBox Premium Star Rubies #119 Quincy Lewis
p1541
sg11
I45
sg12
VSkyBox Premium Star Rubies
p1542
sg14
(lp1543
Vhttp://www.beckett.com/basketball/1999-00/skybox-premium-star-rubies/119-quincy-lewis-3195715
p1544
asg17
g18
sg19
(lp1545
Vhttp://img.beckett.com/images/no-image.jpg
p1546
asg22
V#119
p1547
sg24
V1999-00
p1548
sg26
g27
sg28
(lp1549
VQuincy Lewis
p1550
assbag1
(g2
g3
Ntp1551
Rp1552
(dp1553
g7
(dp1554
g9
V1999-00 SkyBox Premium Star Rubies #119A Quincy Lewis SP
p1555
sg11
I25
sg12
VSkyBox Premium Star Rubies
p1556
sg14
(lp1557
Vhttp://www.beckett.com/basketball/1999-00/skybox-premium-star-rubies/119a-quincy-lewis-sp-3195716
p1558
asg17
g18
sg19
(lp1559
Vhttp://img.beckett.com/images/no-image.jpg
p1560
asg22
V#119A
p1561
sg24
V1999-00
p1562
sg142
VSP
p1563
sg26
g27
sg28
(lp1564
VQuincy Lewis
p1565
assbag1
(g2
g3
Ntp1566
Rp1567
(dp1568
g7
(dp1569
g9
V1999-00 SkyBox Premium Star Rubies #124 Scott Padgett
p1570
sg11
I45
sg12
VSkyBox Premium Star Rubies
p1571
sg14
(lp1572
Vhttp://www.beckett.com/basketball/1999-00/skybox-premium-star-rubies/124-scott-padgett-3195725
p1573
asg17
g18
sg19
(lp1574
Vhttp://img.beckett.com/images/items_stock/185226/3195565/3195725/front.jpg
p1575
asg22
V#124
p1576
sg24
V1999-00
p1577
sg26
g27
sg28
(lp1578
VScott Padgett
p1579
assbag1
(g2
g3
Ntp1580
Rp1581
(dp1582
g7
(dp1583
g9
V1999-00 SkyBox Premium Star Rubies #124A Scott Padgett SP
p1584
sg11
I25
sg12
VSkyBox Premium Star Rubies
p1585
sg14
(lp1586
Vhttp://www.beckett.com/basketball/1999-00/skybox-premium-star-rubies/124a-scott-padgett-sp-3195726
p1587
asg17
g18
sg19
(lp1588
Vhttp://img.beckett.com/images/no-image.jpg
p1589
asg22
V#124A
p1590
sg24
V1999-00
p1591
sg142
VSP
p1592
sg26
g27
sg28
(lp1593
VScott Padgett
p1594
assbag1
(g2
g3
Ntp1595
Rp1596
(dp1597
g7
(dp1598
g9
V1999-00 SPx Radiance #83 Karl Malone
p1599
sg11
I100
sg12
VSPx Radiance
p1600
sg14
(lp1601
Vhttp://www.beckett.com/basketball/1999-00/spx-radiance/83-karl-malone-3193296
p1602
asg17
g18
sg19
(lp1603
Vhttp://img.beckett.com/images/no-image.jpg
p1604
asg22
V#83
p1605
sg24
V1999-00
p1606
sg26
g27
sg28
(lp1607
VKarl Malone
p1608
assbag1
(g2
g3
Ntp1609
Rp1610
(dp1611
g7
(dp1612
g9
V1999-00 SPx Radiance #84 John Stockton
p1613
sg11
I100
sg12
VSPx Radiance
p1614
sg14
(lp1615
Vhttp://www.beckett.com/basketball/1999-00/spx-radiance/84-john-stockton-3193297
p1616
asg17
g18
sg19
(lp1617
Vhttp://img.beckett.com/images/no-image.jpg
p1618
asg22
V#84
p1619
sg24
V1999-00
p1620
sg26
g27
sg28
(lp1621
VJohn Stockton
p1622
assbag1
(g2
g3
Ntp1623
Rp1624
(dp1625
g7
(dp1626
g9
V1999-00 SPx Radiance #109 Quincy Lewis
p1627
sg11
I100
sg12
VSPx Radiance
p1628
sg14
(lp1629
Vhttp://www.beckett.com/basketball/1999-00/spx-radiance/109-quincy-lewis-3193322
p1630
asg17
g18
sg19
(lp1631
Vhttp://img.beckett.com/images/items_stock/185226/3193202/3193322/front.jpg
p1632
asg22
V#109
p1633
sg24
V1999-00
p1634
sg26
g27
sg28
(lp1635
VQuincy Lewis
p1636
assbag1
(g2
g3
Ntp1637
Rp1638
(dp1639
g7
(dp1640
g9
V1999-00 SPx Radiance #114 Scott Padgett
p1641
sg11
I100
sg12
VSPx Radiance
p1642
sg14
(lp1643
Vhttp://www.beckett.com/basketball/1999-00/spx-radiance/114-scott-padgett-3193327
p1644
asg17
g18
sg19
(lp1645
Vhttp://img.beckett.com/images/no-image.jpg
p1646
asg22
V#114
p1647
sg24
V1999-00
p1648
sg26
g27
sg28
(lp1649
VScott Padgett
p1650
assbag1
(g2
g3
Ntp1651
Rp1652
(dp1653
g7
(dp1654
g9
V1999-00 SPx Spectrum #83 Karl Malone
p1655
sg11
I1
sg12
VSPx Spectrum
p1656
sg14
(lp1657
Vhttp://www.beckett.com/basketball/1999-00/spx-spectrum/83-karl-malone-3193421
p1658
asg17
g18
sg19
(lp1659
Vhttp://img.beckett.com/images/no-image.jpg
p1660
asg22
V#83
p1661
sg24
V1999-00
p1662
sg26
g27
sg28
(lp1663
VKarl Malone
p1664
assbag1
(g2
g3
Ntp1665
Rp1666
(dp1667
g7
(dp1668
g9
V1999-00 SPx Spectrum #84 John Stockton
p1669
sg11
I1
sg12
VSPx Spectrum
p1670
sg14
(lp1671
Vhttp://www.beckett.com/basketball/1999-00/spx-spectrum/84-john-stockton-3193422
p1672
asg17
g18
sg19
(lp1673
Vhttp://img.beckett.com/images/no-image.jpg
p1674
asg22
V#84
p1675
sg24
V1999-00
p1676
sg26
g27
sg28
(lp1677
VJohn Stockton
p1678
assbag1
(g2
g3
Ntp1679
Rp1680
(dp1681
g7
(dp1682
g9
V1999-00 SPx Spectrum #109 Quincy Lewis
p1683
sg11
I1
sg12
VSPx Spectrum
p1684
sg14
(lp1685
Vhttp://www.beckett.com/basketball/1999-00/spx-spectrum/109-quincy-lewis-3193447
p1686
asg17
g18
sg19
(lp1687
Vhttp://img.beckett.com/images/no-image.jpg
p1688
asg22
V#109
p1689
sg24
V1999-00
p1690
sg26
g27
sg28
(lp1691
VQuincy Lewis
p1692
assbag1
(g2
g3
Ntp1693
Rp1694
(dp1695
g7
(dp1696
g9
V1999-00 SPx Spectrum #114 Scott Padgett
p1697
sg11
I1
sg12
VSPx Spectrum
p1698
sg14
(lp1699
Vhttp://www.beckett.com/basketball/1999-00/spx-spectrum/114-scott-padgett-3193452
p1700
asg17
g18
sg19
(lp1701
Vhttp://img.beckett.com/images/no-image.jpg
p1702
asg22
V#114
p1703
sg24
V1999-00
p1704
sg26
g27
sg28
(lp1705
VScott Padgett
p1706
assbag1
(g2
g3
Ntp1707
Rp1708
(dp1709
g7
(dp1710
g9
V1999-00 Stadium Club First Day Issue #5 Karl Malone
p1711
sg11
I150
sg12
VStadium Club First Day Issue
p1712
sg14
(lp1713
Vhttp://www.beckett.com/basketball/1999-00/stadium-club-first-day-issue/5-karl-malone-3193839
p1714
asg17
g18
sg19
(lp1715
Vhttp://img.beckett.com/images/no-image.jpg
p1716
asg22
V#5
p1717
sg24
V1999-00
p1718
sg26
g27
sg28
(lp1719
VKarl Malone
p1720
assbag1
(g2
g3
Ntp1721
Rp1722
(dp1723
g7
(dp1724
g9
V1999-00 Stadium Club First Day Issue #54 Greg Ostertag
p1725
sg11
I150
sg12
VStadium Club First Day Issue
p1726
sg14
(lp1727
Vhttp://www.beckett.com/basketball/1999-00/stadium-club-first-day-issue/54-greg-ostertag-3193888
p1728
asg17
g18
sg19
(lp1729
Vhttp://img.beckett.com/images/no-image.jpg
p1730
asg22
V#54
p1731
sg24
V1999-00
p1732
sg26
g27
sg28
(lp1733
VGreg Ostertag
p1734
assbag1
(g2
g3
Ntp1735
Rp1736
(dp1737
g7
(dp1738
g9
V1999-00 Stadium Club First Day Issue #79 Jeff Hornacek
p1739
sg11
I150
sg12
VStadium Club First Day Issue
p1740
sg14
(lp1741
Vhttp://www.beckett.com/basketball/1999-00/stadium-club-first-day-issue/79-jeff-hornacek-3193913
p1742
asg17
g18
sg19
(lp1743
Vhttp://img.beckett.com/images/no-image.jpg
p1744
asg22
V#79
p1745
sg24
V1999-00
p1746
sg26
g27
sg28
(lp1747
VJeff Hornacek
p1748
assbag1
(g2
g3
Ntp1749
Rp1750
(dp1751
g7
(dp1752
g9
V1999-00 Stadium Club First Day Issue #105 Bryon Russell
p1753
sg11
I150
sg12
VStadium Club First Day Issue
p1754
sg14
(lp1755
Vhttp://www.beckett.com/basketball/1999-00/stadium-club-first-day-issue/105-bryon-russell-3193939
p1756
asg17
g18
sg19
(lp1757
Vhttp://img.beckett.com/images/no-image.jpg
p1758
asg22
V#105
p1759
sg24
V1999-00
p1760
sg26
g27
sg28
(lp1761
VBryon Russell
p1762
assbag1
(g2
g3
Ntp1763
Rp1764
(dp1765
g7
(dp1766
g9
V1999-00 Stadium Club First Day Issue #137 John Stockton
p1767
sg11
I150
sg12
VStadium Club First Day Issue
p1768
sg14
(lp1769
Vhttp://www.beckett.com/basketball/1999-00/stadium-club-first-day-issue/137-john-stockton-3193971
p1770
asg17
g18
sg19
(lp1771
Vhttp://img.beckett.com/images/no-image.jpg
p1772
asg22
V#137
p1773
sg24
V1999-00
p1774
sg26
g27
sg28
(lp1775
VJohn Stockton
p1776
assbag1
(g2
g3
Ntp1777
Rp1778
(dp1779
g7
(dp1780
g9
V1999-00 Stadium Club First Day Issue #163 Shandon Anderson TRAN
p1781
sg11
I150
sg12
VStadium Club First Day Issue
p1782
sg14
(lp1783
Vhttp://www.beckett.com/basketball/1999-00/stadium-club-first-day-issue/163-shandon-anderson-tran-3193997
p1784
asg17
g18
sg19
(lp1785
Vhttp://img.beckett.com/images/no-image.jpg
p1786
asg22
V#163
p1787
sg24
V1999-00
p1788
sg142
VTRAN
p1789
sg26
g27
sg28
(lp1790
VShandon Anderson
p1791
assbag1
(g2
g3
Ntp1792
Rp1793
(dp1794
g7
(dp1795
g9
V1999-00 Stadium Club First Day Issue #194 Quincy Lewis
p1796
sg11
I150
sg12
VStadium Club First Day Issue
p1797
sg14
(lp1798
Vhttp://www.beckett.com/basketball/1999-00/stadium-club-first-day-issue/194-quincy-lewis-3194028
p1799
asg17
g18
sg19
(lp1800
Vhttp://img.beckett.com/images/no-image.jpg
p1801
asg22
V#194
p1802
sg24
V1999-00
p1803
sg26
g27
sg28
(lp1804
VQuincy Lewis
p1805
assbag1
(g2
g3
Ntp1806
Rp1807
(dp1808
g7
(dp1809
g9
V1999-00 Stadium Club First Day Issue #195 Scott Padgett
p1810
sg11
I150
sg12
VStadium Club First Day Issue
p1811
sg14
(lp1812
Vhttp://www.beckett.com/basketball/1999-00/stadium-club-first-day-issue/195-scott-padgett-3194029
p1813
asg17
g18
sg19
(lp1814
Vhttp://img.beckett.com/images/no-image.jpg
p1815
asg22
V#195
p1816
sg24
V1999-00
p1817
sg26
g27
sg28
(lp1818
VScott Padgett
p1819
assbag1
(g2
g3
Ntp1820
Rp1821
(dp1822
g7
(dp1823
g9
V1999-00 Stadium Club One of a Kind #5 Karl Malone
p1824
sg11
I150
sg12
VStadium Club One of a Kind
p1825
sg14
(lp1826
Vhttp://www.beckett.com/basketball/1999-00/stadium-club-one-of-a-kind/5-karl-malone-3194051
p1827
asg17
g18
sg19
(lp1828
Vhttp://img.beckett.com/images/items_stock/185226/3194036/3194051/front.jpg
p1829
asg22
V#5
p1830
sg24
V1999-00
p1831
sg26
g27
sg28
(lp1832
VKarl Malone
p1833
assbag1
(g2
g3
Ntp1834
Rp1835
(dp1836
g7
(dp1837
g9
V1999-00 Stadium Club One of a Kind #54 Greg Ostertag
p1838
sg11
I150
sg12
VStadium Club One of a Kind
p1839
sg14
(lp1840
Vhttp://www.beckett.com/basketball/1999-00/stadium-club-one-of-a-kind/54-greg-ostertag-3194100
p1841
asg17
g18
sg19
(lp1842
Vhttp://img.beckett.com/images/no-image.jpg
p1843
asg22
V#54
p1844
sg24
V1999-00
p1845
sg26
g27
sg28
(lp1846
VGreg Ostertag
p1847
assbag1
(g2
g3
Ntp1848
Rp1849
(dp1850
g7
(dp1851
g9
V1999-00 Stadium Club One of a Kind #79 Jeff Hornacek
p1852
sg11
I150
sg12
VStadium Club One of a Kind
p1853
sg14
(lp1854
Vhttp://www.beckett.com/basketball/1999-00/stadium-club-one-of-a-kind/79-jeff-hornacek-3194125
p1855
asg17
g18
sg19
(lp1856
Vhttp://img.beckett.com/images/no-image.jpg
p1857
asg22
V#79
p1858
sg24
V1999-00
p1859
sg26
g27
sg28
(lp1860
VJeff Hornacek
p1861
assbag1
(g2
g3
Ntp1862
Rp1863
(dp1864
g7
(dp1865
g9
V1999-00 Stadium Club One of a Kind #105 Bryon Russell
p1866
sg11
I150
sg12
VStadium Club One of a Kind
p1867
sg14
(lp1868
Vhttp://www.beckett.com/basketball/1999-00/stadium-club-one-of-a-kind/105-bryon-russell-3194151
p1869
asg17
g18
sg19
(lp1870
Vhttp://img.beckett.com/images/no-image.jpg
p1871
asg22
V#105
p1872
sg24
V1999-00
p1873
sg26
g27
sg28
(lp1874
VBryon Russell
p1875
assbag1
(g2
g3
Ntp1876
Rp1877
(dp1878
g7
(dp1879
g9
V1999-00 Stadium Club One of a Kind #137 John Stockton
p1880
sg11
I150
sg12
VStadium Club One of a Kind
p1881
sg14
(lp1882
Vhttp://www.beckett.com/basketball/1999-00/stadium-club-one-of-a-kind/137-john-stockton-3194183
p1883
asg17
g18
sg19
(lp1884
Vhttp://img.beckett.com/images/no-image.jpg
p1885
asg22
V#137
p1886
sg24
V1999-00
p1887
sg26
g27
sg28
(lp1888
VJohn Stockton
p1889
assbag1
(g2
g3
Ntp1890
Rp1891
(dp1892
g7
(dp1893
g9
V1999-00 Stadium Club One of a Kind #163 Shandon Anderson TRAN
p1894
sg11
I150
sg12
VStadium Club One of a Kind
p1895
sg14
(lp1896
Vhttp://www.beckett.com/basketball/1999-00/stadium-club-one-of-a-kind/163-shandon-anderson-tran-3194209
p1897
asg17
g18
sg19
(lp1898
Vhttp://img.beckett.com/images/no-image.jpg
p1899
asg22
V#163
p1900
sg24
V1999-00
p1901
sg142
VTRAN
p1902
sg26
g27
sg28
(lp1903
VShandon Anderson
p1904
assbag1
(g2
g3
Ntp1905
Rp1906
(dp1907
g7
(dp1908
g9
V1999-00 Stadium Club One of a Kind #194 Quincy Lewis
p1909
sg11
I150
sg12
VStadium Club One of a Kind
p1910
sg14
(lp1911
Vhttp://www.beckett.com/basketball/1999-00/stadium-club-one-of-a-kind/194-quincy-lewis-3194240
p1912
asg17
g18
sg19
(lp1913
Vhttp://img.beckett.com/images/no-image.jpg
p1914
asg22
V#194
p1915
sg24
V1999-00
p1916
sg26
g27
sg28
(lp1917
VQuincy Lewis
p1918
assbag1
(g2
g3
Ntp1919
Rp1920
(dp1921
g7
(dp1922
g9
V1999-00 Stadium Club One of a Kind #195 Scott Padgett
p1923
sg11
I150
sg12
VStadium Club One of a Kind
p1924
sg14
(lp1925
Vhttp://www.beckett.com/basketball/1999-00/stadium-club-one-of-a-kind/195-scott-padgett-3194241
p1926
asg17
g18
sg19
(lp1927
Vhttp://img.beckett.com/images/no-image.jpg
p1928
asg22
V#195
p1929
sg24
V1999-00
p1930
sg26
g27
sg28
(lp1931
VScott Padgett
p1932
assbag1
(g2
g3
Ntp1933
Rp1934
(dp1935
g7
(dp1936
g9
V1999-00 Stadium Club Printing Plates #5A Karl Malone Black
p1937
sg11
I1
sg12
VStadium Club Printing Plates
p1938
sg14
(lp1939
Vhttp://www.beckett.com/basketball/1999-00/stadium-club-printing-plates/5a-karl-malone-black-3194270
p1940
asg17
g18
sg19
(lp1941
Vhttp://img.beckett.com/images/no-image.jpg
p1942
asg22
V#5A
p1943
sg24
V1999-00
p1944
sg26
g27
sg28
(lp1945
VKarl Malone
p1946
assbag1
(g2
g3
Ntp1947
Rp1948
(dp1949
g7
(dp1950
g9
V1999-00 Stadium Club Printing Plates #5B Karl Malone Cyan
p1951
sg11
I1
sg12
VStadium Club Printing Plates
p1952
sg14
(lp1953
Vhttp://www.beckett.com/basketball/1999-00/stadium-club-printing-plates/5b-karl-malone-cyan-3194271
p1954
asg17
g18
sg19
(lp1955
Vhttp://img.beckett.com/images/no-image.jpg
p1956
asg22
V#5B
p1957
sg24
V1999-00
p1958
sg26
g27
sg28
(lp1959
g1946
assbag1
(g2
g3
Ntp1960
Rp1961
(dp1962
g7
(dp1963
g9
V1999-00 Stadium Club Printing Plates #5C Karl Malone Magenta
p1964
sg11
I1
sg12
VStadium Club Printing Plates
p1965
sg14
(lp1966
Vhttp://www.beckett.com/basketball/1999-00/stadium-club-printing-plates/5c-karl-malone-magenta-3194272
p1967
asg17
g18
sg19
(lp1968
Vhttp://img.beckett.com/images/no-image.jpg
p1969
asg22
V#5C
p1970
sg24
V1999-00
p1971
sg26
g27
sg28
(lp1972
g1946
assbag1
(g2
g3
Ntp1973
Rp1974
(dp1975
g7
(dp1976
g9
V1999-00 Stadium Club Printing Plates #5D Karl Malone Yellow
p1977
sg11
I1
sg12
VStadium Club Printing Plates
p1978
sg14
(lp1979
Vhttp://www.beckett.com/basketball/1999-00/stadium-club-printing-plates/5d-karl-malone-yellow-3194273
p1980
asg17
g18
sg19
(lp1981
Vhttp://img.beckett.com/images/no-image.jpg
p1982
asg22
V#5D
p1983
sg24
V1999-00
p1984
sg26
g27
sg28
(lp1985
g1946
assbag1
(g2
g3
Ntp1986
Rp1987
(dp1988
g7
(dp1989
g9
V1999-00 Stadium Club Printing Plates #54A Greg Ostertag Black
p1990
sg11
I1
sg12
VStadium Club Printing Plates
p1991
sg14
(lp1992
Vhttp://www.beckett.com/basketball/1999-00/stadium-club-printing-plates/54a-greg-ostertag-black-3194466
p1993
asg17
g18
sg19
(lp1994
Vhttp://img.beckett.com/images/no-image.jpg
p1995
asg22
V#54A
p1996
sg24
V1999-00
p1997
sg26
g27
sg28
(lp1998
VGreg Ostertag
p1999
assbag1
(g2
g3
Ntp2000
Rp2001
(dp2002
g7
(dp2003
g9
V1999-00 Stadium Club Printing Plates #54B Greg Ostertag Cyan
p2004
sg11
I1
sg12
VStadium Club Printing Plates
p2005
sg14
(lp2006
Vhttp://www.beckett.com/basketball/1999-00/stadium-club-printing-plates/54b-greg-ostertag-cyan-3194467
p2007
asg17
g18
sg19
(lp2008
Vhttp://img.beckett.com/images/no-image.jpg
p2009
asg22
V#54B
p2010
sg24
V1999-00
p2011
sg26
g27
sg28
(lp2012
g1999
assbag1
(g2
g3
Ntp2013
Rp2014
(dp2015
g7
(dp2016
g9
V1999-00 Stadium Club Printing Plates #54C Greg Ostertag Magenta
p2017
sg11
I1
sg12
VStadium Club Printing Plates
p2018
sg14
(lp2019
Vhttp://www.beckett.com/basketball/1999-00/stadium-club-printing-plates/54c-greg-ostertag-magenta-3194468
p2020
asg17
g18
sg19
(lp2021
Vhttp://img.beckett.com/images/no-image.jpg
p2022
asg22
V#54C
p2023
sg24
V1999-00
p2024
sg26
g27
sg28
(lp2025
g1999
assbag1
(g2
g3
Ntp2026
Rp2027
(dp2028
g7
(dp2029
g9
V1999-00 Stadium Club Printing Plates #54D Greg Ostertag Yellow
p2030
sg11
I1
sg12
VStadium Club Printing Plates
p2031
sg14
(lp2032
Vhttp://www.beckett.com/basketball/1999-00/stadium-club-printing-plates/54d-greg-ostertag-yellow-3194469
p2033
asg17
g18
sg19
(lp2034
Vhttp://img.beckett.com/images/no-image.jpg
p2035
asg22
V#54D
p2036
sg24
V1999-00
p2037
sg26
g27
sg28
(lp2038
g1999
assbag1
(g2
g3
Ntp2039
Rp2040
(dp2041
g7
(dp2042
g9
V1999-00 Stadium Club Printing Plates #79A Jeff Hornacek Black
p2043
sg11
I1
sg12
VStadium Club Printing Plates
p2044
sg14
(lp2045
Vhttp://www.beckett.com/basketball/1999-00/stadium-club-printing-plates/79a-jeff-hornacek-black-3194566
p2046
asg17
g18
sg19
(lp2047
Vhttp://img.beckett.com/images/no-image.jpg
p2048
asg22
V#79A
p2049
sg24
V1999-00
p2050
sg26
g27
sg28
(lp2051
VJeff Hornacek
p2052
assbag1
(g2
g3
Ntp2053
Rp2054
(dp2055
g7
(dp2056
g9
V1999-00 Stadium Club Printing Plates #79B Jeff Hornacek Cyan
p2057
sg11
I1
sg12
VStadium Club Printing Plates
p2058
sg14
(lp2059
Vhttp://www.beckett.com/basketball/1999-00/stadium-club-printing-plates/79b-jeff-hornacek-cyan-3194567
p2060
asg17
g18
sg19
(lp2061
Vhttp://img.beckett.com/images/no-image.jpg
p2062
asg22
V#79B
p2063
sg24
V1999-00
p2064
sg26
g27
sg28
(lp2065
g2052
assbag1
(g2
g3
Ntp2066
Rp2067
(dp2068
g7
(dp2069
g9
V1999-00 Stadium Club Printing Plates #79C Jeff Hornacek Magenta
p2070
sg11
I1
sg12
VStadium Club Printing Plates
p2071
sg14
(lp2072
Vhttp://www.beckett.com/basketball/1999-00/stadium-club-printing-plates/79c-jeff-hornacek-magenta-3194568
p2073
asg17
g18
sg19
(lp2074
Vhttp://img.beckett.com/images/no-image.jpg
p2075
asg22
V#79C
p2076
sg24
V1999-00
p2077
sg26
g27
sg28
(lp2078
g2052
assbag1
(g2
g3
Ntp2079
Rp2080
(dp2081
g7
(dp2082
g9
V1999-00 Stadium Club Printing Plates #79D Jeff Hornacek Yellow
p2083
sg11
I1
sg12
VStadium Club Printing Plates
p2084
sg14
(lp2085
Vhttp://www.beckett.com/basketball/1999-00/stadium-club-printing-plates/79d-jeff-hornacek-yellow-3194569
p2086
asg17
g18
sg19
(lp2087
Vhttp://img.beckett.com/images/no-image.jpg
p2088
asg22
V#79D
p2089
sg24
V1999-00
p2090
sg26
g27
sg28
(lp2091
g2052
assbag1
(g2
g3
Ntp2092
Rp2093
(dp2094
g7
(dp2095
g9
V1999-00 Stadium Club Printing Plates #105A Bryon Russell Black
p2096
sg11
I1
sg12
VStadium Club Printing Plates
p2097
sg14
(lp2098
Vhttp://www.beckett.com/basketball/1999-00/stadium-club-printing-plates/105a-bryon-russell-black-3194670
p2099
asg17
g18
sg19
(lp2100
Vhttp://img.beckett.com/images/no-image.jpg
p2101
asg22
V#105A
p2102
sg24
V1999-00
p2103
sg26
g27
sg28
(lp2104
VBryon Russell
p2105
assbag1
(g2
g3
Ntp2106
Rp2107
(dp2108
g7
(dp2109
g9
V1999-00 Stadium Club Printing Plates #105B Bryon Russell Cyan
p2110
sg11
I1
sg12
VStadium Club Printing Plates
p2111
sg14
(lp2112
Vhttp://www.beckett.com/basketball/1999-00/stadium-club-printing-plates/105b-bryon-russell-cyan-3194671
p2113
asg17
g18
sg19
(lp2114
Vhttp://img.beckett.com/images/no-image.jpg
p2115
asg22
V#105B
p2116
sg24
V1999-00
p2117
sg26
g27
sg28
(lp2118
g2105
assbag1
(g2
g3
Ntp2119
Rp2120
(dp2121
g7
(dp2122
g9
V1999-00 Stadium Club Printing Plates #105C Bryon Russell Magenta
p2123
sg11
I1
sg12
VStadium Club Printing Plates
p2124
sg14
(lp2125
Vhttp://www.beckett.com/basketball/1999-00/stadium-club-printing-plates/105c-bryon-russell-magenta-3194672
p2126
asg17
g18
sg19
(lp2127
Vhttp://img.beckett.com/images/no-image.jpg
p2128
asg22
V#105C
p2129
sg24
V1999-00
p2130
sg26
g27
sg28
(lp2131
g2105
assbag1
(g2
g3
Ntp2132
Rp2133
(dp2134
g7
(dp2135
g9
V1999-00 Stadium Club Printing Plates #105D Bryon Russell Yellow
p2136
sg11
I1
sg12
VStadium Club Printing Plates
p2137
sg14
(lp2138
Vhttp://www.beckett.com/basketball/1999-00/stadium-club-printing-plates/105d-bryon-russell-yellow-3194673
p2139
asg17
g18
sg19
(lp2140
Vhttp://img.beckett.com/images/no-image.jpg
p2141
asg22
V#105D
p2142
sg24
V1999-00
p2143
sg26
g27
sg28
(lp2144
g2105
assbag1
(g2
g3
Ntp2145
Rp2146
(dp2147
g7
(dp2148
g9
V1999-00 Stadium Club Printing Plates #137A John Stockton Black
p2149
sg11
I1
sg12
VStadium Club Printing Plates
p2150
sg14
(lp2151
Vhttp://www.beckett.com/basketball/1999-00/stadium-club-printing-plates/137a-john-stockton-black-3194798
p2152
asg17
g18
sg19
(lp2153
Vhttp://img.beckett.com/images/no-image.jpg
p2154
asg22
V#137A
p2155
sg24
V1999-00
p2156
sg26
g27
sg28
(lp2157
VJohn Stockton
p2158
assbag1
(g2
g3
Ntp2159
Rp2160
(dp2161
g7
(dp2162
g9
V1999-00 Stadium Club Printing Plates #137B John Stockton Cyan
p2163
sg11
I1
sg12
VStadium Club Printing Plates
p2164
sg14
(lp2165
Vhttp://www.beckett.com/basketball/1999-00/stadium-club-printing-plates/137b-john-stockton-cyan-3194799
p2166
asg17
g18
sg19
(lp2167
Vhttp://img.beckett.com/images/no-image.jpg
p2168
asg22
V#137B
p2169
sg24
V1999-00
p2170
sg26
g27
sg28
(lp2171
g2158
assbag1
(g2
g3
Ntp2172
Rp2173
(dp2174
g7
(dp2175
g9
V1999-00 Stadium Club Printing Plates #137C John Stockton Magenta
p2176
sg11
I1
sg12
VStadium Club Printing Plates
p2177
sg14
(lp2178
Vhttp://www.beckett.com/basketball/1999-00/stadium-club-printing-plates/137c-john-stockton-magenta-3194800
p2179
asg17
g18
sg19
(lp2180
Vhttp://img.beckett.com/images/no-image.jpg
p2181
asg22
V#137C
p2182
sg24
V1999-00
p2183
sg26
g27
sg28
(lp2184
g2158
assbag1
(g2
g3
Ntp2185
Rp2186
(dp2187
g7
(dp2188
g9
V1999-00 Stadium Club Printing Plates #137D John Stockton Yellow
p2189
sg11
I1
sg12
VStadium Club Printing Plates
p2190
sg14
(lp2191
Vhttp://www.beckett.com/basketball/1999-00/stadium-club-printing-plates/137d-john-stockton-yellow-3194801
p2192
asg17
g18
sg19
(lp2193
Vhttp://img.beckett.com/images/no-image.jpg
p2194
asg22
V#137D
p2195
sg24
V1999-00
p2196
sg26
g27
sg28
(lp2197
g2158
assbag1
(g2
g3
Ntp2198
Rp2199
(dp2200
g7
(dp2201
g9
V1999-00 Stadium Club Printing Plates #163A Shandon Anderson Black
p2202
sg11
I1
sg12
VStadium Club Printing Plates
p2203
sg14
(lp2204
Vhttp://www.beckett.com/basketball/1999-00/stadium-club-printing-plates/163a-shandon-anderson-black-3194902
p2205
asg17
g18
sg19
(lp2206
Vhttp://img.beckett.com/images/no-image.jpg
p2207
asg22
V#163A
p2208
sg24
V1999-00
p2209
sg26
g27
sg28
(lp2210
VShandon Anderson
p2211
assbag1
(g2
g3
Ntp2212
Rp2213
(dp2214
g7
(dp2215
g9
V1999-00 Stadium Club Printing Plates #163B Shandon Anderson Cyan
p2216
sg11
I1
sg12
VStadium Club Printing Plates
p2217
sg14
(lp2218
Vhttp://www.beckett.com/basketball/1999-00/stadium-club-printing-plates/163b-shandon-anderson-cyan-3194903
p2219
asg17
g18
sg19
(lp2220
Vhttp://img.beckett.com/images/no-image.jpg
p2221
asg22
V#163B
p2222
sg24
V1999-00
p2223
sg26
g27
sg28
(lp2224
g2211
assbag1
(g2
g3
Ntp2225
Rp2226
(dp2227
g7
(dp2228
g9
V1999-00 Stadium Club Printing Plates #163C Shandon Anderson Magenta
p2229
sg11
I1
sg12
VStadium Club Printing Plates
p2230
sg14
(lp2231
Vhttp://www.beckett.com/basketball/1999-00/stadium-club-printing-plates/163c-shandon-anderson-magenta-3194904
p2232
asg17
g18
sg19
(lp2233
Vhttp://img.beckett.com/images/no-image.jpg
p2234
asg22
V#163C
p2235
sg24
V1999-00
p2236
sg26
g27
sg28
(lp2237
g2211
assbag1
(g2
g3
Ntp2238
Rp2239
(dp2240
g7
(dp2241
g9
V1999-00 Stadium Club Printing Plates #163D Shandon Anderson Yellow
p2242
sg11
I1
sg12
VStadium Club Printing Plates
p2243
sg14
(lp2244
Vhttp://www.beckett.com/basketball/1999-00/stadium-club-printing-plates/163d-shandon-anderson-yellow-3194905
p2245
asg17
g18
sg19
(lp2246
Vhttp://img.beckett.com/images/no-image.jpg
p2247
asg22
V#163D
p2248
sg24
V1999-00
p2249
sg26
g27
sg28
(lp2250
g2211
assbag1
(g2
g3
Ntp2251
Rp2252
(dp2253
g7
(dp2254
g9
V1999-00 Stadium Club Printing Plates #194A Quincy Lewis Black
p2255
sg11
I1
sg12
VStadium Club Printing Plates
p2256
sg14
(lp2257
Vhttp://www.beckett.com/basketball/1999-00/stadium-club-printing-plates/194a-quincy-lewis-black-3195026
p2258
asg17
g18
sg19
(lp2259
Vhttp://img.beckett.com/images/no-image.jpg
p2260
asg22
V#194A
p2261
sg24
V1999-00
p2262
sg26
g27
sg28
(lp2263
VQuincy Lewis
p2264
assbag1
(g2
g3
Ntp2265
Rp2266
(dp2267
g7
(dp2268
g9
V1999-00 Stadium Club Printing Plates #194B Quincy Lewis Cyan
p2269
sg11
I1
sg12
VStadium Club Printing Plates
p2270
sg14
(lp2271
Vhttp://www.beckett.com/basketball/1999-00/stadium-club-printing-plates/194b-quincy-lewis-cyan-3195027
p2272
asg17
g18
sg19
(lp2273
Vhttp://img.beckett.com/images/no-image.jpg
p2274
asg22
V#194B
p2275
sg24
V1999-00
p2276
sg26
g27
sg28
(lp2277
g2264
assbag1
(g2
g3
Ntp2278
Rp2279
(dp2280
g7
(dp2281
g9
V1999-00 Stadium Club Printing Plates #194C Quincy Lewis Magenta
p2282
sg11
I1
sg12
VStadium Club Printing Plates
p2283
sg14
(lp2284
Vhttp://www.beckett.com/basketball/1999-00/stadium-club-printing-plates/194c-quincy-lewis-magenta-3195028
p2285
asg17
g18
sg19
(lp2286
Vhttp://img.beckett.com/images/no-image.jpg
p2287
asg22
V#194C
p2288
sg24
V1999-00
p2289
sg26
g27
sg28
(lp2290
g2264
assbag1
(g2
g3
Ntp2291
Rp2292
(dp2293
g7
(dp2294
g9
V1999-00 Stadium Club Printing Plates #194D Quincy Lewis Yellow
p2295
sg11
I1
sg12
VStadium Club Printing Plates
p2296
sg14
(lp2297
Vhttp://www.beckett.com/basketball/1999-00/stadium-club-printing-plates/194d-quincy-lewis-yellow-3195029
p2298
asg17
g18
sg19
(lp2299
Vhttp://img.beckett.com/images/no-image.jpg
p2300
asg22
V#194D
p2301
sg24
V1999-00
p2302
sg26
g27
sg28
(lp2303
g2264
assbag1
(g2
g3
Ntp2304
Rp2305
(dp2306
g7
(dp2307
g9
V1999-00 Stadium Club Printing Plates #195A Scott Padgett Black
p2308
sg11
I1
sg12
VStadium Club Printing Plates
p2309
sg14
(lp2310
Vhttp://www.beckett.com/basketball/1999-00/stadium-club-printing-plates/195a-scott-padgett-black-3195030
p2311
asg17
g18
sg19
(lp2312
Vhttp://img.beckett.com/images/no-image.jpg
p2313
asg22
V#195A
p2314
sg24
V1999-00
p2315
sg26
g27
sg28
(lp2316
VScott Padgett
p2317
assbag1
(g2
g3
Ntp2318
Rp2319
(dp2320
g7
(dp2321
g9
V1999-00 Stadium Club Printing Plates #195B Scott Padgett Cyan
p2322
sg11
I1
sg12
VStadium Club Printing Plates
p2323
sg14
(lp2324
Vhttp://www.beckett.com/basketball/1999-00/stadium-club-printing-plates/195b-scott-padgett-cyan-3195031
p2325
asg17
g18
sg19
(lp2326
Vhttp://img.beckett.com/images/no-image.jpg
p2327
asg22
V#195B
p2328
sg24
V1999-00
p2329
sg26
g27
sg28
(lp2330
g2317
assbag1
(g2
g3
Ntp2331
Rp2332
(dp2333
g7
(dp2334
g9
V1999-00 Stadium Club Printing Plates #195C Scott Padgett Magenta
p2335
sg11
I1
sg12
VStadium Club Printing Plates
p2336
sg14
(lp2337
Vhttp://www.beckett.com/basketball/1999-00/stadium-club-printing-plates/195c-scott-padgett-magenta-3195032
p2338
asg17
g18
sg19
(lp2339
Vhttp://img.beckett.com/images/no-image.jpg
p2340
asg22
V#195C
p2341
sg24
V1999-00
p2342
sg26
g27
sg28
(lp2343
g2317
assbag1
(g2
g3
Ntp2344
Rp2345
(dp2346
g7
(dp2347
g9
V1999-00 Stadium Club Printing Plates #195D Scott Padgett Yellow
p2348
sg11
I1
sg12
VStadium Club Printing Plates
p2349
sg14
(lp2350
Vhttp://www.beckett.com/basketball/1999-00/stadium-club-printing-plates/195d-scott-padgett-yellow-3195033
p2351
asg17
g18
sg19
(lp2352
Vhttp://img.beckett.com/images/no-image.jpg
p2353
asg22
V#195D
p2354
sg24
V1999-00
p2355
sg26
g27
sg28
(lp2356
g2317
assbag1
(g2
g3
Ntp2357
Rp2358
(dp2359
g7
(dp2360
g9
V1999-00 Stadium Club Chrome First Day Issue #4 Karl Malone
p2361
sg11
I100
sg12
VStadium Club Chrome First Day Issue
p2362
sg14
(lp2363
Vhttp://www.beckett.com/basketball/1999-00/stadium-club-chrome-first-day-issue/4-karl-malone-3192404
p2364
asg17
g18
sg19
(lp2365
Vhttp://img.beckett.com/images/items_stock/185226/3192391/3192404/front.jpg
p2366
asg22
V#4
p2367
sg24
V1999-00
p2368
sg26
g27
sg28
(lp2369
VKarl Malone
p2370
assbag1
(g2
g3
Ntp2371
Rp2372
(dp2373
g7
(dp2374
g9
V1999-00 Stadium Club Chrome First Day Issue #56 Jeff Hornacek
p2375
sg11
I100
sg12
VStadium Club Chrome First Day Issue
p2376
sg14
(lp2377
Vhttp://www.beckett.com/basketball/1999-00/stadium-club-chrome-first-day-issue/56-jeff-hornacek-3192456
p2378
asg17
g18
sg19
(lp2379
Vhttp://img.beckett.com/images/no-image.jpg
p2380
asg22
V#56
p2381
sg24
V1999-00
p2382
sg26
g27
sg28
(lp2383
VJeff Hornacek
p2384
assbag1
(g2
g3
Ntp2385
Rp2386
(dp2387
g7
(dp2388
g9
V1999-00 Stadium Club Chrome First Day Issue #76 Bryon Russell
p2389
sg11
I100
sg12
VStadium Club Chrome First Day Issue
p2390
sg14
(lp2391
Vhttp://www.beckett.com/basketball/1999-00/stadium-club-chrome-first-day-issue/76-bryon-russell-3192476
p2392
asg17
g18
sg19
(lp2393
Vhttp://img.beckett.com/images/no-image.jpg
p2394
asg22
V#76
p2395
sg24
V1999-00
p2396
sg26
g27
sg28
(lp2397
VBryon Russell
p2398
assbag1
(g2
g3
Ntp2399
Rp2400
(dp2401
g7
(dp2402
g9
V1999-00 Stadium Club Chrome First Day Issue #105 John Stockton
p2403
sg11
I100
sg12
VStadium Club Chrome First Day Issue
p2404
sg14
(lp2405
Vhttp://www.beckett.com/basketball/1999-00/stadium-club-chrome-first-day-issue/105-john-stockton-3192505
p2406
asg17
g18
sg19
(lp2407
Vhttp://img.beckett.com/images/no-image.jpg
p2408
asg22
V#105
p2409
sg24
V1999-00
p2410
sg26
g27
sg28
(lp2411
VJohn Stockton
p2412
assbag1
(g2
g3
Ntp2413
Rp2414
(dp2415
g7
(dp2416
g9
V1999-00 Stadium Club Chrome First Day Issue #128 Shandon Anderson TRAN
p2417
sg11
I100
sg12
VStadium Club Chrome First Day Issue
p2418
sg14
(lp2419
Vhttp://www.beckett.com/basketball/1999-00/stadium-club-chrome-first-day-issue/128-shandon-anderson-tran-3192528
p2420
asg17
g18
sg19
(lp2421
Vhttp://img.beckett.com/images/no-image.jpg
p2422
asg22
V#128
p2423
sg24
V1999-00
p2424
sg142
VTRAN
p2425
sg26
g27
sg28
(lp2426
VShandon Anderson
p2427
assbag1
(g2
g3
Ntp2428
Rp2429
(dp2430
g7
(dp2431
g9
V1999-00 Stadium Club Chrome First Day Issue #149 Quincy Lewis
p2432
sg11
I100
sg12
VStadium Club Chrome First Day Issue
p2433
sg14
(lp2434
Vhttp://www.beckett.com/basketball/1999-00/stadium-club-chrome-first-day-issue/149-quincy-lewis-3192549
p2435
asg17
g18
sg19
(lp2436
Vhttp://img.beckett.com/images/no-image.jpg
p2437
asg22
V#149
p2438
sg24
V1999-00
p2439
sg26
g27
sg28
(lp2440
VQuincy Lewis
p2441
assbag1
(g2
g3
Ntp2442
Rp2443
(dp2444
g7
(dp2445
g9
V1999-00 Stadium Club Chrome First Day Issue #150 Scott Padgett
p2446
sg11
I100
sg12
VStadium Club Chrome First Day Issue
p2447
sg14
(lp2448
Vhttp://www.beckett.com/basketball/1999-00/stadium-club-chrome-first-day-issue/150-scott-padgett-3192550
p2449
asg17
g18
sg19
(lp2450
Vhttp://img.beckett.com/images/no-image.jpg
p2451
asg22
V#150
p2452
sg24
V1999-00
p2453
sg26
g27
sg28
(lp2454
VScott Padgett
p2455
assbag1
(g2
g3
Ntp2456
Rp2457
(dp2458
g7
(dp2459
g9
V1999-00 Stadium Club Chrome First Day Issue Refractors #4 Karl Malone
p2460
sg11
I25
sg12
VStadium Club Chrome First Day Issue Refractors
p2461
sg14
(lp2462
Vhttp://www.beckett.com/basketball/1999-00/stadium-club-chrome-first-day-issue-refractors/4-karl-malone-3192564
p2463
asg17
g18
sg19
(lp2464
Vhttp://img.beckett.com/images/no-image.jpg
p2465
asg22
V#4
p2466
sg24
V1999-00
p2467
sg26
g27
sg28
(lp2468
VKarl Malone
p2469
assbag1
(g2
g3
Ntp2470
Rp2471
(dp2472
g7
(dp2473
g9
V1999-00 Stadium Club Chrome First Day Issue Refractors #56 Jeff Hornacek
p2474
sg11
I25
sg12
VStadium Club Chrome First Day Issue Refractors
p2475
sg14
(lp2476
Vhttp://www.beckett.com/basketball/1999-00/stadium-club-chrome-first-day-issue-refractors/56-jeff-hornacek-3192616
p2477
asg17
g18
sg19
(lp2478
Vhttp://img.beckett.com/images/no-image.jpg
p2479
asg22
V#56
p2480
sg24
V1999-00
p2481
sg26
g27
sg28
(lp2482
VJeff Hornacek
p2483
assbag1
(g2
g3
Ntp2484
Rp2485
(dp2486
g7
(dp2487
g9
V1999-00 Stadium Club Chrome First Day Issue Refractors #76 Bryon Russell
p2488
sg11
I25
sg12
VStadium Club Chrome First Day Issue Refractors
p2489
sg14
(lp2490
Vhttp://www.beckett.com/basketball/1999-00/stadium-club-chrome-first-day-issue-refractors/76-bryon-russell-3192636
p2491
asg17
g18
sg19
(lp2492
Vhttp://img.beckett.com/images/no-image.jpg
p2493
asg22
V#76
p2494
sg24
V1999-00
p2495
sg26
g27
sg28
(lp2496
VBryon Russell
p2497
assbag1
(g2
g3
Ntp2498
Rp2499
(dp2500
g7
(dp2501
g9
V1999-00 Stadium Club Chrome First Day Issue Refractors #105 John Stockton
p2502
sg11
I25
sg12
VStadium Club Chrome First Day Issue Refractors
p2503
sg14
(lp2504
Vhttp://www.beckett.com/basketball/1999-00/stadium-club-chrome-first-day-issue-refractors/105-john-stockton-3192665
p2505
asg17
g18
sg19
(lp2506
Vhttp://img.beckett.com/images/no-image.jpg
p2507
asg22
V#105
p2508
sg24
V1999-00
p2509
sg26
g27
sg28
(lp2510
VJohn Stockton
p2511
assbag1
(g2
g3
Ntp2512
Rp2513
(dp2514
g7
(dp2515
g9
V1999-00 Stadium Club Chrome First Day Issue Refractors #128 Shandon Anderson TRAN
p2516
sg11
I25
sg12
VStadium Club Chrome First Day Issue Refractors
p2517
sg14
(lp2518
Vhttp://www.beckett.com/basketball/1999-00/stadium-club-chrome-first-day-issue-refractors/128-shandon-anderson-tran-3192688
p2519
asg17
g18
sg19
(lp2520
Vhttp://img.beckett.com/images/items_stock/185226/3192551/3192688/front.jpg
p2521
asg22
V#128
p2522
sg24
V1999-00
p2523
sg142
VTRAN
p2524
sg26
g27
sg28
(lp2525
VShandon Anderson
p2526
assbag1
(g2
g3
Ntp2527
Rp2528
(dp2529
g7
(dp2530
g9
V1999-00 Stadium Club Chrome First Day Issue Refractors #149 Quincy Lewis
p2531
sg11
I25
sg12
VStadium Club Chrome First Day Issue Refractors
p2532
sg14
(lp2533
Vhttp://www.beckett.com/basketball/1999-00/stadium-club-chrome-first-day-issue-refractors/149-quincy-lewis-3192709
p2534
asg17
g18
sg19
(lp2535
Vhttp://img.beckett.com/images/no-image.jpg
p2536
asg22
V#149
p2537
sg24
V1999-00
p2538
sg26
g27
sg28
(lp2539
VQuincy Lewis
p2540
assbag1
(g2
g3
Ntp2541
Rp2542
(dp2543
g7
(dp2544
g9
V1999-00 Stadium Club Chrome First Day Issue Refractors #150 Scott Padgett
p2545
sg11
I25
sg12
VStadium Club Chrome First Day Issue Refractors
p2546
sg14
(lp2547
Vhttp://www.beckett.com/basketball/1999-00/stadium-club-chrome-first-day-issue-refractors/150-scott-padgett-3192710
p2548
asg17
g18
sg19
(lp2549
Vhttp://img.beckett.com/images/no-image.jpg
p2550
asg22
V#150
p2551
sg24
V1999-00
p2552
sg26
g27
sg28
(lp2553
VScott Padgett
p2554
assbag1
(g2
g3
Ntp2555
Rp2556
(dp2557
g7
(dp2558
g9
V1999-00 Topps Gallery Player's Private Issue #16 John Stockton
p2559
sg11
I250
sg12
VTopps Gallery Player's Private Issue
p2560
sg14
(lp2561
Vhttp://www.beckett.com/basketball/1999-00/topps-gallery-players-private-issue/16-john-stockton-3190810
p2562
asg17
g18
sg19
(lp2563
Vhttp://img.beckett.com/images/items_stock/185226/3190784/3190810/front.jpg
p2564
asg22
V#16
p2565
sg24
V1999-00
p2566
sg26
g27
sg28
(lp2567
VJohn Stockton
p2568
assbag1
(g2
g3
Ntp2569
Rp2570
(dp2571
g7
(dp2572
g9
V1999-00 Topps Gallery Player's Private Issue #45 Karl Malone
p2573
sg11
I250
sg12
VTopps Gallery Player's Private Issue
p2574
sg14
(lp2575
Vhttp://www.beckett.com/basketball/1999-00/topps-gallery-players-private-issue/45-karl-malone-3190839
p2576
asg17
g18
sg19
(lp2577
Vhttp://img.beckett.com/images/no-image.jpg
p2578
asg22
V#45
p2579
sg24
V1999-00
p2580
sg26
g27
sg28
(lp2581
VKarl Malone
p2582
assbag1
(g2
g3
Ntp2583
Rp2584
(dp2585
g7
(dp2586
g9
V1999-00 Topps Gallery Player's Private Issue #84 Jeff Hornacek
p2587
sg11
I250
sg12
VTopps Gallery Player's Private Issue
p2588
sg14
(lp2589
Vhttp://www.beckett.com/basketball/1999-00/topps-gallery-players-private-issue/84-jeff-hornacek-3190878
p2590
asg17
g18
sg19
(lp2591
Vhttp://img.beckett.com/images/no-image.jpg
p2592
asg22
V#84
p2593
sg24
V1999-00
p2594
sg26
g27
sg28
(lp2595
VJeff Hornacek
p2596
assbag1
(g2
g3
Ntp2597
Rp2598
(dp2599
g7
(dp2600
g9
V1999-00 Topps Gallery Player's Private Issue #101 Karl Malone MAS
p2601
sg11
I250
sg12
VTopps Gallery Player's Private Issue
p2602
sg14
(lp2603
Vhttp://www.beckett.com/basketball/1999-00/topps-gallery-players-private-issue/101-karl-malone-mas-3190895
p2604
asg17
g18
sg19
(lp2605
Vhttp://img.beckett.com/images/items_stock/185226/3190784/3190895/front.jpg
p2606
asg22
V#101
p2607
sg24
V1999-00
p2608
sg142
VMAS
p2609
sg26
g27
sg28
(lp2610
VKarl Malone
p2611
assbag1
(g2
g3
Ntp2612
Rp2613
(dp2614
g7
(dp2615
g9
V1999-00 Topps Gallery Player's Private Issue #108 John Stockton MAS
p2616
sg11
I250
sg12
VTopps Gallery Player's Private Issue
p2617
sg14
(lp2618
Vhttp://www.beckett.com/basketball/1999-00/topps-gallery-players-private-issue/108-john-stockton-mas-3190902
p2619
asg17
g18
sg19
(lp2620
Vhttp://img.beckett.com/images/items_stock/185226/3190784/3190902/front.jpg
p2621
asg22
V#108
p2622
sg24
V1999-00
p2623
sg142
VMAS
p2624
sg26
g27
sg28
(lp2625
VJohn Stockton
p2626
assbag1
(g2
g3
Ntp2627
Rp2628
(dp2629
g7
(dp2630
g9
V1999-00 Topps Gallery Player's Private Issue #142 Quincy Lewis
p2631
sg11
I250
sg12
VTopps Gallery Player's Private Issue
p2632
sg14
(lp2633
Vhttp://www.beckett.com/basketball/1999-00/topps-gallery-players-private-issue/142-quincy-lewis-3190936
p2634
asg17
g18
sg19
(lp2635
Vhttp://img.beckett.com/images/no-image.jpg
p2636
asg22
V#142
p2637
sg24
V1999-00
p2638
sg26
g27
sg28
(lp2639
VQuincy Lewis
p2640
assbag1
(g2
g3
Ntp2641
Rp2642
(dp2643
g7
(dp2644
g9
V1999-00 Topps Gallery Player's Private Issue #149 Scott Padgett
p2645
sg11
I250
sg12
VTopps Gallery Player's Private Issue
p2646
sg14
(lp2647
Vhttp://www.beckett.com/basketball/1999-00/topps-gallery-players-private-issue/149-scott-padgett-3190943
p2648
asg17
g18
sg19
(lp2649
Vhttp://img.beckett.com/images/no-image.jpg
p2650
asg22
V#149
p2651
sg24
V1999-00
p2652
sg26
g27
sg28
(lp2653
VScott Padgett
p2654
assbag1
(g2
g3
Ntp2655
Rp2656
(dp2657
g7
(dp2658
g9
V1999-00 Topps Gold Label Class 1 One to One #3 Jeff Hornacek
p2659
sg11
I1
sg12
VTopps Gold Label Class 1 One to One
p2660
sg14
(lp2661
Vhttp://www.beckett.com/basketball/1999-00/topps-gold-label-class-1-one-to-one/3-jeff-hornacek-3188721
p2662
asg17
g18
sg19
(lp2663
Vhttp://img.beckett.com/images/no-image.jpg
p2664
asg22
V#3
p2665
sg24
V1999-00
p2666
sg26
g27
sg28
(lp2667
VJeff Hornacek
p2668
assbag1
(g2
g3
Ntp2669
Rp2670
(dp2671
g7
(dp2672
g9
V1999-00 Topps Gold Label Class 1 One to One #30 Karl Malone
p2673
sg11
I1
sg12
VTopps Gold Label Class 1 One to One
p2674
sg14
(lp2675
Vhttp://www.beckett.com/basketball/1999-00/topps-gold-label-class-1-one-to-one/30-karl-malone-3188748
p2676
asg17
g18
sg19
(lp2677
Vhttp://img.beckett.com/images/no-image.jpg
p2678
asg22
V#30
p2679
sg24
V1999-00
p2680
sg26
g27
sg28
(lp2681
VKarl Malone
p2682
assbag1
(g2
g3
Ntp2683
Rp2684
(dp2685
g7
(dp2686
g9
V1999-00 Topps Gold Label Class 1 One to One #79 John Stockton
p2687
sg11
I1
sg12
VTopps Gold Label Class 1 One to One
p2688
sg14
(lp2689
Vhttp://www.beckett.com/basketball/1999-00/topps-gold-label-class-1-one-to-one/79-john-stockton-3188797
p2690
asg17
g18
sg19
(lp2691
Vhttp://img.beckett.com/images/no-image.jpg
p2692
asg22
V#79
p2693
sg24
V1999-00
p2694
sg26
g27
sg28
(lp2695
VJohn Stockton
p2696
assbag1
(g2
g3
Ntp2697
Rp2698
(dp2699
g7
(dp2700
g9
V1999-00 Topps Gold Label Class 1 Red Label #3 Jeff Hornacek
p2701
sg11
I100
sg12
VTopps Gold Label Class 1 Red Label
p2702
sg14
(lp2703
Vhttp://www.beckett.com/basketball/1999-00/topps-gold-label-class-1-red-label/3-jeff-hornacek-3188831
p2704
asg17
g18
sg19
(lp2705
Vhttp://img.beckett.com/images/no-image.jpg
p2706
asg22
V#3
p2707
sg24
V1999-00
p2708
sg26
g27
sg28
(lp2709
VJeff Hornacek
p2710
assbag1
(g2
g3
Ntp2711
Rp2712
(dp2713
g7
(dp2714
g9
V1999-00 Topps Gold Label Class 1 Red Label #30 Karl Malone
p2715
sg11
I100
sg12
VTopps Gold Label Class 1 Red Label
p2716
sg14
(lp2717
Vhttp://www.beckett.com/basketball/1999-00/topps-gold-label-class-1-red-label/30-karl-malone-3188858
p2718
asg17
g18
sg19
(lp2719
Vhttp://img.beckett.com/images/no-image.jpg
p2720
asg22
V#30
p2721
sg24
V1999-00
p2722
sg26
g27
sg28
(lp2723
VKarl Malone
p2724
assbag1
(g2
g3
Ntp2725
Rp2726
(dp2727
g7
(dp2728
g9
V1999-00 Topps Gold Label Class 1 Red Label #79 John Stockton
p2729
sg11
I100
sg12
VTopps Gold Label Class 1 Red Label
p2730
sg14
(lp2731
Vhttp://www.beckett.com/basketball/1999-00/topps-gold-label-class-1-red-label/79-john-stockton-3188907
p2732
asg17
g18
sg19
(lp2733
Vhttp://img.beckett.com/images/no-image.jpg
p2734
asg22
V#79
p2735
sg24
V1999-00
p2736
sg26
g27
sg28
(lp2737
VJohn Stockton
p2738
assbag1
(g2
g3
Ntp2739
Rp2740
(dp2741
g7
(dp2742
g9
V1999-00 Topps Gold Label Class 2 One to One #3 Jeff Hornacek
p2743
sg11
I1
sg12
VTopps Gold Label Class 2 One to One
p2744
sg14
(lp2745
Vhttp://www.beckett.com/basketball/1999-00/topps-gold-label-class-2-one-to-one/3-jeff-hornacek-3189167
p2746
asg17
g18
sg19
(lp2747
Vhttp://img.beckett.com/images/no-image.jpg
p2748
asg22
V#3
p2749
sg24
V1999-00
p2750
sg26
g27
sg28
(lp2751
VJeff Hornacek
p2752
assbag1
(g2
g3
Ntp2753
Rp2754
(dp2755
g7
(dp2756
g9
V1999-00 Topps Gold Label Class 2 One to One #30 Karl Malone
p2757
sg11
I1
sg12
VTopps Gold Label Class 2 One to One
p2758
sg14
(lp2759
Vhttp://www.beckett.com/basketball/1999-00/topps-gold-label-class-2-one-to-one/30-karl-malone-3189194
p2760
asg17
g18
sg19
(lp2761
Vhttp://img.beckett.com/images/no-image.jpg
p2762
asg22
V#30
p2763
sg24
V1999-00
p2764
sg26
g27
sg28
(lp2765
VKarl Malone
p2766
assbag1
(g2
g3
Ntp2767
Rp2768
(dp2769
g7
(dp2770
g9
V1999-00 Topps Gold Label Class 2 One to One #79 John Stockton
p2771
sg11
I1
sg12
VTopps Gold Label Class 2 One to One
p2772
sg14
(lp2773
Vhttp://www.beckett.com/basketball/1999-00/topps-gold-label-class-2-one-to-one/79-john-stockton-3189243
p2774
asg17
g18
sg19
(lp2775
Vhttp://img.beckett.com/images/no-image.jpg
p2776
asg22
V#79
p2777
sg24
V1999-00
p2778
sg26
g27
sg28
(lp2779
VJohn Stockton
p2780
assbag1
(g2
g3
Ntp2781
Rp2782
(dp2783
g7
(dp2784
g9
V1999-00 Topps Gold Label Class 2 Red Label #3 Jeff Hornacek
p2785
sg11
I50
sg12
VTopps Gold Label Class 2 Red Label
p2786
sg14
(lp2787
Vhttp://www.beckett.com/basketball/1999-00/topps-gold-label-class-2-red-label/3-jeff-hornacek-3189277
p2788
asg17
g18
sg19
(lp2789
Vhttp://img.beckett.com/images/no-image.jpg
p2790
asg22
V#3
p2791
sg24
V1999-00
p2792
sg26
g27
sg28
(lp2793
VJeff Hornacek
p2794
assbag1
(g2
g3
Ntp2795
Rp2796
(dp2797
g7
(dp2798
g9
V1999-00 Topps Gold Label Class 2 Red Label #30 Karl Malone
p2799
sg11
I50
sg12
VTopps Gold Label Class 2 Red Label
p2800
sg14
(lp2801
Vhttp://www.beckett.com/basketball/1999-00/topps-gold-label-class-2-red-label/30-karl-malone-3189304
p2802
asg17
g18
sg19
(lp2803
Vhttp://img.beckett.com/images/no-image.jpg
p2804
asg22
V#30
p2805
sg24
V1999-00
p2806
sg26
g27
sg28
(lp2807
VKarl Malone
p2808
assbag1
(g2
g3
Ntp2809
Rp2810
(dp2811
g7
(dp2812
g9
V1999-00 Topps Gold Label Class 2 Red Label #79 John Stockton
p2813
sg11
I50
sg12
VTopps Gold Label Class 2 Red Label
p2814
sg14
(lp2815
Vhttp://www.beckett.com/basketball/1999-00/topps-gold-label-class-2-red-label/79-john-stockton-3189353
p2816
asg17
g18
sg19
(lp2817
Vhttp://img.beckett.com/images/no-image.jpg
p2818
asg22
V#79
p2819
sg24
V1999-00
p2820
sg26
g27
sg28
(lp2821
VJohn Stockton
p2822
assbag1
(g2
g3
Ntp2823
Rp2824
(dp2825
g7
(dp2826
g9
V1999-00 Topps Gold Label Class 3 One to One #3 Jeff Hornacek
p2827
sg11
I1
sg12
VTopps Gold Label Class 3 One to One
p2828
sg14
(lp2829
Vhttp://www.beckett.com/basketball/1999-00/topps-gold-label-class-3-one-to-one/3-jeff-hornacek-3189613
p2830
asg17
g18
sg19
(lp2831
Vhttp://img.beckett.com/images/no-image.jpg
p2832
asg22
V#3
p2833
sg24
V1999-00
p2834
sg26
g27
sg28
(lp2835
VJeff Hornacek
p2836
assbag1
(g2
g3
Ntp2837
Rp2838
(dp2839
g7
(dp2840
g9
V1999-00 Topps Gold Label Class 3 One to One #30 Karl Malone
p2841
sg11
I1
sg12
VTopps Gold Label Class 3 One to One
p2842
sg14
(lp2843
Vhttp://www.beckett.com/basketball/1999-00/topps-gold-label-class-3-one-to-one/30-karl-malone-3189640
p2844
asg17
g18
sg19
(lp2845
Vhttp://img.beckett.com/images/no-image.jpg
p2846
asg22
V#30
p2847
sg24
V1999-00
p2848
sg26
g27
sg28
(lp2849
VKarl Malone
p2850
assbag1
(g2
g3
Ntp2851
Rp2852
(dp2853
g7
(dp2854
g9
V1999-00 Topps Gold Label Class 3 One to One #79 John Stockton
p2855
sg11
I1
sg12
VTopps Gold Label Class 3 One to One
p2856
sg14
(lp2857
Vhttp://www.beckett.com/basketball/1999-00/topps-gold-label-class-3-one-to-one/79-john-stockton-3189689
p2858
asg17
g18
sg19
(lp2859
Vhttp://img.beckett.com/images/no-image.jpg
p2860
asg22
V#79
p2861
sg24
V1999-00
p2862
sg26
g27
sg28
(lp2863
VJohn Stockton
p2864
assbag1
(g2
g3
Ntp2865
Rp2866
(dp2867
g7
(dp2868
g9
V1999-00 Topps Gold Label Class 3 Red Label #3 Jeff Hornacek
p2869
sg11
I25
sg12
VTopps Gold Label Class 3 Red Label
p2870
sg14
(lp2871
Vhttp://www.beckett.com/basketball/1999-00/topps-gold-label-class-3-red-label/3-jeff-hornacek-3187424
p2872
asg17
g18
sg19
(lp2873
Vhttp://img.beckett.com/images/no-image.jpg
p2874
asg22
V#3
p2875
sg24
V1999-00
p2876
sg26
g27
sg28
(lp2877
VJeff Hornacek
p2878
assbag1
(g2
g3
Ntp2879
Rp2880
(dp2881
g7
(dp2882
g9
V1999-00 Topps Gold Label Class 3 Red Label #30 Karl Malone
p2883
sg11
I25
sg12
VTopps Gold Label Class 3 Red Label
p2884
sg14
(lp2885
Vhttp://www.beckett.com/basketball/1999-00/topps-gold-label-class-3-red-label/30-karl-malone-3187451
p2886
asg17
g18
sg19
(lp2887
Vhttp://img.beckett.com/images/no-image.jpg
p2888
asg22
V#30
p2889
sg24
V1999-00
p2890
sg26
g27
sg28
(lp2891
VKarl Malone
p2892
assbag1
(g2
g3
Ntp2893
Rp2894
(dp2895
g7
(dp2896
g9
V1999-00 Topps Gold Label Class 3 Red Label #79 John Stockton
p2897
sg11
I25
sg12
VTopps Gold Label Class 3 Red Label
p2898
sg14
(lp2899
Vhttp://www.beckett.com/basketball/1999-00/topps-gold-label-class-3-red-label/79-john-stockton-3187500
p2900
asg17
g18
sg19
(lp2901
Vhttp://img.beckett.com/images/no-image.jpg
p2902
asg22
V#79
p2903
sg24
V1999-00
p2904
sg26
g27
sg28
(lp2905
VJohn Stockton
p2906
assbag1
(g2
g3
Ntp2907
Rp2908
(dp2909
g7
(dp2910
g9
V1999-00 UD Ionix Reciprocal #78 Quincy Lewis
p2911
sg11
I100
sg12
VUD Ionix Reciprocal
p2912
sg14
(lp2913
Vhttp://www.beckett.com/basketball/1999-00/ud-ionix-reciprocal/78-quincy-lewis-3188109
p2914
asg17
g18
sg19
(lp2915
Vhttp://img.beckett.com/images/no-image.jpg
p2916
asg22
V#78
p2917
sg24
V1999-00
p2918
sg26
g27
sg28
(lp2919
VQuincy Lewis
p2920
assbag1
(g2
g3
Ntp2921
Rp2922
(dp2923
g7
(dp2924
g9
V1999-00 UD Ionix Reciprocal #86 Scott Padgett
p2925
sg11
I100
sg12
VUD Ionix Reciprocal
p2926
sg14
(lp2927
Vhttp://www.beckett.com/basketball/1999-00/ud-ionix-reciprocal/86-scott-padgett-3188117
p2928
asg17
g18
sg19
(lp2929
Vhttp://img.beckett.com/images/no-image.jpg
p2930
asg22
V#86
p2931
sg24
V1999-00
p2932
sg26
g27
sg28
(lp2933
VScott Padgett
p2934
assbag1
(g2
g3
Ntp2935
Rp2936
(dp2937
g7
(dp2938
g9
V1999-00 Ultimate Victory 1 of 1 #82 Karl Malone
p2939
sg11
I1
sg12
VUltimate Victory 1 of 1
p2940
sg14
(lp2941
Vhttp://www.beckett.com/basketball/1999-00/ultimate-victory-1-of-1/82-karl-malone-3180446
p2942
asg17
g18
sg19
(lp2943
Vhttp://img.beckett.com/images/no-image.jpg
p2944
asg22
V#82
p2945
sg24
V1999-00
p2946
sg26
g27
sg28
(lp2947
VKarl Malone
p2948
assbag1
(g2
g3
Ntp2949
Rp2950
(dp2951
g7
(dp2952
g9
V1999-00 Ultimate Victory 1 of 1 #83 John Stockton
p2953
sg11
I1
sg12
VUltimate Victory 1 of 1
p2954
sg14
(lp2955
Vhttp://www.beckett.com/basketball/1999-00/ultimate-victory-1-of-1/83-john-stockton-3180447
p2956
asg17
g18
sg19
(lp2957
Vhttp://img.beckett.com/images/no-image.jpg
p2958
asg22
V#83
p2959
sg24
V1999-00
p2960
sg26
g27
sg28
(lp2961
VJohn Stockton
p2962
assbag1
(g2
g3
Ntp2963
Rp2964
(dp2965
g7
(dp2966
g9
V1999-00 Ultimate Victory 1 of 1 #84 Bryon Russell
p2967
sg11
I1
sg12
VUltimate Victory 1 of 1
p2968
sg14
(lp2969
Vhttp://www.beckett.com/basketball/1999-00/ultimate-victory-1-of-1/84-bryon-russell-3180448
p2970
asg17
g18
sg19
(lp2971
Vhttp://img.beckett.com/images/no-image.jpg
p2972
asg22
V#84
p2973
sg24
V1999-00
p2974
sg26
g27
sg28
(lp2975
VBryon Russell
p2976
assbag1
(g2
g3
Ntp2977
Rp2978
(dp2979
g7
(dp2980
g9
V1999-00 Ultimate Victory 1 of 1 #138 Quincy Lewis
p2981
sg11
I1
sg12
VUltimate Victory 1 of 1
p2982
sg14
(lp2983
Vhttp://www.beckett.com/basketball/1999-00/ultimate-victory-1-of-1/138-quincy-lewis-3180502
p2984
asg17
g18
sg19
(lp2985
Vhttp://img.beckett.com/images/no-image.jpg
p2986
asg22
V#138
p2987
sg24
V1999-00
p2988
sg26
g27
sg28
(lp2989
VQuincy Lewis
p2990
assbag1
(g2
g3
Ntp2991
Rp2992
(dp2993
g7
(dp2994
g9
V1999-00 Ultimate Victory 1 of 1 #146 Scott Padgett
p2995
sg11
I1
sg12
VUltimate Victory 1 of 1
p2996
sg14
(lp2997
Vhttp://www.beckett.com/basketball/1999-00/ultimate-victory-1-of-1/146-scott-padgett-3180510
p2998
asg17
g18
sg19
(lp2999
Vhttp://img.beckett.com/images/no-image.jpg
p3000
asg22
V#146
p3001
sg24
V1999-00
p3002
sg26
g27
sg28
(lp3003
VScott Padgett
p3004
assbag1
(g2
g3
Ntp3005
Rp3006
(dp3007
g7
(dp3008
g9
V1999-00 Ultimate Victory Parallel 100 #82 Karl Malone
p3009
sg11
I100
sg12
VUltimate Victory Parallel 100
p3010
sg14
(lp3011
Vhttp://www.beckett.com/basketball/1999-00/ultimate-victory-parallel-100/82-karl-malone-3180768
p3012
asg17
g18
sg19
(lp3013
Vhttp://img.beckett.com/images/no-image.jpg
p3014
asg22
V#82
p3015
sg24
V1999-00
p3016
sg26
g27
sg28
(lp3017
VKarl Malone
p3018
assbag1
(g2
g3
Ntp3019
Rp3020
(dp3021
g7
(dp3022
g9
V1999-00 Ultimate Victory Parallel 100 #83 John Stockton
p3023
sg11
I100
sg12
VUltimate Victory Parallel 100
p3024
sg14
(lp3025
Vhttp://www.beckett.com/basketball/1999-00/ultimate-victory-parallel-100/83-john-stockton-3180769
p3026
asg17
g18
sg19
(lp3027
Vhttp://img.beckett.com/images/no-image.jpg
p3028
asg22
V#83
p3029
sg24
V1999-00
p3030
sg26
g27
sg28
(lp3031
VJohn Stockton
p3032
assbag1
(g2
g3
Ntp3033
Rp3034
(dp3035
g7
(dp3036
g9
V1999-00 Ultimate Victory Parallel 100 #84 Bryon Russell
p3037
sg11
I100
sg12
VUltimate Victory Parallel 100
p3038
sg14
(lp3039
Vhttp://www.beckett.com/basketball/1999-00/ultimate-victory-parallel-100/84-bryon-russell-3180770
p3040
asg17
g18
sg19
(lp3041
Vhttp://img.beckett.com/images/no-image.jpg
p3042
asg22
V#84
p3043
sg24
V1999-00
p3044
sg26
g27
sg28
(lp3045
VBryon Russell
p3046
assbag1
(g2
g3
Ntp3047
Rp3048
(dp3049
g7
(dp3050
g9
V1999-00 Ultimate Victory Parallel 100 #138 Quincy Lewis
p3051
sg11
I100
sg12
VUltimate Victory Parallel 100
p3052
sg14
(lp3053
Vhttp://www.beckett.com/basketball/1999-00/ultimate-victory-parallel-100/138-quincy-lewis-3180824
p3054
asg17
g18
sg19
(lp3055
Vhttp://img.beckett.com/images/no-image.jpg
p3056
asg22
V#138
p3057
sg24
V1999-00
p3058
sg26
g27
sg28
(lp3059
VQuincy Lewis
p3060
assbag1
(g2
g3
Ntp3061
Rp3062
(dp3063
g7
(dp3064
g9
V1999-00 Ultimate Victory Parallel 100 #146 Scott Padgett
p3065
sg11
I100
sg12
VUltimate Victory Parallel 100
p3066
sg14
(lp3067
Vhttp://www.beckett.com/basketball/1999-00/ultimate-victory-parallel-100/146-scott-padgett-3180832
p3068
asg17
g18
sg19
(lp3069
Vhttp://img.beckett.com/images/no-image.jpg
p3070
asg22
V#146
p3071
sg24
V1999-00
p3072
sg26
g27
sg28
(lp3073
VScott Padgett
p3074
assbag1
(g2
g3
Ntp3075
Rp3076
(dp3077
g7
(dp3078
g9
V1999-00 Ultra Masterpieces #32 John Stockton
p3079
sg11
I1
sg12
VUltra Masterpieces
p3080
sg14
(lp3081
Vhttp://www.beckett.com/basketball/1999-00/ultra-masterpieces/32-john-stockton-3206023
p3082
asg17
g18
sg19
(lp3083
Vhttp://img.beckett.com/images/no-image.jpg
p3084
asg22
V#32
p3085
sg24
V1999-00
p3086
sg26
g27
sg28
(lp3087
VJohn Stockton
p3088
assbag1
(g2
g3
Ntp3089
Rp3090
(dp3091
g7
(dp3092
g9
V1999-00 Ultra Masterpieces #48 Karl Malone
p3093
sg11
I1
sg12
VUltra Masterpieces
p3094
sg14
(lp3095
Vhttp://www.beckett.com/basketball/1999-00/ultra-masterpieces/48-karl-malone-3206039
p3096
asg17
g18
sg19
(lp3097
Vhttp://img.beckett.com/images/no-image.jpg
p3098
asg22
V#48
p3099
sg24
V1999-00
p3100
sg26
g27
sg28
(lp3101
VKarl Malone
p3102
assbag1
(g2
g3
Ntp3103
Rp3104
(dp3105
g7
(dp3106
g9
V1999-00 Ultra Masterpieces #75 Bryon Russell
p3107
sg11
I1
sg12
VUltra Masterpieces
p3108
sg14
(lp3109
Vhttp://www.beckett.com/basketball/1999-00/ultra-masterpieces/75-bryon-russell-3206066
p3110
asg17
g18
sg19
(lp3111
Vhttp://img.beckett.com/images/no-image.jpg
p3112
asg22
V#75
p3113
sg24
V1999-00
p3114
sg26
g27
sg28
(lp3115
VBryon Russell
p3116
assbag1
(g2
g3
Ntp3117
Rp3118
(dp3119
g7
(dp3120
g9
V1999-00 Ultra Masterpieces #138 Scott Padgett
p3121
sg11
I1
sg12
VUltra Masterpieces
p3122
sg14
(lp3123
Vhttp://www.beckett.com/basketball/1999-00/ultra-masterpieces/138-scott-padgett-3206129
p3124
asg17
g18
sg19
(lp3125
Vhttp://img.beckett.com/images/no-image.jpg
p3126
asg22
V#138
p3127
sg24
V1999-00
p3128
sg26
g27
sg28
(lp3129
VScott Padgett
p3130
assbag1
(g2
g3
Ntp3131
Rp3132
(dp3133
g7
(dp3134
g9
V1999-00 Ultra Masterpieces #143 Quincy Lewis
p3135
sg11
I1
sg12
VUltra Masterpieces
p3136
sg14
(lp3137
Vhttp://www.beckett.com/basketball/1999-00/ultra-masterpieces/143-quincy-lewis-3206134
p3138
asg17
g18
sg19
(lp3139
Vhttp://img.beckett.com/images/no-image.jpg
p3140
asg22
V#143
p3141
sg24
V1999-00
p3142
sg26
g27
sg28
(lp3143
VQuincy Lewis
p3144
assbag1
(g2
g3
Ntp3145
Rp3146
(dp3147
g7
(dp3148
g9
V1999-00 Ultra Platinum Medallion #32 John Stockton
p3149
sg11
I50
sg12
VUltra Platinum Medallion
p3150
sg14
(lp3151
Vhttp://www.beckett.com/basketball/1999-00/ultra-platinum-medallion/32-john-stockton-3185838
p3152
asg17
g18
sg19
(lp3153
Vhttp://img.beckett.com/images/no-image.jpg
p3154
asg22
V#32
p3155
sg24
V1999-00
p3156
sg26
g27
sg28
(lp3157
VJohn Stockton
p3158
assbag1
(g2
g3
Ntp3159
Rp3160
(dp3161
g7
(dp3162
g9
V1999-00 Ultra Platinum Medallion #48 Karl Malone
p3163
sg11
I50
sg12
VUltra Platinum Medallion
p3164
sg14
(lp3165
Vhttp://www.beckett.com/basketball/1999-00/ultra-platinum-medallion/48-karl-malone-3185854
p3166
asg17
g18
sg19
(lp3167
Vhttp://img.beckett.com/images/no-image.jpg
p3168
asg22
V#48
p3169
sg24
V1999-00
p3170
sg26
g27
sg28
(lp3171
VKarl Malone
p3172
assbag1
(g2
g3
Ntp3173
Rp3174
(dp3175
g7
(dp3176
g9
V1999-00 Ultra Platinum Medallion #75 Bryon Russell
p3177
sg11
I50
sg12
VUltra Platinum Medallion
p3178
sg14
(lp3179
Vhttp://www.beckett.com/basketball/1999-00/ultra-platinum-medallion/75-bryon-russell-3185881
p3180
asg17
g18
sg19
(lp3181
Vhttp://img.beckett.com/images/no-image.jpg
p3182
asg22
V#75
p3183
sg24
V1999-00
p3184
sg26
g27
sg28
(lp3185
VBryon Russell
p3186
assbag1
(g2
g3
Ntp3187
Rp3188
(dp3189
g7
(dp3190
g9
V1999-00 Ultra Platinum Medallion #138 Scott Padgett
p3191
sg11
I25
sg12
VUltra Platinum Medallion
p3192
sg14
(lp3193
Vhttp://www.beckett.com/basketball/1999-00/ultra-platinum-medallion/138-scott-padgett-3185944
p3194
asg17
g18
sg19
(lp3195
Vhttp://img.beckett.com/images/no-image.jpg
p3196
asg22
V#138
p3197
sg24
V1999-00
p3198
sg26
g27
sg28
(lp3199
VScott Padgett
p3200
assbag1
(g2
g3
Ntp3201
Rp3202
(dp3203
g7
(dp3204
g9
V1999-00 Ultra Platinum Medallion #143 Quincy Lewis
p3205
sg11
I25
sg12
VUltra Platinum Medallion
p3206
sg14
(lp3207
Vhttp://www.beckett.com/basketball/1999-00/ultra-platinum-medallion/143-quincy-lewis-3185949
p3208
asg17
g18
sg19
(lp3209
Vhttp://img.beckett.com/images/no-image.jpg
p3210
asg22
V#143
p3211
sg24
V1999-00
p3212
sg26
g27
sg28
(lp3213
VQuincy Lewis
p3214
assbag1
(g2
g3
Ntp3215
Rp3216
(dp3217
g7
(dp3218
g9
V1999-00 Upper Deck Bronze #120 Karl Malone
p3219
sg11
I100
sg12
VUpper Deck Bronze
p3220
sg14
(lp3221
Vhttp://www.beckett.com/basketball/1999-00/upper-deck-bronze/120-karl-malone-3186647
p3222
asg17
g18
sg19
(lp3223
Vhttp://img.beckett.com/images/no-image.jpg
p3224
asg22
V#120
p3225
sg24
V1999-00
p3226
sg26
g27
sg28
(lp3227
VKarl Malone
p3228
assbag1
(g2
g3
Ntp3229
Rp3230
(dp3231
g7
(dp3232
g9
V1999-00 Upper Deck Bronze #121 John Stockton
p3233
sg11
I100
sg12
VUpper Deck Bronze
p3234
sg14
(lp3235
Vhttp://www.beckett.com/basketball/1999-00/upper-deck-bronze/121-john-stockton-3186648
p3236
asg17
g18
sg19
(lp3237
Vhttp://img.beckett.com/images/no-image.jpg
p3238
asg22
V#121
p3239
sg24
V1999-00
p3240
sg26
g27
sg28
(lp3241
VJohn Stockton
p3242
assbag1
(g2
g3
Ntp3243
Rp3244
(dp3245
g7
(dp3246
g9
V1999-00 Upper Deck Bronze #122 Howard Eisley
p3247
sg11
I100
sg12
VUpper Deck Bronze
p3248
sg14
(lp3249
Vhttp://www.beckett.com/basketball/1999-00/upper-deck-bronze/122-howard-eisley-3186649
p3250
asg17
g18
sg19
(lp3251
Vhttp://img.beckett.com/images/no-image.jpg
p3252
asg22
V#122
p3253
sg24
V1999-00
p3254
sg26
g27
sg28
(lp3255
VHoward Eisley
p3256
assbag1
(g2
g3
Ntp3257
Rp3258
(dp3259
g7
(dp3260
g9
V1999-00 Upper Deck Bronze #123 Bryon Russell
p3261
sg11
I100
sg12
VUpper Deck Bronze
p3262
sg14
(lp3263
Vhttp://www.beckett.com/basketball/1999-00/upper-deck-bronze/123-bryon-russell-3186650
p3264
asg17
g18
sg19
(lp3265
Vhttp://img.beckett.com/images/no-image.jpg
p3266
asg22
V#123
p3267
sg24
V1999-00
p3268
sg26
g27
sg28
(lp3269
VBryon Russell
p3270
assbag1
(g2
g3
Ntp3271
Rp3272
(dp3273
g7
(dp3274
g9
V1999-00 Upper Deck Bronze #124 Greg Ostertag
p3275
sg11
I100
sg12
VUpper Deck Bronze
p3276
sg14
(lp3277
Vhttp://www.beckett.com/basketball/1999-00/upper-deck-bronze/124-greg-ostertag-3186651
p3278
asg17
g18
sg19
(lp3279
Vhttp://img.beckett.com/images/no-image.jpg
p3280
asg22
V#124
p3281
sg24
V1999-00
p3282
sg26
g27
sg28
(lp3283
VGreg Ostertag
p3284
assbag1
(g2
g3
Ntp3285
Rp3286
(dp3287
g7
(dp3288
g9
V1999-00 Upper Deck Bronze #174 Quincy Lewis
p3289
sg11
I100
sg12
VUpper Deck Bronze
p3290
sg14
(lp3291
Vhttp://www.beckett.com/basketball/1999-00/upper-deck-bronze/174-quincy-lewis-3186701
p3292
asg17
g18
sg19
(lp3293
Vhttp://img.beckett.com/images/items_stock/185226/3186514/3186701/front.jpg
p3294
asg22
V#174
p3295
sg24
V1999-00
p3296
sg26
g27
sg28
(lp3297
VQuincy Lewis
p3298
assbag1
(g2
g3
Ntp3299
Rp3300
(dp3301
g7
(dp3302
g9
V1999-00 Upper Deck Bronze #225 Shandon Anderson
p3303
sg11
I100
sg12
VUpper Deck Bronze
p3304
sg14
(lp3305
Vhttp://www.beckett.com/basketball/1999-00/upper-deck-bronze/225-shandon-anderson-3186752
p3306
asg17
g18
sg19
(lp3307
Vhttp://img.beckett.com/images/no-image.jpg
p3308
asg22
V#225
p3309
sg24
V1999-00
p3310
sg26
g27
sg28
(lp3311
VShandon Anderson
p3312
assbag1
(g2
g3
Ntp3313
Rp3314
(dp3315
g7
(dp3316
g9
V1999-00 Upper Deck Bronze #302 Jeff Hornacek
p3317
sg11
I100
sg12
VUpper Deck Bronze
p3318
sg14
(lp3319
Vhttp://www.beckett.com/basketball/1999-00/upper-deck-bronze/302-jeff-hornacek-3186829
p3320
asg17
g18
sg19
(lp3321
Vhttp://img.beckett.com/images/items_stock/185226/3186514/3186829/front.jpg
p3322
asg22
V#302
p3323
sg24
V1999-00
p3324
sg26
g27
sg28
(lp3325
VJeff Hornacek
p3326
assbag1
(g2
g3
Ntp3327
Rp3328
(dp3329
g7
(dp3330
g9
V1999-00 Upper Deck Bronze #303 Adam Keefe
p3331
sg11
I100
sg12
VUpper Deck Bronze
p3332
sg14
(lp3333
Vhttp://www.beckett.com/basketball/1999-00/upper-deck-bronze/303-adam-keefe-3186830
p3334
asg17
g18
sg19
(lp3335
Vhttp://img.beckett.com/images/items_stock/185226/3186514/3186830/front.jpg
p3336
asg22
V#303
p3337
sg24
V1999-00
p3338
sg26
g27
sg28
(lp3339
VAdam Keefe
p3340
assbag1
(g2
g3
Ntp3341
Rp3342
(dp3343
g7
(dp3344
g9
V1999-00 Upper Deck Bronze #333 Quincy Lewis
p3345
sg11
I100
sg12
VUpper Deck Bronze
p3346
sg14
(lp3347
Vhttp://www.beckett.com/basketball/1999-00/upper-deck-bronze/333-quincy-lewis-3186860
p3348
asg17
g18
sg19
(lp3349
Vhttp://img.beckett.com/images/no-image.jpg
p3350
asg22
V#333
p3351
sg24
V1999-00
p3352
sg26
g27
sg28
(lp3353
VQuincy Lewis
p3354
assbag1
(g2
g3
Ntp3355
Rp3356
(dp3357
g7
(dp3358
g9
V1999-00 Upper Deck Bronze #341 Scott Padgett
p3359
sg11
I100
sg12
VUpper Deck Bronze
p3360
sg14
(lp3361
Vhttp://www.beckett.com/basketball/1999-00/upper-deck-bronze/341-scott-padgett-3186868
p3362
asg17
g18
sg19
(lp3363
Vhttp://img.beckett.com/images/items_stock/185226/3186514/3186868/front.jpg
p3364
asg22
V#341
p3365
sg24
V1999-00
p3366
sg26
g27
sg28
(lp3367
VScott Padgett
p3368
assbag1
(g2
g3
Ntp3369
Rp3370
(dp3371
g7
(dp3372
g9
V1999-00 Upper Deck Gold #120 Karl Malone
p3373
sg11
I1
sg12
VUpper Deck Gold
p3374
sg14
(lp3375
Vhttp://www.beckett.com/basketball/1999-00/upper-deck-gold/120-karl-malone-3187012
p3376
asg17
g18
sg19
(lp3377
Vhttp://img.beckett.com/images/no-image.jpg
p3378
asg22
V#120
p3379
sg24
V1999-00
p3380
sg26
g27
sg28
(lp3381
VKarl Malone
p3382
assbag1
(g2
g3
Ntp3383
Rp3384
(dp3385
g7
(dp3386
g9
V1999-00 Upper Deck Gold #121 John Stockton
p3387
sg11
I1
sg12
VUpper Deck Gold
p3388
sg14
(lp3389
Vhttp://www.beckett.com/basketball/1999-00/upper-deck-gold/121-john-stockton-3187013
p3390
asg17
g18
sg19
(lp3391
Vhttp://img.beckett.com/images/no-image.jpg
p3392
asg22
V#121
p3393
sg24
V1999-00
p3394
sg26
g27
sg28
(lp3395
VJohn Stockton
p3396
assbag1
(g2
g3
Ntp3397
Rp3398
(dp3399
g7
(dp3400
g9
V1999-00 Upper Deck Gold #122 Howard Eisley
p3401
sg11
I1
sg12
VUpper Deck Gold
p3402
sg14
(lp3403
Vhttp://www.beckett.com/basketball/1999-00/upper-deck-gold/122-howard-eisley-3187014
p3404
asg17
g18
sg19
(lp3405
Vhttp://img.beckett.com/images/no-image.jpg
p3406
asg22
V#122
p3407
sg24
V1999-00
p3408
sg26
g27
sg28
(lp3409
VHoward Eisley
p3410
assbag1
(g2
g3
Ntp3411
Rp3412
(dp3413
g7
(dp3414
g9
V1999-00 Upper Deck Gold #123 Bryon Russell
p3415
sg11
I1
sg12
VUpper Deck Gold
p3416
sg14
(lp3417
Vhttp://www.beckett.com/basketball/1999-00/upper-deck-gold/123-bryon-russell-3187015
p3418
asg17
g18
sg19
(lp3419
Vhttp://img.beckett.com/images/no-image.jpg
p3420
asg22
V#123
p3421
sg24
V1999-00
p3422
sg26
g27
sg28
(lp3423
VBryon Russell
p3424
assbag1
(g2
g3
Ntp3425
Rp3426
(dp3427
g7
(dp3428
g9
V1999-00 Upper Deck Gold #124 Greg Ostertag
p3429
sg11
I1
sg12
VUpper Deck Gold
p3430
sg14
(lp3431
Vhttp://www.beckett.com/basketball/1999-00/upper-deck-gold/124-greg-ostertag-3187016
p3432
asg17
g18
sg19
(lp3433
Vhttp://img.beckett.com/images/no-image.jpg
p3434
asg22
V#124
p3435
sg24
V1999-00
p3436
sg26
g27
sg28
(lp3437
VGreg Ostertag
p3438
assbag1
(g2
g3
Ntp3439
Rp3440
(dp3441
g7
(dp3442
g9
V1999-00 Upper Deck Gold #174 Quincy Lewis
p3443
sg11
I1
sg12
VUpper Deck Gold
p3444
sg14
(lp3445
Vhttp://www.beckett.com/basketball/1999-00/upper-deck-gold/174-quincy-lewis-3187066
p3446
asg17
g18
sg19
(lp3447
Vhttp://img.beckett.com/images/no-image.jpg
p3448
asg22
V#174
p3449
sg24
V1999-00
p3450
sg26
g27
sg28
(lp3451
VQuincy Lewis
p3452
assbag1
(g2
g3
Ntp3453
Rp3454
(dp3455
g7
(dp3456
g9
V1999-00 Upper Deck Gold #225 Shandon Anderson
p3457
sg11
I1
sg12
VUpper Deck Gold
p3458
sg14
(lp3459
Vhttp://www.beckett.com/basketball/1999-00/upper-deck-gold/225-shandon-anderson-3187117
p3460
asg17
g18
sg19
(lp3461
Vhttp://img.beckett.com/images/no-image.jpg
p3462
asg22
V#225
p3463
sg24
V1999-00
p3464
sg26
g27
sg28
(lp3465
VShandon Anderson
p3466
assbag1
(g2
g3
Ntp3467
Rp3468
(dp3469
g7
(dp3470
g9
V1999-00 Upper Deck Gold #302 Jeff Hornacek
p3471
sg11
I1
sg12
VUpper Deck Gold
p3472
sg14
(lp3473
Vhttp://www.beckett.com/basketball/1999-00/upper-deck-gold/302-jeff-hornacek-3187194
p3474
asg17
g18
sg19
(lp3475
Vhttp://img.beckett.com/images/no-image.jpg
p3476
asg22
V#302
p3477
sg24
V1999-00
p3478
sg26
g27
sg28
(lp3479
VJeff Hornacek
p3480
assbag1
(g2
g3
Ntp3481
Rp3482
(dp3483
g7
(dp3484
g9
V1999-00 Upper Deck Gold #303 Adam Keefe
p3485
sg11
I1
sg12
VUpper Deck Gold
p3486
sg14
(lp3487
Vhttp://www.beckett.com/basketball/1999-00/upper-deck-gold/303-adam-keefe-3187195
p3488
asg17
g18
sg19
(lp3489
Vhttp://img.beckett.com/images/no-image.jpg
p3490
asg22
V#303
p3491
sg24
V1999-00
p3492
sg26
g27
sg28
(lp3493
VAdam Keefe
p3494
assbag1
(g2
g3
Ntp3495
Rp3496
(dp3497
g7
(dp3498
g9
V1999-00 Upper Deck Gold #333 Quincy Lewis
p3499
sg11
I1
sg12
VUpper Deck Gold
p3500
sg14
(lp3501
Vhttp://www.beckett.com/basketball/1999-00/upper-deck-gold/333-quincy-lewis-3187225
p3502
asg17
g18
sg19
(lp3503
Vhttp://img.beckett.com/images/no-image.jpg
p3504
asg22
V#333
p3505
sg24
V1999-00
p3506
sg26
g27
sg28
(lp3507
VQuincy Lewis
p3508
assbag1
(g2
g3
Ntp3509
Rp3510
(dp3511
g7
(dp3512
g9
V1999-00 Upper Deck Gold #341 Scott Padgett
p3513
sg11
I1
sg12
VUpper Deck Gold
p3514
sg14
(lp3515
Vhttp://www.beckett.com/basketball/1999-00/upper-deck-gold/341-scott-padgett-3187233
p3516
asg17
g18
sg19
(lp3517
Vhttp://img.beckett.com/images/no-image.jpg
p3518
asg22
V#341
p3519
sg24
V1999-00
p3520
sg26
g27
sg28
(lp3521
VScott Padgett
p3522
assbag1
(g2
g3
Ntp3523
Rp3524
(dp3525
g7
(dp3526
g9
V1999-00 Upper Deck Hardcourt Baseline Grooves Gold #55 Karl Malone
p3527
sg11
I1
sg12
VUpper Deck Hardcourt Baseline Grooves Gold
p3528
sg14
(lp3529
Vhttp://www.beckett.com/basketball/1999-00/upper-deck-hardcourt-baseline-grooves-gold/55-karl-malone-3183895
p3530
asg17
g18
sg19
(lp3531
Vhttp://img.beckett.com/images/no-image.jpg
p3532
asg22
V#55
p3533
sg24
V1999-00
p3534
sg26
g27
sg28
(lp3535
VKarl Malone
p3536
assbag1
(g2
g3
Ntp3537
Rp3538
(dp3539
g7
(dp3540
g9
V1999-00 Upper Deck Hardcourt Baseline Grooves Gold #56 John Stockton
p3541
sg11
I1
sg12
VUpper Deck Hardcourt Baseline Grooves Gold
p3542
sg14
(lp3543
Vhttp://www.beckett.com/basketball/1999-00/upper-deck-hardcourt-baseline-grooves-gold/56-john-stockton-3183896
p3544
asg17
g18
sg19
(lp3545
Vhttp://img.beckett.com/images/no-image.jpg
p3546
asg22
V#56
p3547
sg24
V1999-00
p3548
sg26
g27
sg28
(lp3549
VJohn Stockton
p3550
assbag1
(g2
g3
Ntp3551
Rp3552
(dp3553
g7
(dp3554
g9
V1999-00 Upper Deck Hardcourt Baseline Grooves Gold #70 Scott Padgett
p3555
sg11
I1
sg12
VUpper Deck Hardcourt Baseline Grooves Gold
p3556
sg14
(lp3557
Vhttp://www.beckett.com/basketball/1999-00/upper-deck-hardcourt-baseline-grooves-gold/70-scott-padgett-3183910
p3558
asg17
g18
sg19
(lp3559
Vhttp://img.beckett.com/images/no-image.jpg
p3560
asg22
V#70
p3561
sg24
V1999-00
p3562
sg26
g27
sg28
(lp3563
VScott Padgett
p3564
assbag1
(g2
g3
Ntp3565
Rp3566
(dp3567
g7
(dp3568
g9
V1999-00 Upper Deck Hardcourt Baseline Grooves Gold #87 Quincy Lewis
p3569
sg11
I1
sg12
VUpper Deck Hardcourt Baseline Grooves Gold
p3570
sg14
(lp3571
Vhttp://www.beckett.com/basketball/1999-00/upper-deck-hardcourt-baseline-grooves-gold/87-quincy-lewis-3183927
p3572
asg17
g18
sg19
(lp3573
Vhttp://img.beckett.com/images/no-image.jpg
p3574
asg22
V#87
p3575
sg24
V1999-00
p3576
sg26
g27
sg28
(lp3577
VQuincy Lewis
p3578
assbag1
(g2
g3
Ntp3579
Rp3580
(dp3581
g7
(dp3582
g9
V1999-00 Upper Deck Hardcourt Baseline Grooves Rainbow #55 Karl Malone
p3583
sg11
I500
sg12
VUpper Deck Hardcourt Baseline Grooves Rainbow
p3584
sg14
(lp3585
Vhttp://www.beckett.com/basketball/1999-00/upper-deck-hardcourt-baseline-grooves-rainbow/55-karl-malone-3183802
p3586
asg17
g18
sg19
(lp3587
Vhttp://img.beckett.com/images/no-image.jpg
p3588
asg22
V#55
p3589
sg24
V1999-00
p3590
sg26
g27
sg28
(lp3591
VKarl Malone
p3592
assbag1
(g2
g3
Ntp3593
Rp3594
(dp3595
g7
(dp3596
g9
V1999-00 Upper Deck Hardcourt Baseline Grooves Rainbow #56 John Stockton
p3597
sg11
I500
sg12
VUpper Deck Hardcourt Baseline Grooves Rainbow
p3598
sg14
(lp3599
Vhttp://www.beckett.com/basketball/1999-00/upper-deck-hardcourt-baseline-grooves-rainbow/56-john-stockton-3183803
p3600
asg17
g18
sg19
(lp3601
Vhttp://img.beckett.com/images/no-image.jpg
p3602
asg22
V#56
p3603
sg24
V1999-00
p3604
sg26
g27
sg28
(lp3605
VJohn Stockton
p3606
assbag1
(g2
g3
Ntp3607
Rp3608
(dp3609
g7
(dp3610
g9
V1999-00 Upper Deck Hardcourt Baseline Grooves Rainbow #70 Scott Padgett
p3611
sg11
I500
sg12
VUpper Deck Hardcourt Baseline Grooves Rainbow
p3612
sg14
(lp3613
Vhttp://www.beckett.com/basketball/1999-00/upper-deck-hardcourt-baseline-grooves-rainbow/70-scott-padgett-3183817
p3614
asg17
g18
sg19
(lp3615
Vhttp://img.beckett.com/images/no-image.jpg
p3616
asg22
V#70
p3617
sg24
V1999-00
p3618
sg26
g27
sg28
(lp3619
VScott Padgett
p3620
assbag1
(g2
g3
Ntp3621
Rp3622
(dp3623
g7
(dp3624
g9
V1999-00 Upper Deck Hardcourt Baseline Grooves Rainbow #87 Quincy Lewis
p3625
sg11
I500
sg12
VUpper Deck Hardcourt Baseline Grooves Rainbow
p3626
sg14
(lp3627
Vhttp://www.beckett.com/basketball/1999-00/upper-deck-hardcourt-baseline-grooves-rainbow/87-quincy-lewis-3183834
p3628
asg17
g18
sg19
(lp3629
Vhttp://img.beckett.com/images/items_stock/185226/3183740/3183834/front.jpg
p3630
asg22
V#87
p3631
sg24
V1999-00
p3632
sg26
g27
sg28
(lp3633
VQuincy Lewis
p3634
assbag1
(g2
g3
Ntp3635
Rp3636
(dp3637
g7
(dp3638
g9
V1999-00 Upper Deck Hardcourt Baseline Grooves Silver #55 Karl Malone
p3639
sg11
I50
sg12
VUpper Deck Hardcourt Baseline Grooves Silver
p3640
sg14
(lp3641
Vhttp://www.beckett.com/basketball/1999-00/upper-deck-hardcourt-baseline-grooves-silver/55-karl-malone-3183995
p3642
asg17
g18
sg19
(lp3643
Vhttp://img.beckett.com/images/no-image.jpg
p3644
asg22
V#55
p3645
sg24
V1999-00
p3646
sg26
g27
sg28
(lp3647
VKarl Malone
p3648
assbag1
(g2
g3
Ntp3649
Rp3650
(dp3651
g7
(dp3652
g9
V1999-00 Upper Deck Hardcourt Baseline Grooves Silver #56 John Stockton
p3653
sg11
I50
sg12
VUpper Deck Hardcourt Baseline Grooves Silver
p3654
sg14
(lp3655
Vhttp://www.beckett.com/basketball/1999-00/upper-deck-hardcourt-baseline-grooves-silver/56-john-stockton-3183996
p3656
asg17
g18
sg19
(lp3657
Vhttp://img.beckett.com/images/no-image.jpg
p3658
asg22
V#56
p3659
sg24
V1999-00
p3660
sg26
g27
sg28
(lp3661
VJohn Stockton
p3662
assbag1
(g2
g3
Ntp3663
Rp3664
(dp3665
g7
(dp3666
g9
V1999-00 Upper Deck Hardcourt Baseline Grooves Silver #70 Scott Padgett
p3667
sg11
I50
sg12
VUpper Deck Hardcourt Baseline Grooves Silver
p3668
sg14
(lp3669
Vhttp://www.beckett.com/basketball/1999-00/upper-deck-hardcourt-baseline-grooves-silver/70-scott-padgett-3184010
p3670
asg17
g18
sg19
(lp3671
Vhttp://img.beckett.com/images/no-image.jpg
p3672
asg22
V#70
p3673
sg24
V1999-00
p3674
sg26
g27
sg28
(lp3675
VScott Padgett
p3676
assbag1
(g2
g3
Ntp3677
Rp3678
(dp3679
g7
(dp3680
g9
V1999-00 Upper Deck Hardcourt Baseline Grooves Silver #87 Quincy Lewis
p3681
sg11
I50
sg12
VUpper Deck Hardcourt Baseline Grooves Silver
p3682
sg14
(lp3683
Vhttp://www.beckett.com/basketball/1999-00/upper-deck-hardcourt-baseline-grooves-silver/87-quincy-lewis-3184027
p3684
asg17
g18
sg19
(lp3685
Vhttp://img.beckett.com/images/no-image.jpg
p3686
asg22
V#87
p3687
sg24
V1999-00
p3688
sg26
g27
sg28
(lp3689
VQuincy Lewis
p3690
assbag1
(g2
g3
Ntp3691
Rp3692
(dp3693
g7
(dp3694
g9
V1999-00 Upper Deck MVP Gold Script #161 Karl Malone
p3695
sg11
I100
sg12
VUpper Deck MVP Gold Script
p3696
sg14
(lp3697
Vhttp://www.beckett.com/basketball/1999-00/upper-deck-mvp-gold-script/161-karl-malone-3182794
p3698
asg17
g18
sg19
(lp3699
Vhttp://img.beckett.com/images/no-image.jpg
p3700
asg22
V#161
p3701
sg24
V1999-00
p3702
sg26
g27
sg28
(lp3703
VKarl Malone
p3704
assbag1
(g2
g3
Ntp3705
Rp3706
(dp3707
g7
(dp3708
g9
V1999-00 Upper Deck MVP Gold Script #162 John Stockton
p3709
sg11
I100
sg12
VUpper Deck MVP Gold Script
p3710
sg14
(lp3711
Vhttp://www.beckett.com/basketball/1999-00/upper-deck-mvp-gold-script/162-john-stockton-3182795
p3712
asg17
g18
sg19
(lp3713
Vhttp://img.beckett.com/images/no-image.jpg
p3714
asg22
V#162
p3715
sg24
V1999-00
p3716
sg26
g27
sg28
(lp3717
VJohn Stockton
p3718
assbag1
(g2
g3
Ntp3719
Rp3720
(dp3721
g7
(dp3722
g9
V1999-00 Upper Deck MVP Gold Script #163 Jeff Hornacek
p3723
sg11
I100
sg12
VUpper Deck MVP Gold Script
p3724
sg14
(lp3725
Vhttp://www.beckett.com/basketball/1999-00/upper-deck-mvp-gold-script/163-jeff-hornacek-3182796
p3726
asg17
g18
sg19
(lp3727
Vhttp://img.beckett.com/images/no-image.jpg
p3728
asg22
V#163
p3729
sg24
V1999-00
p3730
sg26
g27
sg28
(lp3731
VJeff Hornacek
p3732
assbag1
(g2
g3
Ntp3733
Rp3734
(dp3735
g7
(dp3736
g9
V1999-00 Upper Deck MVP Gold Script #164 Bryon Russell
p3737
sg11
I100
sg12
VUpper Deck MVP Gold Script
p3738
sg14
(lp3739
Vhttp://www.beckett.com/basketball/1999-00/upper-deck-mvp-gold-script/164-bryon-russell-3182797
p3740
asg17
g18
sg19
(lp3741
Vhttp://img.beckett.com/images/no-image.jpg
p3742
asg22
V#164
p3743
sg24
V1999-00
p3744
sg26
g27
sg28
(lp3745
VBryon Russell
p3746
assbag1
(g2
g3
Ntp3747
Rp3748
(dp3749
g7
(dp3750
g9
V1999-00 Upper Deck MVP Gold Script #165 Howard Eisley
p3751
sg11
I100
sg12
VUpper Deck MVP Gold Script
p3752
sg14
(lp3753
Vhttp://www.beckett.com/basketball/1999-00/upper-deck-mvp-gold-script/165-howard-eisley-3182798
p3754
asg17
g18
sg19
(lp3755
Vhttp://img.beckett.com/images/items_stock/185226/3182624/3182798/front.jpg
p3756
asg22
V#165
p3757
sg24
V1999-00
p3758
sg26
g27
sg28
(lp3759
VHoward Eisley
p3760
assbag1
(g2
g3
Ntp3761
Rp3762
(dp3763
g7
(dp3764
g9
V1999-00 Upper Deck MVP Gold Script #166 Shandon Anderson
p3765
sg11
I100
sg12
VUpper Deck MVP Gold Script
p3766
sg14
(lp3767
Vhttp://www.beckett.com/basketball/1999-00/upper-deck-mvp-gold-script/166-shandon-anderson-3182799
p3768
asg17
g18
sg19
(lp3769
Vhttp://img.beckett.com/images/no-image.jpg
p3770
asg22
V#166
p3771
sg24
V1999-00
p3772
sg26
g27
sg28
(lp3773
VShandon Anderson
p3774
assbag1
(g2
g3
Ntp3775
Rp3776
(dp3777
g7
(dp3778
g9
V1999-00 Upper Deck MVP Super Script #161 Karl Malone
p3779
sg11
I25
sg12
VUpper Deck MVP Super Script
p3780
sg14
(lp3781
Vhttp://www.beckett.com/basketball/1999-00/upper-deck-mvp-super-script/161-karl-malone-3183024
p3782
asg17
g18
sg19
(lp3783
Vhttp://img.beckett.com/images/no-image.jpg
p3784
asg22
V#161
p3785
sg24
V1999-00
p3786
sg26
g27
sg28
(lp3787
VKarl Malone
p3788
assbag1
(g2
g3
Ntp3789
Rp3790
(dp3791
g7
(dp3792
g9
V1999-00 Upper Deck MVP Super Script #162 John Stockton
p3793
sg11
I25
sg12
VUpper Deck MVP Super Script
p3794
sg14
(lp3795
Vhttp://www.beckett.com/basketball/1999-00/upper-deck-mvp-super-script/162-john-stockton-3183025
p3796
asg17
g18
sg19
(lp3797
Vhttp://img.beckett.com/images/no-image.jpg
p3798
asg22
V#162
p3799
sg24
V1999-00
p3800
sg26
g27
sg28
(lp3801
VJohn Stockton
p3802
assbag1
(g2
g3
Ntp3803
Rp3804
(dp3805
g7
(dp3806
g9
V1999-00 Upper Deck MVP Super Script #163 Jeff Hornacek
p3807
sg11
I25
sg12
VUpper Deck MVP Super Script
p3808
sg14
(lp3809
Vhttp://www.beckett.com/basketball/1999-00/upper-deck-mvp-super-script/163-jeff-hornacek-3183026
p3810
asg17
g18
sg19
(lp3811
Vhttp://img.beckett.com/images/no-image.jpg
p3812
asg22
V#163
p3813
sg24
V1999-00
p3814
sg26
g27
sg28
(lp3815
VJeff Hornacek
p3816
assbag1
(g2
g3
Ntp3817
Rp3818
(dp3819
g7
(dp3820
g9
V1999-00 Upper Deck MVP Super Script #164 Bryon Russell
p3821
sg11
I25
sg12
VUpper Deck MVP Super Script
p3822
sg14
(lp3823
Vhttp://www.beckett.com/basketball/1999-00/upper-deck-mvp-super-script/164-bryon-russell-3183027
p3824
asg17
g18
sg19
(lp3825
Vhttp://img.beckett.com/images/no-image.jpg
p3826
asg22
V#164
p3827
sg24
V1999-00
p3828
sg26
g27
sg28
(lp3829
VBryon Russell
p3830
assbag1
(g2
g3
Ntp3831
Rp3832
(dp3833
g7
(dp3834
g9
V1999-00 Upper Deck MVP Super Script #165 Howard Eisley
p3835
sg11
I25
sg12
VUpper Deck MVP Super Script
p3836
sg14
(lp3837
Vhttp://www.beckett.com/basketball/1999-00/upper-deck-mvp-super-script/165-howard-eisley-3183028
p3838
asg17
g18
sg19
(lp3839
Vhttp://img.beckett.com/images/no-image.jpg
p3840
asg22
V#165
p3841
sg24
V1999-00
p3842
sg26
g27
sg28
(lp3843
VHoward Eisley
p3844
assbag1
(g2
g3
Ntp3845
Rp3846
(dp3847
g7
(dp3848
g9
V1999-00 Upper Deck MVP Super Script #166 Shandon Anderson
p3849
sg11
I25
sg12
VUpper Deck MVP Super Script
p3850
sg14
(lp3851
Vhttp://www.beckett.com/basketball/1999-00/upper-deck-mvp-super-script/166-shandon-anderson-3183029
p3852
asg17
g18
sg19
(lp3853
Vhttp://img.beckett.com/images/no-image.jpg
p3854
asg22
V#166
p3855
sg24
V1999-00
p3856
sg26
g27
sg28
(lp3857
VShandon Anderson
p3858
assbag1
(g2
g3
Ntp3859
Rp3860
(dp3861
g7
(dp3862
g9
V1999-00 Upper Deck Ovation Standing Ovation #55 Karl Malone
p3863
sg11
I50
sg12
VUpper Deck Ovation Standing Ovation
p3864
sg14
(lp3865
Vhttp://www.beckett.com/basketball/1999-00/upper-deck-ovation-standing-ovation/55-karl-malone-3181188
p3866
asg17
g18
sg19
(lp3867
Vhttp://img.beckett.com/images/no-image.jpg
p3868
asg22
V#55
p3869
sg24
V1999-00
p3870
sg26
g27
sg28
(lp3871
VKarl Malone
p3872
assbag1
(g2
g3
Ntp3873
Rp3874
(dp3875
g7
(dp3876
g9
V1999-00 Upper Deck Ovation Standing Ovation #56 John Stockton
p3877
sg11
I50
sg12
VUpper Deck Ovation Standing Ovation
p3878
sg14
(lp3879
Vhttp://www.beckett.com/basketball/1999-00/upper-deck-ovation-standing-ovation/56-john-stockton-3181189
p3880
asg17
g18
sg19
(lp3881
Vhttp://img.beckett.com/images/no-image.jpg
p3882
asg22
V#56
p3883
sg24
V1999-00
p3884
sg26
g27
sg28
(lp3885
VJohn Stockton
p3886
assbag1
(g2
g3
Ntp3887
Rp3888
(dp3889
g7
(dp3890
g9
V1999-00 Upper Deck Ovation Standing Ovation #79 Quincy Lewis
p3891
sg11
I50
sg12
VUpper Deck Ovation Standing Ovation
p3892
sg14
(lp3893
Vhttp://www.beckett.com/basketball/1999-00/upper-deck-ovation-standing-ovation/79-quincy-lewis-3181212
p3894
asg17
g18
sg19
(lp3895
Vhttp://img.beckett.com/images/no-image.jpg
p3896
asg22
V#79
p3897
sg24
V1999-00
p3898
sg26
g27
sg28
(lp3899
VQuincy Lewis
p3900
assbag1
(g2
g3
Ntp3901
Rp3902
(dp3903
g7
(dp3904
g9
V1999-00 Upper Deck Ovation Standing Ovation #87 Scott Padgett
p3905
sg11
I50
sg12
VUpper Deck Ovation Standing Ovation
p3906
sg14
(lp3907
Vhttp://www.beckett.com/basketball/1999-00/upper-deck-ovation-standing-ovation/87-scott-padgett-3181220
p3908
asg17
g18
sg19
(lp3909
Vhttp://img.beckett.com/images/no-image.jpg
p3910
asg22
V#87
p3911
sg24
V1999-00
p3912
sg26
g27
sg28
(lp3913
VScott Padgett
p3914
assbag1
(g2
g3
Ntp3915
Rp3916
(dp3917
g7
(dp3918
g9
V1999-00 Upper Deck Retro Gold #10 Karl Malone
p3919
sg11
I250
sg12
VUpper Deck Retro Gold
p3920
sg14
(lp3921
Vhttp://www.beckett.com/basketball/1999-00/upper-deck-retro-gold/10-karl-malone-3181517
p3922
asg17
g18
sg19
(lp3923
Vhttp://img.beckett.com/images/no-image.jpg
p3924
asg22
V#10
p3925
sg24
V1999-00
p3926
sg26
g27
sg28
(lp3927
VKarl Malone
p3928
assbag1
(g2
g3
Ntp3929
Rp3930
(dp3931
g7
(dp3932
g9
V1999-00 Upper Deck Retro Gold #69 John Stockton
p3933
sg11
I250
sg12
VUpper Deck Retro Gold
p3934
sg14
(lp3935
Vhttp://www.beckett.com/basketball/1999-00/upper-deck-retro-gold/69-john-stockton-3181576
p3936
asg17
g18
sg19
(lp3937
Vhttp://img.beckett.com/images/no-image.jpg
p3938
asg22
V#69
p3939
sg24
V1999-00
p3940
sg26
g27
sg28
(lp3941
VJohn Stockton
p3942
assbag1
(g2
g3
Ntp3943
Rp3944
(dp3945
g7
(dp3946
g9
V1999-00 Upper Deck Retro Platinum #10 Karl Malone
p3947
sg11
I1
sg12
VUpper Deck Retro Platinum
p3948
sg14
(lp3949
Vhttp://www.beckett.com/basketball/1999-00/upper-deck-retro-platinum/10-karl-malone-3181632
p3950
asg17
g18
sg19
(lp3951
Vhttp://img.beckett.com/images/no-image.jpg
p3952
asg22
V#10
p3953
sg24
V1999-00
p3954
sg26
g27
sg28
(lp3955
VKarl Malone
p3956
assbag1
(g2
g3
Ntp3957
Rp3958
(dp3959
g7
(dp3960
g9
V1999-00 Upper Deck Retro Platinum #69 John Stockton
p3961
sg11
I1
sg12
VUpper Deck Retro Platinum
p3962
sg14
(lp3963
Vhttp://www.beckett.com/basketball/1999-00/upper-deck-retro-platinum/69-john-stockton-3181691
p3964
asg17
g18
sg19
(lp3965
Vhttp://img.beckett.com/images/no-image.jpg
p3966
asg22
V#69
p3967
sg24
V1999-00
p3968
sg26
g27
sg28
(lp3969
VJohn Stockton
p3970
assbag1
(g2
g3
Ntp3971
Rp3972
(dp3973
g7
(dp3974
g9
V1999-00 E-X E-Xplosive #XP10 Quincy Lewis
p3975
sg11
I1900
sg12
VE-X E-Xplosive
p3976
sg14
(lp3977
Vhttp://www.beckett.com/basketball/1999-00/e-x-e-xplosive/xp10-quincy-lewis-3203279
p3978
asg17
g18
sg19
(lp3979
Vhttp://img.beckett.com/images/items_stock/185226/3203252/3203279/front.jpg
p3980
asg22
V#XP10
p3981
sg24
V1999-00
p3982
sg26
g27
sg28
(lp3983
VQuincy Lewis
p3984
assbag1
(g2
g3
Ntp3985
Rp3986
(dp3987
g7
(dp3988
g9
V1999-00 E-X E-Xplosive #XP10A Quincy Lewis AU
p3989
sg11
I99
sg12
VE-X E-Xplosive
p3990
sg14
(lp3991
Vhttp://www.beckett.com/basketball/1999-00/e-x-e-xplosive/xp10a-quincy-lewis-au-3203280
p3992
asg17
g18
sg19
(lp3993
Vhttp://img.beckett.com/images/no-image.jpg
p3994
asg22
V#XP10A
p3995
sg270
I1
sg24
V1999-00
p3996
sg26
g27
sg28
(lp3997
VQuincy Lewis
p3998
assbag1
(g2
g3
Ntp3999
Rp4000
(dp4001
g7
(dp4002
g9
V1999-00 Finest Team Finest Blue #TF8 Karl Malone
p4003
sg11
I1500
sg12
VFinest Team Finest Blue
p4004
sg14
(lp4005
Vhttp://www.beckett.com/basketball/1999-00/finest-team-finest-blue/tf8-karl-malone-3202605
p4006
asg17
g18
sg19
(lp4007
Vhttp://img.beckett.com/images/items_stock/185226/3202568/3202605/front.jpg
p4008
asg22
V#TF8
p4009
sg24
V1999-00
p4010
sg26
g27
sg28
(lp4011
VKarl Malone
p4012
assbag1
(g2
g3
Ntp4013
Rp4014
(dp4015
g7
(dp4016
g9
V1999-00 Flair Showcase Rookie Showcase Firsts #28 Quincy Lewis
p4017
sg11
I500
sg12
VFlair Showcase Rookie Showcase Firsts
p4018
sg14
(lp4019
Vhttp://www.beckett.com/basketball/1999-00/flair-showcase-rookie-showcase-firsts/28-quincy-lewis-3201030
p4020
asg17
g18
sg19
(lp4021
Vhttp://img.beckett.com/images/items_stock/185226/3200996/3201030/front.jpg
p4022
asg22
V#28
p4023
sg24
V1999-00
p4024
sg26
g27
sg28
(lp4025
VQuincy Lewis
p4026
assbag1
(g2
g3
Ntp4027
Rp4028
(dp4029
g7
(dp4030
g9
V1999-00 Flair Showcase Rookie Showcase Firsts #29 Scott Padgett
p4031
sg11
I500
sg12
VFlair Showcase Rookie Showcase Firsts
p4032
sg14
(lp4033
Vhttp://www.beckett.com/basketball/1999-00/flair-showcase-rookie-showcase-firsts/29-scott-padgett-3201031
p4034
asg17
g18
sg19
(lp4035
Vhttp://img.beckett.com/images/items_stock/185226/3200996/3201031/front.jpg
p4036
asg22
V#29
p4037
sg24
V1999-00
p4038
sg26
g27
sg28
(lp4039
VScott Padgett
p4040
assbag1
(g2
g3
Ntp4041
Rp4042
(dp4043
g7
(dp4044
g9
V1999-00 SPx Winning Materials #WM2A Karl Malone AU/32
p4045
sg11
I32
sg12
VSPx Winning Materials
p4046
sg14
(lp4047
Vhttp://www.beckett.com/basketball/1999-00/spx-winning-materials/wm2a-karl-malone-au32-3193601
p4048
asg17
g18
sS'memorabilia'
p4049
I1
sg19
(lp4050
Vhttp://img.beckett.com/images/no-image.jpg
p4051
asg22
V#WM2A
p4052
sg270
I1
sg24
V1999-00
p4053
sg26
g27
sg28
(lp4054
VKarl Malone
p4055
assbag1
(g2
g3
Ntp4056
Rp4057
(dp4058
g7
(dp4059
g9
V1999-00 Upper Deck Game Jerseys #GJ20A Karl Malone AU/32
p4060
sg11
I32
sg12
VUpper Deck Game Jerseys
p4061
sg14
(lp4062
Vhttp://www.beckett.com/basketball/1999-00/upper-deck-game-jerseys/gj20a-karl-malone-au32-3184998
p4063
asg17
g18
sg4049
I1
sg19
(lp4064
Vhttp://img.beckett.com/images/no-image.jpg
p4065
asg22
V#GJ20A
p4066
sg270
I1
sg24
V1999-00
p4067
sg26
g27
sg28
(lp4068
VKarl Malone
p4069
assbag1
(g2
g3
Ntp4070
Rp4071
(dp4072
g7
(dp4073
g9
V1999-00 Upper Deck Game Jerseys #GJ56A Karl Malone AU/32
p4074
sg11
I32
sg12
VUpper Deck Game Jerseys
p4075
sg14
(lp4076
Vhttp://www.beckett.com/basketball/1999-00/upper-deck-game-jerseys/gj56a-karl-malone-au32-3185038
p4077
asg17
g18
sg4049
I1
sg19
(lp4078
Vhttp://img.beckett.com/images/no-image.jpg
p4079
asg22
V#GJ56A
p4080
sg270
I1
sg24
V1999-00
p4081
sg26
g27
sg28
(lp4082
VKarl Malone
p4083
assbag1
(g2
g3
Ntp4084
Rp4085
(dp4086
g7
(dp4087
g9
V1999-00 Upper Deck HoloGrFX NBA Shoetime #KMA Karl Malone AU/32
p4088
sg11
I32
sg12
VUpper Deck HoloGrFX NBA Shoetime
p4089
sg14
(lp4090
Vhttp://www.beckett.com/basketball/1999-00/upper-deck-hologrfx-nba-shoetime/kma-karl-malone-au32-3182118
p4091
asg17
g18
sg4049
I1
sg19
(lp4092
Vhttp://img.beckett.com/images/no-image.jpg
p4093
asg22
V#KMA
p4094
sg270
I1
sg24
V1999-00
p4095
sg26
g27
sg28
(lp4096
VKarl Malone
p4097
assbag1
(g2
g3
Ntp4098
Rp4099
(dp4100
g7
(dp4101
g9
V1999-00 Upper Deck MVP Game-Used Souvenirs #KMA Karl Malone AU/32
p4102
sg11
I32
sg12
VUpper Deck MVP Game-Used Souvenirs
p4103
sg14
(lp4104
Vhttp://www.beckett.com/basketball/1999-00/upper-deck-mvp-game-used-souvenirs/kma-karl-malone-au32-3183153
p4105
asg17
g18
sg4049
I1
sg19
(lp4106
Vhttp://img.beckett.com/images/no-image.jpg
p4107
asg22
V#KMA
p4108
sg270
I1
sg24
V1999-00
p4109
sg26
g27
sg28
(lp4110
VKarl Malone
p4111
assbag1
(g2
g3
Ntp4112
Rp4113
(dp4114
g7
(dp4115
g9
V1999-00 Black Diamond A Piece of History Triple #JS John Stockton H/R
p4116
sg11
I25
sg12
VBlack Diamond A Piece of History Triple
p4117
sg14
(lp4118
Vhttp://www.beckett.com/basketball/1999-00/black-diamond-a-piece-of-history-triple/js-john-stockton-hr-3205883
p4119
asg17
g18
sg4049
I1
sg19
(lp4120
Vhttp://img.beckett.com/images/no-image.jpg
p4121
asg22
V#JS
p4122
sg24
V1999-00
p4123
sg26
g27
sg28
(lp4124
VJohn Stockton
p4125
assbag1
(g2
g3
Ntp4126
Rp4127
(dp4128
g7
(dp4129
g9
V1999-00 Black Diamond A Piece of History Triple #KM Karl Malone H
p4130
sg11
I25
sg12
VBlack Diamond A Piece of History Triple
p4131
sg14
(lp4132
Vhttp://www.beckett.com/basketball/1999-00/black-diamond-a-piece-of-history-triple/km-karl-malone-h-3205887
p4133
asg17
g18
sg4049
I1
sg19
(lp4134
Vhttp://img.beckett.com/images/no-image.jpg
p4135
asg22
V#KM
p4136
sg24
V1999-00
p4137
sg26
g27
sg28
(lp4138
VKarl Malone
p4139
assbag1
(g2
g3
Ntp4140
Rp4141
(dp4142
g7
(dp4143
g9
V1999-00 E-X Essential Credentials Future #49 Karl Malone/12
p4144
sg11
I12
sg12
VE-X Essential Credentials Future
p4145
sg14
(lp4146
Vhttp://www.beckett.com/basketball/1999-00/e-x-essential-credentials-future/49-karl-malone12-3205210
p4147
asg17
g18
sg19
(lp4148
Vhttp://img.beckett.com/images/no-image.jpg
p4149
asg22
V#49
p4150
sg24
V1999-00
p4151
sg26
g27
sg28
(lp4152
VKarl Malone
p4153
assbag1
(g2
g3
Ntp4154
Rp4155
(dp4156
g7
(dp4157
g9
V1999-00 E-X Essential Credentials Future #71 Scott Padgett/20
p4158
sg11
I20
sg12
VE-X Essential Credentials Future
p4159
sg14
(lp4160
Vhttp://www.beckett.com/basketball/1999-00/e-x-essential-credentials-future/71-scott-padgett20-3205232
p4161
asg17
g18
sg19
(lp4162
Vhttp://img.beckett.com/images/no-image.jpg
p4163
asg22
V#71
p4164
sg24
V1999-00
p4165
sg26
g27
sg28
(lp4166
VScott Padgett
p4167
assbag1
(g2
g3
Ntp4168
Rp4169
(dp4170
g7
(dp4171
g9
V1999-00 E-X Essential Credentials Future #78 Quincy Lewis/13
p4172
sg11
I13
sg12
VE-X Essential Credentials Future
p4173
sg14
(lp4174
Vhttp://www.beckett.com/basketball/1999-00/e-x-essential-credentials-future/78-quincy-lewis13-3205239
p4175
asg17
g18
sg19
(lp4176
Vhttp://img.beckett.com/images/no-image.jpg
p4177
asg22
V#78
p4178
sg24
V1999-00
p4179
sg26
g27
sg28
(lp4180
VQuincy Lewis
p4181
assbag1
(g2
g3
Ntp4182
Rp4183
(dp4184
g7
(dp4185
g9
V1999-00 E-X Essential Credentials Now #49 Karl Malone/49
p4186
sg11
I49
sg12
VE-X Essential Credentials Now
p4187
sg14
(lp4188
Vhttp://www.beckett.com/basketball/1999-00/e-x-essential-credentials-now/49-karl-malone49-3205307
p4189
asg17
g18
sg19
(lp4190
Vhttp://img.beckett.com/images/no-image.jpg
p4191
asg22
V#49
p4192
sg24
V1999-00
p4193
sg26
g27
sg28
(lp4194
VKarl Malone
p4195
assbag1
(g2
g3
Ntp4196
Rp4197
(dp4198
g7
(dp4199
g9
V1999-00 E-X Essential Credentials Now #71 Scott Padgett/11
p4200
sg11
I11
sg12
VE-X Essential Credentials Now
p4201
sg14
(lp4202
Vhttp://www.beckett.com/basketball/1999-00/e-x-essential-credentials-now/71-scott-padgett11-3205329
p4203
asg17
g18
sg19
(lp4204
Vhttp://img.beckett.com/images/items_stock/185226/3205252/3205329/front.jpg
p4205
asg22
V#71
p4206
sg24
V1999-00
p4207
sg26
g27
sg28
(lp4208
VScott Padgett
p4209
assbag1
(g2
g3
Ntp4210
Rp4211
(dp4212
g7
(dp4213
g9
V1999-00 E-X Essential Credentials Now #78 Quincy Lewis/18
p4214
sg11
I18
sg12
VE-X Essential Credentials Now
p4215
sg14
(lp4216
Vhttp://www.beckett.com/basketball/1999-00/e-x-essential-credentials-now/78-quincy-lewis18-3205336
p4217
asg17
g18
sg19
(lp4218
Vhttp://img.beckett.com/images/items_stock/185226/3205252/3205336/front.jpg
p4219
asg22
V#78
p4220
sg24
V1999-00
p4221
sg26
g27
sg28
(lp4222
VQuincy Lewis
p4223
assbag1
(g2
g3
Ntp4224
Rp4225
(dp4226
g7
(dp4227
g9
V1999-00 Finest Team Finest Blue Refractors #TF8 Karl Malone
p4228
sg11
I150
sg12
VFinest Team Finest Blue Refractors
p4229
sg14
(lp4230
Vhttp://www.beckett.com/basketball/1999-00/finest-team-finest-blue-refractors/tf8-karl-malone-3202636
p4231
asg17
g18
sg19
(lp4232
Vhttp://img.beckett.com/images/no-image.jpg
p4233
asg22
V#TF8
p4234
sg24
V1999-00
p4235
sg26
g27
sg28
(lp4236
VKarl Malone
p4237
assbag1
(g2
g3
Ntp4238
Rp4239
(dp4240
g7
(dp4241
g9
V1999-00 Finest Team Finest Gold #TF8 Karl Malone
p4242
sg11
I250
sg12
VFinest Team Finest Gold
p4243
sg14
(lp4244
Vhttp://www.beckett.com/basketball/1999-00/finest-team-finest-gold/tf8-karl-malone-3202667
p4245
asg17
g18
sg19
(lp4246
Vhttp://img.beckett.com/images/items_stock/185226/3202649/3202667/front.jpg
p4247
asg22
V#TF8
p4248
sg24
V1999-00
p4249
sg26
g27
sg28
(lp4250
VKarl Malone
p4251
assbag1
(g2
g3
Ntp4252
Rp4253
(dp4254
g7
(dp4255
g9
V1999-00 Finest Team Finest Gold Refractors #TF8 Karl Malone
p4256
sg11
I25
sg12
VFinest Team Finest Gold Refractors
p4257
sg14
(lp4258
Vhttp://www.beckett.com/basketball/1999-00/finest-team-finest-gold-refractors/tf8-karl-malone-3202698
p4259
asg17
g18
sg19
(lp4260
Vhttp://img.beckett.com/images/no-image.jpg
p4261
asg22
V#TF8
p4262
sg24
V1999-00
p4263
sg26
g27
sg28
(lp4264
VKarl Malone
p4265
assbag1
(g2
g3
Ntp4266
Rp4267
(dp4268
g7
(dp4269
g9
V1999-00 Finest Team Finest Red #TF8 Karl Malone
p4270
sg11
I500
sg12
VFinest Team Finest Red
p4271
sg14
(lp4272
Vhttp://www.beckett.com/basketball/1999-00/finest-team-finest-red/tf8-karl-malone-3202729
p4273
asg17
g18
sg19
(lp4274
Vhttp://img.beckett.com/images/items_stock/185226/3202711/3202729/front.jpg
p4275
asg22
V#TF8
p4276
sg24
V1999-00
p4277
sg26
g27
sg28
(lp4278
VKarl Malone
p4279
assbag1
(g2
g3
Ntp4280
Rp4281
(dp4282
g7
(dp4283
g9
V1999-00 Finest Team Finest Red Refractors #TF8 Karl Malone
p4284
sg11
I50
sg12
VFinest Team Finest Red Refractors
p4285
sg14
(lp4286
Vhttp://www.beckett.com/basketball/1999-00/finest-team-finest-red-refractors/tf8-karl-malone-3202760
p4287
asg17
g18
sg19
(lp4288
Vhttp://img.beckett.com/images/no-image.jpg
p4289
asg22
V#TF8
p4290
sg24
V1999-00
p4291
sg26
g27
sg28
(lp4292
VKarl Malone
p4293
assbag1
(g2
g3
Ntp4294
Rp4295
(dp4296
g7
(dp4297
g9
V1999-00 SkyBox Premium Autographics Blue #58 Adam Keefe
p4298
sg11
I50
sg12
VSkyBox Premium Autographics Blue
p4299
sg14
(lp4300
Vhttp://www.beckett.com/basketball/1999-00/skybox-premium-autographics-blue/58-adam-keefe-3195922
p4301
asg17
g18
sg19
(lp4302
Vhttp://img.beckett.com/images/no-image.jpg
p4303
asg22
V#58
p4304
sg270
I1
sg24
V1999-00
p4305
sg26
g27
sg28
(lp4306
VAdam Keefe
p4307
assbag1
(g2
g3
Ntp4308
Rp4309
(dp4310
g7
(dp4311
g9
V1999-00 SkyBox Premium Autographics Blue #63 Quincy Lewis
p4312
sg11
I50
sg12
VSkyBox Premium Autographics Blue
p4313
sg14
(lp4314
Vhttp://www.beckett.com/basketball/1999-00/skybox-premium-autographics-blue/63-quincy-lewis-3195927
p4315
asg17
g18
sg19
(lp4316
Vhttp://img.beckett.com/images/no-image.jpg
p4317
asg22
V#63
p4318
sg270
I1
sg24
V1999-00
p4319
sg26
g27
sg28
(lp4320
VQuincy Lewis
p4321
assbag1
(g2
g3
Ntp4322
Rp4323
(dp4324
g7
(dp4325
g9
V1999-00 SP Authentic Sign of the Times Gold #KM Karl Malone
p4326
sg11
I25
sg12
VSP Authentic Sign of the Times Gold
p4327
sg14
(lp4328
Vhttp://www.beckett.com/basketball/1999-00/sp-authentic-sign-of-the-times-gold/km-karl-malone-3193026
p4329
asg17
g18
sg19
(lp4330
Vhttp://img.beckett.com/images/no-image.jpg
p4331
asg22
V#KM
p4332
sg270
I1
sg24
V1999-00
p4333
sg26
g27
sg28
(lp4334
VKarl Malone
p4335
assbag1
(g2
g3
Ntp4336
Rp4337
(dp4338
g7
(dp4339
g9
V1999-00 SP Authentic Sign of the Times Gold #QL Quincy Lewis
p4340
sg11
I25
sg12
VSP Authentic Sign of the Times Gold
p4341
sg14
(lp4342
Vhttp://www.beckett.com/basketball/1999-00/sp-authentic-sign-of-the-times-gold/ql-quincy-lewis-3193035
p4343
asg17
g18
sg19
(lp4344
Vhttp://img.beckett.com/images/no-image.jpg
p4345
asg22
V#QL
p4346
sg270
I1
sg24
V1999-00
p4347
sg26
g27
sg28
(lp4348
VQuincy Lewis
p4349
assbag1
(g2
g3
Ntp4350
Rp4351
(dp4352
g7
(dp4353
g9
V1999-00 Stadium Club Never Compromise Game-View #NCG21 Karl Malone
p4354
sg11
I100
sg12
VStadium Club Never Compromise Game-View
p4355
sg14
(lp4356
Vhttp://www.beckett.com/basketball/1999-00/stadium-club-never-compromise-game-view/ncg21-karl-malone-3192155
p4357
asg17
g18
sg19
(lp4358
Vhttp://img.beckett.com/images/no-image.jpg
p4359
asg22
V#NCG21
p4360
sg24
V1999-00
p4361
sg26
g27
sg28
(lp4362
VKarl Malone
p4363
assbag1
(g2
g3
Ntp4364
Rp4365
(dp4366
g7
(dp4367
g9
V1999-00 Stadium Club Never Compromise Game-View #NCG24 John Stockton
p4368
sg11
I100
sg12
VStadium Club Never Compromise Game-View
p4369
sg14
(lp4370
Vhttp://www.beckett.com/basketball/1999-00/stadium-club-never-compromise-game-view/ncg24-john-stockton-3192158
p4371
asg17
g18
sg19
(lp4372
Vhttp://img.beckett.com/images/no-image.jpg
p4373
asg22
V#NCG24
p4374
sg24
V1999-00
p4375
sg26
g27
sg28
(lp4376
VJohn Stockton
p4377
assbag1
(g2
g3
Ntp4378
Rp4379
(dp4380
g7
(dp4381
g9
V1999-00 Topps Gold Label Prime Gold One to One #PG1 John Stockton
p4382
sg11
I1
sg12
VTopps Gold Label Prime Gold One to One
p4383
sg14
(lp4384
Vhttp://www.beckett.com/basketball/1999-00/topps-gold-label-prime-gold-one-to-one/pg1-john-stockton-3187668
p4385
asg17
g18
sg19
(lp4386
Vhttp://img.beckett.com/images/no-image.jpg
p4387
asg22
V#PG1
p4388
sg24
V1999-00
p4389
sg26
g27
sg28
(lp4390
VJohn Stockton
p4391
assbag1
(g2
g3
Ntp4392
Rp4393
(dp4394
g7
(dp4395
g9
V1999-00 Topps Gold Label Prime Gold One to One #PG10 Karl Malone
p4396
sg11
I1
sg12
VTopps Gold Label Prime Gold One to One
p4397
sg14
(lp4398
Vhttp://www.beckett.com/basketball/1999-00/topps-gold-label-prime-gold-one-to-one/pg10-karl-malone-3187677
p4399
asg17
g18
sg19
(lp4400
Vhttp://img.beckett.com/images/no-image.jpg
p4401
asg22
V#PG10
p4402
sg24
V1999-00
p4403
sg26
g27
sg28
(lp4404
VKarl Malone
p4405
assbag1
(g2
g3
Ntp4406
Rp4407
(dp4408
g7
(dp4409
g9
V1999-00 Topps Gold Label Prime Gold Red Label #PG1 John Stockton
p4410
sg11
I25
sg12
VTopps Gold Label Prime Gold Red Label
p4411
sg14
(lp4412
Vhttp://www.beckett.com/basketball/1999-00/topps-gold-label-prime-gold-red-label/pg1-john-stockton-3187687
p4413
asg17
g18
sg19
(lp4414
Vhttp://img.beckett.com/images/no-image.jpg
p4415
asg22
V#PG1
p4416
sg24
V1999-00
p4417
sg26
g27
sg28
(lp4418
VJohn Stockton
p4419
assbag1
(g2
g3
Ntp4420
Rp4421
(dp4422
g7
(dp4423
g9
V1999-00 Topps Gold Label Prime Gold Red Label #PG10 Karl Malone
p4424
sg11
I25
sg12
VTopps Gold Label Prime Gold Red Label
p4425
sg14
(lp4426
Vhttp://www.beckett.com/basketball/1999-00/topps-gold-label-prime-gold-red-label/pg10-karl-malone-3187696
p4427
asg17
g18
sg19
(lp4428
Vhttp://img.beckett.com/images/no-image.jpg
p4429
asg22
V#PG10
p4430
sg24
V1999-00
p4431
sg26
g27
sg28
(lp4432
VKarl Malone
p4433
assbag1
(g2
g3
Ntp4434
Rp4435
(dp4436
g7
(dp4437
g9
V1999-00 Upper Deck BioGraphics Level 1 #B22 Karl Malone
p4438
sg11
I100
sg12
VUpper Deck BioGraphics Level 1
p4439
sg14
(lp4440
Vhttp://www.beckett.com/basketball/1999-00/upper-deck-biographics-level-1/b22-karl-malone-3187328
p4441
asg17
g18
sg19
(lp4442
Vhttp://img.beckett.com/images/no-image.jpg
p4443
asg22
V#B22
p4444
sg24
V1999-00
p4445
sg26
g27
sg28
(lp4446
VKarl Malone
p4447
assbag1
(g2
g3
Ntp4448
Rp4449
(dp4450
g7
(dp4451
g9
V1999-00 Upper Deck BioGraphics Level 1 #B27 John Stockton
p4452
sg11
I100
sg12
VUpper Deck BioGraphics Level 1
p4453
sg14
(lp4454
Vhttp://www.beckett.com/basketball/1999-00/upper-deck-biographics-level-1/b27-john-stockton-3187333
p4455
asg17
g18
sg19
(lp4456
Vhttp://img.beckett.com/images/no-image.jpg
p4457
asg22
V#B27
p4458
sg24
V1999-00
p4459
sg26
g27
sg28
(lp4460
VJohn Stockton
p4461
assbag1
(g2
g3
Ntp4462
Rp4463
(dp4464
g7
(dp4465
g9
V1999-00 Upper Deck BioGraphics Level 2 #B22 Karl Malone
p4466
sg11
I25
sg12
VUpper Deck BioGraphics Level 2
p4467
sg14
(lp4468
Vhttp://www.beckett.com/basketball/1999-00/upper-deck-biographics-level-2/b22-karl-malone-3187366
p4469
asg17
g18
sg19
(lp4470
Vhttp://img.beckett.com/images/no-image.jpg
p4471
asg22
V#B22
p4472
sg24
V1999-00
p4473
sg26
g27
sg28
(lp4474
VKarl Malone
p4475
assbag1
(g2
g3
Ntp4476
Rp4477
(dp4478
g7
(dp4479
g9
V1999-00 Upper Deck BioGraphics Level 2 #B27 John Stockton
p4480
sg11
I25
sg12
VUpper Deck BioGraphics Level 2
p4481
sg14
(lp4482
Vhttp://www.beckett.com/basketball/1999-00/upper-deck-biographics-level-2/b27-john-stockton-3187371
p4483
asg17
g18
sg19
(lp4484
Vhttp://img.beckett.com/images/no-image.jpg
p4485
asg22
V#B27
p4486
sg24
V1999-00
p4487
sg26
g27
sg28
(lp4488
VJohn Stockton
p4489
assbag1
(g2
g3
Ntp4490
Rp4491
(dp4492
g7
(dp4493
g9
V1999-00 Upper Deck Future Charge Level 1 #FC14 Quincy Lewis
p4494
sg11
I100
sg12
VUpper Deck Future Charge Level 1
p4495
sg14
(lp4496
Vhttp://www.beckett.com/basketball/1999-00/upper-deck-future-charge-level-1/fc14-quincy-lewis-3184930
p4497
asg17
g18
sg19
(lp4498
Vhttp://img.beckett.com/images/no-image.jpg
p4499
asg22
V#FC14
p4500
sg24
V1999-00
p4501
sg26
g27
sg28
(lp4502
VQuincy Lewis
p4503
assbag1
(g2
g3
Ntp4504
Rp4505
(dp4506
g7
(dp4507
g9
V1999-00 Upper Deck Future Charge Level 2 #FC14 Quincy Lewis
p4508
sg11
I25
sg12
VUpper Deck Future Charge Level 2
p4509
sg14
(lp4510
Vhttp://www.beckett.com/basketball/1999-00/upper-deck-future-charge-level-2/fc14-quincy-lewis-3184953
p4511
asg17
g18
sg19
(lp4512
Vhttp://img.beckett.com/images/no-image.jpg
p4513
asg22
V#FC14
p4514
sg24
V1999-00
p4515
sg26
g27
sg28
(lp4516
VQuincy Lewis
p4517
assbag1
(g2
g3
Ntp4518
Rp4519
(dp4520
g7
(dp4521
g9
V1999-00 Upper Deck Jamboree Level 1 #J2 Karl Malone
p4522
sg11
I100
sg12
VUpper Deck Jamboree Level 1
p4523
sg14
(lp4524
Vhttp://www.beckett.com/basketball/1999-00/upper-deck-jamboree-level-1/j2-karl-malone-3185362
p4525
asg17
g18
sg19
(lp4526
Vhttp://img.beckett.com/images/no-image.jpg
p4527
asg22
V#J2
p4528
sg24
V1999-00
p4529
sg26
g27
sg28
(lp4530
VKarl Malone
p4531
assbag1
(g2
g3
Ntp4532
Rp4533
(dp4534
g7
(dp4535
g9
V1999-00 Upper Deck Jamboree Level 2 #J2 Karl Malone
p4536
sg11
I25
sg12
VUpper Deck Jamboree Level 2
p4537
sg14
(lp4538
Vhttp://www.beckett.com/basketball/1999-00/upper-deck-jamboree-level-2/j2-karl-malone-3185385
p4539
asg17
g18
sg19
(lp4540
Vhttp://img.beckett.com/images/no-image.jpg
p4541
asg22
V#J2
p4542
sg24
V1999-00
p4543
sg26
g27
sg28
(lp4544
VKarl Malone
p4545
assbag1
(g2
g3
Ntp4546
Rp4547
(dp4548
g7
(dp4549
g9
V1999-00 Upper Deck Now Showing Level 1 #NS27 Karl Malone
p4550
sg11
I100
sg12
VUpper Deck Now Showing Level 1
p4551
sg14
(lp4552
Vhttp://www.beckett.com/basketball/1999-00/upper-deck-now-showing-level-1/ns27-karl-malone-3184296
p4553
asg17
g18
sg19
(lp4554
Vhttp://img.beckett.com/images/no-image.jpg
p4555
asg22
V#NS27
p4556
sg24
V1999-00
p4557
sg26
g27
sg28
(lp4558
VKarl Malone
p4559
assbag1
(g2
g3
Ntp4560
Rp4561
(dp4562
g7
(dp4563
g9
V1999-00 Upper Deck Now Showing Level 2 #NS27 Karl Malone
p4564
sg11
I25
sg12
VUpper Deck Now Showing Level 2
p4565
sg14
(lp4566
Vhttp://www.beckett.com/basketball/1999-00/upper-deck-now-showing-level-2/ns27-karl-malone-3184334
p4567
asg17
g18
sg19
(lp4568
Vhttp://img.beckett.com/images/no-image.jpg
p4569
asg22
V#NS27
p4570
sg24
V1999-00
p4571
sg26
g27
sg28
(lp4572
VKarl Malone
p4573
assbag1
(g2
g3
Ntp4574
Rp4575
(dp4576
g7
(dp4577
g9
V1999-00 Upper Deck Star Surge Level 1 #S5 Karl Malone
p4578
sg11
I100
sg12
VUpper Deck Star Surge Level 1
p4579
sg14
(lp4580
Vhttp://www.beckett.com/basketball/1999-00/upper-deck-star-surge-level-1/s5-karl-malone-3184476
p4581
asg17
g18
sg19
(lp4582
Vhttp://img.beckett.com/images/items_stock/185226/3184464/3184476/front.jpg
p4583
asg22
V#S5
p4584
sg24
V1999-00
p4585
sg26
g27
sg28
(lp4586
VKarl Malone
p4587
assbag1
(g2
g3
Ntp4588
Rp4589
(dp4590
g7
(dp4591
g9
V1999-00 Upper Deck Star Surge Level 1 #S14 John Stockton
p4592
sg11
I100
sg12
VUpper Deck Star Surge Level 1
p4593
sg14
(lp4594
Vhttp://www.beckett.com/basketball/1999-00/upper-deck-star-surge-level-1/s14-john-stockton-3184485
p4595
asg17
g18
sg19
(lp4596
Vhttp://img.beckett.com/images/no-image.jpg
p4597
asg22
V#S14
p4598
sg24
V1999-00
p4599
sg26
g27
sg28
(lp4600
VJohn Stockton
p4601
assbag1
(g2
g3
Ntp4602
Rp4603
(dp4604
g7
(dp4605
g9
V1999-00 Upper Deck Star Surge Level 2 #S5 Karl Malone
p4606
sg11
I25
sg12
VUpper Deck Star Surge Level 2
p4607
sg14
(lp4608
Vhttp://www.beckett.com/basketball/1999-00/upper-deck-star-surge-level-2/s5-karl-malone-3184499
p4609
asg17
g18
sg19
(lp4610
Vhttp://img.beckett.com/images/no-image.jpg
p4611
asg22
V#S5
p4612
sg24
V1999-00
p4613
sg26
g27
sg28
(lp4614
VKarl Malone
p4615
assbag1
(g2
g3
Ntp4616
Rp4617
(dp4618
g7
(dp4619
g9
V1999-00 Upper Deck Star Surge Level 2 #S14 John Stockton
p4620
sg11
I25
sg12
VUpper Deck Star Surge Level 2
p4621
sg14
(lp4622
Vhttp://www.beckett.com/basketball/1999-00/upper-deck-star-surge-level-2/s14-john-stockton-3184508
p4623
asg17
g18
sg19
(lp4624
Vhttp://img.beckett.com/images/no-image.jpg
p4625
asg22
V#S14
p4626
sg24
V1999-00
p4627
sg26
g27
sg28
(lp4628
VJohn Stockton
p4629
assbag1
(g2
g3
Ntp4630
Rp4631
(dp4632
g7
(dp4633
g9
V1999-00 Upper Deck Encore Upper Realm F/X #UR7 Karl Malone
p4634
sg11
I150
sg12
VUpper Deck Encore Upper Realm F/X
p4635
sg14
(lp4636
Vhttp://www.beckett.com/basketball/1999-00/upper-deck-encore-upper-realm-fx/ur7-karl-malone-3183289
p4637
asg17
g18
sg19
(lp4638
Vhttp://img.beckett.com/images/no-image.jpg
p4639
asg22
V#UR7
p4640
sg24
V1999-00
p4641
sg26
g27
sg28
(lp4642
VKarl Malone
p4643
assbag1
(g2
g3
Ntp4644
Rp4645
(dp4646
g7
(dp4647
g9
V1999-00 Upper Deck Ovation A Piece of History Autographs #KMA Karl Malone/32
p4648
sg11
I32
sg12
VUpper Deck Ovation A Piece of History Autographs
p4649
sg14
(lp4650
Vhttp://www.beckett.com/basketball/1999-00/upper-deck-ovation-a-piece-of-history-autographs/kma-karl-malone32-3181253
p4651
asg17
g18
sg4049
I1
sg19
(lp4652
Vhttp://img.beckett.com/images/no-image.jpg
p4653
asg22
V#KMA
p4654
sg270
I1
sg24
V1999-00
p4655
sg26
g27
sg28
(lp4656
VKarl Malone
p4657
assba.